ccopy_reg
_reconstructor
p0
(cpredictor_subclasses
AveragedPerceptron
p1
c__builtin__
object
p2
Ntp3
Rp4
(dp5
S'learning_rate'
p6
F1.0
sS'w_avg'
p7
(dp8
I1
F-3326.0
sI2
F23474.0
sI3
F6446.0
sI4
F2179.0
sI5
F33929.0
sI6
F10798.0
sI7
F-28099.0
sI8
F-4963.0
sI9
F-47207.0
sI10
F-12279.0
sI11
F7297.0
sI12
F-24756.0
sI13
F-41607.0
sI14
F-9627.0
sI15
F-33578.0
sI16
F-23507.0
sI17
F-30312.0
sI18
F-16316.0
sI19
F-10945.0
sI20
F1182.0
sI21
F36441.0
sI22
F-35158.0
sI23
F-25728.0
sI24
F-16824.0
sI25
F-22308.0
sI26
F-26552.0
sI27
F-22853.0
sI28
F41184.0
sI29
F135538.0
sI30
F171870.0
sI31
F272604.0
sI32
F322923.0
sI33
F-133447.0
sI34
F-77548.0
sI35
F209024.0
sI36
F103097.0
sI37
F-60991.0
sI38
F5060.0
sI39
F1526.0
sI40
F-34907.0
sI41
F-48172.0
sI42
F6240.0
sI43
F-18951.0
sI44
F21581.0
sI45
F-48146.0
sI46
F25318.0
sI47
F37060.0
sI48
F-14663.0
sI49
F13482.0
sI50
F-5498.0
sI51
F-20565.0
sI52
F-40879.0
sI53
F-11741.0
sI54
F-28925.0
sI55
F-50269.0
sI56
F15519.0
sI57
F-6800.0
sI58
F-25904.0
sI59
F-27949.0
sI60
F-13768.0
sI61
F-47119.0
sI62
F-38086.0
sI63
F-4419.0
sI64
F-60584.0
sI65
F-19439.0
sI66
F-31761.0
sI67
F-751.0
sI68
F5030.0
sI69
F-8866.0
sI70
F-30341.0
sI71
F-15368.0
sI72
F29291.0
sI73
F11423.0
sI74
F-15926.0
sI75
F-40799.0
sI76
F-37539.0
sI77
F-34352.0
sI78
F-49032.0
sI79
F-6765.0
sI80
F-4512.0
sI81
F-28128.0
sI82
F5131.0
sI83
F106544.0
sI84
F-37059.0
sI85
F20530.0
sI86
F-15186.0
sI87
F-26135.0
sI88
F-5459.0
sI89
F-12115.0
sI90
F-19670.0
sI91
F1214.0
sI92
F6279.0
sI93
F-15564.0
sI94
F-766.0
sI95
F-44507.0
sI96
F-11294.0
sI97
F-13091.0
sI98
F-26204.0
sI99
F35629.0
sI100
F-27565.0
sI101
F-24404.0
sI102
F-21053.0
sI103
F4067.0
sI104
F5495.0
sI105
F-23075.0
sI106
F32836.0
sI107
F-30214.0
sI108
F6693.0
sI109
F22422.0
sI110
F13860.0
sI111
F-31890.0
sI112
F-56697.0
sI113
F-7419.0
sI114
F-12075.0
sI115
F-21999.0
sI116
F22321.0
sI117
F-33081.0
sI118
F-90802.0
sI119
F-78560.0
sI120
F-3759.0
sI121
F-16039.0
sI122
F-27286.0
sI123
F-49794.0
sI124
F-36060.0
sI125
F13561.0
sI126
F19903.0
sI127
F-5490.0
sI128
F-34524.0
sI129
F-27697.0
sI130
F-23261.0
sI131
F-25623.0
sI132
F38493.0
sI133
F-24848.0
sI134
F6521.0
sI135
F-40170.0
sI136
F-8474.0
sI137
F-15415.0
sI138
F-21174.0
sI139
F5871.0
sI140
F8493.0
sI141
F-28142.0
sI142
F-32848.0
sI143
F-14550.0
sI144
F-211.0
sI145
F146930.0
sI146
F-45242.0
sI147
F-13544.0
sI148
F-10042.0
sI149
F14448.0
sI150
F-53818.0
sI151
F-11296.0
sI152
F-46077.0
sI153
F-29914.0
sI154
F36996.0
sI155
F-45222.0
sI156
F-13013.0
sI157
F-17013.0
sI158
F-11472.0
sI159
F-15345.0
sI160
F-54353.0
sI161
F17514.0
sI162
F2652.0
sI163
F-38856.0
sI164
F-396.0
sI165
F3946.0
sI166
F11629.0
sI167
F-9193.0
sI168
F-9019.0
sI169
F-73993.0
sI170
F-75014.0
sI171
F-18431.0
sI172
F-31161.0
sI173
F-50260.0
sI174
F97.0
sI175
F-15763.0
sI176
F28179.0
sI177
F-65335.0
sI178
F-23117.0
sI179
F-1271.0
sI180
F-16221.0
sI181
F-11805.0
sI182
F-19127.0
sI183
F-28354.0
sI184
F21429.0
sI185
F33215.0
sI186
F-37826.0
sI187
F-16019.0
sI188
F7847.0
sI189
F-40212.0
sI190
F-14822.0
sI191
F289.0
sI192
F18350.0
sI193
F49168.0
sI194
F27013.0
sI195
F1223.0
sI196
F-8047.0
sI197
F-45971.0
sI198
F-19795.0
sI199
F13549.0
sI200
F-36192.0
sI201
F-12733.0
sI202
F-29388.0
sI203
F-34409.0
sI204
F-46756.0
sI205
F-3506.0
sI206
F-12713.0
sI207
F15636.0
sI208
F-40443.0
sI209
F-8993.0
sI210
F-25557.0
sI211
F-10172.0
sI212
F-21768.0
sI213
F-545.0
sI214
F-87983.0
sI215
F-61669.0
sI216
F11925.0
sI217
F-102612.0
sI218
F-19050.0
sI219
F-74372.0
sI220
F-42825.0
sI221
F-7048.0
sI222
F-37628.0
sI223
F-10716.0
sI224
F-69100.0
sI225
F-16818.0
sI226
F-26315.0
sI227
F35590.0
sI228
F9355.0
sI229
F-80624.0
sI230
F-20443.0
sI231
F-81816.0
sI232
F-72804.0
sI233
F-117064.0
sI234
F8539.0
sI235
F8539.0
sI236
F8539.0
sI237
F8539.0
sI238
F8539.0
sI239
F8539.0
sI240
F8539.0
sI241
F8539.0
sI242
F8539.0
sI243
F8539.0
sI244
F8539.0
sI245
F8539.0
sI246
F8539.0
sI247
F8539.0
sI248
F8539.0
sI249
F8539.0
sI250
F8539.0
sI251
F8539.0
sI252
F8539.0
sI253
F8539.0
sI254
F8539.0
sI255
F8539.0
sI256
F8539.0
sI257
F8539.0
sI258
F8539.0
sI259
F8539.0
sI260
F8539.0
sI261
F8539.0
sI262
F8539.0
sI263
F8539.0
sI264
F8539.0
sI265
F8539.0
sI266
F8539.0
sI267
F8539.0
sI268
F8539.0
sI269
F8539.0
sI270
F8539.0
sI271
F8539.0
sI272
F8539.0
sI273
F8539.0
sI274
F8539.0
sI275
F-76378.0
sI276
F-104943.0
sI277
F-118518.0
sI278
F-157226.0
sI279
F-115476.0
sI280
F-117037.0
sI281
F-97855.0
sI282
I0
sI283
I0
sI284
I0
ssS'w'
p9
g8
sS'iterations'
p10
I5
sb.