ccopy_reg
_reconstructor
p0
(cpredictor_subclasses
MarginPerceptron
p1
c__builtin__
object
p2
Ntp3
Rp4
(dp5
S'learning_rate'
p6
F1.0
sS'w'
p7
(dp8
I1
F0.0
sI2
F2.0
sI3
F2.0
sI4
F-2.0
sI5
F6.0
sI6
F-3.0
sI7
F-3.0
sI8
F-2.0
sI9
F-5.0
sI10
F-5.0
sI11
F-2.0
sI12
F-4.0
sI13
F-3.0
sI14
F1.0
sI15
F-6.0
sI16
F1.0
sI17
F-2.0
sI18
F0.0
sI19
F0.0
sI20
F2.0
sI21
F6.0
sI22
F-6.0
sI23
F-3.0
sI24
F-3.0
sI25
F-3.0
sI26
F-7.0
sI27
F-2.0
sI28
F6.0
sI29
F15.0
sI30
F22.0
sI31
F38.0
sI32
F42.0
sI33
F-14.0
sI34
F-12.0
sI35
F26.0
sI36
F13.0
sI37
F-3.0
sI38
F2.0
sI39
F-5.0
sI40
F-4.0
sI41
F-6.0
sI42
F2.0
sI43
F0.0
sI44
F-2.0
sI45
F-7.0
sI46
F1.0
sI47
F2.0
sI48
F-2.0
sI49
F1.0
sI50
F3.0
sI51
F-3.0
sI52
F-6.0
sI53
F0.0
sI54
F-7.0
sI55
F-5.0
sI56
F2.0
sI57
F-3.0
sI58
F-7.0
sI59
F-3.0
sI60
F1.0
sI61
F-9.0
sI62
F-7.0
sI63
F2.0
sI64
F-11.0
sI65
F-2.0
sI66
F-3.0
sI67
F0.0
sI68
F2.0
sI69
F-2.0
sI70
F-8.0
sI71
F0.0
sI72
F5.0
sI73
F-6.0
sI74
F-1.0
sI75
F-3.0
sI76
F-4.0
sI77
F-1.0
sI78
F-3.0
sI79
F-3.0
sI80
F0.0
sI81
F-3.0
sI82
F1.0
sI83
F12.0
sI84
F-3.0
sI85
F0.0
sI86
F-1.0
sI87
F0.0
sI88
F1.0
sI89
F-4.0
sI90
F-4.0
sI91
F1.0
sI92
F-3.0
sI93
F-6.0
sI94
F0.0
sI95
F-8.0
sI96
F1.0
sI97
F-4.0
sI98
F-7.0
sI99
F4.0
sI100
F0.0
sI101
F-4.0
sI102
F-6.0
sI103
F2.0
sI104
F-1.0
sI105
F0.0
sI106
F0.0
sI107
F-2.0
sI108
F0.0
sI109
F0.0
sI110
F2.0
sI111
F-4.0
sI112
F-7.0
sI113
F0.0
sI114
F0.0
sI115
F-2.0
sI116
F1.0
sI117
F-1.0
sI118
F-13.0
sI119
F-10.0
sI120
F-5.0
sI121
F-6.0
sI122
F-5.0
sI123
F-7.0
sI124
F-5.0
sI125
F0.0
sI126
F1.0
sI127
F-3.0
sI128
F-7.0
sI129
F-6.0
sI130
F1.0
sI131
F-2.0
sI132
F3.0
sI133
F-4.0
sI134
F1.0
sI135
F-8.0
sI136
F-5.0
sI137
F0.0
sI138
F-2.0
sI139
F-7.0
sI140
F-3.0
sI141
F-7.0
sI142
F-9.0
sI143
F-5.0
sI144
F1.0
sI145
F21.0
sI146
F-9.0
sI147
F-1.0
sI148
F-1.0
sI149
F-2.0
sI150
F-2.0
sI151
F-1.0
sI152
F-6.0
sI153
F1.0
sI154
F9.0
sI155
F-7.0
sI156
F-2.0
sI157
F-2.0
sI158
F-2.0
sI159
F1.0
sI160
F-9.0
sI161
F2.0
sI162
F0.0
sI163
F-7.0
sI164
F-2.0
sI165
F-3.0
sI166
F-1.0
sI167
F3.0
sI168
F0.0
sI169
F-11.0
sI170
F-12.0
sI171
F-1.0
sI172
F-3.0
sI173
F-5.0
sI174
F-1.0
sI175
F-1.0
sI176
F2.0
sI177
F-8.0
sI178
F-2.0
sI179
F1.0
sI180
F-1.0
sI181
F-2.0
sI182
F-4.0
sI183
F-4.0
sI184
F2.0
sI185
F2.0
sI186
F-3.0
sI187
F-3.0
sI188
F-2.0
sI189
F-9.0
sI190
F-3.0
sI191
F0.0
sI192
F1.0
sI193
F10.0
sI194
F-2.0
sI195
F2.0
sI196
F3.0
sI197
F-5.0
sI198
F-3.0
sI199
F5.0
sI200
F-5.0
sI201
F-4.0
sI202
F-1.0
sI203
F-2.0
sI204
F-8.0
sI205
F5.0
sI206
F0.0
sI207
F-1.0
sI208
F-6.0
sI209
F-2.0
sI210
F-3.0
sI211
F-1.0
sI212
F-6.0
sI213
F-4.0
sI214
F-11.0
sI215
F-6.0
sI216
F-4.0
sI217
F-8.0
sI218
F0.0
sI219
F-8.0
sI220
F-8.0
sI221
F-2.0
sI222
F-1.0
sI223
F-1.0
sI224
F-5.0
sI225
F-3.0
sI226
F-3.0
sI227
F3.0
sI228
F3.0
sI229
F-9.0
sI230
F-4.0
sI231
F-7.0
sI232
F-12.0
sI233
F-21.0
sI234
F2.0
sI235
F2.0
sI236
F2.0
sI237
F2.0
sI238
F2.0
sI239
F2.0
sI240
F2.0
sI241
F2.0
sI242
F2.0
sI243
F2.0
sI244
F2.0
sI245
F2.0
sI246
F2.0
sI247
F2.0
sI248
F2.0
sI249
F2.0
sI250
F2.0
sI251
F2.0
sI252
F2.0
sI253
F2.0
sI254
F2.0
sI255
F2.0
sI256
F2.0
sI257
F2.0
sI258
F2.0
sI259
F2.0
sI260
F2.0
sI261
F2.0
sI262
F2.0
sI263
F2.0
sI264
F2.0
sI265
F2.0
sI266
F2.0
sI267
F2.0
sI268
F2.0
sI269
F2.0
sI270
F2.0
sI271
F2.0
sI272
F2.0
sI273
F2.0
sI274
F2.0
sI275
F-17.0
sI276
F-15.0
sI277
F-16.0
sI278
F-20.0
sI279
F-17.0
sI280
F-16.0
sI281
F-14.0
sI282
I0
sI283
I0
sI284
I0
ssS'iterations'
p9
I5
sb.