ccopy_reg
_reconstructor
p0
(cpredictor_subclasses
Pegasos
p1
c__builtin__
object
p2
Ntp3
Rp4
(dp5
S'w'
p6
(dp7
I1
F-8.994582856303174e-15
sI2
F1.999999999999995
sI3
F1.9999999999999993
sI4
F-1.999999999999994
sI5
F5.999999999999982
sI6
F-3.000000000000006
sI7
F-2.9999999999999982
sI8
F-1.9999999999999927
sI9
F-5.0
sI10
F-4.999999999999997
sI11
F-2.0000000000000067
sI12
F-3.999999999999989
sI13
F-2.999999999999976
sI14
F1.0000000000000027
sI15
F-5.999999999999967
sI16
F0.999999999999991
sI17
F-1.9999999999999962
sI18
F-4.606981462984546e-15
sI19
F-9.359824026944367e-15
sI20
F1.999999999999979
sI21
F5.9999999999999885
sI22
F-5.999999999999998
sI23
F-3.0000000000000115
sI24
F-2.9999999999999973
sI25
F-2.999999999999989
sI26
F-6.999999999999984
sI27
F-1.9999999999999878
sI28
F6.0000000000000115
sI29
F14.999999999999938
sI30
F22.000000000000004
sI31
F38.000000000000135
sI32
F41.99999999999975
sI33
F-13.999999999999968
sI34
F-12.000000000000027
sI35
F26.000000000000075
sI36
F12.999999999999963
sI37
F-2.9999999999999485
sI38
F1.9999999999999976
sI39
F-5.000000000000007
sI40
F-4.000000000000025
sI41
F-6.000000000000022
sI42
F1.9999999999999922
sI43
F6.80353551274493e-15
sI44
F-2.0000000000000018
sI45
F-6.9999999999999725
sI46
F1.0000000000000038
sI47
F1.9999999999999967
sI48
F-1.9999999999999984
sI49
F1.0000000000000058
sI50
F2.999999999999979
sI51
F-2.9999999999999982
sI52
F-5.999999999999974
sI53
F-1.263922300154265e-15
sI54
F-7.000000000000018
sI55
F-5.000000000000013
sI56
F1.9999999999999585
sI57
F-2.9999999999999925
sI58
F-6.999999999999958
sI59
F-3.0000000000000027
sI60
F1.000000000000003
sI61
F-8.99999999999999
sI62
F-7.0000000000000355
sI63
F2.0000000000000058
sI64
F-10.999999999999943
sI65
F-2.000000000000002
sI66
F-3.0000000000000093
sI67
F4.781419704613648e-15
sI68
F2.000000000000008
sI69
F-2.000000000000002
sI70
F-7.999999999999994
sI71
F-8.33559887780666e-15
sI72
F5.000000000000006
sI73
F-5.999999999999987
sI74
F-0.9999999999999952
sI75
F-2.9999999999999973
sI76
F-4.000000000000009
sI77
F-1.000000000000009
sI78
F-3.000000000000007
sI79
F-2.999999999999997
sI80
F-1.5224488336684775e-15
sI81
F-3.0
sI82
F0.9999999999999994
sI83
F11.999999999999936
sI84
F-2.999999999999985
sI85
F-2.1749269052406793e-15
sI86
F-1.0000000000000069
sI87
F-2.8839819421477843e-15
sI88
F0.9999999999999906
sI89
F-3.9999999999999925
sI90
F-3.999999999999995
sI91
F1.000000000000005
sI92
F-2.999999999999998
sI93
F-5.999999999999978
sI94
F-8.208256296882156e-15
sI95
F-7.999999999999969
sI96
F1.000000000000004
sI97
F-4.000000000000011
sI98
F-6.999999999999936
sI99
F4.000000000000001
sI100
F-6.53010978624025e-15
sI101
F-4.0000000000000195
sI102
F-6.00000000000001
sI103
F1.9999999999999891
sI104
F-1.0000000000000007
sI105
F-6.361378090957717e-15
sI106
F-7.542722002540359e-15
sI107
F-1.9999999999999953
sI108
F-1.1535927768591137e-14
sI109
F-2.4349233740395015e-14
sI110
F2.0000000000000058
sI111
F-4.000000000000004
sI112
F-6.999999999999911
sI113
F1.1845324721093684e-14
sI114
F-7.461942175268633e-15
sI115
F-2.0000000000000013
sI116
F0.9999999999999952
sI117
F-0.9999999999999981
sI118
F-12.999999999999968
sI119
F-9.999999999999961
sI120
F-5.000000000000009
sI121
F-5.9999999999999885
sI122
F-4.999999999999993
sI123
F-7.000000000000007
sI124
F-4.999999999999987
sI125
F-4.436895295611975e-16
sI126
F0.9999999999999999
sI127
F-3.0000000000000036
sI128
F-6.999999999999966
sI129
F-5.99999999999997
sI130
F0.9999999999999966
sI131
F-1.999999999999994
sI132
F3.0
sI133
F-4.000000000000015
sI134
F1.0000000000000022
sI135
F-8.000000000000007
sI136
F-5.000000000000004
sI137
F-4.3871573041087715e-16
sI138
F-2.0000000000000053
sI139
F-6.999999999999988
sI140
F-3.0000000000000124
sI141
F-6.999999999999986
sI142
F-8.999999999999963
sI143
F-4.999999999999988
sI144
F1.0000000000000027
sI145
F21.000000000000007
sI146
F-9.00000000000001
sI147
F-1.0000000000000009
sI148
F-0.9999999999999892
sI149
F-2.0000000000000027
sI150
F-2.0000000000000058
sI151
F-1.0000000000000029
sI152
F-5.9999999999999725
sI153
F1.0000000000000098
sI154
F8.99999999999999
sI155
F-6.999999999999992
sI156
F-1.9999999999999913
sI157
F-2.0000000000000093
sI158
F-2.000000000000001
sI159
F0.9999999999999937
sI160
F-8.999999999999975
sI161
F2.0000000000000053
sI162
F4.658740060392575e-15
sI163
F-7.000000000000003
sI164
F-2.0000000000000084
sI165
F-3.0000000000000004
sI166
F-1.0000000000000056
sI167
F2.9999999999999813
sI168
F1.7557511000632084e-15
sI169
F-10.999999999999984
sI170
F-12.000000000000004
sI171
F-0.9999999999999992
sI172
F-2.9999999999999996
sI173
F-4.999999999999991
sI174
F-1.0000000000000084
sI175
F-0.9999999999999928
sI176
F1.999999999999987
sI177
F-7.999999999999971
sI178
F-1.9999999999999971
sI179
F0.9999999999999957
sI180
F-0.9999999999999895
sI181
F-1.999999999999954
sI182
F-3.9999999999999827
sI183
F-3.9999999999999782
sI184
F1.9999999999999971
sI185
F1.9999999999999936
sI186
F-2.9999999999999893
sI187
F-3.0000000000000075
sI188
F-1.9999999999999811
sI189
F-9.000000000000023
sI190
F-2.999999999999995
sI191
F6.835421118012173e-15
sI192
F1.0000000000000084
sI193
F9.999999999999995
sI194
F-1.999999999999999
sI195
F1.9999999999999878
sI196
F2.9999999999999822
sI197
F-4.9999999999999725
sI198
F-2.9999999999999893
sI199
F4.999999999999991
sI200
F-4.9999999999999645
sI201
F-3.999999999999998
sI202
F-0.999999999999993
sI203
F-1.9999999999999931
sI204
F-8.00000000000002
sI205
F5.000000000000001
sI206
F1.3168133250474052e-15
sI207
F-0.9999999999999952
sI208
F-5.9999999999999885
sI209
F-2.000000000000003
sI210
F-2.999999999999988
sI211
F-1.0000000000000104
sI212
F-5.999999999999999
sI213
F-4.000000000000003
sI214
F-10.999999999999972
sI215
F-5.999999999999983
sI216
F-4.000000000000005
sI217
F-8.000000000000004
sI218
F-5.546119119514971e-15
sI219
F-7.999999999999971
sI220
F-7.999999999999978
sI221
F-1.9999999999999976
sI222
F-1.0000000000000082
sI223
F-1.0000000000000209
sI224
F-4.999999999999979
sI225
F-2.9999999999999964
sI226
F-3.0000000000000115
sI227
F2.999999999999989
sI228
F2.999999999999995
sI229
F-8.99999999999997
sI230
F-3.999999999999982
sI231
F-7.000000000000014
sI232
F-11.999999999999936
sI233
F-20.999999999999986
sI234
F2.000000000000002
sI235
F2.000000000000002
sI236
F2.000000000000002
sI237
F2.000000000000002
sI238
F2.000000000000002
sI239
F2.000000000000002
sI240
F2.000000000000002
sI241
F2.000000000000002
sI242
F2.000000000000002
sI243
F2.000000000000002
sI244
F2.000000000000002
sI245
F2.000000000000002
sI246
F2.000000000000002
sI247
F2.000000000000002
sI248
F2.000000000000002
sI249
F2.000000000000002
sI250
F2.000000000000002
sI251
F2.000000000000002
sI252
F2.000000000000002
sI253
F2.000000000000002
sI254
F2.000000000000002
sI255
F2.000000000000002
sI256
F2.000000000000002
sI257
F2.000000000000002
sI258
F2.000000000000002
sI259
F2.000000000000002
sI260
F2.000000000000002
sI261
F2.000000000000002
sI262
F2.000000000000002
sI263
F2.000000000000002
sI264
F2.000000000000002
sI265
F2.000000000000002
sI266
F2.000000000000002
sI267
F2.000000000000002
sI268
F2.000000000000002
sI269
F2.000000000000002
sI270
F2.000000000000002
sI271
F2.000000000000002
sI272
F2.000000000000002
sI273
F2.000000000000002
sI274
F2.000000000000002
sI275
F-16.9999999999999
sI276
F-15.000000000000016
sI277
F-15.999999999999998
sI278
F-19.99999999999982
sI279
F-16.999999999999968
sI280
F-15.999999999999973
sI281
F-13.999999999999986
sI282
F0.0
sI283
F0.0
sI284
F0.0
ssS'pegasos_lambda'
p8
F0.0001
sS'iterations'
p9
I5
sb.