ccopy_reg
_reconstructor
p0
(cpredictor_subclasses
AveragedPerceptron
p1
c__builtin__
object
p2
Ntp3
Rp4
(dp5
S'learning_rate'
p6
F1.0
sS'w_avg'
p7
(dp8
I1
F-2317.0357620000127
sI2
F842.0945440000346
sI3
F879.526012000014
sI4
F-731.4434929999782
sI5
F-21310.0
sI6
F-15988.0
sI7
F-16966.0
sI8
F20492.0
sI9
F22613.0
sI10
F19924.0
ssS'w'
p9
g8
sS'iterations'
p10
I5
sb.