ccopy_reg
_reconstructor
p0
(cpredictor_subclasses
Perceptron
p1
c__builtin__
object
p2
Ntp3
Rp4
(dp5
S'learning_rate'
p6
F1.0
sS'w'
p7
(dp8
I1
F-0.883118
sI2
F0.21608699999999958
sI3
F0.25602199999999997
sI4
F-0.3434060000000001
sI5
F-5.0
sI6
F-4.0
sI7
F-4.0
sI8
F5.0
sI9
F6.0
sI10
F5.0
ssS'iterations'
p9
I5
sb.