ccopy_reg
_reconstructor
p0
(cpredictor_subclasses
Pegasos
p1
c__builtin__
object
p2
Ntp3
Rp4
(dp5
S'w'
p6
(dp7
I1
F-0.3489911111111075
sI2
F0.13960666666666607
sI3
F-2.3820844444444402
sI4
F0.15499333333332527
sI5
F-13.333333333333298
sI6
F-13.333333333333323
sI7
F-11.111111111111107
sI8
F11.111111111111095
sI9
F13.333333333333306
sI10
F13.333333333333336
ssS'pegasos_lambda'
p8
F0.0001
sS'iterations'
p9
I5
sb.