ccopy_reg
_reconstructor
p0
(cpredictor_subclasses
MarginPerceptron
p1
c__builtin__
object
p2
Ntp3
Rp4
(dp5
S'learning_rate'
p6
F1.0
sS'w'
p7
(dp8
I1
F-0.26649900000000004
sI2
F0.40151599999999976
sI3
F-0.19560900000000048
sI4
F-1.0311689999999998
sI5
F-6.0
sI6
F-4.0
sI7
F-4.0
sI8
F5.0
sI9
F5.0
sI10
F6.0
ssS'iterations'
p9
I5
sb.