ccopy_reg
_reconstructor
p0
(cpredictor_subclasses
KNN
p1
c__builtin__
object
p2
Ntp3
Rp4
(dp5
S'knn'
p6
I5
sS'instances'
p7
(lp8
(ics475_types
Instance
p9
(dp10
S'_feature_vector'
p11
(ics475_types
FeatureVector
p12
(dp13
S'feature_vector'
p14
(dp15
I8
F1.0
sI1
F-0.112217
sI2
F0.077192
sI3
F-0.530494
sI4
F0.340633
ssbsS'_label'
p16
g0
(ccs475_types
ClassificationLabel
p17
g2
Ntp18
Rp19
(dp20
S'label'
p21
I1
sbsba(ics475_types
Instance
p22
(dp23
g11
(ics475_types
FeatureVector
p24
(dp25
g14
(dp26
I1
F0.418255
sI2
F-1.791584
sI3
F0.884365
sI4
F-0.741727
sI9
F1.0
ssbsg16
g0
(g17
g2
Ntp27
Rp28
(dp29
g21
I1
sbsba(ics475_types
Instance
p30
(dp31
g11
(ics475_types
FeatureVector
p32
(dp33
g14
(dp34
I1
F-0.44277
sI2
F1.003074
sI3
F-1.28595
sI4
F-0.176745
sI10
F1.0
ssbsg16
g0
(g17
g2
Ntp35
Rp36
(dp37
g21
I1
sbsba(ics475_types
Instance
p38
(dp39
g11
(ics475_types
FeatureVector
p40
(dp41
g14
(dp42
I8
F1.0
sI1
F-0.368072
sI2
F0.945647
sI3
F-0.151802
sI4
F0.504634
ssbsg16
g0
(g17
g2
Ntp43
Rp44
(dp45
g21
I1
sbsba(ics475_types
Instance
p46
(dp47
g11
(ics475_types
FeatureVector
p48
(dp49
g14
(dp50
I1
F0.496442
sI2
F-0.290597
sI3
F-1.174111
sI4
F-0.169832
sI5
F1.0
ssbsg16
g0
(g17
g2
Ntp51
Rp52
(dp53
g21
I0
sbsba(ics475_types
Instance
p54
(dp55
g11
(ics475_types
FeatureVector
p56
(dp57
g14
(dp58
I8
F1.0
sI1
F-1.257386
sI2
F1.84973
sI3
F-1.654297
sI4
F-0.183782
ssbsg16
g0
(g17
g2
Ntp59
Rp60
(dp61
g21
I1
sbsba(ics475_types
Instance
p62
(dp63
g11
(ics475_types
FeatureVector
p64
(dp65
g14
(dp66
I1
F-1.205734
sI2
F-0.181532
sI3
F0.110738
sI4
F0.000582
sI10
F1.0
ssbsg16
g0
(g17
g2
Ntp67
Rp68
(dp69
g21
I1
sbsba(ics475_types
Instance
p70
(dp71
g11
(ics475_types
FeatureVector
p72
(dp73
g14
(dp74
I8
F1.0
sI1
F-0.183609
sI2
F-0.863808
sI3
F0.78835
sI4
F-0.736534
ssbsg16
g0
(g17
g2
Ntp75
Rp76
(dp77
g21
I1
sbsba(ics475_types
Instance
p78
(dp79
g11
(ics475_types
FeatureVector
p80
(dp81
g14
(dp82
I1
F0.291384
sI2
F1.53337
sI3
F0.186509
sI4
F-0.763965
sI9
F1.0
ssbsg16
g0
(g17
g2
Ntp83
Rp84
(dp85
g21
I1
sbsba(ics475_types
Instance
p86
(dp87
g11
(ics475_types
FeatureVector
p88
(dp89
g14
(dp90
I1
F0.937331
sI2
F0.301527
sI3
F-0.904494
sI4
F-0.109617
sI7
F1.0
ssbsg16
g0
(g17
g2
Ntp91
Rp92
(dp93
g21
I0
sbsba(ics475_types
Instance
p94
(dp95
g11
(ics475_types
FeatureVector
p96
(dp97
g14
(dp98
I1
F0.625607
sI2
F-1.807629
sI3
F0.391466
sI4
F-0.633739
sI5
F1.0
ssbsg16
g0
(g17
g2
Ntp99
Rp100
(dp101
g21
I0
sbsba(ics475_types
Instance
p102
(dp103
g11
(ics475_types
FeatureVector
p104
(dp105
g14
(dp106
I1
F-1.440043
sI2
F-1.586683
sI3
F0.514034
sI4
F-1.117215
sI7
F1.0
ssbsg16
g0
(g17
g2
Ntp107
Rp108
(dp109
g21
I0
sbsba(ics475_types
Instance
p110
(dp111
g11
(ics475_types
FeatureVector
p112
(dp113
g14
(dp114
I1
F-0.784996
sI2
F-1.138552
sI3
F-0.546957
sI4
F0.788098
sI6
F1.0
ssbsg16
g0
(g17
g2
Ntp115
Rp116
(dp117
g21
I0
sbsba(ics475_types
Instance
p118
(dp119
g11
(ics475_types
FeatureVector
p120
(dp121
g14
(dp122
I1
F0.607739
sI2
F-0.378471
sI3
F-0.263483
sI4
F-0.126682
sI6
F1.0
ssbsg16
g0
(g17
g2
Ntp123
Rp124
(dp125
g21
I0
sbsba(ics475_types
Instance
p126
(dp127
g11
(ics475_types
FeatureVector
p128
(dp129
g14
(dp130
I1
F-0.933925
sI2
F1.362723
sI3
F-0.555621
sI4
F-1.172347
sI5
F1.0
ssbsg16
g0
(g17
g2
Ntp131
Rp132
(dp133
g21
I0
sbsba(ics475_types
Instance
p134
(dp135
g11
(ics475_types
FeatureVector
p136
(dp137
g14
(dp138
I1
F-1.549427
sI2
F0.059314
sI3
F-0.112048
sI4
F-2.133836
sI6
F1.0
ssbsg16
g0
(g17
g2
Ntp139
Rp140
(dp141
g21
I0
sbsba(ics475_types
Instance
p142
(dp143
g11
(ics475_types
FeatureVector
p144
(dp145
g14
(dp146
I1
F0.196596
sI2
F-0.165536
sI3
F-0.650892
sI4
F-0.949519
sI6
F1.0
ssbsg16
g0
(g17
g2
Ntp147
Rp148
(dp149
g21
I0
sbsba(ics475_types
Instance
p150
(dp151
g11
(ics475_types
FeatureVector
p152
(dp153
g14
(dp154
I1
F1.109241
sI2
F0.807979
sI3
F-1.082674
sI4
F0.456524
sI9
F1.0
ssbsg16
g0
(g17
g2
Ntp155
Rp156
(dp157
g21
I1
sbsba(ics475_types
Instance
p158
(dp159
g11
(ics475_types
FeatureVector
p160
(dp161
g14
(dp162
I1
F0.38269
sI2
F0.55399
sI3
F-0.446385
sI4
F-0.612459
sI7
F1.0
ssbsg16
g0
(g17
g2
Ntp163
Rp164
(dp165
g21
I0
sbsba(ics475_types
Instance
p166
(dp167
g11
(ics475_types
FeatureVector
p168
(dp169
g14
(dp170
I8
F1.0
sI1
F0.284214
sI2
F0.623747
sI3
F-0.851695
sI4
F2.039592
ssbsg16
g0
(g17
g2
Ntp171
Rp172
(dp173
g21
I1
sbsba(ics475_types
Instance
p174
(dp175
g11
(ics475_types
FeatureVector
p176
(dp177
g14
(dp178
I1
F-0.07862
sI2
F-0.061729
sI3
F-2.078946
sI4
F-1.911503
sI5
F1.0
ssbsg16
g0
(g17
g2
Ntp179
Rp180
(dp181
g21
I0
sbsba(ics475_types
Instance
p182
(dp183
g11
(ics475_types
FeatureVector
p184
(dp185
g14
(dp186
I1
F0.232776
sI2
F0.830675
sI3
F0.584581
sI4
F0.529514
sI5
F1.0
ssbsg16
g0
(g17
g2
Ntp187
Rp188
(dp189
g21
I0
sbsba(ics475_types
Instance
p190
(dp191
g11
(ics475_types
FeatureVector
p192
(dp193
g14
(dp194
I1
F-0.346572
sI2
F0.288246
sI3
F1.473406
sI4
F-1.262912
sI5
F1.0
ssbsg16
g0
(g17
g2
Ntp195
Rp196
(dp197
g21
I0
sbsba(ics475_types
Instance
p198
(dp199
g11
(ics475_types
FeatureVector
p200
(dp201
g14
(dp202
I1
F-0.117195
sI2
F1.349679
sI3
F0.168564
sI4
F-1.632714
sI10
F1.0
ssbsg16
g0
(g17
g2
Ntp203
Rp204
(dp205
g21
I1
sbsba(ics475_types
Instance
p206
(dp207
g11
(ics475_types
FeatureVector
p208
(dp209
g14
(dp210
I1
F0.375512
sI2
F-0.671297
sI3
F1.546318
sI4
F1.533762
sI9
F1.0
ssbsg16
g0
(g17
g2
Ntp211
Rp212
(dp213
g21
I1
sbsba(ics475_types
Instance
p214
(dp215
g11
(ics475_types
FeatureVector
p216
(dp217
g14
(dp218
I1
F0.410482
sI2
F0.53536
sI3
F-0.893148
sI4
F3.667329
sI7
F1.0
ssbsg16
g0
(g17
g2
Ntp219
Rp220
(dp221
g21
I0
sbsba(ics475_types
Instance
p222
(dp223
g11
(ics475_types
FeatureVector
p224
(dp225
g14
(dp226
I1
F1.420279
sI2
F-0.728764
sI3
F1.169741
sI4
F0.826671
sI7
F1.0
ssbsg16
g0
(g17
g2
Ntp227
Rp228
(dp229
g21
I0
sbsba(ics475_types
Instance
p230
(dp231
g11
(ics475_types
FeatureVector
p232
(dp233
g14
(dp234
I1
F0.803621
sI2
F0.15873
sI3
F1.03316
sI4
F-0.28042
sI10
F1.0
ssbsg16
g0
(g17
g2
Ntp235
Rp236
(dp237
g21
I1
sbsba(ics475_types
Instance
p238
(dp239
g11
(ics475_types
FeatureVector
p240
(dp241
g14
(dp242
I1
F0.585178
sI2
F-0.779392
sI3
F1.00869
sI4
F-1.148955
sI5
F1.0
ssbsg16
g0
(g17
g2
Ntp243
Rp244
(dp245
g21
I0
sbsba(ics475_types
Instance
p246
(dp247
g11
(ics475_types
FeatureVector
p248
(dp249
g14
(dp250
I1
F-0.706122
sI2
F-0.154744
sI3
F0.295479
sI4
F0.313737
sI9
F1.0
ssbsg16
g0
(g17
g2
Ntp251
Rp252
(dp253
g21
I1
sbsba(ics475_types
Instance
p254
(dp255
g11
(ics475_types
FeatureVector
p256
(dp257
g14
(dp258
I1
F0.459037
sI2
F-0.135745
sI3
F0.443306
sI4
F0.204012
sI6
F1.0
ssbsg16
g0
(g17
g2
Ntp259
Rp260
(dp261
g21
I0
sbsba(ics475_types
Instance
p262
(dp263
g11
(ics475_types
FeatureVector
p264
(dp265
g14
(dp266
I1
F0.103573
sI2
F-0.633381
sI3
F-1.375783
sI4
F1.281847
sI10
F1.0
ssbsg16
g0
(g17
g2
Ntp267
Rp268
(dp269
g21
I1
sbsba(ics475_types
Instance
p270
(dp271
g11
(ics475_types
FeatureVector
p272
(dp273
g14
(dp274
I1
F0.741908
sI2
F-0.595073
sI3
F-0.053839
sI4
F0.052515
sI9
F1.0
ssbsg16
g0
(g17
g2
Ntp275
Rp276
(dp277
g21
I1
sbsba(ics475_types
Instance
p278
(dp279
g11
(ics475_types
FeatureVector
p280
(dp281
g14
(dp282
I1
F-0.074187
sI2
F0.623509
sI3
F1.398824
sI4
F-0.220245
sI5
F1.0
ssbsg16
g0
(g17
g2
Ntp283
Rp284
(dp285
g21
I0
sbsba(ics475_types
Instance
p286
(dp287
g11
(ics475_types
FeatureVector
p288
(dp289
g14
(dp290
I1
F0.589672
sI2
F-1.002789
sI3
F0.367023
sI4
F-0.679353
sI7
F1.0
ssbsg16
g0
(g17
g2
Ntp291
Rp292
(dp293
g21
I0
sbsba(ics475_types
Instance
p294
(dp295
g11
(ics475_types
FeatureVector
p296
(dp297
g14
(dp298
I1
F0.309676
sI2
F-0.590305
sI3
F-2.075713
sI4
F-0.060309
sI9
F1.0
ssbsg16
g0
(g17
g2
Ntp299
Rp300
(dp301
g21
I1
sbsba(ics475_types
Instance
p302
(dp303
g11
(ics475_types
FeatureVector
p304
(dp305
g14
(dp306
I1
F-1.780751
sI2
F1.502719
sI3
F1.328392
sI4
F-1.688231
sI5
F1.0
ssbsg16
g0
(g17
g2
Ntp307
Rp308
(dp309
g21
I0
sbsba(ics475_types
Instance
p310
(dp311
g11
(ics475_types
FeatureVector
p312
(dp313
g14
(dp314
I1
F0.072824
sI2
F0.206433
sI3
F-0.669066
sI4
F-1.435707
sI6
F1.0
ssbsg16
g0
(g17
g2
Ntp315
Rp316
(dp317
g21
I0
sbsba(ics475_types
Instance
p318
(dp319
g11
(ics475_types
FeatureVector
p320
(dp321
g14
(dp322
I1
F-0.52503
sI2
F-2.156808
sI3
F1.494006
sI4
F-0.107008
sI6
F1.0
ssbsg16
g0
(g17
g2
Ntp323
Rp324
(dp325
g21
I0
sbsba(ics475_types
Instance
p326
(dp327
g11
(ics475_types
FeatureVector
p328
(dp329
g14
(dp330
I1
F0.078029
sI2
F-1.038748
sI3
F0.335718
sI4
F0.286137
sI5
F1.0
ssbsg16
g0
(g17
g2
Ntp331
Rp332
(dp333
g21
I0
sbsba(ics475_types
Instance
p334
(dp335
g11
(ics475_types
FeatureVector
p336
(dp337
g14
(dp338
I1
F-0.975461
sI2
F-0.056539
sI3
F0.83174
sI4
F-0.137747
sI7
F1.0
ssbsg16
g0
(g17
g2
Ntp339
Rp340
(dp341
g21
I0
sbsba(ics475_types
Instance
p342
(dp343
g11
(ics475_types
FeatureVector
p344
(dp345
g14
(dp346
I1
F0.817581
sI2
F-0.138677
sI3
F2.004725
sI4
F0.465134
sI9
F1.0
ssbsg16
g0
(g17
g2
Ntp347
Rp348
(dp349
g21
I1
sbsba(ics475_types
Instance
p350
(dp351
g11
(ics475_types
FeatureVector
p352
(dp353
g14
(dp354
I1
F1.680202
sI2
F-0.433239
sI3
F2.996395
sI4
F1.183242
sI6
F1.0
ssbsg16
g0
(g17
g2
Ntp355
Rp356
(dp357
g21
I0
sbsba(ics475_types
Instance
p358
(dp359
g11
(ics475_types
FeatureVector
p360
(dp361
g14
(dp362
I1
F-1.336528
sI2
F0.73183
sI3
F-1.067752
sI4
F1.758691
sI9
F1.0
ssbsg16
g0
(g17
g2
Ntp363
Rp364
(dp365
g21
I1
sbsba(ics475_types
Instance
p366
(dp367
g11
(ics475_types
FeatureVector
p368
(dp369
g14
(dp370
I1
F-3.363115
sI2
F1.817824
sI3
F-0.115819
sI4
F-0.805638
sI9
F1.0
ssbsg16
g0
(g17
g2
Ntp371
Rp372
(dp373
g21
I1
sbsba(ics475_types
Instance
p374
(dp375
g11
(ics475_types
FeatureVector
p376
(dp377
g14
(dp378
I8
F1.0
sI1
F2.351289
sI2
F-1.618942
sI3
F0.290146
sI4
F0.110359
ssbsg16
g0
(g17
g2
Ntp379
Rp380
(dp381
g21
I1
sbsba(ics475_types
Instance
p382
(dp383
g11
(ics475_types
FeatureVector
p384
(dp385
g14
(dp386
I1
F1.049079
sI2
F1.373082
sI3
F0.2905
sI4
F0.003329
sI5
F1.0
ssbsg16
g0
(g17
g2
Ntp387
Rp388
(dp389
g21
I0
sbsba(ics475_types
Instance
p390
(dp391
g11
(ics475_types
FeatureVector
p392
(dp393
g14
(dp394
I1
F0.568289
sI2
F0.153605
sI3
F0.539274
sI4
F0.408123
sI9
F1.0
ssbsg16
g0
(g17
g2
Ntp395
Rp396
(dp397
g21
I1
sbsba(ics475_types
Instance
p398
(dp399
g11
(ics475_types
FeatureVector
p400
(dp401
g14
(dp402
I1
F-0.268128
sI2
F-1.482983
sI3
F1.268252
sI4
F-1.621063
sI7
F1.0
ssbsg16
g0
(g17
g2
Ntp403
Rp404
(dp405
g21
I0
sbsba(ics475_types
Instance
p406
(dp407
g11
(ics475_types
FeatureVector
p408
(dp409
g14
(dp410
I1
F-0.976978
sI2
F-0.283381
sI3
F-2.141868
sI4
F0.168157
sI7
F1.0
ssbsg16
g0
(g17
g2
Ntp411
Rp412
(dp413
g21
I0
sbsba(ics475_types
Instance
p414
(dp415
g11
(ics475_types
FeatureVector
p416
(dp417
g14
(dp418
I1
F-1.185133
sI2
F0.33563
sI3
F-0.274983
sI4
F-0.04481
sI10
F1.0
ssbsg16
g0
(g17
g2
Ntp419
Rp420
(dp421
g21
I1
sbsba(ics475_types
Instance
p422
(dp423
g11
(ics475_types
FeatureVector
p424
(dp425
g14
(dp426
I1
F0.35131
sI2
F0.086778
sI3
F0.318517
sI4
F1.501034
sI5
F1.0
ssbsg16
g0
(g17
g2
Ntp427
Rp428
(dp429
g21
I0
sbsba(ics475_types
Instance
p430
(dp431
g11
(ics475_types
FeatureVector
p432
(dp433
g14
(dp434
I1
F0.057861
sI2
F0.521509
sI3
F0.723278
sI4
F0.691145
sI7
F1.0
ssbsg16
g0
(g17
g2
Ntp435
Rp436
(dp437
g21
I0
sbsba(ics475_types
Instance
p438
(dp439
g11
(ics475_types
FeatureVector
p440
(dp441
g14
(dp442
I1
F-1.26242
sI2
F0.534296
sI3
F0.537923
sI4
F-0.860747
sI10
F1.0
ssbsg16
g0
(g17
g2
Ntp443
Rp444
(dp445
g21
I1
sbsba(ics475_types
Instance
p446
(dp447
g11
(ics475_types
FeatureVector
p448
(dp449
g14
(dp450
I1
F-0.623506
sI2
F-0.649787
sI3
F1.123667
sI4
F-0.221084
sI6
F1.0
ssbsg16
g0
(g17
g2
Ntp451
Rp452
(dp453
g21
I0
sbsba(ics475_types
Instance
p454
(dp455
g11
(ics475_types
FeatureVector
p456
(dp457
g14
(dp458
I1
F-0.941669
sI2
F0.948688
sI3
F-1.413686
sI4
F-0.947314
sI5
F1.0
ssbsg16
g0
(g17
g2
Ntp459
Rp460
(dp461
g21
I0
sbsba(ics475_types
Instance
p462
(dp463
g11
(ics475_types
FeatureVector
p464
(dp465
g14
(dp466
I1
F1.598403
sI2
F0.481829
sI3
F-0.576033
sI4
F-1.248097
sI10
F1.0
ssbsg16
g0
(g17
g2
Ntp467
Rp468
(dp469
g21
I1
sbsba(ics475_types
Instance
p470
(dp471
g11
(ics475_types
FeatureVector
p472
(dp473
g14
(dp474
I1
F0.097123
sI2
F-0.88049
sI3
F0.719162
sI4
F-0.113611
sI5
F1.0
ssbsg16
g0
(g17
g2
Ntp475
Rp476
(dp477
g21
I0
sbsba(ics475_types
Instance
p478
(dp479
g11
(ics475_types
FeatureVector
p480
(dp481
g14
(dp482
I1
F-0.078725
sI2
F-0.810875
sI3
F-1.42147
sI4
F1.950874
sI5
F1.0
ssbsg16
g0
(g17
g2
Ntp483
Rp484
(dp485
g21
I0
sbsba(ics475_types
Instance
p486
(dp487
g11
(ics475_types
FeatureVector
p488
(dp489
g14
(dp490
I1
F-0.211583
sI2
F-1.623859
sI3
F-0.268304
sI4
F0.40211
sI10
F1.0
ssbsg16
g0
(g17
g2
Ntp491
Rp492
(dp493
g21
I1
sbsba(ics475_types
Instance
p494
(dp495
g11
(ics475_types
FeatureVector
p496
(dp497
g14
(dp498
I1
F-1.559561
sI2
F1.09878
sI3
F-2.552163
sI4
F0.491225
sI7
F1.0
ssbsg16
g0
(g17
g2
Ntp499
Rp500
(dp501
g21
I0
sbsba(ics475_types
Instance
p502
(dp503
g11
(ics475_types
FeatureVector
p504
(dp505
g14
(dp506
I8
F1.0
sI1
F1.613214
sI2
F0.704274
sI3
F0.778099
sI4
F0.699679
ssbsg16
g0
(g17
g2
Ntp507
Rp508
(dp509
g21
I1
sbsba(ics475_types
Instance
p510
(dp511
g11
(ics475_types
FeatureVector
p512
(dp513
g14
(dp514
I1
F-1.060542
sI2
F-0.795151
sI3
F-0.681008
sI4
F-1.62428
sI10
F1.0
ssbsg16
g0
(g17
g2
Ntp515
Rp516
(dp517
g21
I1
sbsba(ics475_types
Instance
p518
(dp519
g11
(ics475_types
FeatureVector
p520
(dp521
g14
(dp522
I1
F0.81048
sI2
F0.113339
sI3
F-0.853442
sI4
F-0.539
sI5
F1.0
ssbsg16
g0
(g17
g2
Ntp523
Rp524
(dp525
g21
I0
sbsba(ics475_types
Instance
p526
(dp527
g11
(ics475_types
FeatureVector
p528
(dp529
g14
(dp530
I1
F-0.852198
sI2
F0.219675
sI3
F-0.190355
sI4
F0.451821
sI6
F1.0
ssbsg16
g0
(g17
g2
Ntp531
Rp532
(dp533
g21
I0
sbsba(ics475_types
Instance
p534
(dp535
g11
(ics475_types
FeatureVector
p536
(dp537
g14
(dp538
I1
F0.331523
sI2
F-1.697083
sI3
F-0.376745
sI4
F-1.833715
sI7
F1.0
ssbsg16
g0
(g17
g2
Ntp539
Rp540
(dp541
g21
I0
sbsba(ics475_types
Instance
p542
(dp543
g11
(ics475_types
FeatureVector
p544
(dp545
g14
(dp546
I1
F1.120002
sI2
F0.62942
sI3
F-0.193174
sI4
F-0.188917
sI9
F1.0
ssbsg16
g0
(g17
g2
Ntp547
Rp548
(dp549
g21
I1
sbsba(ics475_types
Instance
p550
(dp551
g11
(ics475_types
FeatureVector
p552
(dp553
g14
(dp554
I1
F-1.54364
sI2
F1.477053
sI3
F1.908639
sI4
F-0.57327
sI5
F1.0
ssbsg16
g0
(g17
g2
Ntp555
Rp556
(dp557
g21
I0
sbsba(ics475_types
Instance
p558
(dp559
g11
(ics475_types
FeatureVector
p560
(dp561
g14
(dp562
I8
F1.0
sI1
F-0.146328
sI2
F1.353722
sI3
F0.57248
sI4
F0.188783
ssbsg16
g0
(g17
g2
Ntp563
Rp564
(dp565
g21
I1
sbsba(ics475_types
Instance
p566
(dp567
g11
(ics475_types
FeatureVector
p568
(dp569
g14
(dp570
I1
F0.432557
sI2
F-1.44973
sI3
F-0.903731
sI4
F0.282481
sI10
F1.0
ssbsg16
g0
(g17
g2
Ntp571
Rp572
(dp573
g21
I1
sbsba(ics475_types
Instance
p574
(dp575
g11
(ics475_types
FeatureVector
p576
(dp577
g14
(dp578
I1
F-1.060178
sI2
F1.664459
sI3
F-1.062489
sI4
F1.446083
sI6
F1.0
ssbsg16
g0
(g17
g2
Ntp579
Rp580
(dp581
g21
I0
sbsba(ics475_types
Instance
p582
(dp583
g11
(ics475_types
FeatureVector
p584
(dp585
g14
(dp586
I1
F1.240576
sI2
F-0.004894
sI3
F-0.472246
sI4
F0.635929
sI10
F1.0
ssbsg16
g0
(g17
g2
Ntp587
Rp588
(dp589
g21
I1
sbsba(ics475_types
Instance
p590
(dp591
g11
(ics475_types
FeatureVector
p592
(dp593
g14
(dp594
I1
F-0.431142
sI2
F1.654882
sI3
F1.68326
sI4
F0.063681
sI6
F1.0
ssbsg16
g0
(g17
g2
Ntp595
Rp596
(dp597
g21
I0
sbsba(ics475_types
Instance
p598
(dp599
g11
(ics475_types
FeatureVector
p600
(dp601
g14
(dp602
I1
F0.051214
sI2
F0.101539
sI3
F0.281183
sI4
F-0.461916
sI6
F1.0
ssbsg16
g0
(g17
g2
Ntp603
Rp604
(dp605
g21
I0
sbsba(ics475_types
Instance
p606
(dp607
g11
(ics475_types
FeatureVector
p608
(dp609
g14
(dp610
I8
F1.0
sI1
F0.38741
sI2
F0.427654
sI3
F0.080716
sI4
F-1.467708
ssbsg16
g0
(g17
g2
Ntp611
Rp612
(dp613
g21
I1
sbsba(ics475_types
Instance
p614
(dp615
g11
(ics475_types
FeatureVector
p616
(dp617
g14
(dp618
I1
F0.151256
sI2
F0.059664
sI3
F0.52191
sI4
F0.469326
sI9
F1.0
ssbsg16
g0
(g17
g2
Ntp619
Rp620
(dp621
g21
I1
sbsba(ics475_types
Instance
p622
(dp623
g11
(ics475_types
FeatureVector
p624
(dp625
g14
(dp626
I1
F0.613548
sI2
F1.308995
sI3
F0.016043
sI4
F1.345496
sI6
F1.0
ssbsg16
g0
(g17
g2
Ntp627
Rp628
(dp629
g21
I0
sbsba(ics475_types
Instance
p630
(dp631
g11
(ics475_types
FeatureVector
p632
(dp633
g14
(dp634
I1
F-0.125612
sI2
F0.260799
sI3
F0.827507
sI4
F-0.16008
sI10
F1.0
ssbsg16
g0
(g17
g2
Ntp635
Rp636
(dp637
g21
I1
sbsba(ics475_types
Instance
p638
(dp639
g11
(ics475_types
FeatureVector
p640
(dp641
g14
(dp642
I1
F-1.015719
sI2
F-0.331333
sI3
F-2.021435
sI4
F-1.293579
sI9
F1.0
ssbsg16
g0
(g17
g2
Ntp643
Rp644
(dp645
g21
I1
sbsba(ics475_types
Instance
p646
(dp647
g11
(ics475_types
FeatureVector
p648
(dp649
g14
(dp650
I1
F-0.006862
sI2
F-0.237362
sI3
F-0.426615
sI4
F-0.73806
sI5
F1.0
ssbsg16
g0
(g17
g2
Ntp651
Rp652
(dp653
g21
I0
sbsba(ics475_types
Instance
p654
(dp655
g11
(ics475_types
FeatureVector
p656
(dp657
g14
(dp658
I1
F0.712833
sI2
F-1.02485
sI3
F-0.210737
sI4
F-0.292823
sI10
F1.0
ssbsg16
g0
(g17
g2
Ntp659
Rp660
(dp661
g21
I1
sbsba(ics475_types
Instance
p662
(dp663
g11
(ics475_types
FeatureVector
p664
(dp665
g14
(dp666
I1
F-1.239852
sI2
F0.592939
sI3
F0.152115
sI4
F0.265873
sI5
F1.0
ssbsg16
g0
(g17
g2
Ntp667
Rp668
(dp669
g21
I0
sbsba(ics475_types
Instance
p670
(dp671
g11
(ics475_types
FeatureVector
p672
(dp673
g14
(dp674
I1
F1.31932
sI2
F1.224366
sI3
F-0.081596
sI4
F1.322069
sI10
F1.0
ssbsg16
g0
(g17
g2
Ntp675
Rp676
(dp677
g21
I1
sbsba(ics475_types
Instance
p678
(dp679
g11
(ics475_types
FeatureVector
p680
(dp681
g14
(dp682
I1
F-0.728193
sI2
F-2.104222
sI3
F1.122884
sI4
F0.102936
sI9
F1.0
ssbsg16
g0
(g17
g2
Ntp683
Rp684
(dp685
g21
I1
sbsba(ics475_types
Instance
p686
(dp687
g11
(ics475_types
FeatureVector
p688
(dp689
g14
(dp690
I1
F-0.548582
sI2
F-0.911485
sI3
F1.26088
sI4
F2.379509
sI6
F1.0
ssbsg16
g0
(g17
g2
Ntp691
Rp692
(dp693
g21
I0
sbsba(ics475_types
Instance
p694
(dp695
g11
(ics475_types
FeatureVector
p696
(dp697
g14
(dp698
I1
F0.129379
sI2
F-0.154126
sI3
F0.301425
sI4
F-0.096164
sI5
F1.0
ssbsg16
g0
(g17
g2
Ntp699
Rp700
(dp701
g21
I0
sbsba(ics475_types
Instance
p702
(dp703
g11
(ics475_types
FeatureVector
p704
(dp705
g14
(dp706
I1
F-0.021011
sI2
F0.989553
sI3
F1.339753
sI4
F-1.873161
sI10
F1.0
ssbsg16
g0
(g17
g2
Ntp707
Rp708
(dp709
g21
I1
sbsba(ics475_types
Instance
p710
(dp711
g11
(ics475_types
FeatureVector
p712
(dp713
g14
(dp714
I1
F-0.730743
sI2
F0.320144
sI3
F0.819797
sI4
F-1.005415
sI5
F1.0
ssbsg16
g0
(g17
g2
Ntp715
Rp716
(dp717
g21
I0
sbsba(ics475_types
Instance
p718
(dp719
g11
(ics475_types
FeatureVector
p720
(dp721
g14
(dp722
I1
F-0.001976
sI2
F0.224087
sI3
F-0.054452
sI4
F-0.208751
sI10
F1.0
ssbsg16
g0
(g17
g2
Ntp723
Rp724
(dp725
g21
I1
sbsba(ics475_types
Instance
p726
(dp727
g11
(ics475_types
FeatureVector
p728
(dp729
g14
(dp730
I8
F1.0
sI1
F-0.544142
sI2
F0.869207
sI3
F-1.440925
sI4
F-1.714905
ssbsg16
g0
(g17
g2
Ntp731
Rp732
(dp733
g21
I1
sbsba(ics475_types
Instance
p734
(dp735
g11
(ics475_types
FeatureVector
p736
(dp737
g14
(dp738
I1
F0.163382
sI2
F-0.444848
sI3
F-0.02072
sI4
F-1.101898
sI6
F1.0
ssbsg16
g0
(g17
g2
Ntp739
Rp740
(dp741
g21
I0
sbsba(ics475_types
Instance
p742
(dp743
g11
(ics475_types
FeatureVector
p744
(dp745
g14
(dp746
I1
F1.002426
sI2
F0.450205
sI3
F1.366856
sI4
F-1.766558
sI6
F1.0
ssbsg16
g0
(g17
g2
Ntp747
Rp748
(dp749
g21
I0
sbsba(ics475_types
Instance
p750
(dp751
g11
(ics475_types
FeatureVector
p752
(dp753
g14
(dp754
I1
F-1.044637
sI2
F0.923493
sI3
F-1.491276
sI4
F0.365047
sI5
F1.0
ssbsg16
g0
(g17
g2
Ntp755
Rp756
(dp757
g21
I0
sbsba(ics475_types
Instance
p758
(dp759
g11
(ics475_types
FeatureVector
p760
(dp761
g14
(dp762
I1
F-1.501294
sI2
F-1.904507
sI3
F-0.661203
sI4
F-0.413673
sI6
F1.0
ssbsg16
g0
(g17
g2
Ntp763
Rp764
(dp765
g21
I0
sbsba(ics475_types
Instance
p766
(dp767
g11
(ics475_types
FeatureVector
p768
(dp769
g14
(dp770
I8
F1.0
sI1
F0.986336
sI2
F-1.176534
sI3
F-0.206863
sI4
F-0.28222
ssbsg16
g0
(g17
g2
Ntp771
Rp772
(dp773
g21
I1
sbsba(ics475_types
Instance
p774
(dp775
g11
(ics475_types
FeatureVector
p776
(dp777
g14
(dp778
I8
F1.0
sI1
F0.963708
sI2
F0.374626
sI3
F1.862778
sI4
F-1.355717
ssbsg16
g0
(g17
g2
Ntp779
Rp780
(dp781
g21
I1
sbsba(ics475_types
Instance
p782
(dp783
g11
(ics475_types
FeatureVector
p784
(dp785
g14
(dp786
I1
F-0.247342
sI2
F-0.88087
sI3
F-0.80107
sI4
F-0.114619
sI6
F1.0
ssbsg16
g0
(g17
g2
Ntp787
Rp788
(dp789
g21
I0
sbsba(ics475_types
Instance
p790
(dp791
g11
(ics475_types
FeatureVector
p792
(dp793
g14
(dp794
I1
F-2.947869
sI2
F0.62213
sI3
F-0.018182
sI4
F0.15699
sI9
F1.0
ssbsg16
g0
(g17
g2
Ntp795
Rp796
(dp797
g21
I1
sbsba(ics475_types
Instance
p798
(dp799
g11
(ics475_types
FeatureVector
p800
(dp801
g14
(dp802
I1
F-0.268756
sI2
F0.247382
sI3
F1.46126
sI4
F-0.11659
sI9
F1.0
ssbsg16
g0
(g17
g2
Ntp803
Rp804
(dp805
g21
I1
sbsba(ics475_types
Instance
p806
(dp807
g11
(ics475_types
FeatureVector
p808
(dp809
g14
(dp810
I1
F0.523265
sI2
F0.360893
sI3
F-1.354115
sI4
F0.030045
sI5
F1.0
ssbsg16
g0
(g17
g2
Ntp811
Rp812
(dp813
g21
I0
sbsba(ics475_types
Instance
p814
(dp815
g11
(ics475_types
FeatureVector
p816
(dp817
g14
(dp818
I1
F0.131376
sI2
F-1.389573
sI3
F0.600257
sI4
F0.239211
sI9
F1.0
ssbsg16
g0
(g17
g2
Ntp819
Rp820
(dp821
g21
I1
sbsba(ics475_types
Instance
p822
(dp823
g11
(ics475_types
FeatureVector
p824
(dp825
g14
(dp826
I1
F-0.217012
sI2
F0.471333
sI3
F0.692048
sI4
F-1.356017
sI5
F1.0
ssbsg16
g0
(g17
g2
Ntp827
Rp828
(dp829
g21
I0
sbsba(ics475_types
Instance
p830
(dp831
g11
(ics475_types
FeatureVector
p832
(dp833
g14
(dp834
I8
F1.0
sI1
F-0.618658
sI2
F0.210652
sI3
F0.707887
sI4
F0.015018
ssbsg16
g0
(g17
g2
Ntp835
Rp836
(dp837
g21
I1
sbsba(ics475_types
Instance
p838
(dp839
g11
(ics475_types
FeatureVector
p840
(dp841
g14
(dp842
I1
F-0.279044
sI2
F-1.445255
sI3
F-0.259265
sI4
F-0.187915
sI7
F1.0
ssbsg16
g0
(g17
g2
Ntp843
Rp844
(dp845
g21
I0
sbsba(ics475_types
Instance
p846
(dp847
g11
(ics475_types
FeatureVector
p848
(dp849
g14
(dp850
I1
F-0.383355
sI2
F-0.216309
sI3
F-0.608664
sI4
F-1.196166
sI9
F1.0
ssbsg16
g0
(g17
g2
Ntp851
Rp852
(dp853
g21
I1
sbsba(ics475_types
Instance
p854
(dp855
g11
(ics475_types
FeatureVector
p856
(dp857
g14
(dp858
I8
F1.0
sI1
F0.102767
sI2
F0.878055
sI3
F1.130852
sI4
F-0.086804
ssbsg16
g0
(g17
g2
Ntp859
Rp860
(dp861
g21
I1
sbsba(ics475_types
Instance
p862
(dp863
g11
(ics475_types
FeatureVector
p864
(dp865
g14
(dp866
I8
F1.0
sI1
F0.424491
sI2
F1.219673
sI3
F2.576273
sI4
F-0.97018
ssbsg16
g0
(g17
g2
Ntp867
Rp868
(dp869
g21
I1
sbsba(ics475_types
Instance
p870
(dp871
g11
(ics475_types
FeatureVector
p872
(dp873
g14
(dp874
I8
F1.0
sI1
F-1.347136
sI2
F-1.44951
sI3
F0.984814
sI4
F-1.22168
ssbsg16
g0
(g17
g2
Ntp875
Rp876
(dp877
g21
I1
sbsba(ics475_types
Instance
p878
(dp879
g11
(ics475_types
FeatureVector
p880
(dp881
g14
(dp882
I1
F-0.417772
sI2
F2.704279
sI3
F0.949185
sI4
F1.475007
sI5
F1.0
ssbsg16
g0
(g17
g2
Ntp883
Rp884
(dp885
g21
I0
sbsba(ics475_types
Instance
p886
(dp887
g11
(ics475_types
FeatureVector
p888
(dp889
g14
(dp890
I1
F0.135769
sI2
F-0.896008
sI3
F0.266146
sI4
F0.21197
sI7
F1.0
ssbsg16
g0
(g17
g2
Ntp891
Rp892
(dp893
g21
I0
sbsba(ics475_types
Instance
p894
(dp895
g11
(ics475_types
FeatureVector
p896
(dp897
g14
(dp898
I8
F1.0
sI1
F0.640144
sI2
F0.293722
sI3
F0.136836
sI4
F1.019796
ssbsg16
g0
(g17
g2
Ntp899
Rp900
(dp901
g21
I1
sbsba(ics475_types
Instance
p902
(dp903
g11
(ics475_types
FeatureVector
p904
(dp905
g14
(dp906
I1
F0.629758
sI2
F0.973522
sI3
F0.455217
sI4
F-1.44088
sI7
F1.0
ssbsg16
g0
(g17
g2
Ntp907
Rp908
(dp909
g21
I0
sbsba(ics475_types
Instance
p910
(dp911
g11
(ics475_types
FeatureVector
p912
(dp913
g14
(dp914
I1
F-0.872942
sI2
F-0.169854
sI3
F-0.055218
sI4
F-0.880287
sI9
F1.0
ssbsg16
g0
(g17
g2
Ntp915
Rp916
(dp917
g21
I1
sbsba(ics475_types
Instance
p918
(dp919
g11
(ics475_types
FeatureVector
p920
(dp921
g14
(dp922
I1
F0.803744
sI2
F-0.755457
sI3
F1.022864
sI4
F1.634436
sI5
F1.0
ssbsg16
g0
(g17
g2
Ntp923
Rp924
(dp925
g21
I0
sbsba(ics475_types
Instance
p926
(dp927
g11
(ics475_types
FeatureVector
p928
(dp929
g14
(dp930
I1
F1.464787
sI2
F-1.182417
sI3
F0.846262
sI4
F1.191927
sI5
F1.0
ssbsg16
g0
(g17
g2
Ntp931
Rp932
(dp933
g21
I0
sbsba(ics475_types
Instance
p934
(dp935
g11
(ics475_types
FeatureVector
p936
(dp937
g14
(dp938
I1
F-2.627473
sI2
F-0.390938
sI3
F-1.184653
sI4
F0.039143
sI10
F1.0
ssbsg16
g0
(g17
g2
Ntp939
Rp940
(dp941
g21
I1
sbsba(ics475_types
Instance
p942
(dp943
g11
(ics475_types
FeatureVector
p944
(dp945
g14
(dp946
I1
F-0.782667
sI2
F-0.202711
sI3
F-0.559344
sI4
F-1.769814
sI6
F1.0
ssbsg16
g0
(g17
g2
Ntp947
Rp948
(dp949
g21
I0
sbsba(ics475_types
Instance
p950
(dp951
g11
(ics475_types
FeatureVector
p952
(dp953
g14
(dp954
I1
F0.586184
sI2
F0.155918
sI3
F-1.446672
sI4
F-0.207444
sI6
F1.0
ssbsg16
g0
(g17
g2
Ntp955
Rp956
(dp957
g21
I0
sbsba(ics475_types
Instance
p958
(dp959
g11
(ics475_types
FeatureVector
p960
(dp961
g14
(dp962
I1
F0.50607
sI2
F-0.241858
sI3
F0.332634
sI4
F1.022449
sI5
F1.0
ssbsg16
g0
(g17
g2
Ntp963
Rp964
(dp965
g21
I0
sbsba(ics475_types
Instance
p966
(dp967
g11
(ics475_types
FeatureVector
p968
(dp969
g14
(dp970
I8
F1.0
sI1
F-1.111977
sI2
F-0.205735
sI3
F-0.389579
sI4
F-0.178368
ssbsg16
g0
(g17
g2
Ntp971
Rp972
(dp973
g21
I1
sbsba(ics475_types
Instance
p974
(dp975
g11
(ics475_types
FeatureVector
p976
(dp977
g14
(dp978
I8
F1.0
sI1
F0.904383
sI2
F0.8023
sI3
F-0.320863
sI4
F-2.89908
ssbsg16
g0
(g17
g2
Ntp979
Rp980
(dp981
g21
I1
sbsba(ics475_types
Instance
p982
(dp983
g11
(ics475_types
FeatureVector
p984
(dp985
g14
(dp986
I8
F1.0
sI1
F0.982154
sI2
F-0.224903
sI3
F0.102708
sI4
F-0.459321
ssbsg16
g0
(g17
g2
Ntp987
Rp988
(dp989
g21
I1
sbsba(ics475_types
Instance
p990
(dp991
g11
(ics475_types
FeatureVector
p992
(dp993
g14
(dp994
I1
F0.52571
sI2
F-0.285837
sI3
F-0.675749
sI4
F0.58638
sI6
F1.0
ssbsg16
g0
(g17
g2
Ntp995
Rp996
(dp997
g21
I0
sbsba(ics475_types
Instance
p998
(dp999
g11
(ics475_types
FeatureVector
p1000
(dp1001
g14
(dp1002
I8
F1.0
sI1
F-0.158284
sI2
F-1.328792
sI3
F-0.6054
sI4
F0.192222
ssbsg16
g0
(g17
g2
Ntp1003
Rp1004
(dp1005
g21
I1
sbsba(ics475_types
Instance
p1006
(dp1007
g11
(ics475_types
FeatureVector
p1008
(dp1009
g14
(dp1010
I1
F-0.208541
sI2
F1.528418
sI3
F-1.761946
sI4
F0.747671
sI5
F1.0
ssbsg16
g0
(g17
g2
Ntp1011
Rp1012
(dp1013
g21
I0
sbsba(ics475_types
Instance
p1014
(dp1015
g11
(ics475_types
FeatureVector
p1016
(dp1017
g14
(dp1018
I1
F-0.475609
sI2
F-0.830729
sI3
F0.352499
sI4
F-0.566768
sI6
F1.0
ssbsg16
g0
(g17
g2
Ntp1019
Rp1020
(dp1021
g21
I0
sbsba(ics475_types
Instance
p1022
(dp1023
g11
(ics475_types
FeatureVector
p1024
(dp1025
g14
(dp1026
I1
F-1.167294
sI2
F-0.551809
sI3
F-0.240799
sI4
F-0.938808
sI5
F1.0
ssbsg16
g0
(g17
g2
Ntp1027
Rp1028
(dp1029
g21
I0
sbsba(ics475_types
Instance
p1030
(dp1031
g11
(ics475_types
FeatureVector
p1032
(dp1033
g14
(dp1034
I1
F-0.291314
sI2
F-1.104918
sI3
F0.483791
sI4
F1.259638
sI6
F1.0
ssbsg16
g0
(g17
g2
Ntp1035
Rp1036
(dp1037
g21
I0
sbsba(ics475_types
Instance
p1038
(dp1039
g11
(ics475_types
FeatureVector
p1040
(dp1041
g14
(dp1042
I8
F1.0
sI1
F1.594954
sI2
F-1.596691
sI3
F0.186158
sI4
F0.815733
ssbsg16
g0
(g17
g2
Ntp1043
Rp1044
(dp1045
g21
I1
sbsba(ics475_types
Instance
p1046
(dp1047
g11
(ics475_types
FeatureVector
p1048
(dp1049
g14
(dp1050
I8
F1.0
sI1
F1.240662
sI2
F-1.287038
sI3
F0.240102
sI4
F-1.443629
ssbsg16
g0
(g17
g2
Ntp1051
Rp1052
(dp1053
g21
I1
sbsba(ics475_types
Instance
p1054
(dp1055
g11
(ics475_types
FeatureVector
p1056
(dp1057
g14
(dp1058
I1
F0.397917
sI2
F-0.304143
sI3
F-0.040102
sI4
F0.725402
sI7
F1.0
ssbsg16
g0
(g17
g2
Ntp1059
Rp1060
(dp1061
g21
I0
sbsba(ics475_types
Instance
p1062
(dp1063
g11
(ics475_types
FeatureVector
p1064
(dp1065
g14
(dp1066
I1
F0.974772
sI2
F-0.471917
sI3
F2.553344
sI4
F0.138533
sI10
F1.0
ssbsg16
g0
(g17
g2
Ntp1067
Rp1068
(dp1069
g21
I1
sbsba(ics475_types
Instance
p1070
(dp1071
g11
(ics475_types
FeatureVector
p1072
(dp1073
g14
(dp1074
I1
F-0.165731
sI2
F-0.396448
sI3
F-0.089814
sI4
F1.24028
sI5
F1.0
ssbsg16
g0
(g17
g2
Ntp1075
Rp1076
(dp1077
g21
I0
sbsba(ics475_types
Instance
p1078
(dp1079
g11
(ics475_types
FeatureVector
p1080
(dp1081
g14
(dp1082
I1
F0.576273
sI2
F-1.774051
sI3
F1.069164
sI4
F-1.361492
sI5
F1.0
ssbsg16
g0
(g17
g2
Ntp1083
Rp1084
(dp1085
g21
I0
sbsba(ics475_types
Instance
p1086
(dp1087
g11
(ics475_types
FeatureVector
p1088
(dp1089
g14
(dp1090
I1
F-0.340699
sI2
F1.115615
sI3
F0.702169
sI4
F-2.65304
sI5
F1.0
ssbsg16
g0
(g17
g2
Ntp1091
Rp1092
(dp1093
g21
I0
sbsba(ics475_types
Instance
p1094
(dp1095
g11
(ics475_types
FeatureVector
p1096
(dp1097
g14
(dp1098
I8
F1.0
sI1
F0.640457
sI2
F-0.178488
sI3
F-1.600808
sI4
F-2.5275
ssbsg16
g0
(g17
g2
Ntp1099
Rp1100
(dp1101
g21
I1
sbsba(ics475_types
Instance
p1102
(dp1103
g11
(ics475_types
FeatureVector
p1104
(dp1105
g14
(dp1106
I1
F2.332635
sI2
F0.626371
sI3
F1.708211
sI4
F1.067757
sI9
F1.0
ssbsg16
g0
(g17
g2
Ntp1107
Rp1108
(dp1109
g21
I1
sbsba(ics475_types
Instance
p1110
(dp1111
g11
(ics475_types
FeatureVector
p1112
(dp1113
g14
(dp1114
I1
F1.621286
sI2
F-1.700282
sI3
F-0.331407
sI4
F0.006724
sI9
F1.0
ssbsg16
g0
(g17
g2
Ntp1115
Rp1116
(dp1117
g21
I1
sbsba(ics475_types
Instance
p1118
(dp1119
g11
(ics475_types
FeatureVector
p1120
(dp1121
g14
(dp1122
I1
F-0.106299
sI2
F-0.912201
sI3
F-0.222997
sI4
F0.495154
sI5
F1.0
ssbsg16
g0
(g17
g2
Ntp1123
Rp1124
(dp1125
g21
I0
sbsba(ics475_types
Instance
p1126
(dp1127
g11
(ics475_types
FeatureVector
p1128
(dp1129
g14
(dp1130
I1
F-1.559113
sI2
F0.082962
sI3
F0.329576
sI4
F-0.841297
sI10
F1.0
ssbsg16
g0
(g17
g2
Ntp1131
Rp1132
(dp1133
g21
I1
sbsba(ics475_types
Instance
p1134
(dp1135
g11
(ics475_types
FeatureVector
p1136
(dp1137
g14
(dp1138
I1
F-0.330647
sI2
F-0.322335
sI3
F-0.121836
sI4
F-2.202797
sI5
F1.0
ssbsg16
g0
(g17
g2
Ntp1139
Rp1140
(dp1141
g21
I0
sbsba(ics475_types
Instance
p1142
(dp1143
g11
(ics475_types
FeatureVector
p1144
(dp1145
g14
(dp1146
I1
F0.651159
sI2
F1.386347
sI3
F0.917619
sI4
F0.805583
sI7
F1.0
ssbsg16
g0
(g17
g2
Ntp1147
Rp1148
(dp1149
g21
I0
sbsba(ics475_types
Instance
p1150
(dp1151
g11
(ics475_types
FeatureVector
p1152
(dp1153
g14
(dp1154
I1
F-1.276657
sI2
F1.160312
sI3
F-0.855412
sI4
F-0.276727
sI9
F1.0
ssbsg16
g0
(g17
g2
Ntp1155
Rp1156
(dp1157
g21
I1
sbsba(ics475_types
Instance
p1158
(dp1159
g11
(ics475_types
FeatureVector
p1160
(dp1161
g14
(dp1162
I1
F-0.404909
sI2
F-0.345605
sI3
F-0.660765
sI4
F-0.377884
sI5
F1.0
ssbsg16
g0
(g17
g2
Ntp1163
Rp1164
(dp1165
g21
I0
sbsba(ics475_types
Instance
p1166
(dp1167
g11
(ics475_types
FeatureVector
p1168
(dp1169
g14
(dp1170
I1
F0.723343
sI2
F-0.991233
sI3
F-0.631951
sI4
F-1.293252
sI9
F1.0
ssbsg16
g0
(g17
g2
Ntp1171
Rp1172
(dp1173
g21
I1
sbsba(ics475_types
Instance
p1174
(dp1175
g11
(ics475_types
FeatureVector
p1176
(dp1177
g14
(dp1178
I1
F0.695834
sI2
F-0.599129
sI3
F0.273819
sI4
F1.059211
sI9
F1.0
ssbsg16
g0
(g17
g2
Ntp1179
Rp1180
(dp1181
g21
I1
sbsba(ics475_types
Instance
p1182
(dp1183
g11
(ics475_types
FeatureVector
p1184
(dp1185
g14
(dp1186
I1
F1.187242
sI2
F0.544782
sI3
F0.15338
sI4
F0.621412
sI10
F1.0
ssbsg16
g0
(g17
g2
Ntp1187
Rp1188
(dp1189
g21
I1
sbsba(ics475_types
Instance
p1190
(dp1191
g11
(ics475_types
FeatureVector
p1192
(dp1193
g14
(dp1194
I1
F-0.590425
sI2
F0.022411
sI3
F1.325755
sI4
F0.147727
sI5
F1.0
ssbsg16
g0
(g17
g2
Ntp1195
Rp1196
(dp1197
g21
I0
sbsba(ics475_types
Instance
p1198
(dp1199
g11
(ics475_types
FeatureVector
p1200
(dp1201
g14
(dp1202
I1
F0.726874
sI2
F-0.204535
sI3
F0.559018
sI4
F-0.906986
sI10
F1.0
ssbsg16
g0
(g17
g2
Ntp1203
Rp1204
(dp1205
g21
I1
sbsba(ics475_types
Instance
p1206
(dp1207
g11
(ics475_types
FeatureVector
p1208
(dp1209
g14
(dp1210
I1
F0.733658
sI2
F0.221602
sI3
F1.231533
sI4
F0.003393
sI9
F1.0
ssbsg16
g0
(g17
g2
Ntp1211
Rp1212
(dp1213
g21
I1
sbsba(ics475_types
Instance
p1214
(dp1215
g11
(ics475_types
FeatureVector
p1216
(dp1217
g14
(dp1218
I1
F-1.644417
sI2
F0.180978
sI3
F0.209157
sI4
F-0.264099
sI5
F1.0
ssbsg16
g0
(g17
g2
Ntp1219
Rp1220
(dp1221
g21
I0
sbsba(ics475_types
Instance
p1222
(dp1223
g11
(ics475_types
FeatureVector
p1224
(dp1225
g14
(dp1226
I1
F1.30995
sI2
F-0.372274
sI3
F0.204259
sI4
F-0.963716
sI6
F1.0
ssbsg16
g0
(g17
g2
Ntp1227
Rp1228
(dp1229
g21
I0
sbsba(ics475_types
Instance
p1230
(dp1231
g11
(ics475_types
FeatureVector
p1232
(dp1233
g14
(dp1234
I1
F-0.191326
sI2
F-1.236839
sI3
F-1.988005
sI4
F-1.209113
sI7
F1.0
ssbsg16
g0
(g17
g2
Ntp1235
Rp1236
(dp1237
g21
I0
sbsba(ics475_types
Instance
p1238
(dp1239
g11
(ics475_types
FeatureVector
p1240
(dp1241
g14
(dp1242
I1
F0.017053
sI2
F-1.894227
sI3
F-0.15142
sI4
F-0.339721
sI10
F1.0
ssbsg16
g0
(g17
g2
Ntp1243
Rp1244
(dp1245
g21
I1
sbsba(ics475_types
Instance
p1246
(dp1247
g11
(ics475_types
FeatureVector
p1248
(dp1249
g14
(dp1250
I8
F1.0
sI1
F0.959783
sI2
F-0.793376
sI3
F0.8465
sI4
F0.107971
ssbsg16
g0
(g17
g2
Ntp1251
Rp1252
(dp1253
g21
I1
sbsba(ics475_types
Instance
p1254
(dp1255
g11
(ics475_types
FeatureVector
p1256
(dp1257
g14
(dp1258
I1
F2.12797
sI2
F-1.481124
sI3
F0.690947
sI4
F1.090855
sI5
F1.0
ssbsg16
g0
(g17
g2
Ntp1259
Rp1260
(dp1261
g21
I0
sbsba(ics475_types
Instance
p1262
(dp1263
g11
(ics475_types
FeatureVector
p1264
(dp1265
g14
(dp1266
I1
F-1.102221
sI2
F0.433403
sI3
F0.298028
sI4
F-0.764742
sI7
F1.0
ssbsg16
g0
(g17
g2
Ntp1267
Rp1268
(dp1269
g21
I0
sbsba(ics475_types
Instance
p1270
(dp1271
g11
(ics475_types
FeatureVector
p1272
(dp1273
g14
(dp1274
I1
F-0.560621
sI2
F-1.234693
sI3
F-0.649647
sI4
F0.026772
sI10
F1.0
ssbsg16
g0
(g17
g2
Ntp1275
Rp1276
(dp1277
g21
I1
sbsba(ics475_types
Instance
p1278
(dp1279
g11
(ics475_types
FeatureVector
p1280
(dp1281
g14
(dp1282
I1
F0.895505
sI2
F0.768354
sI3
F1.336372
sI4
F-0.765539
sI9
F1.0
ssbsg16
g0
(g17
g2
Ntp1283
Rp1284
(dp1285
g21
I1
sbsba(ics475_types
Instance
p1286
(dp1287
g11
(ics475_types
FeatureVector
p1288
(dp1289
g14
(dp1290
I1
F0.320723
sI2
F-0.635066
sI3
F1.351866
sI4
F0.496087
sI5
F1.0
ssbsg16
g0
(g17
g2
Ntp1291
Rp1292
(dp1293
g21
I0
sbsba(ics475_types
Instance
p1294
(dp1295
g11
(ics475_types
FeatureVector
p1296
(dp1297
g14
(dp1298
I1
F-0.797135
sI2
F-0.698759
sI3
F0.688113
sI4
F-0.627621
sI7
F1.0
ssbsg16
g0
(g17
g2
Ntp1299
Rp1300
(dp1301
g21
I0
sbsba(ics475_types
Instance
p1302
(dp1303
g11
(ics475_types
FeatureVector
p1304
(dp1305
g14
(dp1306
I1
F0.507953
sI2
F-0.227934
sI3
F1.123669
sI4
F-1.577578
sI7
F1.0
ssbsg16
g0
(g17
g2
Ntp1307
Rp1308
(dp1309
g21
I0
sbsba(ics475_types
Instance
p1310
(dp1311
g11
(ics475_types
FeatureVector
p1312
(dp1313
g14
(dp1314
I8
F1.0
sI1
F1.400342
sI2
F1.452149
sI3
F-0.087482
sI4
F-2.37872
ssbsg16
g0
(g17
g2
Ntp1315
Rp1316
(dp1317
g21
I1
sbsba(ics475_types
Instance
p1318
(dp1319
g11
(ics475_types
FeatureVector
p1320
(dp1321
g14
(dp1322
I1
F-0.80538
sI2
F-0.87066
sI3
F-0.874105
sI4
F0.162689
sI6
F1.0
ssbsg16
g0
(g17
g2
Ntp1323
Rp1324
(dp1325
g21
I0
sbsba(ics475_types
Instance
p1326
(dp1327
g11
(ics475_types
FeatureVector
p1328
(dp1329
g14
(dp1330
I1
F-0.831721
sI2
F-0.814811
sI3
F-0.081434
sI4
F-3.501696
sI10
F1.0
ssbsg16
g0
(g17
g2
Ntp1331
Rp1332
(dp1333
g21
I1
sbsba(ics475_types
Instance
p1334
(dp1335
g11
(ics475_types
FeatureVector
p1336
(dp1337
g14
(dp1338
I1
F-1.489798
sI2
F-0.88836
sI3
F0.032405
sI4
F0.09315
sI9
F1.0
ssbsg16
g0
(g17
g2
Ntp1339
Rp1340
(dp1341
g21
I1
sbsba(ics475_types
Instance
p1342
(dp1343
g11
(ics475_types
FeatureVector
p1344
(dp1345
g14
(dp1346
I1
F0.342348
sI2
F-1.121041
sI3
F0.816075
sI4
F-1.24377
sI10
F1.0
ssbsg16
g0
(g17
g2
Ntp1347
Rp1348
(dp1349
g21
I1
sbsba(ics475_types
Instance
p1350
(dp1351
g11
(ics475_types
FeatureVector
p1352
(dp1353
g14
(dp1354
I1
F-0.316651
sI2
F-0.764059
sI3
F-0.851549
sI4
F1.091748
sI10
F1.0
ssbsg16
g0
(g17
g2
Ntp1355
Rp1356
(dp1357
g21
I1
sbsba(ics475_types
Instance
p1358
(dp1359
g11
(ics475_types
FeatureVector
p1360
(dp1361
g14
(dp1362
I1
F-0.512984
sI2
F1.111058
sI3
F0.658498
sI4
F-1.660834
sI10
F1.0
ssbsg16
g0
(g17
g2
Ntp1363
Rp1364
(dp1365
g21
I1
sbsba(ics475_types
Instance
p1366
(dp1367
g11
(ics475_types
FeatureVector
p1368
(dp1369
g14
(dp1370
I1
F0.609858
sI2
F0.697341
sI3
F2.547094
sI4
F-0.482559
sI6
F1.0
ssbsg16
g0
(g17
g2
Ntp1371
Rp1372
(dp1373
g21
I0
sbsba(ics475_types
Instance
p1374
(dp1375
g11
(ics475_types
FeatureVector
p1376
(dp1377
g14
(dp1378
I1
F0.156073
sI2
F0.713409
sI3
F1.565094
sI4
F-0.526949
sI7
F1.0
ssbsg16
g0
(g17
g2
Ntp1379
Rp1380
(dp1381
g21
I0
sbsba(ics475_types
Instance
p1382
(dp1383
g11
(ics475_types
FeatureVector
p1384
(dp1385
g14
(dp1386
I1
F0.68434
sI2
F0.446802
sI3
F-1.178806
sI4
F-0.4257
sI5
F1.0
ssbsg16
g0
(g17
g2
Ntp1387
Rp1388
(dp1389
g21
I0
sbsba(ics475_types
Instance
p1390
(dp1391
g11
(ics475_types
FeatureVector
p1392
(dp1393
g14
(dp1394
I1
F0.801928
sI2
F-1.421621
sI3
F0.523145
sI4
F-0.354782
sI7
F1.0
ssbsg16
g0
(g17
g2
Ntp1395
Rp1396
(dp1397
g21
I0
sbsba(ics475_types
Instance
p1398
(dp1399
g11
(ics475_types
FeatureVector
p1400
(dp1401
g14
(dp1402
I1
F-0.913499
sI2
F-0.778756
sI3
F1.289167
sI4
F1.388172
sI9
F1.0
ssbsg16
g0
(g17
g2
Ntp1403
Rp1404
(dp1405
g21
I1
sbsba(ics475_types
Instance
p1406
(dp1407
g11
(ics475_types
FeatureVector
p1408
(dp1409
g14
(dp1410
I1
F0.514932
sI2
F-0.022757
sI3
F0.258215
sI4
F-0.07297
sI10
F1.0
ssbsg16
g0
(g17
g2
Ntp1411
Rp1412
(dp1413
g21
I1
sbsba(ics475_types
Instance
p1414
(dp1415
g11
(ics475_types
FeatureVector
p1416
(dp1417
g14
(dp1418
I1
F0.796769
sI2
F-2.006135
sI3
F0.547001
sI4
F0.23404
sI7
F1.0
ssbsg16
g0
(g17
g2
Ntp1419
Rp1420
(dp1421
g21
I0
sbsba(ics475_types
Instance
p1422
(dp1423
g11
(ics475_types
FeatureVector
p1424
(dp1425
g14
(dp1426
I1
F1.087324
sI2
F0.95416
sI3
F0.573513
sI4
F-0.315166
sI6
F1.0
ssbsg16
g0
(g17
g2
Ntp1427
Rp1428
(dp1429
g21
I0
sbsba(ics475_types
Instance
p1430
(dp1431
g11
(ics475_types
FeatureVector
p1432
(dp1433
g14
(dp1434
I8
F1.0
sI1
F-1.418195
sI2
F-0.778291
sI3
F-0.122967
sI4
F-0.766089
ssbsg16
g0
(g17
g2
Ntp1435
Rp1436
(dp1437
g21
I1
sbsba(ics475_types
Instance
p1438
(dp1439
g11
(ics475_types
FeatureVector
p1440
(dp1441
g14
(dp1442
I1
F0.257576
sI2
F1.007774
sI3
F-2.423144
sI4
F2.882562
sI9
F1.0
ssbsg16
g0
(g17
g2
Ntp1443
Rp1444
(dp1445
g21
I1
sbsba(ics475_types
Instance
p1446
(dp1447
g11
(ics475_types
FeatureVector
p1448
(dp1449
g14
(dp1450
I1
F1.314715
sI2
F-0.257642
sI3
F1.679164
sI4
F-1.185908
sI7
F1.0
ssbsg16
g0
(g17
g2
Ntp1451
Rp1452
(dp1453
g21
I0
sbsba(ics475_types
Instance
p1454
(dp1455
g11
(ics475_types
FeatureVector
p1456
(dp1457
g14
(dp1458
I1
F-0.43367
sI2
F-1.405086
sI3
F-1.122769
sI4
F0.040189
sI6
F1.0
ssbsg16
g0
(g17
g2
Ntp1459
Rp1460
(dp1461
g21
I0
sbsba(ics475_types
Instance
p1462
(dp1463
g11
(ics475_types
FeatureVector
p1464
(dp1465
g14
(dp1466
I1
F0.1146
sI2
F-2.896597
sI3
F-0.103678
sI4
F-2.333352
sI10
F1.0
ssbsg16
g0
(g17
g2
Ntp1467
Rp1468
(dp1469
g21
I1
sbsba(ics475_types
Instance
p1470
(dp1471
g11
(ics475_types
FeatureVector
p1472
(dp1473
g14
(dp1474
I1
F1.766397
sI2
F1.107904
sI3
F1.416664
sI4
F-0.454478
sI10
F1.0
ssbsg16
g0
(g17
g2
Ntp1475
Rp1476
(dp1477
g21
I1
sbsba(ics475_types
Instance
p1478
(dp1479
g11
(ics475_types
FeatureVector
p1480
(dp1481
g14
(dp1482
I8
F1.0
sI1
F1.235233
sI2
F-0.87008
sI3
F-0.918153
sI4
F-1.077804
ssbsg16
g0
(g17
g2
Ntp1483
Rp1484
(dp1485
g21
I1
sbsba(ics475_types
Instance
p1486
(dp1487
g11
(ics475_types
FeatureVector
p1488
(dp1489
g14
(dp1490
I1
F-1.621232
sI2
F-1.883563
sI3
F-1.821869
sI4
F-0.376404
sI5
F1.0
ssbsg16
g0
(g17
g2
Ntp1491
Rp1492
(dp1493
g21
I0
sbsba(ics475_types
Instance
p1494
(dp1495
g11
(ics475_types
FeatureVector
p1496
(dp1497
g14
(dp1498
I1
F-0.47762
sI2
F-1.204889
sI3
F0.025986
sI4
F-0.00198
sI6
F1.0
ssbsg16
g0
(g17
g2
Ntp1499
Rp1500
(dp1501
g21
I0
sbsba(ics475_types
Instance
p1502
(dp1503
g11
(ics475_types
FeatureVector
p1504
(dp1505
g14
(dp1506
I8
F1.0
sI1
F-1.316401
sI2
F-0.050796
sI3
F-1.33539
sI4
F-0.286538
ssbsg16
g0
(g17
g2
Ntp1507
Rp1508
(dp1509
g21
I1
sbsba(ics475_types
Instance
p1510
(dp1511
g11
(ics475_types
FeatureVector
p1512
(dp1513
g14
(dp1514
I1
F-0.079259
sI2
F1.075247
sI3
F1.201708
sI4
F1.17537
sI6
F1.0
ssbsg16
g0
(g17
g2
Ntp1515
Rp1516
(dp1517
g21
I0
sbsba(ics475_types
Instance
p1518
(dp1519
g11
(ics475_types
FeatureVector
p1520
(dp1521
g14
(dp1522
I1
F-0.782367
sI2
F2.289992
sI3
F-0.529328
sI4
F-0.754979
sI7
F1.0
ssbsg16
g0
(g17
g2
Ntp1523
Rp1524
(dp1525
g21
I0
sbsba(ics475_types
Instance
p1526
(dp1527
g11
(ics475_types
FeatureVector
p1528
(dp1529
g14
(dp1530
I8
F1.0
sI1
F0.609685
sI2
F1.097271
sI3
F0.34417
sI4
F0.212378
ssbsg16
g0
(g17
g2
Ntp1531
Rp1532
(dp1533
g21
I1
sbsba(ics475_types
Instance
p1534
(dp1535
g11
(ics475_types
FeatureVector
p1536
(dp1537
g14
(dp1538
I1
F-0.565021
sI2
F1.001786
sI3
F1.408456
sI4
F-0.412576
sI9
F1.0
ssbsg16
g0
(g17
g2
Ntp1539
Rp1540
(dp1541
g21
I1
sbsba(ics475_types
Instance
p1542
(dp1543
g11
(ics475_types
FeatureVector
p1544
(dp1545
g14
(dp1546
I1
F1.476503
sI2
F-0.881059
sI3
F-0.661218
sI4
F0.026039
sI6
F1.0
ssbsg16
g0
(g17
g2
Ntp1547
Rp1548
(dp1549
g21
I0
sbsba(ics475_types
Instance
p1550
(dp1551
g11
(ics475_types
FeatureVector
p1552
(dp1553
g14
(dp1554
I8
F1.0
sI1
F-0.444356
sI2
F-0.306404
sI3
F1.519153
sI4
F-1.954077
ssbsg16
g0
(g17
g2
Ntp1555
Rp1556
(dp1557
g21
I1
sbsba(ics475_types
Instance
p1558
(dp1559
g11
(ics475_types
FeatureVector
p1560
(dp1561
g14
(dp1562
I1
F-1.495855
sI2
F-0.436639
sI3
F-1.882818
sI4
F-0.722699
sI6
F1.0
ssbsg16
g0
(g17
g2
Ntp1563
Rp1564
(dp1565
g21
I0
sbsba(ics475_types
Instance
p1566
(dp1567
g11
(ics475_types
FeatureVector
p1568
(dp1569
g14
(dp1570
I8
F1.0
sI1
F-0.016377
sI2
F0.852804
sI3
F0.846253
sI4
F1.130285
ssbsg16
g0
(g17
g2
Ntp1571
Rp1572
(dp1573
g21
I1
sbsba(ics475_types
Instance
p1574
(dp1575
g11
(ics475_types
FeatureVector
p1576
(dp1577
g14
(dp1578
I1
F-0.950756
sI2
F1.237677
sI3
F-0.019058
sI4
F0.106324
sI9
F1.0
ssbsg16
g0
(g17
g2
Ntp1579
Rp1580
(dp1581
g21
I1
sbsba(ics475_types
Instance
p1582
(dp1583
g11
(ics475_types
FeatureVector
p1584
(dp1585
g14
(dp1586
I1
F-0.434735
sI2
F0.070619
sI3
F0.324157
sI4
F-0.86999
sI10
F1.0
ssbsg16
g0
(g17
g2
Ntp1587
Rp1588
(dp1589
g21
I1
sbsba(ics475_types
Instance
p1590
(dp1591
g11
(ics475_types
FeatureVector
p1592
(dp1593
g14
(dp1594
I8
F1.0
sI1
F1.20661
sI2
F-0.462466
sI3
F-0.159122
sI4
F0.447763
ssbsg16
g0
(g17
g2
Ntp1595
Rp1596
(dp1597
g21
I1
sbsba(ics475_types
Instance
p1598
(dp1599
g11
(ics475_types
FeatureVector
p1600
(dp1601
g14
(dp1602
I1
F-0.209954
sI2
F-0.73342
sI3
F-0.794551
sI4
F0.008351
sI5
F1.0
ssbsg16
g0
(g17
g2
Ntp1603
Rp1604
(dp1605
g21
I0
sbsba(ics475_types
Instance
p1606
(dp1607
g11
(ics475_types
FeatureVector
p1608
(dp1609
g14
(dp1610
I8
F1.0
sI1
F-0.733764
sI2
F0.600284
sI3
F-0.807463
sI4
F-0.050248
ssbsg16
g0
(g17
g2
Ntp1611
Rp1612
(dp1613
g21
I1
sbsba(ics475_types
Instance
p1614
(dp1615
g11
(ics475_types
FeatureVector
p1616
(dp1617
g14
(dp1618
I1
F-1.735254
sI2
F1.022202
sI3
F-0.014632
sI4
F0.202064
sI7
F1.0
ssbsg16
g0
(g17
g2
Ntp1619
Rp1620
(dp1621
g21
I0
sbsba(ics475_types
Instance
p1622
(dp1623
g11
(ics475_types
FeatureVector
p1624
(dp1625
g14
(dp1626
I1
F0.546598
sI2
F0.883519
sI3
F0.506709
sI4
F0.605686
sI10
F1.0
ssbsg16
g0
(g17
g2
Ntp1627
Rp1628
(dp1629
g21
I1
sbsba(ics475_types
Instance
p1630
(dp1631
g11
(ics475_types
FeatureVector
p1632
(dp1633
g14
(dp1634
I1
F0.562537
sI2
F-1.260238
sI3
F-0.512703
sI4
F-0.834192
sI10
F1.0
ssbsg16
g0
(g17
g2
Ntp1635
Rp1636
(dp1637
g21
I1
sbsba(ics475_types
Instance
p1638
(dp1639
g11
(ics475_types
FeatureVector
p1640
(dp1641
g14
(dp1642
I1
F0.117663
sI2
F-1.107386
sI3
F0.999763
sI4
F-0.460933
sI10
F1.0
ssbsg16
g0
(g17
g2
Ntp1643
Rp1644
(dp1645
g21
I1
sbsba(ics475_types
Instance
p1646
(dp1647
g11
(ics475_types
FeatureVector
p1648
(dp1649
g14
(dp1650
I1
F-1.412377
sI2
F-0.393376
sI3
F-0.856765
sI4
F-0.545746
sI9
F1.0
ssbsg16
g0
(g17
g2
Ntp1651
Rp1652
(dp1653
g21
I1
sbsba(ics475_types
Instance
p1654
(dp1655
g11
(ics475_types
FeatureVector
p1656
(dp1657
g14
(dp1658
I1
F-0.831074
sI2
F1.769307
sI3
F0.196756
sI4
F0.358776
sI5
F1.0
ssbsg16
g0
(g17
g2
Ntp1659
Rp1660
(dp1661
g21
I0
sbsba(ics475_types
Instance
p1662
(dp1663
g11
(ics475_types
FeatureVector
p1664
(dp1665
g14
(dp1666
I8
F1.0
sI1
F0.009975
sI2
F1.212179
sI3
F0.387539
sI4
F0.492292
ssbsg16
g0
(g17
g2
Ntp1667
Rp1668
(dp1669
g21
I1
sbsba(ics475_types
Instance
p1670
(dp1671
g11
(ics475_types
FeatureVector
p1672
(dp1673
g14
(dp1674
I1
F0.239211
sI2
F0.563245
sI3
F-0.650799
sI4
F-0.18933
sI7
F1.0
ssbsg16
g0
(g17
g2
Ntp1675
Rp1676
(dp1677
g21
I0
sbsba(ics475_types
Instance
p1678
(dp1679
g11
(ics475_types
FeatureVector
p1680
(dp1681
g14
(dp1682
I1
F1.465066
sI2
F-0.511211
sI3
F-1.031867
sI4
F-0.967066
sI6
F1.0
ssbsg16
g0
(g17
g2
Ntp1683
Rp1684
(dp1685
g21
I0
sbsba(ics475_types
Instance
p1686
(dp1687
g11
(ics475_types
FeatureVector
p1688
(dp1689
g14
(dp1690
I1
F0.261315
sI2
F1.305191
sI3
F0.76311
sI4
F-0.059457
sI7
F1.0
ssbsg16
g0
(g17
g2
Ntp1691
Rp1692
(dp1693
g21
I0
sbsba(ics475_types
Instance
p1694
(dp1695
g11
(ics475_types
FeatureVector
p1696
(dp1697
g14
(dp1698
I1
F0.155217
sI2
F0.661366
sI3
F-0.771923
sI4
F-1.672133
sI10
F1.0
ssbsg16
g0
(g17
g2
Ntp1699
Rp1700
(dp1701
g21
I1
sbsba(ics475_types
Instance
p1702
(dp1703
g11
(ics475_types
FeatureVector
p1704
(dp1705
g14
(dp1706
I1
F1.139378
sI2
F-1.39547
sI3
F2.14858
sI4
F-0.543076
sI6
F1.0
ssbsg16
g0
(g17
g2
Ntp1707
Rp1708
(dp1709
g21
I0
sbsba(ics475_types
Instance
p1710
(dp1711
g11
(ics475_types
FeatureVector
p1712
(dp1713
g14
(dp1714
I1
F-0.734545
sI2
F-0.341365
sI3
F0.576011
sI4
F0.548777
sI7
F1.0
ssbsg16
g0
(g17
g2
Ntp1715
Rp1716
(dp1717
g21
I0
sbsba(ics475_types
Instance
p1718
(dp1719
g11
(ics475_types
FeatureVector
p1720
(dp1721
g14
(dp1722
I1
F0.257541
sI2
F-0.809294
sI3
F-1.048714
sI4
F0.644371
sI10
F1.0
ssbsg16
g0
(g17
g2
Ntp1723
Rp1724
(dp1725
g21
I1
sbsba(ics475_types
Instance
p1726
(dp1727
g11
(ics475_types
FeatureVector
p1728
(dp1729
g14
(dp1730
I1
F0.591161
sI2
F-0.040239
sI3
F0.434235
sI4
F-0.257194
sI9
F1.0
ssbsg16
g0
(g17
g2
Ntp1731
Rp1732
(dp1733
g21
I1
sbsba(ics475_types
Instance
p1734
(dp1735
g11
(ics475_types
FeatureVector
p1736
(dp1737
g14
(dp1738
I8
F1.0
sI1
F-0.150731
sI2
F-0.608481
sI3
F-0.192414
sI4
F0.431339
ssbsg16
g0
(g17
g2
Ntp1739
Rp1740
(dp1741
g21
I1
sbsba(ics475_types
Instance
p1742
(dp1743
g11
(ics475_types
FeatureVector
p1744
(dp1745
g14
(dp1746
I1
F1.303735
sI2
F0.017788
sI3
F0.571434
sI4
F0.908662
sI9
F1.0
ssbsg16
g0
(g17
g2
Ntp1747
Rp1748
(dp1749
g21
I1
sbsba(ics475_types
Instance
p1750
(dp1751
g11
(ics475_types
FeatureVector
p1752
(dp1753
g14
(dp1754
I1
F-1.721939
sI2
F1.413522
sI3
F0.122281
sI4
F1.160229
sI6
F1.0
ssbsg16
g0
(g17
g2
Ntp1755
Rp1756
(dp1757
g21
I0
sbsba(ics475_types
Instance
p1758
(dp1759
g11
(ics475_types
FeatureVector
p1760
(dp1761
g14
(dp1762
I1
F0.298621
sI2
F-1.537645
sI3
F0.931671
sI4
F0.850216
sI6
F1.0
ssbsg16
g0
(g17
g2
Ntp1763
Rp1764
(dp1765
g21
I0
sbsba(ics475_types
Instance
p1766
(dp1767
g11
(ics475_types
FeatureVector
p1768
(dp1769
g14
(dp1770
I8
F1.0
sI1
F0.480018
sI2
F-1.029133
sI3
F-0.237653
sI4
F-1.174898
ssbsg16
g0
(g17
g2
Ntp1771
Rp1772
(dp1773
g21
I1
sbsba(ics475_types
Instance
p1774
(dp1775
g11
(ics475_types
FeatureVector
p1776
(dp1777
g14
(dp1778
I1
F1.738012
sI2
F-1.059087
sI3
F-1.194669
sI4
F0.480908
sI9
F1.0
ssbsg16
g0
(g17
g2
Ntp1779
Rp1780
(dp1781
g21
I1
sbsba(ics475_types
Instance
p1782
(dp1783
g11
(ics475_types
FeatureVector
p1784
(dp1785
g14
(dp1786
I1
F-2.605002
sI2
F0.344588
sI3
F-1.035871
sI4
F1.261809
sI6
F1.0
ssbsg16
g0
(g17
g2
Ntp1787
Rp1788
(dp1789
g21
I0
sbsba(ics475_types
Instance
p1790
(dp1791
g11
(ics475_types
FeatureVector
p1792
(dp1793
g14
(dp1794
I1
F0.321046
sI2
F-0.695034
sI3
F-0.061
sI4
F-0.746072
sI10
F1.0
ssbsg16
g0
(g17
g2
Ntp1795
Rp1796
(dp1797
g21
I1
sbsba(ics475_types
Instance
p1798
(dp1799
g11
(ics475_types
FeatureVector
p1800
(dp1801
g14
(dp1802
I1
F1.67688
sI2
F-1.807351
sI3
F3.564788
sI4
F1.805686
sI5
F1.0
ssbsg16
g0
(g17
g2
Ntp1803
Rp1804
(dp1805
g21
I0
sbsba(ics475_types
Instance
p1806
(dp1807
g11
(ics475_types
FeatureVector
p1808
(dp1809
g14
(dp1810
I1
F-0.416091
sI2
F-0.006512
sI3
F0.814302
sI4
F1.224519
sI6
F1.0
ssbsg16
g0
(g17
g2
Ntp1811
Rp1812
(dp1813
g21
I0
sbsba(ics475_types
Instance
p1814
(dp1815
g11
(ics475_types
FeatureVector
p1816
(dp1817
g14
(dp1818
I1
F-0.199222
sI2
F-1.562438
sI3
F-0.149824
sI4
F-0.206056
sI10
F1.0
ssbsg16
g0
(g17
g2
Ntp1819
Rp1820
(dp1821
g21
I1
sbsba(ics475_types
Instance
p1822
(dp1823
g11
(ics475_types
FeatureVector
p1824
(dp1825
g14
(dp1826
I1
F0.436799
sI2
F0.54177
sI3
F0.34716
sI4
F0.048225
sI5
F1.0
ssbsg16
g0
(g17
g2
Ntp1827
Rp1828
(dp1829
g21
I0
sbsba(ics475_types
Instance
p1830
(dp1831
g11
(ics475_types
FeatureVector
p1832
(dp1833
g14
(dp1834
I1
F-1.259624
sI2
F0.381939
sI3
F0.762593
sI4
F1.747672
sI6
F1.0
ssbsg16
g0
(g17
g2
Ntp1835
Rp1836
(dp1837
g21
I0
sbsba(ics475_types
Instance
p1838
(dp1839
g11
(ics475_types
FeatureVector
p1840
(dp1841
g14
(dp1842
I1
F0.050455
sI2
F-1.106285
sI3
F0.282139
sI4
F1.449949
sI9
F1.0
ssbsg16
g0
(g17
g2
Ntp1843
Rp1844
(dp1845
g21
I1
sbsba(ics475_types
Instance
p1846
(dp1847
g11
(ics475_types
FeatureVector
p1848
(dp1849
g14
(dp1850
I1
F-0.738838
sI2
F1.527891
sI3
F-0.149906
sI4
F-0.642305
sI9
F1.0
ssbsg16
g0
(g17
g2
Ntp1851
Rp1852
(dp1853
g21
I1
sbsba(ics475_types
Instance
p1854
(dp1855
g11
(ics475_types
FeatureVector
p1856
(dp1857
g14
(dp1858
I8
F1.0
sI1
F-0.816135
sI2
F0.825353
sI3
F-0.78141
sI4
F1.956092
ssbsg16
g0
(g17
g2
Ntp1859
Rp1860
(dp1861
g21
I1
sbsba(ics475_types
Instance
p1862
(dp1863
g11
(ics475_types
FeatureVector
p1864
(dp1865
g14
(dp1866
I8
F1.0
sI1
F0.941084
sI2
F-0.933211
sI3
F0.571593
sI4
F-1.201349
ssbsg16
g0
(g17
g2
Ntp1867
Rp1868
(dp1869
g21
I1
sbsba(ics475_types
Instance
p1870
(dp1871
g11
(ics475_types
FeatureVector
p1872
(dp1873
g14
(dp1874
I8
F1.0
sI1
F-0.15994
sI2
F0.697727
sI3
F0.937209
sI4
F-0.181785
ssbsg16
g0
(g17
g2
Ntp1875
Rp1876
(dp1877
g21
I1
sbsba(ics475_types
Instance
p1878
(dp1879
g11
(ics475_types
FeatureVector
p1880
(dp1881
g14
(dp1882
I1
F-0.373142
sI2
F0.152791
sI3
F0.79212
sI4
F0.767632
sI10
F1.0
ssbsg16
g0
(g17
g2
Ntp1883
Rp1884
(dp1885
g21
I1
sbsba(ics475_types
Instance
p1886
(dp1887
g11
(ics475_types
FeatureVector
p1888
(dp1889
g14
(dp1890
I1
F0.313113
sI2
F1.770403
sI3
F0.180798
sI4
F0.294891
sI10
F1.0
ssbsg16
g0
(g17
g2
Ntp1891
Rp1892
(dp1893
g21
I1
sbsba(ics475_types
Instance
p1894
(dp1895
g11
(ics475_types
FeatureVector
p1896
(dp1897
g14
(dp1898
I1
F-0.193357
sI2
F-0.967284
sI3
F-0.397014
sI4
F2.074701
sI6
F1.0
ssbsg16
g0
(g17
g2
Ntp1899
Rp1900
(dp1901
g21
I0
sbsba(ics475_types
Instance
p1902
(dp1903
g11
(ics475_types
FeatureVector
p1904
(dp1905
g14
(dp1906
I1
F-0.86598
sI2
F0.315723
sI3
F0.534094
sI4
F-1.119383
sI10
F1.0
ssbsg16
g0
(g17
g2
Ntp1907
Rp1908
(dp1909
g21
I1
sbsba(ics475_types
Instance
p1910
(dp1911
g11
(ics475_types
FeatureVector
p1912
(dp1913
g14
(dp1914
I1
F0.468631
sI2
F-0.952938
sI3
F1.376244
sI4
F0.121132
sI7
F1.0
ssbsg16
g0
(g17
g2
Ntp1915
Rp1916
(dp1917
g21
I0
sbsba(ics475_types
Instance
p1918
(dp1919
g11
(ics475_types
FeatureVector
p1920
(dp1921
g14
(dp1922
I1
F1.227682
sI2
F-1.203632
sI3
F0.015705
sI4
F-0.007156
sI10
F1.0
ssbsg16
g0
(g17
g2
Ntp1923
Rp1924
(dp1925
g21
I1
sbsba(ics475_types
Instance
p1926
(dp1927
g11
(ics475_types
FeatureVector
p1928
(dp1929
g14
(dp1930
I1
F0.889255
sI2
F0.168888
sI3
F0.230584
sI4
F0.040358
sI9
F1.0
ssbsg16
g0
(g17
g2
Ntp1931
Rp1932
(dp1933
g21
I1
sbsba(ics475_types
Instance
p1934
(dp1935
g11
(ics475_types
FeatureVector
p1936
(dp1937
g14
(dp1938
I1
F-0.013704
sI2
F-2.439998
sI3
F-0.184453
sI4
F0.41616
sI6
F1.0
ssbsg16
g0
(g17
g2
Ntp1939
Rp1940
(dp1941
g21
I0
sbsba(ics475_types
Instance
p1942
(dp1943
g11
(ics475_types
FeatureVector
p1944
(dp1945
g14
(dp1946
I1
F-0.801254
sI2
F-1.045036
sI3
F-0.011912
sI4
F-0.695059
sI6
F1.0
ssbsg16
g0
(g17
g2
Ntp1947
Rp1948
(dp1949
g21
I0
sbsba(ics475_types
Instance
p1950
(dp1951
g11
(ics475_types
FeatureVector
p1952
(dp1953
g14
(dp1954
I1
F0.241709
sI2
F-2.170754
sI3
F1.400509
sI4
F0.821814
sI10
F1.0
ssbsg16
g0
(g17
g2
Ntp1955
Rp1956
(dp1957
g21
I1
sbsba(ics475_types
Instance
p1958
(dp1959
g11
(ics475_types
FeatureVector
p1960
(dp1961
g14
(dp1962
I1
F-0.002459
sI2
F-0.934063
sI3
F0.151684
sI4
F0.062029
sI10
F1.0
ssbsg16
g0
(g17
g2
Ntp1963
Rp1964
(dp1965
g21
I1
sbsba(ics475_types
Instance
p1966
(dp1967
g11
(ics475_types
FeatureVector
p1968
(dp1969
g14
(dp1970
I1
F0.787
sI2
F-1.158924
sI3
F-0.437947
sI4
F0.584884
sI5
F1.0
ssbsg16
g0
(g17
g2
Ntp1971
Rp1972
(dp1973
g21
I0
sbsba(ics475_types
Instance
p1974
(dp1975
g11
(ics475_types
FeatureVector
p1976
(dp1977
g14
(dp1978
I1
F0.037775
sI2
F-0.965864
sI3
F0.460046
sI4
F-0.224562
sI5
F1.0
ssbsg16
g0
(g17
g2
Ntp1979
Rp1980
(dp1981
g21
I0
sbsba(ics475_types
Instance
p1982
(dp1983
g11
(ics475_types
FeatureVector
p1984
(dp1985
g14
(dp1986
I1
F0.075139
sI2
F1.174369
sI3
F0.489093
sI4
F0.666129
sI10
F1.0
ssbsg16
g0
(g17
g2
Ntp1987
Rp1988
(dp1989
g21
I1
sbsba(ics475_types
Instance
p1990
(dp1991
g11
(ics475_types
FeatureVector
p1992
(dp1993
g14
(dp1994
I1
F-0.252099
sI2
F1.770277
sI3
F-0.823532
sI4
F-0.24591
sI9
F1.0
ssbsg16
g0
(g17
g2
Ntp1995
Rp1996
(dp1997
g21
I1
sbsba(ics475_types
Instance
p1998
(dp1999
g11
(ics475_types
FeatureVector
p2000
(dp2001
g14
(dp2002
I1
F0.971755
sI2
F0.133352
sI3
F-0.849397
sI4
F-0.483111
sI5
F1.0
ssbsg16
g0
(g17
g2
Ntp2003
Rp2004
(dp2005
g21
I0
sbsba(ics475_types
Instance
p2006
(dp2007
g11
(ics475_types
FeatureVector
p2008
(dp2009
g14
(dp2010
I1
F-2.272031
sI2
F-1.564656
sI3
F-0.171669
sI4
F-0.001203
sI10
F1.0
ssbsg16
g0
(g17
g2
Ntp2011
Rp2012
(dp2013
g21
I1
sbsba(ics475_types
Instance
p2014
(dp2015
g11
(ics475_types
FeatureVector
p2016
(dp2017
g14
(dp2018
I1
F-0.567288
sI2
F0.067796
sI3
F2.259231
sI4
F0.760561
sI9
F1.0
ssbsg16
g0
(g17
g2
Ntp2019
Rp2020
(dp2021
g21
I1
sbsba(ics475_types
Instance
p2022
(dp2023
g11
(ics475_types
FeatureVector
p2024
(dp2025
g14
(dp2026
I1
F-0.605537
sI2
F-0.878715
sI3
F-1.24979
sI4
F0.026265
sI9
F1.0
ssbsg16
g0
(g17
g2
Ntp2027
Rp2028
(dp2029
g21
I1
sbsba(ics475_types
Instance
p2030
(dp2031
g11
(ics475_types
FeatureVector
p2032
(dp2033
g14
(dp2034
I1
F1.076806
sI2
F-0.903121
sI3
F0.256513
sI4
F-1.313223
sI10
F1.0
ssbsg16
g0
(g17
g2
Ntp2035
Rp2036
(dp2037
g21
I1
sbsba(ics475_types
Instance
p2038
(dp2039
g11
(ics475_types
FeatureVector
p2040
(dp2041
g14
(dp2042
I1
F0.551913
sI2
F-0.70127
sI3
F-0.470569
sI4
F0.275935
sI6
F1.0
ssbsg16
g0
(g17
g2
Ntp2043
Rp2044
(dp2045
g21
I0
sbsba(ics475_types
Instance
p2046
(dp2047
g11
(ics475_types
FeatureVector
p2048
(dp2049
g14
(dp2050
I1
F1.134859
sI2
F1.838448
sI3
F-0.061395
sI4
F0.713413
sI9
F1.0
ssbsg16
g0
(g17
g2
Ntp2051
Rp2052
(dp2053
g21
I1
sbsba(ics475_types
Instance
p2054
(dp2055
g11
(ics475_types
FeatureVector
p2056
(dp2057
g14
(dp2058
I1
F-1.063374
sI2
F-1.161404
sI3
F0.763883
sI4
F0.692013
sI10
F1.0
ssbsg16
g0
(g17
g2
Ntp2059
Rp2060
(dp2061
g21
I1
sbsba(ics475_types
Instance
p2062
(dp2063
g11
(ics475_types
FeatureVector
p2064
(dp2065
g14
(dp2066
I1
F0.142923
sI2
F-1.041241
sI3
F1.199545
sI4
F0.689174
sI6
F1.0
ssbsg16
g0
(g17
g2
Ntp2067
Rp2068
(dp2069
g21
I0
sbsba(ics475_types
Instance
p2070
(dp2071
g11
(ics475_types
FeatureVector
p2072
(dp2073
g14
(dp2074
I1
F-0.165506
sI2
F2.460573
sI3
F0.468738
sI4
F1.860994
sI10
F1.0
ssbsg16
g0
(g17
g2
Ntp2075
Rp2076
(dp2077
g21
I1
sbsba(ics475_types
Instance
p2078
(dp2079
g11
(ics475_types
FeatureVector
p2080
(dp2081
g14
(dp2082
I1
F-0.439052
sI2
F1.73286
sI3
F-1.450387
sI4
F0.247955
sI6
F1.0
ssbsg16
g0
(g17
g2
Ntp2083
Rp2084
(dp2085
g21
I0
sbsba(ics475_types
Instance
p2086
(dp2087
g11
(ics475_types
FeatureVector
p2088
(dp2089
g14
(dp2090
I8
F1.0
sI1
F-0.049773
sI2
F-0.558883
sI3
F-1.071535
sI4
F0.491574
ssbsg16
g0
(g17
g2
Ntp2091
Rp2092
(dp2093
g21
I1
sbsba(ics475_types
Instance
p2094
(dp2095
g11
(ics475_types
FeatureVector
p2096
(dp2097
g14
(dp2098
I1
F-0.851895
sI2
F-0.746953
sI3
F1.063656
sI4
F0.437454
sI5
F1.0
ssbsg16
g0
(g17
g2
Ntp2099
Rp2100
(dp2101
g21
I0
sbsba(ics475_types
Instance
p2102
(dp2103
g11
(ics475_types
FeatureVector
p2104
(dp2105
g14
(dp2106
I8
F1.0
sI1
F-0.608095
sI2
F-0.258116
sI3
F1.277637
sI4
F-0.964073
ssbsg16
g0
(g17
g2
Ntp2107
Rp2108
(dp2109
g21
I1
sbsba(ics475_types
Instance
p2110
(dp2111
g11
(ics475_types
FeatureVector
p2112
(dp2113
g14
(dp2114
I1
F0.397447
sI2
F-1.03516
sI3
F0.42756
sI4
F0.392117
sI9
F1.0
ssbsg16
g0
(g17
g2
Ntp2115
Rp2116
(dp2117
g21
I1
sbsba(ics475_types
Instance
p2118
(dp2119
g11
(ics475_types
FeatureVector
p2120
(dp2121
g14
(dp2122
I1
F0.005485
sI2
F1.657809
sI3
F0.592079
sI4
F0.099403
sI10
F1.0
ssbsg16
g0
(g17
g2
Ntp2123
Rp2124
(dp2125
g21
I1
sbsba(ics475_types
Instance
p2126
(dp2127
g11
(ics475_types
FeatureVector
p2128
(dp2129
g14
(dp2130
I1
F0.272435
sI2
F0.533788
sI3
F1.16308
sI4
F-1.074984
sI5
F1.0
ssbsg16
g0
(g17
g2
Ntp2131
Rp2132
(dp2133
g21
I0
sbsba(ics475_types
Instance
p2134
(dp2135
g11
(ics475_types
FeatureVector
p2136
(dp2137
g14
(dp2138
I1
F-0.115388
sI2
F0.517151
sI3
F-0.493393
sI4
F0.430376
sI9
F1.0
ssbsg16
g0
(g17
g2
Ntp2139
Rp2140
(dp2141
g21
I1
sbsba(ics475_types
Instance
p2142
(dp2143
g11
(ics475_types
FeatureVector
p2144
(dp2145
g14
(dp2146
I1
F0.132347
sI2
F0.127733
sI3
F-0.513228
sI4
F0.12144
sI9
F1.0
ssbsg16
g0
(g17
g2
Ntp2147
Rp2148
(dp2149
g21
I1
sbsba(ics475_types
Instance
p2150
(dp2151
g11
(ics475_types
FeatureVector
p2152
(dp2153
g14
(dp2154
I1
F1.522354
sI2
F0.848887
sI3
F1.845034
sI4
F0.491255
sI5
F1.0
ssbsg16
g0
(g17
g2
Ntp2155
Rp2156
(dp2157
g21
I0
sbsba(ics475_types
Instance
p2158
(dp2159
g11
(ics475_types
FeatureVector
p2160
(dp2161
g14
(dp2162
I1
F-0.23553
sI2
F-1.468159
sI3
F0.987179
sI4
F1.176918
sI7
F1.0
ssbsg16
g0
(g17
g2
Ntp2163
Rp2164
(dp2165
g21
I0
sbsba(ics475_types
Instance
p2166
(dp2167
g11
(ics475_types
FeatureVector
p2168
(dp2169
g14
(dp2170
I1
F0.355511
sI2
F-0.266732
sI3
F1.365135
sI4
F0.179055
sI5
F1.0
ssbsg16
g0
(g17
g2
Ntp2171
Rp2172
(dp2173
g21
I0
sbsba(ics475_types
Instance
p2174
(dp2175
g11
(ics475_types
FeatureVector
p2176
(dp2177
g14
(dp2178
I1
F1.041864
sI2
F1.30648
sI3
F-1.47876
sI4
F0.003306
sI10
F1.0
ssbsg16
g0
(g17
g2
Ntp2179
Rp2180
(dp2181
g21
I1
sbsba(ics475_types
Instance
p2182
(dp2183
g11
(ics475_types
FeatureVector
p2184
(dp2185
g14
(dp2186
I1
F0.478686
sI2
F-0.651852
sI3
F-3.235265
sI4
F-0.903072
sI9
F1.0
ssbsg16
g0
(g17
g2
Ntp2187
Rp2188
(dp2189
g21
I1
sbsba(ics475_types
Instance
p2190
(dp2191
g11
(ics475_types
FeatureVector
p2192
(dp2193
g14
(dp2194
I1
F-0.639511
sI2
F0.227493
sI3
F-0.385673
sI4
F0.675419
sI9
F1.0
ssbsg16
g0
(g17
g2
Ntp2195
Rp2196
(dp2197
g21
I1
sbsba(ics475_types
Instance
p2198
(dp2199
g11
(ics475_types
FeatureVector
p2200
(dp2201
g14
(dp2202
I1
F0.594227
sI2
F-0.294402
sI3
F-0.559632
sI4
F0.45443
sI5
F1.0
ssbsg16
g0
(g17
g2
Ntp2203
Rp2204
(dp2205
g21
I0
sbsba(ics475_types
Instance
p2206
(dp2207
g11
(ics475_types
FeatureVector
p2208
(dp2209
g14
(dp2210
I8
F1.0
sI1
F-0.35299
sI2
F-0.092174
sI3
F1.484149
sI4
F-1.005846
ssbsg16
g0
(g17
g2
Ntp2211
Rp2212
(dp2213
g21
I1
sbsba(ics475_types
Instance
p2214
(dp2215
g11
(ics475_types
FeatureVector
p2216
(dp2217
g14
(dp2218
I1
F0.602307
sI2
F0.225091
sI3
F-1.393515
sI4
F0.905043
sI6
F1.0
ssbsg16
g0
(g17
g2
Ntp2219
Rp2220
(dp2221
g21
I0
sbsba(ics475_types
Instance
p2222
(dp2223
g11
(ics475_types
FeatureVector
p2224
(dp2225
g14
(dp2226
I1
F1.186277
sI2
F-1.58419
sI3
F-0.315976
sI4
F1.286959
sI10
F1.0
ssbsg16
g0
(g17
g2
Ntp2227
Rp2228
(dp2229
g21
I1
sbsba(ics475_types
Instance
p2230
(dp2231
g11
(ics475_types
FeatureVector
p2232
(dp2233
g14
(dp2234
I1
F-0.05945
sI2
F0.660823
sI3
F-1.270226
sI4
F1.571067
sI9
F1.0
ssbsg16
g0
(g17
g2
Ntp2235
Rp2236
(dp2237
g21
I1
sbsba(ics475_types
Instance
p2238
(dp2239
g11
(ics475_types
FeatureVector
p2240
(dp2241
g14
(dp2242
I8
F1.0
sI1
F-1.689989
sI2
F-1.345693
sI3
F1.2895
sI4
F-0.236485
ssbsg16
g0
(g17
g2
Ntp2243
Rp2244
(dp2245
g21
I1
sbsba(ics475_types
Instance
p2246
(dp2247
g11
(ics475_types
FeatureVector
p2248
(dp2249
g14
(dp2250
I1
F-0.870295
sI2
F0.250179
sI3
F0.762017
sI4
F-0.64035
sI7
F1.0
ssbsg16
g0
(g17
g2
Ntp2251
Rp2252
(dp2253
g21
I0
sbsba(ics475_types
Instance
p2254
(dp2255
g11
(ics475_types
FeatureVector
p2256
(dp2257
g14
(dp2258
I1
F0.724732
sI2
F-0.24643
sI3
F-0.603805
sI4
F-0.6765
sI7
F1.0
ssbsg16
g0
(g17
g2
Ntp2259
Rp2260
(dp2261
g21
I0
sbsba(ics475_types
Instance
p2262
(dp2263
g11
(ics475_types
FeatureVector
p2264
(dp2265
g14
(dp2266
I8
F1.0
sI1
F1.583587
sI2
F-1.20273
sI3
F0.996426
sI4
F-0.710608
ssbsg16
g0
(g17
g2
Ntp2267
Rp2268
(dp2269
g21
I1
sbsba(ics475_types
Instance
p2270
(dp2271
g11
(ics475_types
FeatureVector
p2272
(dp2273
g14
(dp2274
I8
F1.0
sI1
F0.780402
sI2
F-0.745075
sI3
F-1.005384
sI4
F0.580729
ssbsg16
g0
(g17
g2
Ntp2275
Rp2276
(dp2277
g21
I1
sbsba(ics475_types
Instance
p2278
(dp2279
g11
(ics475_types
FeatureVector
p2280
(dp2281
g14
(dp2282
I1
F1.036603
sI2
F1.101213
sI3
F-0.754694
sI4
F-0.542389
sI7
F1.0
ssbsg16
g0
(g17
g2
Ntp2283
Rp2284
(dp2285
g21
I0
sbsba(ics475_types
Instance
p2286
(dp2287
g11
(ics475_types
FeatureVector
p2288
(dp2289
g14
(dp2290
I1
F0.093472
sI2
F-0.253905
sI3
F-0.632911
sI4
F-0.817432
sI5
F1.0
ssbsg16
g0
(g17
g2
Ntp2291
Rp2292
(dp2293
g21
I0
sbsba(ics475_types
Instance
p2294
(dp2295
g11
(ics475_types
FeatureVector
p2296
(dp2297
g14
(dp2298
I1
F0.705301
sI2
F0.425461
sI3
F-0.027274
sI4
F-0.860077
sI6
F1.0
ssbsg16
g0
(g17
g2
Ntp2299
Rp2300
(dp2301
g21
I0
sbsba(ics475_types
Instance
p2302
(dp2303
g11
(ics475_types
FeatureVector
p2304
(dp2305
g14
(dp2306
I1
F-0.182064
sI2
F-1.372836
sI3
F-1.646071
sI4
F0.693511
sI6
F1.0
ssbsg16
g0
(g17
g2
Ntp2307
Rp2308
(dp2309
g21
I0
sbsba(ics475_types
Instance
p2310
(dp2311
g11
(ics475_types
FeatureVector
p2312
(dp2313
g14
(dp2314
I1
F0.761606
sI2
F1.089547
sI3
F0.468147
sI4
F0.574838
sI6
F1.0
ssbsg16
g0
(g17
g2
Ntp2315
Rp2316
(dp2317
g21
I0
sbsba(ics475_types
Instance
p2318
(dp2319
g11
(ics475_types
FeatureVector
p2320
(dp2321
g14
(dp2322
I1
F0.876248
sI2
F0.088477
sI3
F-0.59312
sI4
F0.306008
sI6
F1.0
ssbsg16
g0
(g17
g2
Ntp2323
Rp2324
(dp2325
g21
I0
sbsba(ics475_types
Instance
p2326
(dp2327
g11
(ics475_types
FeatureVector
p2328
(dp2329
g14
(dp2330
I1
F0.250449
sI2
F1.111362
sI3
F1.022035
sI4
F0.829017
sI6
F1.0
ssbsg16
g0
(g17
g2
Ntp2331
Rp2332
(dp2333
g21
I0
sbsba(ics475_types
Instance
p2334
(dp2335
g11
(ics475_types
FeatureVector
p2336
(dp2337
g14
(dp2338
I8
F1.0
sI1
F0.701476
sI2
F0.076265
sI3
F-1.481038
sI4
F-1.40953
ssbsg16
g0
(g17
g2
Ntp2339
Rp2340
(dp2341
g21
I1
sbsba(ics475_types
Instance
p2342
(dp2343
g11
(ics475_types
FeatureVector
p2344
(dp2345
g14
(dp2346
I1
F0.319904
sI2
F-0.247365
sI3
F-0.784431
sI4
F-0.484309
sI10
F1.0
ssbsg16
g0
(g17
g2
Ntp2347
Rp2348
(dp2349
g21
I1
sbsba(ics475_types
Instance
p2350
(dp2351
g11
(ics475_types
FeatureVector
p2352
(dp2353
g14
(dp2354
I1
F1.059723
sI2
F0.349323
sI3
F-1.090888
sI4
F1.152838
sI6
F1.0
ssbsg16
g0
(g17
g2
Ntp2355
Rp2356
(dp2357
g21
I0
sbsba(ics475_types
Instance
p2358
(dp2359
g11
(ics475_types
FeatureVector
p2360
(dp2361
g14
(dp2362
I1
F0.832334
sI2
F-1.18475
sI3
F-0.413485
sI4
F0.077489
sI7
F1.0
ssbsg16
g0
(g17
g2
Ntp2363
Rp2364
(dp2365
g21
I0
sbsba(ics475_types
Instance
p2366
(dp2367
g11
(ics475_types
FeatureVector
p2368
(dp2369
g14
(dp2370
I1
F0.323868
sI2
F-0.388501
sI3
F1.948317
sI4
F0.472584
sI5
F1.0
ssbsg16
g0
(g17
g2
Ntp2371
Rp2372
(dp2373
g21
I0
sbsba(ics475_types
Instance
p2374
(dp2375
g11
(ics475_types
FeatureVector
p2376
(dp2377
g14
(dp2378
I8
F1.0
sI1
F-0.427646
sI2
F0.481898
sI3
F-1.243549
sI4
F-0.724643
ssbsg16
g0
(g17
g2
Ntp2379
Rp2380
(dp2381
g21
I1
sbsba(ics475_types
Instance
p2382
(dp2383
g11
(ics475_types
FeatureVector
p2384
(dp2385
g14
(dp2386
I1
F2.072815
sI2
F0.137757
sI3
F-0.152448
sI4
F1.632562
sI5
F1.0
ssbsg16
g0
(g17
g2
Ntp2387
Rp2388
(dp2389
g21
I0
sbsba(ics475_types
Instance
p2390
(dp2391
g11
(ics475_types
FeatureVector
p2392
(dp2393
g14
(dp2394
I8
F1.0
sI1
F-0.241153
sI2
F-1.54089
sI3
F1.490387
sI4
F0.126917
ssbsg16
g0
(g17
g2
Ntp2395
Rp2396
(dp2397
g21
I1
sbsba(ics475_types
Instance
p2398
(dp2399
g11
(ics475_types
FeatureVector
p2400
(dp2401
g14
(dp2402
I1
F0.522014
sI2
F-1.240984
sI3
F0.219507
sI4
F-0.4608
sI5
F1.0
ssbsg16
g0
(g17
g2
Ntp2403
Rp2404
(dp2405
g21
I0
sbsba(ics475_types
Instance
p2406
(dp2407
g11
(ics475_types
FeatureVector
p2408
(dp2409
g14
(dp2410
I1
F0.280949
sI2
F-0.102485
sI3
F0.709484
sI4
F0.39479
sI9
F1.0
ssbsg16
g0
(g17
g2
Ntp2411
Rp2412
(dp2413
g21
I1
sbsba(ics475_types
Instance
p2414
(dp2415
g11
(ics475_types
FeatureVector
p2416
(dp2417
g14
(dp2418
I1
F-0.042176
sI2
F0.327987
sI3
F0.157687
sI4
F1.265452
sI5
F1.0
ssbsg16
g0
(g17
g2
Ntp2419
Rp2420
(dp2421
g21
I0
sbsba(ics475_types
Instance
p2422
(dp2423
g11
(ics475_types
FeatureVector
p2424
(dp2425
g14
(dp2426
I1
F-0.857348
sI2
F0.977103
sI3
F-0.986977
sI4
F-0.373177
sI6
F1.0
ssbsg16
g0
(g17
g2
Ntp2427
Rp2428
(dp2429
g21
I0
sbsba(ics475_types
Instance
p2430
(dp2431
g11
(ics475_types
FeatureVector
p2432
(dp2433
g14
(dp2434
I8
F1.0
sI1
F-0.568988
sI2
F-0.191334
sI3
F-0.318846
sI4
F-2.263231
ssbsg16
g0
(g17
g2
Ntp2435
Rp2436
(dp2437
g21
I1
sbsba(ics475_types
Instance
p2438
(dp2439
g11
(ics475_types
FeatureVector
p2440
(dp2441
g14
(dp2442
I1
F0.304579
sI2
F-1.131157
sI3
F0.952997
sI4
F-0.13684
sI7
F1.0
ssbsg16
g0
(g17
g2
Ntp2443
Rp2444
(dp2445
g21
I0
sbsba(ics475_types
Instance
p2446
(dp2447
g11
(ics475_types
FeatureVector
p2448
(dp2449
g14
(dp2450
I8
F1.0
sI1
F0.749981
sI2
F0.314471
sI3
F1.440943
sI4
F0.280631
ssbsg16
g0
(g17
g2
Ntp2451
Rp2452
(dp2453
g21
I1
sbsba(ics475_types
Instance
p2454
(dp2455
g11
(ics475_types
FeatureVector
p2456
(dp2457
g14
(dp2458
I8
F1.0
sI1
F-0.878749
sI2
F0.032882
sI3
F0.470274
sI4
F0.756112
ssbsg16
g0
(g17
g2
Ntp2459
Rp2460
(dp2461
g21
I1
sbsba(ics475_types
Instance
p2462
(dp2463
g11
(ics475_types
FeatureVector
p2464
(dp2465
g14
(dp2466
I1
F0.979078
sI2
F-1.530055
sI3
F1.399198
sI4
F-0.16596
sI10
F1.0
ssbsg16
g0
(g17
g2
Ntp2467
Rp2468
(dp2469
g21
I1
sbsba(ics475_types
Instance
p2470
(dp2471
g11
(ics475_types
FeatureVector
p2472
(dp2473
g14
(dp2474
I1
F0.903728
sI2
F-1.994257
sI3
F0.216027
sI4
F0.581586
sI9
F1.0
ssbsg16
g0
(g17
g2
Ntp2475
Rp2476
(dp2477
g21
I1
sbsba(ics475_types
Instance
p2478
(dp2479
g11
(ics475_types
FeatureVector
p2480
(dp2481
g14
(dp2482
I1
F-2.079184
sI2
F0.306072
sI3
F-0.082558
sI4
F-0.332752
sI6
F1.0
ssbsg16
g0
(g17
g2
Ntp2483
Rp2484
(dp2485
g21
I0
sbsba(ics475_types
Instance
p2486
(dp2487
g11
(ics475_types
FeatureVector
p2488
(dp2489
g14
(dp2490
I1
F-3.209351
sI2
F0.480567
sI3
F-0.432953
sI4
F-0.28424
sI10
F1.0
ssbsg16
g0
(g17
g2
Ntp2491
Rp2492
(dp2493
g21
I1
sbsba(ics475_types
Instance
p2494
(dp2495
g11
(ics475_types
FeatureVector
p2496
(dp2497
g14
(dp2498
I1
F1.058844
sI2
F-1.183669
sI3
F0.04498
sI4
F-0.010333
sI9
F1.0
ssbsg16
g0
(g17
g2
Ntp2499
Rp2500
(dp2501
g21
I1
sbsba(ics475_types
Instance
p2502
(dp2503
g11
(ics475_types
FeatureVector
p2504
(dp2505
g14
(dp2506
I1
F-0.890818
sI2
F0.679565
sI3
F-0.473409
sI4
F1.574469
sI7
F1.0
ssbsg16
g0
(g17
g2
Ntp2507
Rp2508
(dp2509
g21
I0
sbsba(ics475_types
Instance
p2510
(dp2511
g11
(ics475_types
FeatureVector
p2512
(dp2513
g14
(dp2514
I1
F0.117846
sI2
F0.263323
sI3
F-0.310418
sI4
F0.000129
sI9
F1.0
ssbsg16
g0
(g17
g2
Ntp2515
Rp2516
(dp2517
g21
I1
sbsba(ics475_types
Instance
p2518
(dp2519
g11
(ics475_types
FeatureVector
p2520
(dp2521
g14
(dp2522
I1
F0.895433
sI2
F1.547775
sI3
F-1.101263
sI4
F0.484058
sI6
F1.0
ssbsg16
g0
(g17
g2
Ntp2523
Rp2524
(dp2525
g21
I0
sbsba(ics475_types
Instance
p2526
(dp2527
g11
(ics475_types
FeatureVector
p2528
(dp2529
g14
(dp2530
I1
F-0.746785
sI2
F0.206352
sI3
F1.109863
sI4
F0.160796
sI10
F1.0
ssbsg16
g0
(g17
g2
Ntp2531
Rp2532
(dp2533
g21
I1
sbsba(ics475_types
Instance
p2534
(dp2535
g11
(ics475_types
FeatureVector
p2536
(dp2537
g14
(dp2538
I1
F-0.74287
sI2
F0.838841
sI3
F0.592932
sI4
F0.702968
sI6
F1.0
ssbsg16
g0
(g17
g2
Ntp2539
Rp2540
(dp2541
g21
I0
sbsba(ics475_types
Instance
p2542
(dp2543
g11
(ics475_types
FeatureVector
p2544
(dp2545
g14
(dp2546
I1
F-0.264778
sI2
F1.37231
sI3
F-0.685615
sI4
F0.829966
sI7
F1.0
ssbsg16
g0
(g17
g2
Ntp2547
Rp2548
(dp2549
g21
I0
sbsba(ics475_types
Instance
p2550
(dp2551
g11
(ics475_types
FeatureVector
p2552
(dp2553
g14
(dp2554
I1
F1.562393
sI2
F0.171791
sI3
F0.919347
sI4
F-0.681161
sI9
F1.0
ssbsg16
g0
(g17
g2
Ntp2555
Rp2556
(dp2557
g21
I1
sbsba(ics475_types
Instance
p2558
(dp2559
g11
(ics475_types
FeatureVector
p2560
(dp2561
g14
(dp2562
I1
F-0.641533
sI2
F-0.277205
sI3
F-0.081859
sI4
F0.005382
sI5
F1.0
ssbsg16
g0
(g17
g2
Ntp2563
Rp2564
(dp2565
g21
I0
sbsba(ics475_types
Instance
p2566
(dp2567
g11
(ics475_types
FeatureVector
p2568
(dp2569
g14
(dp2570
I1
F0.176175
sI2
F0.734827
sI3
F0.812696
sI4
F0.334269
sI9
F1.0
ssbsg16
g0
(g17
g2
Ntp2571
Rp2572
(dp2573
g21
I1
sbsba(ics475_types
Instance
p2574
(dp2575
g11
(ics475_types
FeatureVector
p2576
(dp2577
g14
(dp2578
I1
F-0.082418
sI2
F0.659045
sI3
F-0.369139
sI4
F-2.005828
sI6
F1.0
ssbsg16
g0
(g17
g2
Ntp2579
Rp2580
(dp2581
g21
I0
sbsba(ics475_types
Instance
p2582
(dp2583
g11
(ics475_types
FeatureVector
p2584
(dp2585
g14
(dp2586
I8
F1.0
sI1
F-1.000126
sI2
F-0.679708
sI3
F-1.460852
sI4
F-2.365079
ssbsg16
g0
(g17
g2
Ntp2587
Rp2588
(dp2589
g21
I1
sbsba(ics475_types
Instance
p2590
(dp2591
g11
(ics475_types
FeatureVector
p2592
(dp2593
g14
(dp2594
I1
F0.451403
sI2
F-1.375792
sI3
F-0.846517
sI4
F-0.443495
sI7
F1.0
ssbsg16
g0
(g17
g2
Ntp2595
Rp2596
(dp2597
g21
I0
sbsba(ics475_types
Instance
p2598
(dp2599
g11
(ics475_types
FeatureVector
p2600
(dp2601
g14
(dp2602
I1
F-0.874271
sI2
F-0.673061
sI3
F0.120164
sI4
F-0.758182
sI5
F1.0
ssbsg16
g0
(g17
g2
Ntp2603
Rp2604
(dp2605
g21
I0
sbsba(ics475_types
Instance
p2606
(dp2607
g11
(ics475_types
FeatureVector
p2608
(dp2609
g14
(dp2610
I8
F1.0
sI1
F2.100465
sI2
F0.490913
sI3
F-0.952057
sI4
F1.872483
ssbsg16
g0
(g17
g2
Ntp2611
Rp2612
(dp2613
g21
I1
sbsba(ics475_types
Instance
p2614
(dp2615
g11
(ics475_types
FeatureVector
p2616
(dp2617
g14
(dp2618
I8
F1.0
sI1
F0.823115
sI2
F-0.961618
sI3
F0.983689
sI4
F-1.128319
ssbsg16
g0
(g17
g2
Ntp2619
Rp2620
(dp2621
g21
I1
sbsba(ics475_types
Instance
p2622
(dp2623
g11
(ics475_types
FeatureVector
p2624
(dp2625
g14
(dp2626
I1
F-1.322975
sI2
F-1.582324
sI3
F-1.007832
sI4
F-2.079368
sI10
F1.0
ssbsg16
g0
(g17
g2
Ntp2627
Rp2628
(dp2629
g21
I1
sbsba(ics475_types
Instance
p2630
(dp2631
g11
(ics475_types
FeatureVector
p2632
(dp2633
g14
(dp2634
I1
F0.079224
sI2
F-1.242448
sI3
F0.325439
sI4
F-1.811266
sI7
F1.0
ssbsg16
g0
(g17
g2
Ntp2635
Rp2636
(dp2637
g21
I0
sbsba(ics475_types
Instance
p2638
(dp2639
g11
(ics475_types
FeatureVector
p2640
(dp2641
g14
(dp2642
I8
F1.0
sI1
F0.982184
sI2
F-0.949386
sI3
F-1.590344
sI4
F-0.09489
ssbsg16
g0
(g17
g2
Ntp2643
Rp2644
(dp2645
g21
I1
sbsba(ics475_types
Instance
p2646
(dp2647
g11
(ics475_types
FeatureVector
p2648
(dp2649
g14
(dp2650
I1
F-2.258181
sI2
F0.414987
sI3
F-0.940406
sI4
F2.842428
sI10
F1.0
ssbsg16
g0
(g17
g2
Ntp2651
Rp2652
(dp2653
g21
I1
sbsba(ics475_types
Instance
p2654
(dp2655
g11
(ics475_types
FeatureVector
p2656
(dp2657
g14
(dp2658
I1
F1.748334
sI2
F-1.332317
sI3
F0.022143
sI4
F0.317163
sI10
F1.0
ssbsg16
g0
(g17
g2
Ntp2659
Rp2660
(dp2661
g21
I1
sbsba(ics475_types
Instance
p2662
(dp2663
g11
(ics475_types
FeatureVector
p2664
(dp2665
g14
(dp2666
I1
F-0.402096
sI2
F-0.443921
sI3
F1.614326
sI4
F-1.106325
sI9
F1.0
ssbsg16
g0
(g17
g2
Ntp2667
Rp2668
(dp2669
g21
I1
sbsba(ics475_types
Instance
p2670
(dp2671
g11
(ics475_types
FeatureVector
p2672
(dp2673
g14
(dp2674
I1
F-1.251329
sI2
F1.164679
sI3
F-0.793972
sI4
F0.934462
sI7
F1.0
ssbsg16
g0
(g17
g2
Ntp2675
Rp2676
(dp2677
g21
I0
sbsba(ics475_types
Instance
p2678
(dp2679
g11
(ics475_types
FeatureVector
p2680
(dp2681
g14
(dp2682
I1
F-0.749468
sI2
F0.072352
sI3
F1.586524
sI4
F0.569767
sI10
F1.0
ssbsg16
g0
(g17
g2
Ntp2683
Rp2684
(dp2685
g21
I1
sbsba(ics475_types
Instance
p2686
(dp2687
g11
(ics475_types
FeatureVector
p2688
(dp2689
g14
(dp2690
I1
F-0.300761
sI2
F0.308035
sI3
F0.622663
sI4
F-0.253163
sI5
F1.0
ssbsg16
g0
(g17
g2
Ntp2691
Rp2692
(dp2693
g21
I0
sbsba(ics475_types
Instance
p2694
(dp2695
g11
(ics475_types
FeatureVector
p2696
(dp2697
g14
(dp2698
I1
F0.00186
sI2
F0.279032
sI3
F0.032033
sI4
F1.268619
sI5
F1.0
ssbsg16
g0
(g17
g2
Ntp2699
Rp2700
(dp2701
g21
I0
sbsba(ics475_types
Instance
p2702
(dp2703
g11
(ics475_types
FeatureVector
p2704
(dp2705
g14
(dp2706
I1
F0.9588
sI2
F-0.550424
sI3
F-0.06622
sI4
F-1.040691
sI10
F1.0
ssbsg16
g0
(g17
g2
Ntp2707
Rp2708
(dp2709
g21
I1
sbsba(ics475_types
Instance
p2710
(dp2711
g11
(ics475_types
FeatureVector
p2712
(dp2713
g14
(dp2714
I1
F0.665646
sI2
F0.31089
sI3
F-2.511695
sI4
F0.222128
sI7
F1.0
ssbsg16
g0
(g17
g2
Ntp2715
Rp2716
(dp2717
g21
I0
sbsba(ics475_types
Instance
p2718
(dp2719
g11
(ics475_types
FeatureVector
p2720
(dp2721
g14
(dp2722
I8
F1.0
sI1
F-0.920376
sI2
F-0.134868
sI3
F0.32041
sI4
F0.533187
ssbsg16
g0
(g17
g2
Ntp2723
Rp2724
(dp2725
g21
I1
sbsba(ics475_types
Instance
p2726
(dp2727
g11
(ics475_types
FeatureVector
p2728
(dp2729
g14
(dp2730
I1
F-1.35911
sI2
F-0.602243
sI3
F1.054324
sI4
F0.167223
sI6
F1.0
ssbsg16
g0
(g17
g2
Ntp2731
Rp2732
(dp2733
g21
I0
sbsba(ics475_types
Instance
p2734
(dp2735
g11
(ics475_types
FeatureVector
p2736
(dp2737
g14
(dp2738
I1
F-0.330857
sI2
F-0.237122
sI3
F-1.258466
sI4
F0.880326
sI10
F1.0
ssbsg16
g0
(g17
g2
Ntp2739
Rp2740
(dp2741
g21
I1
sbsba(ics475_types
Instance
p2742
(dp2743
g11
(ics475_types
FeatureVector
p2744
(dp2745
g14
(dp2746
I1
F0.383179
sI2
F0.564485
sI3
F-1.717951
sI4
F0.059363
sI5
F1.0
ssbsg16
g0
(g17
g2
Ntp2747
Rp2748
(dp2749
g21
I0
sbsba(ics475_types
Instance
p2750
(dp2751
g11
(ics475_types
FeatureVector
p2752
(dp2753
g14
(dp2754
I1
F-0.796468
sI2
F-0.261942
sI3
F0.291606
sI4
F0.801653
sI10
F1.0
ssbsg16
g0
(g17
g2
Ntp2755
Rp2756
(dp2757
g21
I1
sbsba(ics475_types
Instance
p2758
(dp2759
g11
(ics475_types
FeatureVector
p2760
(dp2761
g14
(dp2762
I1
F0.070427
sI2
F0.774529
sI3
F1.882868
sI4
F1.107197
sI5
F1.0
ssbsg16
g0
(g17
g2
Ntp2763
Rp2764
(dp2765
g21
I0
sbsba(ics475_types
Instance
p2766
(dp2767
g11
(ics475_types
FeatureVector
p2768
(dp2769
g14
(dp2770
I1
F1.36508
sI2
F0.438403
sI3
F-1.345707
sI4
F1.264676
sI10
F1.0
ssbsg16
g0
(g17
g2
Ntp2771
Rp2772
(dp2773
g21
I1
sbsba(ics475_types
Instance
p2774
(dp2775
g11
(ics475_types
FeatureVector
p2776
(dp2777
g14
(dp2778
I8
F1.0
sI1
F0.553307
sI2
F-0.048257
sI3
F0.577588
sI4
F0.12484
ssbsg16
g0
(g17
g2
Ntp2779
Rp2780
(dp2781
g21
I1
sbsba(ics475_types
Instance
p2782
(dp2783
g11
(ics475_types
FeatureVector
p2784
(dp2785
g14
(dp2786
I1
F-0.949143
sI2
F0.511494
sI3
F-1.552189
sI4
F-0.877876
sI6
F1.0
ssbsg16
g0
(g17
g2
Ntp2787
Rp2788
(dp2789
g21
I0
sbsba(ics475_types
Instance
p2790
(dp2791
g11
(ics475_types
FeatureVector
p2792
(dp2793
g14
(dp2794
I1
F1.801988
sI2
F0.138257
sI3
F-0.700897
sI4
F-0.803181
sI10
F1.0
ssbsg16
g0
(g17
g2
Ntp2795
Rp2796
(dp2797
g21
I1
sbsba(ics475_types
Instance
p2798
(dp2799
g11
(ics475_types
FeatureVector
p2800
(dp2801
g14
(dp2802
I1
F-0.704636
sI2
F-0.089124
sI3
F-0.113019
sI4
F-0.73294
sI10
F1.0
ssbsg16
g0
(g17
g2
Ntp2803
Rp2804
(dp2805
g21
I1
sbsba(ics475_types
Instance
p2806
(dp2807
g11
(ics475_types
FeatureVector
p2808
(dp2809
g14
(dp2810
I1
F-0.492767
sI2
F0.023793
sI3
F1.41312
sI4
F-0.352774
sI6
F1.0
ssbsg16
g0
(g17
g2
Ntp2811
Rp2812
(dp2813
g21
I0
sbsba(ics475_types
Instance
p2814
(dp2815
g11
(ics475_types
FeatureVector
p2816
(dp2817
g14
(dp2818
I1
F1.30909
sI2
F1.596204
sI3
F1.383334
sI4
F2.519946
sI7
F1.0
ssbsg16
g0
(g17
g2
Ntp2819
Rp2820
(dp2821
g21
I0
sbsba(ics475_types
Instance
p2822
(dp2823
g11
(ics475_types
FeatureVector
p2824
(dp2825
g14
(dp2826
I1
F0.705964
sI2
F1.103758
sI3
F-1.890517
sI4
F0.574035
sI6
F1.0
ssbsg16
g0
(g17
g2
Ntp2827
Rp2828
(dp2829
g21
I0
sbsba(ics475_types
Instance
p2830
(dp2831
g11
(ics475_types
FeatureVector
p2832
(dp2833
g14
(dp2834
I8
F1.0
sI1
F-0.191683
sI2
F-0.733134
sI3
F-0.123512
sI4
F-0.077283
ssbsg16
g0
(g17
g2
Ntp2835
Rp2836
(dp2837
g21
I1
sbsba(ics475_types
Instance
p2838
(dp2839
g11
(ics475_types
FeatureVector
p2840
(dp2841
g14
(dp2842
I8
F1.0
sI1
F0.878676
sI2
F1.483203
sI3
F-0.578603
sI4
F-1.256167
ssbsg16
g0
(g17
g2
Ntp2843
Rp2844
(dp2845
g21
I1
sbsba(ics475_types
Instance
p2846
(dp2847
g11
(ics475_types
FeatureVector
p2848
(dp2849
g14
(dp2850
I1
F-0.627706
sI2
F0.1294
sI3
F-0.93929
sI4
F-1.182431
sI10
F1.0
ssbsg16
g0
(g17
g2
Ntp2851
Rp2852
(dp2853
g21
I1
sbsba(ics475_types
Instance
p2854
(dp2855
g11
(ics475_types
FeatureVector
p2856
(dp2857
g14
(dp2858
I8
F1.0
sI1
F-0.960446
sI2
F0.329317
sI3
F-0.637049
sI4
F0.371692
ssbsg16
g0
(g17
g2
Ntp2859
Rp2860
(dp2861
g21
I1
sbsba(ics475_types
Instance
p2862
(dp2863
g11
(ics475_types
FeatureVector
p2864
(dp2865
g14
(dp2866
I1
F0.017264
sI2
F-0.342541
sI3
F-0.857547
sI4
F0.910382
sI7
F1.0
ssbsg16
g0
(g17
g2
Ntp2867
Rp2868
(dp2869
g21
I0
sbsba(ics475_types
Instance
p2870
(dp2871
g11
(ics475_types
FeatureVector
p2872
(dp2873
g14
(dp2874
I1
F0.820886
sI2
F1.145406
sI3
F-0.871838
sI4
F-0.576557
sI5
F1.0
ssbsg16
g0
(g17
g2
Ntp2875
Rp2876
(dp2877
g21
I0
sbsba(ics475_types
Instance
p2878
(dp2879
g11
(ics475_types
FeatureVector
p2880
(dp2881
g14
(dp2882
I1
F-1.558356
sI2
F0.084547
sI3
F-0.110497
sI4
F-0.878545
sI9
F1.0
ssbsg16
g0
(g17
g2
Ntp2883
Rp2884
(dp2885
g21
I1
sbsba(ics475_types
Instance
p2886
(dp2887
g11
(ics475_types
FeatureVector
p2888
(dp2889
g14
(dp2890
I1
F0.065744
sI2
F-0.981365
sI3
F-0.255419
sI4
F1.640893
sI6
F1.0
ssbsg16
g0
(g17
g2
Ntp2891
Rp2892
(dp2893
g21
I0
sbsba(ics475_types
Instance
p2894
(dp2895
g11
(ics475_types
FeatureVector
p2896
(dp2897
g14
(dp2898
I8
F1.0
sI1
F0.522306
sI2
F0.190773
sI3
F1.47254
sI4
F-0.895284
ssbsg16
g0
(g17
g2
Ntp2899
Rp2900
(dp2901
g21
I1
sbsba(ics475_types
Instance
p2902
(dp2903
g11
(ics475_types
FeatureVector
p2904
(dp2905
g14
(dp2906
I8
F1.0
sI1
F0.906289
sI2
F0.816145
sI3
F-1.139232
sI4
F0.204852
ssbsg16
g0
(g17
g2
Ntp2907
Rp2908
(dp2909
g21
I1
sbsba(ics475_types
Instance
p2910
(dp2911
g11
(ics475_types
FeatureVector
p2912
(dp2913
g14
(dp2914
I1
F0.880259
sI2
F-1.773352
sI3
F1.47196
sI4
F0.789505
sI7
F1.0
ssbsg16
g0
(g17
g2
Ntp2915
Rp2916
(dp2917
g21
I0
sbsba(ics475_types
Instance
p2918
(dp2919
g11
(ics475_types
FeatureVector
p2920
(dp2921
g14
(dp2922
I1
F-0.484752
sI2
F-0.388623
sI3
F-0.549143
sI4
F-0.055156
sI6
F1.0
ssbsg16
g0
(g17
g2
Ntp2923
Rp2924
(dp2925
g21
I0
sbsba(ics475_types
Instance
p2926
(dp2927
g11
(ics475_types
FeatureVector
p2928
(dp2929
g14
(dp2930
I1
F1.504166
sI2
F2.278627
sI3
F-1.695054
sI4
F-0.012742
sI9
F1.0
ssbsg16
g0
(g17
g2
Ntp2931
Rp2932
(dp2933
g21
I1
sbsba(ics475_types
Instance
p2934
(dp2935
g11
(ics475_types
FeatureVector
p2936
(dp2937
g14
(dp2938
I1
F-0.034842
sI2
F-0.448173
sI3
F0.287238
sI4
F-0.218813
sI7
F1.0
ssbsg16
g0
(g17
g2
Ntp2939
Rp2940
(dp2941
g21
I0
sbsba(ics475_types
Instance
p2942
(dp2943
g11
(ics475_types
FeatureVector
p2944
(dp2945
g14
(dp2946
I1
F-0.219567
sI2
F0.815077
sI3
F0.213572
sI4
F2.024534
sI7
F1.0
ssbsg16
g0
(g17
g2
Ntp2947
Rp2948
(dp2949
g21
I0
sbsba(ics475_types
Instance
p2950
(dp2951
g11
(ics475_types
FeatureVector
p2952
(dp2953
g14
(dp2954
I1
F-0.878425
sI2
F0.377534
sI3
F-0.749959
sI4
F-1.652938
sI10
F1.0
ssbsg16
g0
(g17
g2
Ntp2955
Rp2956
(dp2957
g21
I1
sbsba(ics475_types
Instance
p2958
(dp2959
g11
(ics475_types
FeatureVector
p2960
(dp2961
g14
(dp2962
I1
F2.132142
sI2
F-0.610105
sI3
F-1.001128
sI4
F0.290647
sI6
F1.0
ssbsg16
g0
(g17
g2
Ntp2963
Rp2964
(dp2965
g21
I0
sbsba(ics475_types
Instance
p2966
(dp2967
g11
(ics475_types
FeatureVector
p2968
(dp2969
g14
(dp2970
I1
F0.680692
sI2
F-0.987865
sI3
F0.199628
sI4
F0.739245
sI6
F1.0
ssbsg16
g0
(g17
g2
Ntp2971
Rp2972
(dp2973
g21
I0
sbsba(ics475_types
Instance
p2974
(dp2975
g11
(ics475_types
FeatureVector
p2976
(dp2977
g14
(dp2978
I1
F1.079079
sI2
F-0.579179
sI3
F-0.38997
sI4
F0.3939
sI9
F1.0
ssbsg16
g0
(g17
g2
Ntp2979
Rp2980
(dp2981
g21
I1
sbsba(ics475_types
Instance
p2982
(dp2983
g11
(ics475_types
FeatureVector
p2984
(dp2985
g14
(dp2986
I1
F0.192512
sI2
F1.266174
sI3
F-1.225466
sI4
F-0.607721
sI5
F1.0
ssbsg16
g0
(g17
g2
Ntp2987
Rp2988
(dp2989
g21
I0
sbsba(ics475_types
Instance
p2990
(dp2991
g11
(ics475_types
FeatureVector
p2992
(dp2993
g14
(dp2994
I1
F0.533509
sI2
F0.077109
sI3
F0.024158
sI4
F-0.44771
sI9
F1.0
ssbsg16
g0
(g17
g2
Ntp2995
Rp2996
(dp2997
g21
I1
sbsba(ics475_types
Instance
p2998
(dp2999
g11
(ics475_types
FeatureVector
p3000
(dp3001
g14
(dp3002
I1
F2.070909
sI2
F-0.106487
sI3
F0.770719
sI4
F-0.098267
sI10
F1.0
ssbsg16
g0
(g17
g2
Ntp3003
Rp3004
(dp3005
g21
I1
sbsba(ics475_types
Instance
p3006
(dp3007
g11
(ics475_types
FeatureVector
p3008
(dp3009
g14
(dp3010
I1
F-0.986013
sI2
F0.119127
sI3
F-1.826202
sI4
F-0.174119
sI10
F1.0
ssbsg16
g0
(g17
g2
Ntp3011
Rp3012
(dp3013
g21
I1
sbsba(ics475_types
Instance
p3014
(dp3015
g11
(ics475_types
FeatureVector
p3016
(dp3017
g14
(dp3018
I1
F-1.02138
sI2
F-1.450017
sI3
F0.903423
sI4
F0.249985
sI5
F1.0
ssbsg16
g0
(g17
g2
Ntp3019
Rp3020
(dp3021
g21
I0
sbsba(ics475_types
Instance
p3022
(dp3023
g11
(ics475_types
FeatureVector
p3024
(dp3025
g14
(dp3026
I8
F1.0
sI1
F0.733709
sI2
F0.246484
sI3
F1.423937
sI4
F-1.49531
ssbsg16
g0
(g17
g2
Ntp3027
Rp3028
(dp3029
g21
I1
sbsba(ics475_types
Instance
p3030
(dp3031
g11
(ics475_types
FeatureVector
p3032
(dp3033
g14
(dp3034
I1
F0.194123
sI2
F-0.617043
sI3
F0.424678
sI4
F-0.899727
sI9
F1.0
ssbsg16
g0
(g17
g2
Ntp3035
Rp3036
(dp3037
g21
I1
sbsba(ics475_types
Instance
p3038
(dp3039
g11
(ics475_types
FeatureVector
p3040
(dp3041
g14
(dp3042
I1
F0.765295
sI2
F0.999273
sI3
F-0.884322
sI4
F1.897572
sI6
F1.0
ssbsg16
g0
(g17
g2
Ntp3043
Rp3044
(dp3045
g21
I0
sbsba(ics475_types
Instance
p3046
(dp3047
g11
(ics475_types
FeatureVector
p3048
(dp3049
g14
(dp3050
I1
F-1.753938
sI2
F-0.48761
sI3
F-1.338865
sI4
F0.009903
sI6
F1.0
ssbsg16
g0
(g17
g2
Ntp3051
Rp3052
(dp3053
g21
I0
sbsba(ics475_types
Instance
p3054
(dp3055
g11
(ics475_types
FeatureVector
p3056
(dp3057
g14
(dp3058
I1
F-0.927027
sI2
F-0.429571
sI3
F-1.030512
sI4
F-0.465842
sI5
F1.0
ssbsg16
g0
(g17
g2
Ntp3059
Rp3060
(dp3061
g21
I0
sbsba(ics475_types
Instance
p3062
(dp3063
g11
(ics475_types
FeatureVector
p3064
(dp3065
g14
(dp3066
I1
F0.264794
sI2
F0.410953
sI3
F0.755787
sI4
F1.484471
sI10
F1.0
ssbsg16
g0
(g17
g2
Ntp3067
Rp3068
(dp3069
g21
I1
sbsba(ics475_types
Instance
p3070
(dp3071
g11
(ics475_types
FeatureVector
p3072
(dp3073
g14
(dp3074
I8
F1.0
sI1
F1.087082
sI2
F0.528559
sI3
F0.746091
sI4
F-0.119861
ssbsg16
g0
(g17
g2
Ntp3075
Rp3076
(dp3077
g21
I1
sbsba(ics475_types
Instance
p3078
(dp3079
g11
(ics475_types
FeatureVector
p3080
(dp3081
g14
(dp3082
I1
F-0.693869
sI2
F-1.968398
sI3
F-1.002865
sI4
F0.367948
sI9
F1.0
ssbsg16
g0
(g17
g2
Ntp3083
Rp3084
(dp3085
g21
I1
sbsba(ics475_types
Instance
p3086
(dp3087
g11
(ics475_types
FeatureVector
p3088
(dp3089
g14
(dp3090
I1
F0.765421
sI2
F-0.367365
sI3
F-0.921931
sI4
F-0.154017
sI6
F1.0
ssbsg16
g0
(g17
g2
Ntp3091
Rp3092
(dp3093
g21
I0
sbsba(ics475_types
Instance
p3094
(dp3095
g11
(ics475_types
FeatureVector
p3096
(dp3097
g14
(dp3098
I8
F1.0
sI1
F-0.332249
sI2
F0.037055
sI3
F1.516901
sI4
F1.338493
ssbsg16
g0
(g17
g2
Ntp3099
Rp3100
(dp3101
g21
I1
sbsba(ics475_types
Instance
p3102
(dp3103
g11
(ics475_types
FeatureVector
p3104
(dp3105
g14
(dp3106
I1
F0.003362
sI2
F0.055151
sI3
F-1.483505
sI4
F-2.013951
sI5
F1.0
ssbsg16
g0
(g17
g2
Ntp3107
Rp3108
(dp3109
g21
I0
sbsba(ics475_types
Instance
p3110
(dp3111
g11
(ics475_types
FeatureVector
p3112
(dp3113
g14
(dp3114
I1
F0.155075
sI2
F-0.305898
sI3
F1.248155
sI4
F-2.342506
sI9
F1.0
ssbsg16
g0
(g17
g2
Ntp3115
Rp3116
(dp3117
g21
I1
sbsba(ics475_types
Instance
p3118
(dp3119
g11
(ics475_types
FeatureVector
p3120
(dp3121
g14
(dp3122
I1
F0.318344
sI2
F-2.20691
sI3
F0.257506
sI4
F-0.531458
sI10
F1.0
ssbsg16
g0
(g17
g2
Ntp3123
Rp3124
(dp3125
g21
I1
sbsba(ics475_types
Instance
p3126
(dp3127
g11
(ics475_types
FeatureVector
p3128
(dp3129
g14
(dp3130
I1
F1.213851
sI2
F1.138057
sI3
F0.056414
sI4
F-0.593393
sI6
F1.0
ssbsg16
g0
(g17
g2
Ntp3131
Rp3132
(dp3133
g21
I0
sbsba(ics475_types
Instance
p3134
(dp3135
g11
(ics475_types
FeatureVector
p3136
(dp3137
g14
(dp3138
I1
F-0.537429
sI2
F0.428537
sI3
F-0.088647
sI4
F1.114949
sI7
F1.0
ssbsg16
g0
(g17
g2
Ntp3139
Rp3140
(dp3141
g21
I0
sbsba(ics475_types
Instance
p3142
(dp3143
g11
(ics475_types
FeatureVector
p3144
(dp3145
g14
(dp3146
I1
F-0.196579
sI2
F0.29326
sI3
F1.455918
sI4
F0.210255
sI10
F1.0
ssbsg16
g0
(g17
g2
Ntp3147
Rp3148
(dp3149
g21
I1
sbsba(ics475_types
Instance
p3150
(dp3151
g11
(ics475_types
FeatureVector
p3152
(dp3153
g14
(dp3154
I1
F-1.724623
sI2
F0.989438
sI3
F-0.446314
sI4
F0.343044
sI10
F1.0
ssbsg16
g0
(g17
g2
Ntp3155
Rp3156
(dp3157
g21
I1
sbsba(ics475_types
Instance
p3158
(dp3159
g11
(ics475_types
FeatureVector
p3160
(dp3161
g14
(dp3162
I1
F-1.440239
sI2
F1.142725
sI3
F0.402216
sI4
F-0.346371
sI5
F1.0
ssbsg16
g0
(g17
g2
Ntp3163
Rp3164
(dp3165
g21
I0
sbsba(ics475_types
Instance
p3166
(dp3167
g11
(ics475_types
FeatureVector
p3168
(dp3169
g14
(dp3170
I1
F-1.382074
sI2
F0.731066
sI3
F-0.07305
sI4
F1.548785
sI6
F1.0
ssbsg16
g0
(g17
g2
Ntp3171
Rp3172
(dp3173
g21
I0
sbsba(ics475_types
Instance
p3174
(dp3175
g11
(ics475_types
FeatureVector
p3176
(dp3177
g14
(dp3178
I1
F-0.995527
sI2
F-2.275663
sI3
F0.347641
sI4
F0.238044
sI9
F1.0
ssbsg16
g0
(g17
g2
Ntp3179
Rp3180
(dp3181
g21
I1
sbsba(ics475_types
Instance
p3182
(dp3183
g11
(ics475_types
FeatureVector
p3184
(dp3185
g14
(dp3186
I8
F1.0
sI1
F-0.724795
sI2
F-1.760557
sI3
F0.051293
sI4
F-0.622957
ssbsg16
g0
(g17
g2
Ntp3187
Rp3188
(dp3189
g21
I1
sbsba(ics475_types
Instance
p3190
(dp3191
g11
(ics475_types
FeatureVector
p3192
(dp3193
g14
(dp3194
I1
F-0.546392
sI2
F1.649735
sI3
F-1.033517
sI4
F1.766917
sI7
F1.0
ssbsg16
g0
(g17
g2
Ntp3195
Rp3196
(dp3197
g21
I0
sbsba(ics475_types
Instance
p3198
(dp3199
g11
(ics475_types
FeatureVector
p3200
(dp3201
g14
(dp3202
I8
F1.0
sI1
F0.95144
sI2
F-0.866346
sI3
F-0.040257
sI4
F-0.536017
ssbsg16
g0
(g17
g2
Ntp3203
Rp3204
(dp3205
g21
I1
sbsba(ics475_types
Instance
p3206
(dp3207
g11
(ics475_types
FeatureVector
p3208
(dp3209
g14
(dp3210
I1
F0.321788
sI2
F-0.171011
sI3
F1.216774
sI4
F-1.223671
sI6
F1.0
ssbsg16
g0
(g17
g2
Ntp3211
Rp3212
(dp3213
g21
I0
sbsba(ics475_types
Instance
p3214
(dp3215
g11
(ics475_types
FeatureVector
p3216
(dp3217
g14
(dp3218
I1
F0.453121
sI2
F-0.362653
sI3
F-0.156279
sI4
F0.370852
sI6
F1.0
ssbsg16
g0
(g17
g2
Ntp3219
Rp3220
(dp3221
g21
I0
sbsba(ics475_types
Instance
p3222
(dp3223
g11
(ics475_types
FeatureVector
p3224
(dp3225
g14
(dp3226
I1
F1.477376
sI2
F-0.119676
sI3
F-1.872202
sI4
F0.366426
sI9
F1.0
ssbsg16
g0
(g17
g2
Ntp3227
Rp3228
(dp3229
g21
I1
sbsba(ics475_types
Instance
p3230
(dp3231
g11
(ics475_types
FeatureVector
p3232
(dp3233
g14
(dp3234
I1
F-0.187145
sI2
F0.495863
sI3
F-0.588607
sI4
F-1.138931
sI7
F1.0
ssbsg16
g0
(g17
g2
Ntp3235
Rp3236
(dp3237
g21
I0
sbsba(ics475_types
Instance
p3238
(dp3239
g11
(ics475_types
FeatureVector
p3240
(dp3241
g14
(dp3242
I1
F0.529927
sI2
F-0.526105
sI3
F0.972741
sI4
F1.513463
sI6
F1.0
ssbsg16
g0
(g17
g2
Ntp3243
Rp3244
(dp3245
g21
I0
sbsba(ics475_types
Instance
p3246
(dp3247
g11
(ics475_types
FeatureVector
p3248
(dp3249
g14
(dp3250
I8
F1.0
sI1
F1.533049
sI2
F-0.634775
sI3
F-0.170336
sI4
F2.323356
ssbsg16
g0
(g17
g2
Ntp3251
Rp3252
(dp3253
g21
I1
sbsba(ics475_types
Instance
p3254
(dp3255
g11
(ics475_types
FeatureVector
p3256
(dp3257
g14
(dp3258
I1
F-0.430846
sI2
F-0.352104
sI3
F-1.91618
sI4
F0.337142
sI9
F1.0
ssbsg16
g0
(g17
g2
Ntp3259
Rp3260
(dp3261
g21
I1
sbsba(ics475_types
Instance
p3262
(dp3263
g11
(ics475_types
FeatureVector
p3264
(dp3265
g14
(dp3266
I1
F-0.352455
sI2
F-1.629952
sI3
F1.432547
sI4
F-2.826927
sI6
F1.0
ssbsg16
g0
(g17
g2
Ntp3267
Rp3268
(dp3269
g21
I0
sbsba(ics475_types
Instance
p3270
(dp3271
g11
(ics475_types
FeatureVector
p3272
(dp3273
g14
(dp3274
I1
F0.824784
sI2
F1.845084
sI3
F-0.90256
sI4
F-1.02195
sI10
F1.0
ssbsg16
g0
(g17
g2
Ntp3275
Rp3276
(dp3277
g21
I1
sbsba(ics475_types
Instance
p3278
(dp3279
g11
(ics475_types
FeatureVector
p3280
(dp3281
g14
(dp3282
I1
F0.598505
sI2
F-0.723867
sI3
F-0.941769
sI4
F-0.076255
sI6
F1.0
ssbsg16
g0
(g17
g2
Ntp3283
Rp3284
(dp3285
g21
I0
sbsba(ics475_types
Instance
p3286
(dp3287
g11
(ics475_types
FeatureVector
p3288
(dp3289
g14
(dp3290
I8
F1.0
sI1
F-0.335172
sI2
F-0.601992
sI3
F-0.492603
sI4
F-0.182176
ssbsg16
g0
(g17
g2
Ntp3291
Rp3292
(dp3293
g21
I1
sbsba(ics475_types
Instance
p3294
(dp3295
g11
(ics475_types
FeatureVector
p3296
(dp3297
g14
(dp3298
I1
F1.316413
sI2
F0.587136
sI3
F0.518473
sI4
F-0.729863
sI10
F1.0
ssbsg16
g0
(g17
g2
Ntp3299
Rp3300
(dp3301
g21
I1
sbsba(ics475_types
Instance
p3302
(dp3303
g11
(ics475_types
FeatureVector
p3304
(dp3305
g14
(dp3306
I1
F1.291167
sI2
F-1.468019
sI3
F-0.187487
sI4
F0.317021
sI7
F1.0
ssbsg16
g0
(g17
g2
Ntp3307
Rp3308
(dp3309
g21
I0
sbsba(ics475_types
Instance
p3310
(dp3311
g11
(ics475_types
FeatureVector
p3312
(dp3313
g14
(dp3314
I8
F1.0
sI1
F-2.030807
sI2
F-2.808889
sI3
F0.455295
sI4
F-0.584949
ssbsg16
g0
(g17
g2
Ntp3315
Rp3316
(dp3317
g21
I1
sbsba(ics475_types
Instance
p3318
(dp3319
g11
(ics475_types
FeatureVector
p3320
(dp3321
g14
(dp3322
I1
F0.030237
sI2
F0.810654
sI3
F-0.34965
sI4
F1.180998
sI10
F1.0
ssbsg16
g0
(g17
g2
Ntp3323
Rp3324
(dp3325
g21
I1
sbsba(ics475_types
Instance
p3326
(dp3327
g11
(ics475_types
FeatureVector
p3328
(dp3329
g14
(dp3330
I1
F-0.476325
sI2
F-0.231766
sI3
F-1.740916
sI4
F0.271752
sI5
F1.0
ssbsg16
g0
(g17
g2
Ntp3331
Rp3332
(dp3333
g21
I0
sbsba(ics475_types
Instance
p3334
(dp3335
g11
(ics475_types
FeatureVector
p3336
(dp3337
g14
(dp3338
I1
F-0.260643
sI2
F-0.249054
sI3
F-1.260991
sI4
F0.141719
sI10
F1.0
ssbsg16
g0
(g17
g2
Ntp3339
Rp3340
(dp3341
g21
I1
sbsba(ics475_types
Instance
p3342
(dp3343
g11
(ics475_types
FeatureVector
p3344
(dp3345
g14
(dp3346
I1
F-0.798517
sI2
F2.629505
sI3
F-0.832811
sI4
F0.24359
sI7
F1.0
ssbsg16
g0
(g17
g2
Ntp3347
Rp3348
(dp3349
g21
I0
sbsba(ics475_types
Instance
p3350
(dp3351
g11
(ics475_types
FeatureVector
p3352
(dp3353
g14
(dp3354
I1
F0.721898
sI2
F-0.354557
sI3
F-0.474115
sI4
F-1.041505
sI6
F1.0
ssbsg16
g0
(g17
g2
Ntp3355
Rp3356
(dp3357
g21
I0
sbsba(ics475_types
Instance
p3358
(dp3359
g11
(ics475_types
FeatureVector
p3360
(dp3361
g14
(dp3362
I1
F-1.277524
sI2
F0.169642
sI3
F0.86955
sI4
F-0.215683
sI7
F1.0
ssbsg16
g0
(g17
g2
Ntp3363
Rp3364
(dp3365
g21
I0
sbsba(ics475_types
Instance
p3366
(dp3367
g11
(ics475_types
FeatureVector
p3368
(dp3369
g14
(dp3370
I1
F-0.820191
sI2
F-0.227136
sI3
F-0.006726
sI4
F0.617567
sI5
F1.0
ssbsg16
g0
(g17
g2
Ntp3371
Rp3372
(dp3373
g21
I0
sbsba(ics475_types
Instance
p3374
(dp3375
g11
(ics475_types
FeatureVector
p3376
(dp3377
g14
(dp3378
I1
F-2.495091
sI2
F-0.328495
sI3
F0.104784
sI4
F0.879861
sI9
F1.0
ssbsg16
g0
(g17
g2
Ntp3379
Rp3380
(dp3381
g21
I1
sbsba(ics475_types
Instance
p3382
(dp3383
g11
(ics475_types
FeatureVector
p3384
(dp3385
g14
(dp3386
I1
F1.261743
sI2
F1.123683
sI3
F-0.358081
sI4
F1.582058
sI7
F1.0
ssbsg16
g0
(g17
g2
Ntp3387
Rp3388
(dp3389
g21
I0
sbsba(ics475_types
Instance
p3390
(dp3391
g11
(ics475_types
FeatureVector
p3392
(dp3393
g14
(dp3394
I1
F0.157134
sI2
F-0.930341
sI3
F-0.312596
sI4
F-1.436427
sI9
F1.0
ssbsg16
g0
(g17
g2
Ntp3395
Rp3396
(dp3397
g21
I1
sbsba(ics475_types
Instance
p3398
(dp3399
g11
(ics475_types
FeatureVector
p3400
(dp3401
g14
(dp3402
I8
F1.0
sI1
F-0.401443
sI2
F-0.363241
sI3
F-1.476647
sI4
F0.529453
ssbsg16
g0
(g17
g2
Ntp3403
Rp3404
(dp3405
g21
I1
sbsba(ics475_types
Instance
p3406
(dp3407
g11
(ics475_types
FeatureVector
p3408
(dp3409
g14
(dp3410
I1
F0.689219
sI2
F-0.502188
sI3
F-0.218667
sI4
F0.701662
sI5
F1.0
ssbsg16
g0
(g17
g2
Ntp3411
Rp3412
(dp3413
g21
I0
sbsba(ics475_types
Instance
p3414
(dp3415
g11
(ics475_types
FeatureVector
p3416
(dp3417
g14
(dp3418
I8
F1.0
sI1
F0.570656
sI2
F0.608574
sI3
F0.917136
sI4
F-1.179777
ssbsg16
g0
(g17
g2
Ntp3419
Rp3420
(dp3421
g21
I1
sbsba(ics475_types
Instance
p3422
(dp3423
g11
(ics475_types
FeatureVector
p3424
(dp3425
g14
(dp3426
I1
F-0.932103
sI2
F0.670939
sI3
F-1.633615
sI4
F0.465885
sI5
F1.0
ssbsg16
g0
(g17
g2
Ntp3427
Rp3428
(dp3429
g21
I0
sbsba(ics475_types
Instance
p3430
(dp3431
g11
(ics475_types
FeatureVector
p3432
(dp3433
g14
(dp3434
I1
F-1.032011
sI2
F1.813432
sI3
F-0.194808
sI4
F0.576105
sI10
F1.0
ssbsg16
g0
(g17
g2
Ntp3435
Rp3436
(dp3437
g21
I1
sbsba(ics475_types
Instance
p3438
(dp3439
g11
(ics475_types
FeatureVector
p3440
(dp3441
g14
(dp3442
I8
F1.0
sI1
F0.037075
sI2
F0.473455
sI3
F-2.537648
sI4
F-0.470961
ssbsg16
g0
(g17
g2
Ntp3443
Rp3444
(dp3445
g21
I1
sbsba(ics475_types
Instance
p3446
(dp3447
g11
(ics475_types
FeatureVector
p3448
(dp3449
g14
(dp3450
I1
F0.077296
sI2
F-0.625646
sI3
F0.542333
sI4
F1.040812
sI7
F1.0
ssbsg16
g0
(g17
g2
Ntp3451
Rp3452
(dp3453
g21
I0
sbsba(ics475_types
Instance
p3454
(dp3455
g11
(ics475_types
FeatureVector
p3456
(dp3457
g14
(dp3458
I1
F-0.90519
sI2
F0.719016
sI3
F1.546407
sI4
F-1.474013
sI10
F1.0
ssbsg16
g0
(g17
g2
Ntp3459
Rp3460
(dp3461
g21
I1
sbsba(ics475_types
Instance
p3462
(dp3463
g11
(ics475_types
FeatureVector
p3464
(dp3465
g14
(dp3466
I1
F-0.624599
sI2
F1.416602
sI3
F-0.451699
sI4
F-0.838848
sI10
F1.0
ssbsg16
g0
(g17
g2
Ntp3467
Rp3468
(dp3469
g21
I1
sbsba(ics475_types
Instance
p3470
(dp3471
g11
(ics475_types
FeatureVector
p3472
(dp3473
g14
(dp3474
I1
F-0.416253
sI2
F-0.711401
sI3
F0.485303
sI4
F1.327792
sI10
F1.0
ssbsg16
g0
(g17
g2
Ntp3475
Rp3476
(dp3477
g21
I1
sbsba(ics475_types
Instance
p3478
(dp3479
g11
(ics475_types
FeatureVector
p3480
(dp3481
g14
(dp3482
I1
F-0.697479
sI2
F0.228873
sI3
F-0.4384
sI4
F0.207789
sI10
F1.0
ssbsg16
g0
(g17
g2
Ntp3483
Rp3484
(dp3485
g21
I1
sbsba(ics475_types
Instance
p3486
(dp3487
g11
(ics475_types
FeatureVector
p3488
(dp3489
g14
(dp3490
I1
F0.674312
sI2
F0.033632
sI3
F0.47351
sI4
F0.509602
sI5
F1.0
ssbsg16
g0
(g17
g2
Ntp3491
Rp3492
(dp3493
g21
I0
sbsba(ics475_types
Instance
p3494
(dp3495
g11
(ics475_types
FeatureVector
p3496
(dp3497
g14
(dp3498
I1
F-1.470227
sI2
F-0.986302
sI3
F-0.772089
sI4
F-0.982857
sI10
F1.0
ssbsg16
g0
(g17
g2
Ntp3499
Rp3500
(dp3501
g21
I1
sbsba(ics475_types
Instance
p3502
(dp3503
g11
(ics475_types
FeatureVector
p3504
(dp3505
g14
(dp3506
I8
F1.0
sI1
F3.044276
sI2
F0.511767
sI3
F1.183559
sI4
F-2.260491
ssbsg16
g0
(g17
g2
Ntp3507
Rp3508
(dp3509
g21
I1
sbsba(ics475_types
Instance
p3510
(dp3511
g11
(ics475_types
FeatureVector
p3512
(dp3513
g14
(dp3514
I8
F1.0
sI1
F0.83112
sI2
F1.441728
sI3
F1.802167
sI4
F-1.355957
ssbsg16
g0
(g17
g2
Ntp3515
Rp3516
(dp3517
g21
I1
sbsba(ics475_types
Instance
p3518
(dp3519
g11
(ics475_types
FeatureVector
p3520
(dp3521
g14
(dp3522
I8
F1.0
sI1
F1.759669
sI2
F-0.184991
sI3
F0.887895
sI4
F0.831912
ssbsg16
g0
(g17
g2
Ntp3523
Rp3524
(dp3525
g21
I1
sbsba(ics475_types
Instance
p3526
(dp3527
g11
(ics475_types
FeatureVector
p3528
(dp3529
g14
(dp3530
I1
F1.469409
sI2
F0.447
sI3
F-0.444311
sI4
F-0.293777
sI5
F1.0
ssbsg16
g0
(g17
g2
Ntp3531
Rp3532
(dp3533
g21
I0
sbsba(ics475_types
Instance
p3534
(dp3535
g11
(ics475_types
FeatureVector
p3536
(dp3537
g14
(dp3538
I8
F1.0
sI1
F-1.196535
sI2
F1.054668
sI3
F-0.607109
sI4
F-0.206931
ssbsg16
g0
(g17
g2
Ntp3539
Rp3540
(dp3541
g21
I1
sbsba(ics475_types
Instance
p3542
(dp3543
g11
(ics475_types
FeatureVector
p3544
(dp3545
g14
(dp3546
I8
F1.0
sI1
F-0.645793
sI2
F1.05234
sI3
F1.19526
sI4
F0.6885
ssbsg16
g0
(g17
g2
Ntp3547
Rp3548
(dp3549
g21
I1
sbsba(ics475_types
Instance
p3550
(dp3551
g11
(ics475_types
FeatureVector
p3552
(dp3553
g14
(dp3554
I1
F-0.146638
sI2
F0.807735
sI3
F0.505567
sI4
F1.166802
sI10
F1.0
ssbsg16
g0
(g17
g2
Ntp3555
Rp3556
(dp3557
g21
I1
sbsba(ics475_types
Instance
p3558
(dp3559
g11
(ics475_types
FeatureVector
p3560
(dp3561
g14
(dp3562
I1
F-2.18478
sI2
F0.122358
sI3
F0.674791
sI4
F-0.947838
sI10
F1.0
ssbsg16
g0
(g17
g2
Ntp3563
Rp3564
(dp3565
g21
I1
sbsba(ics475_types
Instance
p3566
(dp3567
g11
(ics475_types
FeatureVector
p3568
(dp3569
g14
(dp3570
I8
F1.0
sI1
F0.506291
sI2
F-1.367939
sI3
F-0.341934
sI4
F0.254422
ssbsg16
g0
(g17
g2
Ntp3571
Rp3572
(dp3573
g21
I1
sbsba(ics475_types
Instance
p3574
(dp3575
g11
(ics475_types
FeatureVector
p3576
(dp3577
g14
(dp3578
I1
F1.160474
sI2
F-0.157613
sI3
F-0.624172
sI4
F-1.207797
sI7
F1.0
ssbsg16
g0
(g17
g2
Ntp3579
Rp3580
(dp3581
g21
I0
sbsba(ics475_types
Instance
p3582
(dp3583
g11
(ics475_types
FeatureVector
p3584
(dp3585
g14
(dp3586
I1
F-0.561216
sI2
F0.322245
sI3
F-0.041176
sI4
F0.705862
sI9
F1.0
ssbsg16
g0
(g17
g2
Ntp3587
Rp3588
(dp3589
g21
I1
sbsba(ics475_types
Instance
p3590
(dp3591
g11
(ics475_types
FeatureVector
p3592
(dp3593
g14
(dp3594
I8
F1.0
sI1
F-0.204097
sI2
F1.968778
sI3
F0.54667
sI4
F0.491016
ssbsg16
g0
(g17
g2
Ntp3595
Rp3596
(dp3597
g21
I1
sbsba(ics475_types
Instance
p3598
(dp3599
g11
(ics475_types
FeatureVector
p3600
(dp3601
g14
(dp3602
I1
F-0.750471
sI2
F-0.05006
sI3
F-1.114144
sI4
F0.363812
sI6
F1.0
ssbsg16
g0
(g17
g2
Ntp3603
Rp3604
(dp3605
g21
I0
sbsba(ics475_types
Instance
p3606
(dp3607
g11
(ics475_types
FeatureVector
p3608
(dp3609
g14
(dp3610
I1
F0.48453
sI2
F0.172684
sI3
F-1.925055
sI4
F-0.346116
sI9
F1.0
ssbsg16
g0
(g17
g2
Ntp3611
Rp3612
(dp3613
g21
I1
sbsba(ics475_types
Instance
p3614
(dp3615
g11
(ics475_types
FeatureVector
p3616
(dp3617
g14
(dp3618
I1
F-0.136659
sI2
F1.448316
sI3
F0.096888
sI4
F-0.499967
sI10
F1.0
ssbsg16
g0
(g17
g2
Ntp3619
Rp3620
(dp3621
g21
I1
sbsba(ics475_types
Instance
p3622
(dp3623
g11
(ics475_types
FeatureVector
p3624
(dp3625
g14
(dp3626
I1
F-0.133603
sI2
F-0.315971
sI3
F-1.39178
sI4
F0.599441
sI7
F1.0
ssbsg16
g0
(g17
g2
Ntp3627
Rp3628
(dp3629
g21
I0
sbsba(ics475_types
Instance
p3630
(dp3631
g11
(ics475_types
FeatureVector
p3632
(dp3633
g14
(dp3634
I1
F0.280382
sI2
F0.014229
sI3
F1.35431
sI4
F-0.333709
sI10
F1.0
ssbsg16
g0
(g17
g2
Ntp3635
Rp3636
(dp3637
g21
I1
sbsba(ics475_types
Instance
p3638
(dp3639
g11
(ics475_types
FeatureVector
p3640
(dp3641
g14
(dp3642
I1
F1.872674
sI2
F0.551521
sI3
F0.109945
sI4
F-1.012133
sI5
F1.0
ssbsg16
g0
(g17
g2
Ntp3643
Rp3644
(dp3645
g21
I0
sbsba(ics475_types
Instance
p3646
(dp3647
g11
(ics475_types
FeatureVector
p3648
(dp3649
g14
(dp3650
I1
F0.175132
sI2
F-1.621432
sI3
F0.523199
sI4
F0.302614
sI7
F1.0
ssbsg16
g0
(g17
g2
Ntp3651
Rp3652
(dp3653
g21
I0
sbsba(ics475_types
Instance
p3654
(dp3655
g11
(ics475_types
FeatureVector
p3656
(dp3657
g14
(dp3658
I1
F1.422815
sI2
F1.223
sI3
F-0.1207
sI4
F-0.572082
sI6
F1.0
ssbsg16
g0
(g17
g2
Ntp3659
Rp3660
(dp3661
g21
I0
sbsba(ics475_types
Instance
p3662
(dp3663
g11
(ics475_types
FeatureVector
p3664
(dp3665
g14
(dp3666
I1
F0.745629
sI2
F0.175064
sI3
F-0.348293
sI4
F-1.131462
sI9
F1.0
ssbsg16
g0
(g17
g2
Ntp3667
Rp3668
(dp3669
g21
I1
sbsba(ics475_types
Instance
p3670
(dp3671
g11
(ics475_types
FeatureVector
p3672
(dp3673
g14
(dp3674
I8
F1.0
sI1
F1.292185
sI2
F0.014703
sI3
F-1.62473
sI4
F-0.372772
ssbsg16
g0
(g17
g2
Ntp3675
Rp3676
(dp3677
g21
I1
sbsba(ics475_types
Instance
p3678
(dp3679
g11
(ics475_types
FeatureVector
p3680
(dp3681
g14
(dp3682
I1
F1.156793
sI2
F0.924601
sI3
F-1.276529
sI4
F-1.453715
sI7
F1.0
ssbsg16
g0
(g17
g2
Ntp3683
Rp3684
(dp3685
g21
I0
sbsba(ics475_types
Instance
p3686
(dp3687
g11
(ics475_types
FeatureVector
p3688
(dp3689
g14
(dp3690
I8
F1.0
sI1
F-1.826843
sI2
F1.180916
sI3
F-0.414915
sI4
F-0.758625
ssbsg16
g0
(g17
g2
Ntp3691
Rp3692
(dp3693
g21
I1
sbsba(ics475_types
Instance
p3694
(dp3695
g11
(ics475_types
FeatureVector
p3696
(dp3697
g14
(dp3698
I1
F0.515878
sI2
F1.141695
sI3
F1.564983
sI4
F-0.219065
sI6
F1.0
ssbsg16
g0
(g17
g2
Ntp3699
Rp3700
(dp3701
g21
I0
sbsba(ics475_types
Instance
p3702
(dp3703
g11
(ics475_types
FeatureVector
p3704
(dp3705
g14
(dp3706
I1
F-1.345174
sI2
F0.189359
sI3
F-1.652243
sI4
F0.601843
sI7
F1.0
ssbsg16
g0
(g17
g2
Ntp3707
Rp3708
(dp3709
g21
I0
sbsba(ics475_types
Instance
p3710
(dp3711
g11
(ics475_types
FeatureVector
p3712
(dp3713
g14
(dp3714
I1
F-0.016619
sI2
F-0.002324
sI3
F0.445531
sI4
F0.727621
sI5
F1.0
ssbsg16
g0
(g17
g2
Ntp3715
Rp3716
(dp3717
g21
I0
sbsba(ics475_types
Instance
p3718
(dp3719
g11
(ics475_types
FeatureVector
p3720
(dp3721
g14
(dp3722
I1
F0.182647
sI2
F0.335037
sI3
F-0.495667
sI4
F-2.116732
sI7
F1.0
ssbsg16
g0
(g17
g2
Ntp3723
Rp3724
(dp3725
g21
I0
sbsba(ics475_types
Instance
p3726
(dp3727
g11
(ics475_types
FeatureVector
p3728
(dp3729
g14
(dp3730
I8
F1.0
sI1
F0.6784
sI2
F-0.310142
sI3
F0.492494
sI4
F-2.258073
ssbsg16
g0
(g17
g2
Ntp3731
Rp3732
(dp3733
g21
I1
sbsba(ics475_types
Instance
p3734
(dp3735
g11
(ics475_types
FeatureVector
p3736
(dp3737
g14
(dp3738
I1
F0.559876
sI2
F0.712129
sI3
F-0.356453
sI4
F0.378554
sI10
F1.0
ssbsg16
g0
(g17
g2
Ntp3739
Rp3740
(dp3741
g21
I1
sbsba(ics475_types
Instance
p3742
(dp3743
g11
(ics475_types
FeatureVector
p3744
(dp3745
g14
(dp3746
I1
F-0.247836
sI2
F1.493687
sI3
F1.099266
sI4
F-0.341062
sI10
F1.0
ssbsg16
g0
(g17
g2
Ntp3747
Rp3748
(dp3749
g21
I1
sbsba(ics475_types
Instance
p3750
(dp3751
g11
(ics475_types
FeatureVector
p3752
(dp3753
g14
(dp3754
I8
F1.0
sI1
F1.144877
sI2
F-0.530725
sI3
F-0.030801
sI4
F0.964441
ssbsg16
g0
(g17
g2
Ntp3755
Rp3756
(dp3757
g21
I1
sbsba(ics475_types
Instance
p3758
(dp3759
g11
(ics475_types
FeatureVector
p3760
(dp3761
g14
(dp3762
I1
F-0.667256
sI2
F0.895261
sI3
F-0.429049
sI4
F-1.163618
sI5
F1.0
ssbsg16
g0
(g17
g2
Ntp3763
Rp3764
(dp3765
g21
I0
sbsba(ics475_types
Instance
p3766
(dp3767
g11
(ics475_types
FeatureVector
p3768
(dp3769
g14
(dp3770
I1
F-0.211317
sI2
F0.580816
sI3
F-0.6155
sI4
F0.637799
sI7
F1.0
ssbsg16
g0
(g17
g2
Ntp3771
Rp3772
(dp3773
g21
I0
sbsba(ics475_types
Instance
p3774
(dp3775
g11
(ics475_types
FeatureVector
p3776
(dp3777
g14
(dp3778
I1
F0.93046
sI2
F-0.84691
sI3
F0.102851
sI4
F-0.416832
sI10
F1.0
ssbsg16
g0
(g17
g2
Ntp3779
Rp3780
(dp3781
g21
I1
sbsba(ics475_types
Instance
p3782
(dp3783
g11
(ics475_types
FeatureVector
p3784
(dp3785
g14
(dp3786
I1
F-0.773786
sI2
F-0.202766
sI3
F0.511035
sI4
F-0.129915
sI9
F1.0
ssbsg16
g0
(g17
g2
Ntp3787
Rp3788
(dp3789
g21
I1
sbsba(ics475_types
Instance
p3790
(dp3791
g11
(ics475_types
FeatureVector
p3792
(dp3793
g14
(dp3794
I1
F0.866625
sI2
F-1.235202
sI3
F1.299064
sI4
F-0.122247
sI10
F1.0
ssbsg16
g0
(g17
g2
Ntp3795
Rp3796
(dp3797
g21
I1
sbsba(ics475_types
Instance
p3798
(dp3799
g11
(ics475_types
FeatureVector
p3800
(dp3801
g14
(dp3802
I1
F0.965056
sI2
F-1.029296
sI3
F-0.439718
sI4
F-1.845368
sI6
F1.0
ssbsg16
g0
(g17
g2
Ntp3803
Rp3804
(dp3805
g21
I0
sbsba(ics475_types
Instance
p3806
(dp3807
g11
(ics475_types
FeatureVector
p3808
(dp3809
g14
(dp3810
I8
F1.0
sI1
F0.59298
sI2
F-0.332236
sI3
F0.963608
sI4
F1.356157
ssbsg16
g0
(g17
g2
Ntp3811
Rp3812
(dp3813
g21
I1
sbsba(ics475_types
Instance
p3814
(dp3815
g11
(ics475_types
FeatureVector
p3816
(dp3817
g14
(dp3818
I1
F0.630396
sI2
F-0.958321
sI3
F-1.72761
sI4
F-1.074438
sI5
F1.0
ssbsg16
g0
(g17
g2
Ntp3819
Rp3820
(dp3821
g21
I0
sbsba(ics475_types
Instance
p3822
(dp3823
g11
(ics475_types
FeatureVector
p3824
(dp3825
g14
(dp3826
I1
F-1.297432
sI2
F-0.915654
sI3
F-0.329903
sI4
F-0.019259
sI7
F1.0
ssbsg16
g0
(g17
g2
Ntp3827
Rp3828
(dp3829
g21
I0
sbsba(ics475_types
Instance
p3830
(dp3831
g11
(ics475_types
FeatureVector
p3832
(dp3833
g14
(dp3834
I1
F0.880145
sI2
F-0.559379
sI3
F-0.256002
sI4
F-0.018627
sI7
F1.0
ssbsg16
g0
(g17
g2
Ntp3835
Rp3836
(dp3837
g21
I0
sbsba(ics475_types
Instance
p3838
(dp3839
g11
(ics475_types
FeatureVector
p3840
(dp3841
g14
(dp3842
I1
F1.183749
sI2
F-0.001675
sI3
F-0.352259
sI4
F0.883999
sI6
F1.0
ssbsg16
g0
(g17
g2
Ntp3843
Rp3844
(dp3845
g21
I0
sbsba(ics475_types
Instance
p3846
(dp3847
g11
(ics475_types
FeatureVector
p3848
(dp3849
g14
(dp3850
I1
F-0.812838
sI2
F0.300547
sI3
F-0.153373
sI4
F0.090468
sI6
F1.0
ssbsg16
g0
(g17
g2
Ntp3851
Rp3852
(dp3853
g21
I0
sbsba(ics475_types
Instance
p3854
(dp3855
g11
(ics475_types
FeatureVector
p3856
(dp3857
g14
(dp3858
I8
F1.0
sI1
F-1.523979
sI2
F0.316969
sI3
F-0.161789
sI4
F2.418849
ssbsg16
g0
(g17
g2
Ntp3859
Rp3860
(dp3861
g21
I1
sbsba(ics475_types
Instance
p3862
(dp3863
g11
(ics475_types
FeatureVector
p3864
(dp3865
g14
(dp3866
I1
F-0.758641
sI2
F2.598594
sI3
F0.000962
sI4
F-1.778896
sI5
F1.0
ssbsg16
g0
(g17
g2
Ntp3867
Rp3868
(dp3869
g21
I0
sbsba(ics475_types
Instance
p3870
(dp3871
g11
(ics475_types
FeatureVector
p3872
(dp3873
g14
(dp3874
I1
F-3.379218
sI2
F0.345024
sI3
F0.873421
sI4
F0.901132
sI7
F1.0
ssbsg16
g0
(g17
g2
Ntp3875
Rp3876
(dp3877
g21
I0
sbsba(ics475_types
Instance
p3878
(dp3879
g11
(ics475_types
FeatureVector
p3880
(dp3881
g14
(dp3882
I1
F0.851915
sI2
F0.217317
sI3
F1.175169
sI4
F0.250476
sI6
F1.0
ssbsg16
g0
(g17
g2
Ntp3883
Rp3884
(dp3885
g21
I0
sbsba(ics475_types
Instance
p3886
(dp3887
g11
(ics475_types
FeatureVector
p3888
(dp3889
g14
(dp3890
I8
F1.0
sI1
F-0.696318
sI2
F1.339959
sI3
F-1.640998
sI4
F0.798252
ssbsg16
g0
(g17
g2
Ntp3891
Rp3892
(dp3893
g21
I1
sbsba(ics475_types
Instance
p3894
(dp3895
g11
(ics475_types
FeatureVector
p3896
(dp3897
g14
(dp3898
I1
F0.630398
sI2
F0.972071
sI3
F-1.511
sI4
F0.649562
sI7
F1.0
ssbsg16
g0
(g17
g2
Ntp3899
Rp3900
(dp3901
g21
I0
sbsba(ics475_types
Instance
p3902
(dp3903
g11
(ics475_types
FeatureVector
p3904
(dp3905
g14
(dp3906
I1
F0.436031
sI2
F-1.162134
sI3
F0.304421
sI4
F-0.465172
sI7
F1.0
ssbsg16
g0
(g17
g2
Ntp3907
Rp3908
(dp3909
g21
I0
sbsba(ics475_types
Instance
p3910
(dp3911
g11
(ics475_types
FeatureVector
p3912
(dp3913
g14
(dp3914
I1
F0.006885
sI2
F0.204384
sI3
F0.654226
sI4
F-1.542994
sI6
F1.0
ssbsg16
g0
(g17
g2
Ntp3915
Rp3916
(dp3917
g21
I0
sbsba(ics475_types
Instance
p3918
(dp3919
g11
(ics475_types
FeatureVector
p3920
(dp3921
g14
(dp3922
I1
F-0.07197
sI2
F0.660373
sI3
F-0.11762
sI4
F-0.795847
sI7
F1.0
ssbsg16
g0
(g17
g2
Ntp3923
Rp3924
(dp3925
g21
I0
sbsba(ics475_types
Instance
p3926
(dp3927
g11
(ics475_types
FeatureVector
p3928
(dp3929
g14
(dp3930
I1
F1.018973
sI2
F-0.631777
sI3
F-1.47167
sI4
F-1.248452
sI5
F1.0
ssbsg16
g0
(g17
g2
Ntp3931
Rp3932
(dp3933
g21
I0
sbsba(ics475_types
Instance
p3934
(dp3935
g11
(ics475_types
FeatureVector
p3936
(dp3937
g14
(dp3938
I1
F-1.38746
sI2
F0.992306
sI3
F0.582832
sI4
F-0.535513
sI6
F1.0
ssbsg16
g0
(g17
g2
Ntp3939
Rp3940
(dp3941
g21
I0
sbsba(ics475_types
Instance
p3942
(dp3943
g11
(ics475_types
FeatureVector
p3944
(dp3945
g14
(dp3946
I1
F-0.122415
sI2
F0.470133
sI3
F0.351043
sI4
F0.634133
sI10
F1.0
ssbsg16
g0
(g17
g2
Ntp3947
Rp3948
(dp3949
g21
I1
sbsba(ics475_types
Instance
p3950
(dp3951
g11
(ics475_types
FeatureVector
p3952
(dp3953
g14
(dp3954
I1
F-0.597443
sI2
F-0.547016
sI3
F-0.756252
sI4
F-1.292805
sI7
F1.0
ssbsg16
g0
(g17
g2
Ntp3955
Rp3956
(dp3957
g21
I0
sbsba(ics475_types
Instance
p3958
(dp3959
g11
(ics475_types
FeatureVector
p3960
(dp3961
g14
(dp3962
I1
F1.671414
sI2
F0.139448
sI3
F-1.102669
sI4
F0.721713
sI7
F1.0
ssbsg16
g0
(g17
g2
Ntp3963
Rp3964
(dp3965
g21
I0
sbsba(ics475_types
Instance
p3966
(dp3967
g11
(ics475_types
FeatureVector
p3968
(dp3969
g14
(dp3970
I1
F-0.459809
sI2
F0.062875
sI3
F-0.20915
sI4
F-0.405693
sI6
F1.0
ssbsg16
g0
(g17
g2
Ntp3971
Rp3972
(dp3973
g21
I0
sbsba(ics475_types
Instance
p3974
(dp3975
g11
(ics475_types
FeatureVector
p3976
(dp3977
g14
(dp3978
I1
F1.700093
sI2
F1.958818
sI3
F-0.760586
sI4
F-0.489741
sI10
F1.0
ssbsg16
g0
(g17
g2
Ntp3979
Rp3980
(dp3981
g21
I1
sbsba(ics475_types
Instance
p3982
(dp3983
g11
(ics475_types
FeatureVector
p3984
(dp3985
g14
(dp3986
I8
F1.0
sI1
F-0.190437
sI2
F-0.088062
sI3
F1.751323
sI4
F0.052951
ssbsg16
g0
(g17
g2
Ntp3987
Rp3988
(dp3989
g21
I1
sbsba(ics475_types
Instance
p3990
(dp3991
g11
(ics475_types
FeatureVector
p3992
(dp3993
g14
(dp3994
I1
F-1.688863
sI2
F-0.982664
sI3
F1.003639
sI4
F-0.911681
sI9
F1.0
ssbsg16
g0
(g17
g2
Ntp3995
Rp3996
(dp3997
g21
I1
sbsba(ics475_types
Instance
p3998
(dp3999
g11
(ics475_types
FeatureVector
p4000
(dp4001
g14
(dp4002
I1
F-0.878318
sI2
F1.190916
sI3
F-1.004307
sI4
F-0.200669
sI6
F1.0
ssbsg16
g0
(g17
g2
Ntp4003
Rp4004
(dp4005
g21
I0
sbsba(ics475_types
Instance
p4006
(dp4007
g11
(ics475_types
FeatureVector
p4008
(dp4009
g14
(dp4010
I1
F-0.53336
sI2
F-0.498118
sI3
F-0.267103
sI4
F0.606281
sI5
F1.0
ssbsg16
g0
(g17
g2
Ntp4011
Rp4012
(dp4013
g21
I0
sbsba(ics475_types
Instance
p4014
(dp4015
g11
(ics475_types
FeatureVector
p4016
(dp4017
g14
(dp4018
I1
F-0.153555
sI2
F-0.6149
sI3
F-0.905528
sI4
F0.498006
sI6
F1.0
ssbsg16
g0
(g17
g2
Ntp4019
Rp4020
(dp4021
g21
I0
sbsba(ics475_types
Instance
p4022
(dp4023
g11
(ics475_types
FeatureVector
p4024
(dp4025
g14
(dp4026
I1
F0.212065
sI2
F-0.040602
sI3
F-1.472689
sI4
F-0.744878
sI9
F1.0
ssbsg16
g0
(g17
g2
Ntp4027
Rp4028
(dp4029
g21
I1
sbsba(ics475_types
Instance
p4030
(dp4031
g11
(ics475_types
FeatureVector
p4032
(dp4033
g14
(dp4034
I1
F-0.890869
sI2
F-0.326471
sI3
F-0.152998
sI4
F0.26225
sI5
F1.0
ssbsg16
g0
(g17
g2
Ntp4035
Rp4036
(dp4037
g21
I0
sbsba(ics475_types
Instance
p4038
(dp4039
g11
(ics475_types
FeatureVector
p4040
(dp4041
g14
(dp4042
I1
F-0.88898
sI2
F0.171554
sI3
F-1.235257
sI4
F-1.163226
sI10
F1.0
ssbsg16
g0
(g17
g2
Ntp4043
Rp4044
(dp4045
g21
I1
sbsba(ics475_types
Instance
p4046
(dp4047
g11
(ics475_types
FeatureVector
p4048
(dp4049
g14
(dp4050
I1
F0.374839
sI2
F0.865331
sI3
F-0.427238
sI4
F0.343676
sI5
F1.0
ssbsg16
g0
(g17
g2
Ntp4051
Rp4052
(dp4053
g21
I0
sbsba(ics475_types
Instance
p4054
(dp4055
g11
(ics475_types
FeatureVector
p4056
(dp4057
g14
(dp4058
I1
F0.377215
sI2
F-0.760226
sI3
F-2.012957
sI4
F-1.010698
sI9
F1.0
ssbsg16
g0
(g17
g2
Ntp4059
Rp4060
(dp4061
g21
I1
sbsba(ics475_types
Instance
p4062
(dp4063
g11
(ics475_types
FeatureVector
p4064
(dp4065
g14
(dp4066
I1
F0.050666
sI2
F-0.362186
sI3
F0.077893
sI4
F-0.279781
sI6
F1.0
ssbsg16
g0
(g17
g2
Ntp4067
Rp4068
(dp4069
g21
I0
sbsba(ics475_types
Instance
p4070
(dp4071
g11
(ics475_types
FeatureVector
p4072
(dp4073
g14
(dp4074
I1
F-0.229519
sI2
F-1.502337
sI3
F0.866543
sI4
F-1.356505
sI6
F1.0
ssbsg16
g0
(g17
g2
Ntp4075
Rp4076
(dp4077
g21
I0
sbsba(ics475_types
Instance
p4078
(dp4079
g11
(ics475_types
FeatureVector
p4080
(dp4081
g14
(dp4082
I1
F-0.468071
sI2
F0.012536
sI3
F0.433072
sI4
F0.939769
sI7
F1.0
ssbsg16
g0
(g17
g2
Ntp4083
Rp4084
(dp4085
g21
I0
sbsba(ics475_types
Instance
p4086
(dp4087
g11
(ics475_types
FeatureVector
p4088
(dp4089
g14
(dp4090
I8
F1.0
sI1
F-0.222215
sI2
F-1.348257
sI3
F1.721444
sI4
F-0.707277
ssbsg16
g0
(g17
g2
Ntp4091
Rp4092
(dp4093
g21
I1
sbsba(ics475_types
Instance
p4094
(dp4095
g11
(ics475_types
FeatureVector
p4096
(dp4097
g14
(dp4098
I1
F0.509986
sI2
F-0.711377
sI3
F0.347573
sI4
F-1.174212
sI10
F1.0
ssbsg16
g0
(g17
g2
Ntp4099
Rp4100
(dp4101
g21
I1
sbsba(ics475_types
Instance
p4102
(dp4103
g11
(ics475_types
FeatureVector
p4104
(dp4105
g14
(dp4106
I1
F0.206299
sI2
F-0.085566
sI3
F2.134679
sI4
F0.784947
sI5
F1.0
ssbsg16
g0
(g17
g2
Ntp4107
Rp4108
(dp4109
g21
I0
sbsba(ics475_types
Instance
p4110
(dp4111
g11
(ics475_types
FeatureVector
p4112
(dp4113
g14
(dp4114
I8
F1.0
sI1
F-1.242048
sI2
F1.346572
sI3
F-0.846466
sI4
F0.337734
ssbsg16
g0
(g17
g2
Ntp4115
Rp4116
(dp4117
g21
I1
sbsba(ics475_types
Instance
p4118
(dp4119
g11
(ics475_types
FeatureVector
p4120
(dp4121
g14
(dp4122
I1
F-0.408047
sI2
F-0.74443
sI3
F0.093354
sI4
F-1.588522
sI5
F1.0
ssbsg16
g0
(g17
g2
Ntp4123
Rp4124
(dp4125
g21
I0
sbsba(ics475_types
Instance
p4126
(dp4127
g11
(ics475_types
FeatureVector
p4128
(dp4129
g14
(dp4130
I1
F0.782405
sI2
F-0.208402
sI3
F0.333455
sI4
F-0.544315
sI9
F1.0
ssbsg16
g0
(g17
g2
Ntp4131
Rp4132
(dp4133
g21
I1
sbsba(ics475_types
Instance
p4134
(dp4135
g11
(ics475_types
FeatureVector
p4136
(dp4137
g14
(dp4138
I8
F1.0
sI1
F0.476318
sI2
F0.608671
sI3
F2.351912
sI4
F1.263811
ssbsg16
g0
(g17
g2
Ntp4139
Rp4140
(dp4141
g21
I1
sbsba(ics475_types
Instance
p4142
(dp4143
g11
(ics475_types
FeatureVector
p4144
(dp4145
g14
(dp4146
I1
F-0.080831
sI2
F0.47201
sI3
F1.050036
sI4
F-0.190715
sI6
F1.0
ssbsg16
g0
(g17
g2
Ntp4147
Rp4148
(dp4149
g21
I0
sbsba(ics475_types
Instance
p4150
(dp4151
g11
(ics475_types
FeatureVector
p4152
(dp4153
g14
(dp4154
I1
F0.298888
sI2
F-0.068688
sI3
F-0.519339
sI4
F-0.092443
sI9
F1.0
ssbsg16
g0
(g17
g2
Ntp4155
Rp4156
(dp4157
g21
I1
sbsba(ics475_types
Instance
p4158
(dp4159
g11
(ics475_types
FeatureVector
p4160
(dp4161
g14
(dp4162
I8
F1.0
sI1
F-1.551089
sI2
F1.406332
sI3
F-0.140686
sI4
F-0.155843
ssbsg16
g0
(g17
g2
Ntp4163
Rp4164
(dp4165
g21
I1
sbsba(ics475_types
Instance
p4166
(dp4167
g11
(ics475_types
FeatureVector
p4168
(dp4169
g14
(dp4170
I1
F0.736749
sI2
F-1.386148
sI3
F-2.106629
sI4
F-0.251177
sI9
F1.0
ssbsg16
g0
(g17
g2
Ntp4171
Rp4172
(dp4173
g21
I1
sbsba(ics475_types
Instance
p4174
(dp4175
g11
(ics475_types
FeatureVector
p4176
(dp4177
g14
(dp4178
I8
F1.0
sI1
F1.740204
sI2
F-0.684913
sI3
F0.663213
sI4
F1.253191
ssbsg16
g0
(g17
g2
Ntp4179
Rp4180
(dp4181
g21
I1
sbsba(ics475_types
Instance
p4182
(dp4183
g11
(ics475_types
FeatureVector
p4184
(dp4185
g14
(dp4186
I1
F0.434477
sI2
F1.309134
sI3
F-0.56391
sI4
F-0.397544
sI10
F1.0
ssbsg16
g0
(g17
g2
Ntp4187
Rp4188
(dp4189
g21
I1
sbsba(ics475_types
Instance
p4190
(dp4191
g11
(ics475_types
FeatureVector
p4192
(dp4193
g14
(dp4194
I1
F0.329735
sI2
F1.247561
sI3
F0.162987
sI4
F0.177631
sI6
F1.0
ssbsg16
g0
(g17
g2
Ntp4195
Rp4196
(dp4197
g21
I0
sbsba(ics475_types
Instance
p4198
(dp4199
g11
(ics475_types
FeatureVector
p4200
(dp4201
g14
(dp4202
I1
F-0.281249
sI2
F0.746685
sI3
F2.332504
sI4
F1.379397
sI6
F1.0
ssbsg16
g0
(g17
g2
Ntp4203
Rp4204
(dp4205
g21
I0
sbsba(ics475_types
Instance
p4206
(dp4207
g11
(ics475_types
FeatureVector
p4208
(dp4209
g14
(dp4210
I1
F0.848648
sI2
F0.417482
sI3
F0.63506
sI4
F-0.202729
sI7
F1.0
ssbsg16
g0
(g17
g2
Ntp4211
Rp4212
(dp4213
g21
I0
sbsba(ics475_types
Instance
p4214
(dp4215
g11
(ics475_types
FeatureVector
p4216
(dp4217
g14
(dp4218
I1
F0.80404
sI2
F-0.017509
sI3
F0.63012
sI4
F-0.697544
sI5
F1.0
ssbsg16
g0
(g17
g2
Ntp4219
Rp4220
(dp4221
g21
I0
sbsba(ics475_types
Instance
p4222
(dp4223
g11
(ics475_types
FeatureVector
p4224
(dp4225
g14
(dp4226
I1
F1.603454
sI2
F-0.785056
sI3
F1.668068
sI4
F0.294406
sI5
F1.0
ssbsg16
g0
(g17
g2
Ntp4227
Rp4228
(dp4229
g21
I0
sbsba(ics475_types
Instance
p4230
(dp4231
g11
(ics475_types
FeatureVector
p4232
(dp4233
g14
(dp4234
I1
F0.162321
sI2
F1.954417
sI3
F0.4225
sI4
F0.378734
sI10
F1.0
ssbsg16
g0
(g17
g2
Ntp4235
Rp4236
(dp4237
g21
I1
sbsba(ics475_types
Instance
p4238
(dp4239
g11
(ics475_types
FeatureVector
p4240
(dp4241
g14
(dp4242
I1
F-1.05874
sI2
F-0.937694
sI3
F-0.22184
sI4
F-1.522659
sI6
F1.0
ssbsg16
g0
(g17
g2
Ntp4243
Rp4244
(dp4245
g21
I0
sbsba(ics475_types
Instance
p4246
(dp4247
g11
(ics475_types
FeatureVector
p4248
(dp4249
g14
(dp4250
I1
F-1.655668
sI2
F-1.679093
sI3
F-0.09614
sI4
F-0.428469
sI5
F1.0
ssbsg16
g0
(g17
g2
Ntp4251
Rp4252
(dp4253
g21
I0
sbsba(ics475_types
Instance
p4254
(dp4255
g11
(ics475_types
FeatureVector
p4256
(dp4257
g14
(dp4258
I1
F2.159906
sI2
F1.210449
sI3
F-1.169926
sI4
F-1.547807
sI9
F1.0
ssbsg16
g0
(g17
g2
Ntp4259
Rp4260
(dp4261
g21
I1
sbsba(ics475_types
Instance
p4262
(dp4263
g11
(ics475_types
FeatureVector
p4264
(dp4265
g14
(dp4266
I1
F1.747928
sI2
F-0.426509
sI3
F-0.579363
sI4
F1.166432
sI9
F1.0
ssbsg16
g0
(g17
g2
Ntp4267
Rp4268
(dp4269
g21
I1
sbsba(ics475_types
Instance
p4270
(dp4271
g11
(ics475_types
FeatureVector
p4272
(dp4273
g14
(dp4274
I1
F-0.121043
sI2
F0.878905
sI3
F0.263467
sI4
F1.351242
sI5
F1.0
ssbsg16
g0
(g17
g2
Ntp4275
Rp4276
(dp4277
g21
I0
sbsba(ics475_types
Instance
p4278
(dp4279
g11
(ics475_types
FeatureVector
p4280
(dp4281
g14
(dp4282
I1
F-0.307841
sI2
F-2.289822
sI3
F0.106471
sI4
F-0.558246
sI10
F1.0
ssbsg16
g0
(g17
g2
Ntp4283
Rp4284
(dp4285
g21
I1
sbsba(ics475_types
Instance
p4286
(dp4287
g11
(ics475_types
FeatureVector
p4288
(dp4289
g14
(dp4290
I1
F1.111011
sI2
F0.273537
sI3
F-0.428819
sI4
F-1.581912
sI5
F1.0
ssbsg16
g0
(g17
g2
Ntp4291
Rp4292
(dp4293
g21
I0
sbsba(ics475_types
Instance
p4294
(dp4295
g11
(ics475_types
FeatureVector
p4296
(dp4297
g14
(dp4298
I1
F-0.626412
sI2
F0.439996
sI3
F0.678995
sI4
F-1.281956
sI6
F1.0
ssbsg16
g0
(g17
g2
Ntp4299
Rp4300
(dp4301
g21
I0
sbsba(ics475_types
Instance
p4302
(dp4303
g11
(ics475_types
FeatureVector
p4304
(dp4305
g14
(dp4306
I1
F-1.306764
sI2
F-0.986409
sI3
F1.414822
sI4
F-0.700197
sI7
F1.0
ssbsg16
g0
(g17
g2
Ntp4307
Rp4308
(dp4309
g21
I0
sbsba(ics475_types
Instance
p4310
(dp4311
g11
(ics475_types
FeatureVector
p4312
(dp4313
g14
(dp4314
I1
F0.926254
sI2
F1.358849
sI3
F-1.076723
sI4
F0.326938
sI9
F1.0
ssbsg16
g0
(g17
g2
Ntp4315
Rp4316
(dp4317
g21
I1
sbsba(ics475_types
Instance
p4318
(dp4319
g11
(ics475_types
FeatureVector
p4320
(dp4321
g14
(dp4322
I1
F-0.448534
sI2
F-0.279824
sI3
F-0.816544
sI4
F1.502769
sI5
F1.0
ssbsg16
g0
(g17
g2
Ntp4323
Rp4324
(dp4325
g21
I0
sbsba(ics475_types
Instance
p4326
(dp4327
g11
(ics475_types
FeatureVector
p4328
(dp4329
g14
(dp4330
I1
F0.527096
sI2
F-1.976318
sI3
F-0.01004
sI4
F0.675826
sI9
F1.0
ssbsg16
g0
(g17
g2
Ntp4331
Rp4332
(dp4333
g21
I1
sbsba(ics475_types
Instance
p4334
(dp4335
g11
(ics475_types
FeatureVector
p4336
(dp4337
g14
(dp4338
I1
F-1.062949
sI2
F-0.893137
sI3
F-0.644843
sI4
F2.370965
sI6
F1.0
ssbsg16
g0
(g17
g2
Ntp4339
Rp4340
(dp4341
g21
I0
sbsba(ics475_types
Instance
p4342
(dp4343
g11
(ics475_types
FeatureVector
p4344
(dp4345
g14
(dp4346
I1
F-0.311724
sI2
F-0.212053
sI3
F0.221282
sI4
F0.899768
sI7
F1.0
ssbsg16
g0
(g17
g2
Ntp4347
Rp4348
(dp4349
g21
I0
sbsba(ics475_types
Instance
p4350
(dp4351
g11
(ics475_types
FeatureVector
p4352
(dp4353
g14
(dp4354
I8
F1.0
sI1
F-1.203709
sI2
F-0.700889
sI3
F0.112056
sI4
F-1.474671
ssbsg16
g0
(g17
g2
Ntp4355
Rp4356
(dp4357
g21
I1
sbsba(ics475_types
Instance
p4358
(dp4359
g11
(ics475_types
FeatureVector
p4360
(dp4361
g14
(dp4362
I1
F-0.098004
sI2
F-0.933218
sI3
F-0.195743
sI4
F0.948926
sI10
F1.0
ssbsg16
g0
(g17
g2
Ntp4363
Rp4364
(dp4365
g21
I1
sbsba(ics475_types
Instance
p4366
(dp4367
g11
(ics475_types
FeatureVector
p4368
(dp4369
g14
(dp4370
I8
F1.0
sI1
F1.37938
sI2
F0.229842
sI3
F0.770311
sI4
F-0.108511
ssbsg16
g0
(g17
g2
Ntp4371
Rp4372
(dp4373
g21
I1
sbsba(ics475_types
Instance
p4374
(dp4375
g11
(ics475_types
FeatureVector
p4376
(dp4377
g14
(dp4378
I1
F1.198446
sI2
F-0.527605
sI3
F-1.377273
sI4
F0.71795
sI9
F1.0
ssbsg16
g0
(g17
g2
Ntp4379
Rp4380
(dp4381
g21
I1
sbsba(ics475_types
Instance
p4382
(dp4383
g11
(ics475_types
FeatureVector
p4384
(dp4385
g14
(dp4386
I1
F0.01601
sI2
F-1.031832
sI3
F-0.06441
sI4
F0.406685
sI7
F1.0
ssbsg16
g0
(g17
g2
Ntp4387
Rp4388
(dp4389
g21
I0
sbsba(ics475_types
Instance
p4390
(dp4391
g11
(ics475_types
FeatureVector
p4392
(dp4393
g14
(dp4394
I8
F1.0
sI1
F0.560795
sI2
F0.678263
sI3
F-1.019638
sI4
F0.603297
ssbsg16
g0
(g17
g2
Ntp4395
Rp4396
(dp4397
g21
I1
sbsba(ics475_types
Instance
p4398
(dp4399
g11
(ics475_types
FeatureVector
p4400
(dp4401
g14
(dp4402
I1
F-1.839344
sI2
F0.369566
sI3
F-1.316574
sI4
F0.629617
sI10
F1.0
ssbsg16
g0
(g17
g2
Ntp4403
Rp4404
(dp4405
g21
I1
sbsba(ics475_types
Instance
p4406
(dp4407
g11
(ics475_types
FeatureVector
p4408
(dp4409
g14
(dp4410
I1
F-0.583283
sI2
F1.177118
sI3
F-0.975141
sI4
F1.111523
sI9
F1.0
ssbsg16
g0
(g17
g2
Ntp4411
Rp4412
(dp4413
g21
I1
sbsba(ics475_types
Instance
p4414
(dp4415
g11
(ics475_types
FeatureVector
p4416
(dp4417
g14
(dp4418
I8
F1.0
sI1
F0.647706
sI2
F0.771826
sI3
F-1.013149
sI4
F0.349313
ssbsg16
g0
(g17
g2
Ntp4419
Rp4420
(dp4421
g21
I1
sbsba(ics475_types
Instance
p4422
(dp4423
g11
(ics475_types
FeatureVector
p4424
(dp4425
g14
(dp4426
I1
F0.515197
sI2
F-1.685336
sI3
F-0.721024
sI4
F0.353178
sI5
F1.0
ssbsg16
g0
(g17
g2
Ntp4427
Rp4428
(dp4429
g21
I0
sbsba(ics475_types
Instance
p4430
(dp4431
g11
(ics475_types
FeatureVector
p4432
(dp4433
g14
(dp4434
I8
F1.0
sI1
F-0.540639
sI2
F-0.182822
sI3
F0.905446
sI4
F-0.833442
ssbsg16
g0
(g17
g2
Ntp4435
Rp4436
(dp4437
g21
I1
sbsba(ics475_types
Instance
p4438
(dp4439
g11
(ics475_types
FeatureVector
p4440
(dp4441
g14
(dp4442
I1
F1.504796
sI2
F0.348552
sI3
F-0.607533
sI4
F-0.13297
sI5
F1.0
ssbsg16
g0
(g17
g2
Ntp4443
Rp4444
(dp4445
g21
I0
sbsba(ics475_types
Instance
p4446
(dp4447
g11
(ics475_types
FeatureVector
p4448
(dp4449
g14
(dp4450
I1
F0.029967
sI2
F0.245562
sI3
F1.029308
sI4
F-0.623772
sI10
F1.0
ssbsg16
g0
(g17
g2
Ntp4451
Rp4452
(dp4453
g21
I1
sbsba(ics475_types
Instance
p4454
(dp4455
g11
(ics475_types
FeatureVector
p4456
(dp4457
g14
(dp4458
I8
F1.0
sI1
F0.788134
sI2
F0.334435
sI3
F1.008266
sI4
F0.710864
ssbsg16
g0
(g17
g2
Ntp4459
Rp4460
(dp4461
g21
I1
sbsba(ics475_types
Instance
p4462
(dp4463
g11
(ics475_types
FeatureVector
p4464
(dp4465
g14
(dp4466
I1
F0.58579
sI2
F-0.205011
sI3
F-0.32275
sI4
F-1.110394
sI7
F1.0
ssbsg16
g0
(g17
g2
Ntp4467
Rp4468
(dp4469
g21
I0
sbsba(ics475_types
Instance
p4470
(dp4471
g11
(ics475_types
FeatureVector
p4472
(dp4473
g14
(dp4474
I1
F0.83588
sI2
F-0.282947
sI3
F0.587287
sI4
F0.317415
sI6
F1.0
ssbsg16
g0
(g17
g2
Ntp4475
Rp4476
(dp4477
g21
I0
sbsba(ics475_types
Instance
p4478
(dp4479
g11
(ics475_types
FeatureVector
p4480
(dp4481
g14
(dp4482
I8
F1.0
sI1
F0.682277
sI2
F-1.650195
sI3
F-0.835347
sI4
F-0.413707
ssbsg16
g0
(g17
g2
Ntp4483
Rp4484
(dp4485
g21
I1
sbsba(ics475_types
Instance
p4486
(dp4487
g11
(ics475_types
FeatureVector
p4488
(dp4489
g14
(dp4490
I1
F1.585913
sI2
F1.128392
sI3
F-1.913331
sI4
F2.065354
sI9
F1.0
ssbsg16
g0
(g17
g2
Ntp4491
Rp4492
(dp4493
g21
I1
sbsba(ics475_types
Instance
p4494
(dp4495
g11
(ics475_types
FeatureVector
p4496
(dp4497
g14
(dp4498
I8
F1.0
sI1
F-0.37604
sI2
F-1.179684
sI3
F1.189454
sI4
F-2.070375
ssbsg16
g0
(g17
g2
Ntp4499
Rp4500
(dp4501
g21
I1
sbsba(ics475_types
Instance
p4502
(dp4503
g11
(ics475_types
FeatureVector
p4504
(dp4505
g14
(dp4506
I1
F-0.517439
sI2
F-0.159766
sI3
F1.55625
sI4
F-0.814886
sI6
F1.0
ssbsg16
g0
(g17
g2
Ntp4507
Rp4508
(dp4509
g21
I0
sbsba(ics475_types
Instance
p4510
(dp4511
g11
(ics475_types
FeatureVector
p4512
(dp4513
g14
(dp4514
I8
F1.0
sI1
F0.44814
sI2
F-0.7038
sI3
F0.237245
sI4
F0.499819
ssbsg16
g0
(g17
g2
Ntp4515
Rp4516
(dp4517
g21
I1
sbsba(ics475_types
Instance
p4518
(dp4519
g11
(ics475_types
FeatureVector
p4520
(dp4521
g14
(dp4522
I8
F1.0
sI1
F0.518045
sI2
F-1.323566
sI3
F0.421666
sI4
F0.202043
ssbsg16
g0
(g17
g2
Ntp4523
Rp4524
(dp4525
g21
I1
sbsba(ics475_types
Instance
p4526
(dp4527
g11
(ics475_types
FeatureVector
p4528
(dp4529
g14
(dp4530
I8
F1.0
sI1
F1.546043
sI2
F-0.552379
sI3
F0.250314
sI4
F-0.179027
ssbsg16
g0
(g17
g2
Ntp4531
Rp4532
(dp4533
g21
I1
sbsba(ics475_types
Instance
p4534
(dp4535
g11
(ics475_types
FeatureVector
p4536
(dp4537
g14
(dp4538
I1
F1.50031
sI2
F0.620329
sI3
F-1.114309
sI4
F-0.786591
sI9
F1.0
ssbsg16
g0
(g17
g2
Ntp4539
Rp4540
(dp4541
g21
I1
sbsba(ics475_types
Instance
p4542
(dp4543
g11
(ics475_types
FeatureVector
p4544
(dp4545
g14
(dp4546
I1
F-0.909731
sI2
F1.074265
sI3
F0.920937
sI4
F-0.218708
sI10
F1.0
ssbsg16
g0
(g17
g2
Ntp4547
Rp4548
(dp4549
g21
I1
sbsba(ics475_types
Instance
p4550
(dp4551
g11
(ics475_types
FeatureVector
p4552
(dp4553
g14
(dp4554
I1
F1.410403
sI2
F-0.02593
sI3
F1.275207
sI4
F-1.705623
sI10
F1.0
ssbsg16
g0
(g17
g2
Ntp4555
Rp4556
(dp4557
g21
I1
sbsba(ics475_types
Instance
p4558
(dp4559
g11
(ics475_types
FeatureVector
p4560
(dp4561
g14
(dp4562
I8
F1.0
sI1
F-0.538363
sI2
F-1.690719
sI3
F-0.104506
sI4
F-1.354063
ssbsg16
g0
(g17
g2
Ntp4563
Rp4564
(dp4565
g21
I1
sbsba(ics475_types
Instance
p4566
(dp4567
g11
(ics475_types
FeatureVector
p4568
(dp4569
g14
(dp4570
I1
F0.198737
sI2
F0.611812
sI3
F1.756537
sI4
F0.150678
sI10
F1.0
ssbsg16
g0
(g17
g2
Ntp4571
Rp4572
(dp4573
g21
I1
sbsba(ics475_types
Instance
p4574
(dp4575
g11
(ics475_types
FeatureVector
p4576
(dp4577
g14
(dp4578
I8
F1.0
sI1
F-0.226043
sI2
F0.036966
sI3
F-0.020466
sI4
F-1.63586
ssbsg16
g0
(g17
g2
Ntp4579
Rp4580
(dp4581
g21
I1
sbsba(ics475_types
Instance
p4582
(dp4583
g11
(ics475_types
FeatureVector
p4584
(dp4585
g14
(dp4586
I1
F0.555023
sI2
F-2.019215
sI3
F-1.020955
sI4
F-0.83041
sI5
F1.0
ssbsg16
g0
(g17
g2
Ntp4587
Rp4588
(dp4589
g21
I0
sbsba(ics475_types
Instance
p4590
(dp4591
g11
(ics475_types
FeatureVector
p4592
(dp4593
g14
(dp4594
I1
F-0.138308
sI2
F-0.436497
sI3
F-0.985982
sI4
F-3.046068
sI9
F1.0
ssbsg16
g0
(g17
g2
Ntp4595
Rp4596
(dp4597
g21
I1
sbsba(ics475_types
Instance
p4598
(dp4599
g11
(ics475_types
FeatureVector
p4600
(dp4601
g14
(dp4602
I8
F1.0
sI1
F-0.10228
sI2
F-0.959562
sI3
F-0.657908
sI4
F0.249566
ssbsg16
g0
(g17
g2
Ntp4603
Rp4604
(dp4605
g21
I1
sbsba(ics475_types
Instance
p4606
(dp4607
g11
(ics475_types
FeatureVector
p4608
(dp4609
g14
(dp4610
I1
F0.071222
sI2
F1.103433
sI3
F-1.124013
sI4
F-0.402513
sI6
F1.0
ssbsg16
g0
(g17
g2
Ntp4611
Rp4612
(dp4613
g21
I0
sbsba(ics475_types
Instance
p4614
(dp4615
g11
(ics475_types
FeatureVector
p4616
(dp4617
g14
(dp4618
I1
F-1.067246
sI2
F1.060725
sI3
F0.094894
sI4
F-0.048467
sI10
F1.0
ssbsg16
g0
(g17
g2
Ntp4619
Rp4620
(dp4621
g21
I1
sbsba(ics475_types
Instance
p4622
(dp4623
g11
(ics475_types
FeatureVector
p4624
(dp4625
g14
(dp4626
I1
F1.225432
sI2
F-1.978259
sI3
F0.755285
sI4
F2.067801
sI9
F1.0
ssbsg16
g0
(g17
g2
Ntp4627
Rp4628
(dp4629
g21
I1
sbsba(ics475_types
Instance
p4630
(dp4631
g11
(ics475_types
FeatureVector
p4632
(dp4633
g14
(dp4634
I1
F0.495979
sI2
F-1.130837
sI3
F-1.187712
sI4
F0.913601
sI9
F1.0
ssbsg16
g0
(g17
g2
Ntp4635
Rp4636
(dp4637
g21
I1
sbsba(ics475_types
Instance
p4638
(dp4639
g11
(ics475_types
FeatureVector
p4640
(dp4641
g14
(dp4642
I1
F-0.289973
sI2
F1.537272
sI3
F-2.07897
sI4
F1.033089
sI10
F1.0
ssbsg16
g0
(g17
g2
Ntp4643
Rp4644
(dp4645
g21
I1
sbsba(ics475_types
Instance
p4646
(dp4647
g11
(ics475_types
FeatureVector
p4648
(dp4649
g14
(dp4650
I1
F0.225217
sI2
F-0.099797
sI3
F0.007083
sI4
F-1.574185
sI10
F1.0
ssbsg16
g0
(g17
g2
Ntp4651
Rp4652
(dp4653
g21
I1
sbsba(ics475_types
Instance
p4654
(dp4655
g11
(ics475_types
FeatureVector
p4656
(dp4657
g14
(dp4658
I1
F0.853908
sI2
F-1.014616
sI3
F-0.368485
sI4
F0.925469
sI10
F1.0
ssbsg16
g0
(g17
g2
Ntp4659
Rp4660
(dp4661
g21
I1
sbsba(ics475_types
Instance
p4662
(dp4663
g11
(ics475_types
FeatureVector
p4664
(dp4665
g14
(dp4666
I1
F-2.274372
sI2
F-0.544211
sI3
F0.124179
sI4
F-0.983294
sI7
F1.0
ssbsg16
g0
(g17
g2
Ntp4667
Rp4668
(dp4669
g21
I0
sbsba(ics475_types
Instance
p4670
(dp4671
g11
(ics475_types
FeatureVector
p4672
(dp4673
g14
(dp4674
I1
F-0.495021
sI2
F1.308321
sI3
F-0.31922
sI4
F-0.232791
sI7
F1.0
ssbsg16
g0
(g17
g2
Ntp4675
Rp4676
(dp4677
g21
I0
sbsba(ics475_types
Instance
p4678
(dp4679
g11
(ics475_types
FeatureVector
p4680
(dp4681
g14
(dp4682
I1
F-0.011733
sI2
F0.589649
sI3
F2.568869
sI4
F0.991722
sI10
F1.0
ssbsg16
g0
(g17
g2
Ntp4683
Rp4684
(dp4685
g21
I1
sbsba(ics475_types
Instance
p4686
(dp4687
g11
(ics475_types
FeatureVector
p4688
(dp4689
g14
(dp4690
I1
F-1.909961
sI2
F0.305501
sI3
F-0.100312
sI4
F0.494003
sI7
F1.0
ssbsg16
g0
(g17
g2
Ntp4691
Rp4692
(dp4693
g21
I0
sbsba(ics475_types
Instance
p4694
(dp4695
g11
(ics475_types
FeatureVector
p4696
(dp4697
g14
(dp4698
I1
F1.201366
sI2
F-0.419752
sI3
F1.2544
sI4
F-2.125149
sI9
F1.0
ssbsg16
g0
(g17
g2
Ntp4699
Rp4700
(dp4701
g21
I1
sbsba(ics475_types
Instance
p4702
(dp4703
g11
(ics475_types
FeatureVector
p4704
(dp4705
g14
(dp4706
I8
F1.0
sI1
F-0.320643
sI2
F-0.293398
sI3
F-0.346644
sI4
F2.967515
ssbsg16
g0
(g17
g2
Ntp4707
Rp4708
(dp4709
g21
I1
sbsba(ics475_types
Instance
p4710
(dp4711
g11
(ics475_types
FeatureVector
p4712
(dp4713
g14
(dp4714
I1
F1.629334
sI2
F-0.584494
sI3
F-1.151981
sI4
F-1.813547
sI6
F1.0
ssbsg16
g0
(g17
g2
Ntp4715
Rp4716
(dp4717
g21
I0
sbsba(ics475_types
Instance
p4718
(dp4719
g11
(ics475_types
FeatureVector
p4720
(dp4721
g14
(dp4722
I1
F-0.045441
sI2
F-1.245408
sI3
F1.902164
sI4
F0.248109
sI5
F1.0
ssbsg16
g0
(g17
g2
Ntp4723
Rp4724
(dp4725
g21
I0
sbsba(ics475_types
Instance
p4726
(dp4727
g11
(ics475_types
FeatureVector
p4728
(dp4729
g14
(dp4730
I1
F-1.368584
sI2
F-2.165195
sI3
F-0.321411
sI4
F0.512635
sI9
F1.0
ssbsg16
g0
(g17
g2
Ntp4731
Rp4732
(dp4733
g21
I1
sbsba(ics475_types
Instance
p4734
(dp4735
g11
(ics475_types
FeatureVector
p4736
(dp4737
g14
(dp4738
I1
F1.159615
sI2
F1.184957
sI3
F-0.081533
sI4
F-0.74771
sI10
F1.0
ssbsg16
g0
(g17
g2
Ntp4739
Rp4740
(dp4741
g21
I1
sbsba(ics475_types
Instance
p4742
(dp4743
g11
(ics475_types
FeatureVector
p4744
(dp4745
g14
(dp4746
I1
F-0.437881
sI2
F0.223517
sI3
F0.31366
sI4
F0.299525
sI9
F1.0
ssbsg16
g0
(g17
g2
Ntp4747
Rp4748
(dp4749
g21
I1
sbsba(ics475_types
Instance
p4750
(dp4751
g11
(ics475_types
FeatureVector
p4752
(dp4753
g14
(dp4754
I1
F0.307435
sI2
F-0.143619
sI3
F0.65025
sI4
F1.024063
sI6
F1.0
ssbsg16
g0
(g17
g2
Ntp4755
Rp4756
(dp4757
g21
I0
sbsba(ics475_types
Instance
p4758
(dp4759
g11
(ics475_types
FeatureVector
p4760
(dp4761
g14
(dp4762
I1
F-0.234181
sI2
F1.179949
sI3
F-0.792328
sI4
F0.756103
sI5
F1.0
ssbsg16
g0
(g17
g2
Ntp4763
Rp4764
(dp4765
g21
I0
sbsba(ics475_types
Instance
p4766
(dp4767
g11
(ics475_types
FeatureVector
p4768
(dp4769
g14
(dp4770
I1
F-0.683503
sI2
F-0.156988
sI3
F1.043131
sI4
F-0.61334
sI7
F1.0
ssbsg16
g0
(g17
g2
Ntp4771
Rp4772
(dp4773
g21
I0
sbsba(ics475_types
Instance
p4774
(dp4775
g11
(ics475_types
FeatureVector
p4776
(dp4777
g14
(dp4778
I1
F1.431918
sI2
F-0.729297
sI3
F0.166658
sI4
F-0.450589
sI5
F1.0
ssbsg16
g0
(g17
g2
Ntp4779
Rp4780
(dp4781
g21
I0
sbsba(ics475_types
Instance
p4782
(dp4783
g11
(ics475_types
FeatureVector
p4784
(dp4785
g14
(dp4786
I1
F-1.235235
sI2
F0.5776
sI3
F0.489259
sI4
F-0.47815
sI9
F1.0
ssbsg16
g0
(g17
g2
Ntp4787
Rp4788
(dp4789
g21
I1
sbsba(ics475_types
Instance
p4790
(dp4791
g11
(ics475_types
FeatureVector
p4792
(dp4793
g14
(dp4794
I1
F-0.995529
sI2
F-0.541361
sI3
F-0.620303
sI4
F1.60294
sI6
F1.0
ssbsg16
g0
(g17
g2
Ntp4795
Rp4796
(dp4797
g21
I0
sbsba(ics475_types
Instance
p4798
(dp4799
g11
(ics475_types
FeatureVector
p4800
(dp4801
g14
(dp4802
I1
F0.642151
sI2
F1.240018
sI3
F-0.744895
sI4
F0.409516
sI7
F1.0
ssbsg16
g0
(g17
g2
Ntp4803
Rp4804
(dp4805
g21
I0
sbsba(ics475_types
Instance
p4806
(dp4807
g11
(ics475_types
FeatureVector
p4808
(dp4809
g14
(dp4810
I1
F1.143179
sI2
F-0.441322
sI3
F1.198041
sI4
F-1.677678
sI9
F1.0
ssbsg16
g0
(g17
g2
Ntp4811
Rp4812
(dp4813
g21
I1
sbsba(ics475_types
Instance
p4814
(dp4815
g11
(ics475_types
FeatureVector
p4816
(dp4817
g14
(dp4818
I1
F0.007382
sI2
F-0.162945
sI3
F-0.25008
sI4
F0.912492
sI9
F1.0
ssbsg16
g0
(g17
g2
Ntp4819
Rp4820
(dp4821
g21
I1
sbsba(ics475_types
Instance
p4822
(dp4823
g11
(ics475_types
FeatureVector
p4824
(dp4825
g14
(dp4826
I1
F0.231434
sI2
F-0.147777
sI3
F-0.373133
sI4
F0.992312
sI9
F1.0
ssbsg16
g0
(g17
g2
Ntp4827
Rp4828
(dp4829
g21
I1
sbsba(ics475_types
Instance
p4830
(dp4831
g11
(ics475_types
FeatureVector
p4832
(dp4833
g14
(dp4834
I1
F0.043464
sI2
F-0.655889
sI3
F-0.812416
sI4
F-1.174982
sI7
F1.0
ssbsg16
g0
(g17
g2
Ntp4835
Rp4836
(dp4837
g21
I0
sbsba(ics475_types
Instance
p4838
(dp4839
g11
(ics475_types
FeatureVector
p4840
(dp4841
g14
(dp4842
I1
F-0.161685
sI2
F-0.563624
sI3
F1.040783
sI4
F0.067185
sI10
F1.0
ssbsg16
g0
(g17
g2
Ntp4843
Rp4844
(dp4845
g21
I1
sbsba(ics475_types
Instance
p4846
(dp4847
g11
(ics475_types
FeatureVector
p4848
(dp4849
g14
(dp4850
I1
F0.866796
sI2
F0.093551
sI3
F1.151367
sI4
F1.060998
sI5
F1.0
ssbsg16
g0
(g17
g2
Ntp4851
Rp4852
(dp4853
g21
I0
sbsba(ics475_types
Instance
p4854
(dp4855
g11
(ics475_types
FeatureVector
p4856
(dp4857
g14
(dp4858
I1
F1.194819
sI2
F0.876804
sI3
F0.395878
sI4
F0.254818
sI10
F1.0
ssbsg16
g0
(g17
g2
Ntp4859
Rp4860
(dp4861
g21
I1
sbsba(ics475_types
Instance
p4862
(dp4863
g11
(ics475_types
FeatureVector
p4864
(dp4865
g14
(dp4866
I1
F0.269302
sI2
F-0.373305
sI3
F-0.376234
sI4
F1.467165
sI6
F1.0
ssbsg16
g0
(g17
g2
Ntp4867
Rp4868
(dp4869
g21
I0
sbsba(ics475_types
Instance
p4870
(dp4871
g11
(ics475_types
FeatureVector
p4872
(dp4873
g14
(dp4874
I1
F-1.515068
sI2
F-0.707112
sI3
F-0.292649
sI4
F-0.503421
sI10
F1.0
ssbsg16
g0
(g17
g2
Ntp4875
Rp4876
(dp4877
g21
I1
sbsba(ics475_types
Instance
p4878
(dp4879
g11
(ics475_types
FeatureVector
p4880
(dp4881
g14
(dp4882
I1
F-1.304611
sI2
F-1.641036
sI3
F-1.696246
sI4
F-0.482533
sI5
F1.0
ssbsg16
g0
(g17
g2
Ntp4883
Rp4884
(dp4885
g21
I0
sbsba(ics475_types
Instance
p4886
(dp4887
g11
(ics475_types
FeatureVector
p4888
(dp4889
g14
(dp4890
I8
F1.0
sI1
F-0.109253
sI2
F0.213726
sI3
F-0.634511
sI4
F-0.43817
ssbsg16
g0
(g17
g2
Ntp4891
Rp4892
(dp4893
g21
I1
sbsba(ics475_types
Instance
p4894
(dp4895
g11
(ics475_types
FeatureVector
p4896
(dp4897
g14
(dp4898
I1
F-0.766887
sI2
F-1.531845
sI3
F0.549304
sI4
F-0.954931
sI7
F1.0
ssbsg16
g0
(g17
g2
Ntp4899
Rp4900
(dp4901
g21
I0
sbsba(ics475_types
Instance
p4902
(dp4903
g11
(ics475_types
FeatureVector
p4904
(dp4905
g14
(dp4906
I8
F1.0
sI1
F-0.720121
sI2
F-1.415269
sI3
F-0.721084
sI4
F-1.48743
ssbsg16
g0
(g17
g2
Ntp4907
Rp4908
(dp4909
g21
I1
sbsba(ics475_types
Instance
p4910
(dp4911
g11
(ics475_types
FeatureVector
p4912
(dp4913
g14
(dp4914
I1
F-0.142224
sI2
F-1.464038
sI3
F-0.458892
sI4
F-0.215392
sI10
F1.0
ssbsg16
g0
(g17
g2
Ntp4915
Rp4916
(dp4917
g21
I1
sbsba(ics475_types
Instance
p4918
(dp4919
g11
(ics475_types
FeatureVector
p4920
(dp4921
g14
(dp4922
I8
F1.0
sI1
F0.151154
sI2
F-1.21922
sI3
F0.0832
sI4
F1.303558
ssbsg16
g0
(g17
g2
Ntp4923
Rp4924
(dp4925
g21
I1
sbsba(ics475_types
Instance
p4926
(dp4927
g11
(ics475_types
FeatureVector
p4928
(dp4929
g14
(dp4930
I1
F-0.688382
sI2
F-1.400533
sI3
F1.01862
sI4
F-1.352052
sI7
F1.0
ssbsg16
g0
(g17
g2
Ntp4931
Rp4932
(dp4933
g21
I0
sbsba(ics475_types
Instance
p4934
(dp4935
g11
(ics475_types
FeatureVector
p4936
(dp4937
g14
(dp4938
I1
F0.999522
sI2
F0.256785
sI3
F-1.275265
sI4
F-0.333617
sI10
F1.0
ssbsg16
g0
(g17
g2
Ntp4939
Rp4940
(dp4941
g21
I1
sbsba(ics475_types
Instance
p4942
(dp4943
g11
(ics475_types
FeatureVector
p4944
(dp4945
g14
(dp4946
I1
F-0.978417
sI2
F-1.694892
sI3
F-0.249701
sI4
F1.971434
sI9
F1.0
ssbsg16
g0
(g17
g2
Ntp4947
Rp4948
(dp4949
g21
I1
sbsba(ics475_types
Instance
p4950
(dp4951
g11
(ics475_types
FeatureVector
p4952
(dp4953
g14
(dp4954
I1
F1.06699
sI2
F1.185494
sI3
F1.568349
sI4
F-0.975792
sI9
F1.0
ssbsg16
g0
(g17
g2
Ntp4955
Rp4956
(dp4957
g21
I1
sbsba(ics475_types
Instance
p4958
(dp4959
g11
(ics475_types
FeatureVector
p4960
(dp4961
g14
(dp4962
I8
F1.0
sI1
F-0.550118
sI2
F-1.384509
sI3
F-0.268239
sI4
F0.198293
ssbsg16
g0
(g17
g2
Ntp4963
Rp4964
(dp4965
g21
I1
sbsba(ics475_types
Instance
p4966
(dp4967
g11
(ics475_types
FeatureVector
p4968
(dp4969
g14
(dp4970
I8
F1.0
sI1
F-0.202568
sI2
F-1.246487
sI3
F0.107639
sI4
F-0.25476
ssbsg16
g0
(g17
g2
Ntp4971
Rp4972
(dp4973
g21
I1
sbsba(ics475_types
Instance
p4974
(dp4975
g11
(ics475_types
FeatureVector
p4976
(dp4977
g14
(dp4978
I1
F-0.593401
sI2
F-0.736742
sI3
F0.315991
sI4
F-0.08736
sI9
F1.0
ssbsg16
g0
(g17
g2
Ntp4979
Rp4980
(dp4981
g21
I1
sbsba(ics475_types
Instance
p4982
(dp4983
g11
(ics475_types
FeatureVector
p4984
(dp4985
g14
(dp4986
I8
F1.0
sI1
F-0.150275
sI2
F0.2911
sI3
F-0.925545
sI4
F-0.272337
ssbsg16
g0
(g17
g2
Ntp4987
Rp4988
(dp4989
g21
I1
sbsba(ics475_types
Instance
p4990
(dp4991
g11
(ics475_types
FeatureVector
p4992
(dp4993
g14
(dp4994
I1
F-1.572442
sI2
F-0.115908
sI3
F-1.101242
sI4
F0.565808
sI5
F1.0
ssbsg16
g0
(g17
g2
Ntp4995
Rp4996
(dp4997
g21
I0
sbsba(ics475_types
Instance
p4998
(dp4999
g11
(ics475_types
FeatureVector
p5000
(dp5001
g14
(dp5002
I1
F1.38064
sI2
F0.682766
sI3
F0.879865
sI4
F-1.151602
sI5
F1.0
ssbsg16
g0
(g17
g2
Ntp5003
Rp5004
(dp5005
g21
I0
sbsba(ics475_types
Instance
p5006
(dp5007
g11
(ics475_types
FeatureVector
p5008
(dp5009
g14
(dp5010
I1
F-0.452436
sI2
F0.816169
sI3
F0.616413
sI4
F-1.412012
sI9
F1.0
ssbsg16
g0
(g17
g2
Ntp5011
Rp5012
(dp5013
g21
I1
sbsba(ics475_types
Instance
p5014
(dp5015
g11
(ics475_types
FeatureVector
p5016
(dp5017
g14
(dp5018
I1
F-0.785008
sI2
F2.113347
sI3
F1.613836
sI4
F-0.106877
sI5
F1.0
ssbsg16
g0
(g17
g2
Ntp5019
Rp5020
(dp5021
g21
I0
sbsba(ics475_types
Instance
p5022
(dp5023
g11
(ics475_types
FeatureVector
p5024
(dp5025
g14
(dp5026
I1
F-0.538115
sI2
F0.38806
sI3
F0.557224
sI4
F0.657575
sI7
F1.0
ssbsg16
g0
(g17
g2
Ntp5027
Rp5028
(dp5029
g21
I0
sbsba(ics475_types
Instance
p5030
(dp5031
g11
(ics475_types
FeatureVector
p5032
(dp5033
g14
(dp5034
I1
F-0.655923
sI2
F0.419919
sI3
F-0.20736
sI4
F0.81606
sI9
F1.0
ssbsg16
g0
(g17
g2
Ntp5035
Rp5036
(dp5037
g21
I1
sbsba(ics475_types
Instance
p5038
(dp5039
g11
(ics475_types
FeatureVector
p5040
(dp5041
g14
(dp5042
I1
F-0.127126
sI2
F1.210608
sI3
F-0.165269
sI4
F1.41661
sI7
F1.0
ssbsg16
g0
(g17
g2
Ntp5043
Rp5044
(dp5045
g21
I0
sbsba(ics475_types
Instance
p5046
(dp5047
g11
(ics475_types
FeatureVector
p5048
(dp5049
g14
(dp5050
I1
F-1.991496
sI2
F1.567973
sI3
F-0.45
sI4
F1.373093
sI6
F1.0
ssbsg16
g0
(g17
g2
Ntp5051
Rp5052
(dp5053
g21
I0
sbsba(ics475_types
Instance
p5054
(dp5055
g11
(ics475_types
FeatureVector
p5056
(dp5057
g14
(dp5058
I1
F-2.032925
sI2
F-0.559851
sI3
F-1.165654
sI4
F0.626347
sI6
F1.0
ssbsg16
g0
(g17
g2
Ntp5059
Rp5060
(dp5061
g21
I0
sbsba(ics475_types
Instance
p5062
(dp5063
g11
(ics475_types
FeatureVector
p5064
(dp5065
g14
(dp5066
I1
F0.456915
sI2
F0.509846
sI3
F1.97734
sI4
F1.857796
sI10
F1.0
ssbsg16
g0
(g17
g2
Ntp5067
Rp5068
(dp5069
g21
I1
sbsba(ics475_types
Instance
p5070
(dp5071
g11
(ics475_types
FeatureVector
p5072
(dp5073
g14
(dp5074
I8
F1.0
sI1
F-0.827983
sI2
F-0.200609
sI3
F0.877516
sI4
F-0.013237
ssbsg16
g0
(g17
g2
Ntp5075
Rp5076
(dp5077
g21
I1
sbsba(ics475_types
Instance
p5078
(dp5079
g11
(ics475_types
FeatureVector
p5080
(dp5081
g14
(dp5082
I1
F-0.528242
sI2
F1.699368
sI3
F1.882008
sI4
F-1.432778
sI7
F1.0
ssbsg16
g0
(g17
g2
Ntp5083
Rp5084
(dp5085
g21
I0
sbsba(ics475_types
Instance
p5086
(dp5087
g11
(ics475_types
FeatureVector
p5088
(dp5089
g14
(dp5090
I1
F-0.791513
sI2
F0.532676
sI3
F-0.05388
sI4
F1.154392
sI10
F1.0
ssbsg16
g0
(g17
g2
Ntp5091
Rp5092
(dp5093
g21
I1
sbsba(ics475_types
Instance
p5094
(dp5095
g11
(ics475_types
FeatureVector
p5096
(dp5097
g14
(dp5098
I1
F-0.542685
sI2
F-0.016464
sI3
F-0.713663
sI4
F0.379503
sI6
F1.0
ssbsg16
g0
(g17
g2
Ntp5099
Rp5100
(dp5101
g21
I0
sbsba(ics475_types
Instance
p5102
(dp5103
g11
(ics475_types
FeatureVector
p5104
(dp5105
g14
(dp5106
I1
F0.714539
sI2
F0.502224
sI3
F-0.21014
sI4
F-0.297287
sI5
F1.0
ssbsg16
g0
(g17
g2
Ntp5107
Rp5108
(dp5109
g21
I0
sbsba(ics475_types
Instance
p5110
(dp5111
g11
(ics475_types
FeatureVector
p5112
(dp5113
g14
(dp5114
I1
F0.619607
sI2
F-0.47878
sI3
F0.122998
sI4
F1.432542
sI7
F1.0
ssbsg16
g0
(g17
g2
Ntp5115
Rp5116
(dp5117
g21
I0
sbsba(ics475_types
Instance
p5118
(dp5119
g11
(ics475_types
FeatureVector
p5120
(dp5121
g14
(dp5122
I1
F-0.06424
sI2
F-0.882545
sI3
F0.466932
sI4
F0.837338
sI9
F1.0
ssbsg16
g0
(g17
g2
Ntp5123
Rp5124
(dp5125
g21
I1
sbsba(ics475_types
Instance
p5126
(dp5127
g11
(ics475_types
FeatureVector
p5128
(dp5129
g14
(dp5130
I1
F-1.500285
sI2
F-0.205346
sI3
F1.1186
sI4
F-0.730032
sI10
F1.0
ssbsg16
g0
(g17
g2
Ntp5131
Rp5132
(dp5133
g21
I1
sbsba(ics475_types
Instance
p5134
(dp5135
g11
(ics475_types
FeatureVector
p5136
(dp5137
g14
(dp5138
I8
F1.0
sI1
F0.526047
sI2
F0.370325
sI3
F-0.940413
sI4
F2.211461
ssbsg16
g0
(g17
g2
Ntp5139
Rp5140
(dp5141
g21
I1
sbsba(ics475_types
Instance
p5142
(dp5143
g11
(ics475_types
FeatureVector
p5144
(dp5145
g14
(dp5146
I1
F-1.882799
sI2
F0.696719
sI3
F0.517371
sI4
F0.60002
sI7
F1.0
ssbsg16
g0
(g17
g2
Ntp5147
Rp5148
(dp5149
g21
I0
sbsba(ics475_types
Instance
p5150
(dp5151
g11
(ics475_types
FeatureVector
p5152
(dp5153
g14
(dp5154
I1
F-0.189157
sI2
F-1.242811
sI3
F1.942422
sI4
F-1.369023
sI5
F1.0
ssbsg16
g0
(g17
g2
Ntp5155
Rp5156
(dp5157
g21
I0
sbsba(ics475_types
Instance
p5158
(dp5159
g11
(ics475_types
FeatureVector
p5160
(dp5161
g14
(dp5162
I1
F-1.577767
sI2
F1.081761
sI3
F0.724702
sI4
F2.556987
sI6
F1.0
ssbsg16
g0
(g17
g2
Ntp5163
Rp5164
(dp5165
g21
I0
sbsba(ics475_types
Instance
p5166
(dp5167
g11
(ics475_types
FeatureVector
p5168
(dp5169
g14
(dp5170
I1
F0.611739
sI2
F0.84338
sI3
F-0.734515
sI4
F0.54607
sI6
F1.0
ssbsg16
g0
(g17
g2
Ntp5171
Rp5172
(dp5173
g21
I0
sbsba(ics475_types
Instance
p5174
(dp5175
g11
(ics475_types
FeatureVector
p5176
(dp5177
g14
(dp5178
I1
F0.476428
sI2
F2.623847
sI3
F1.843247
sI4
F0.399199
sI5
F1.0
ssbsg16
g0
(g17
g2
Ntp5179
Rp5180
(dp5181
g21
I0
sbsba(ics475_types
Instance
p5182
(dp5183
g11
(ics475_types
FeatureVector
p5184
(dp5185
g14
(dp5186
I8
F1.0
sI1
F-0.743347
sI2
F0.402477
sI3
F-0.425817
sI4
F0.085297
ssbsg16
g0
(g17
g2
Ntp5187
Rp5188
(dp5189
g21
I1
sbsba(ics475_types
Instance
p5190
(dp5191
g11
(ics475_types
FeatureVector
p5192
(dp5193
g14
(dp5194
I1
F0.135565
sI2
F-0.821374
sI3
F0.176816
sI4
F1.126982
sI9
F1.0
ssbsg16
g0
(g17
g2
Ntp5195
Rp5196
(dp5197
g21
I1
sbsba(ics475_types
Instance
p5198
(dp5199
g11
(ics475_types
FeatureVector
p5200
(dp5201
g14
(dp5202
I1
F-0.306129
sI2
F-0.504231
sI3
F-0.098765
sI4
F0.177297
sI10
F1.0
ssbsg16
g0
(g17
g2
Ntp5203
Rp5204
(dp5205
g21
I1
sbsba(ics475_types
Instance
p5206
(dp5207
g11
(ics475_types
FeatureVector
p5208
(dp5209
g14
(dp5210
I1
F-0.055846
sI2
F-0.32789
sI3
F1.462642
sI4
F0.390861
sI7
F1.0
ssbsg16
g0
(g17
g2
Ntp5211
Rp5212
(dp5213
g21
I0
sbsba(ics475_types
Instance
p5214
(dp5215
g11
(ics475_types
FeatureVector
p5216
(dp5217
g14
(dp5218
I1
F0.234301
sI2
F0.843986
sI3
F1.240958
sI4
F0.074114
sI7
F1.0
ssbsg16
g0
(g17
g2
Ntp5219
Rp5220
(dp5221
g21
I0
sbsba(ics475_types
Instance
p5222
(dp5223
g11
(ics475_types
FeatureVector
p5224
(dp5225
g14
(dp5226
I1
F0.154901
sI2
F-0.007715
sI3
F0.756543
sI4
F-0.000724
sI9
F1.0
ssbsg16
g0
(g17
g2
Ntp5227
Rp5228
(dp5229
g21
I1
sbsba(ics475_types
Instance
p5230
(dp5231
g11
(ics475_types
FeatureVector
p5232
(dp5233
g14
(dp5234
I8
F1.0
sI1
F-0.287384
sI2
F-0.008503
sI3
F-1.213315
sI4
F0.409947
ssbsg16
g0
(g17
g2
Ntp5235
Rp5236
(dp5237
g21
I1
sbsba(ics475_types
Instance
p5238
(dp5239
g11
(ics475_types
FeatureVector
p5240
(dp5241
g14
(dp5242
I8
F1.0
sI1
F-1.112628
sI2
F0.07934
sI3
F0.793742
sI4
F0.708611
ssbsg16
g0
(g17
g2
Ntp5243
Rp5244
(dp5245
g21
I1
sbsba(ics475_types
Instance
p5246
(dp5247
g11
(ics475_types
FeatureVector
p5248
(dp5249
g14
(dp5250
I1
F0.016947
sI2
F0.382262
sI3
F-1.024046
sI4
F-0.250451
sI9
F1.0
ssbsg16
g0
(g17
g2
Ntp5251
Rp5252
(dp5253
g21
I1
sbsba(ics475_types
Instance
p5254
(dp5255
g11
(ics475_types
FeatureVector
p5256
(dp5257
g14
(dp5258
I8
F1.0
sI1
F0.337056
sI2
F0.475898
sI3
F0.289671
sI4
F-0.661999
ssbsg16
g0
(g17
g2
Ntp5259
Rp5260
(dp5261
g21
I1
sbsba(ics475_types
Instance
p5262
(dp5263
g11
(ics475_types
FeatureVector
p5264
(dp5265
g14
(dp5266
I1
F-0.528382
sI2
F-1.921228
sI3
F-0.513302
sI4
F-1.864801
sI7
F1.0
ssbsg16
g0
(g17
g2
Ntp5267
Rp5268
(dp5269
g21
I0
sbsba(ics475_types
Instance
p5270
(dp5271
g11
(ics475_types
FeatureVector
p5272
(dp5273
g14
(dp5274
I1
F0.69719
sI2
F-0.97807
sI3
F1.297568
sI4
F0.199048
sI5
F1.0
ssbsg16
g0
(g17
g2
Ntp5275
Rp5276
(dp5277
g21
I0
sbsba(ics475_types
Instance
p5278
(dp5279
g11
(ics475_types
FeatureVector
p5280
(dp5281
g14
(dp5282
I1
F-2.306972
sI2
F1.856138
sI3
F-0.512258
sI4
F-0.654794
sI10
F1.0
ssbsg16
g0
(g17
g2
Ntp5283
Rp5284
(dp5285
g21
I1
sbsba(ics475_types
Instance
p5286
(dp5287
g11
(ics475_types
FeatureVector
p5288
(dp5289
g14
(dp5290
I1
F-0.660529
sI2
F-0.392701
sI3
F0.156046
sI4
F-1.911124
sI9
F1.0
ssbsg16
g0
(g17
g2
Ntp5291
Rp5292
(dp5293
g21
I1
sbsba(ics475_types
Instance
p5294
(dp5295
g11
(ics475_types
FeatureVector
p5296
(dp5297
g14
(dp5298
I1
F1.248572
sI2
F1.519321
sI3
F1.510103
sI4
F0.043113
sI9
F1.0
ssbsg16
g0
(g17
g2
Ntp5299
Rp5300
(dp5301
g21
I1
sbsba(ics475_types
Instance
p5302
(dp5303
g11
(ics475_types
FeatureVector
p5304
(dp5305
g14
(dp5306
I1
F0.962707
sI2
F0.299655
sI3
F0.391236
sI4
F0.018813
sI10
F1.0
ssbsg16
g0
(g17
g2
Ntp5307
Rp5308
(dp5309
g21
I1
sbsba(ics475_types
Instance
p5310
(dp5311
g11
(ics475_types
FeatureVector
p5312
(dp5313
g14
(dp5314
I1
F0.713567
sI2
F1.273374
sI3
F-1.040064
sI4
F1.95457
sI10
F1.0
ssbsg16
g0
(g17
g2
Ntp5315
Rp5316
(dp5317
g21
I1
sbsba(ics475_types
Instance
p5318
(dp5319
g11
(ics475_types
FeatureVector
p5320
(dp5321
g14
(dp5322
I1
F0.626845
sI2
F-0.539364
sI3
F-0.502242
sI4
F0.818424
sI9
F1.0
ssbsg16
g0
(g17
g2
Ntp5323
Rp5324
(dp5325
g21
I1
sbsba(ics475_types
Instance
p5326
(dp5327
g11
(ics475_types
FeatureVector
p5328
(dp5329
g14
(dp5330
I1
F0.301287
sI2
F-0.432423
sI3
F-0.174212
sI4
F-0.788984
sI5
F1.0
ssbsg16
g0
(g17
g2
Ntp5331
Rp5332
(dp5333
g21
I0
sbsba(ics475_types
Instance
p5334
(dp5335
g11
(ics475_types
FeatureVector
p5336
(dp5337
g14
(dp5338
I1
F-1.647405
sI2
F-0.010795
sI3
F-2.083803
sI4
F-0.287572
sI6
F1.0
ssbsg16
g0
(g17
g2
Ntp5339
Rp5340
(dp5341
g21
I0
sbsba(ics475_types
Instance
p5342
(dp5343
g11
(ics475_types
FeatureVector
p5344
(dp5345
g14
(dp5346
I1
F0.31653
sI2
F1.140352
sI3
F-0.996014
sI4
F-0.909948
sI7
F1.0
ssbsg16
g0
(g17
g2
Ntp5347
Rp5348
(dp5349
g21
I0
sbsba(ics475_types
Instance
p5350
(dp5351
g11
(ics475_types
FeatureVector
p5352
(dp5353
g14
(dp5354
I1
F-0.606217
sI2
F-2.067434
sI3
F-2.243257
sI4
F-0.095158
sI7
F1.0
ssbsg16
g0
(g17
g2
Ntp5355
Rp5356
(dp5357
g21
I0
sbsba(ics475_types
Instance
p5358
(dp5359
g11
(ics475_types
FeatureVector
p5360
(dp5361
g14
(dp5362
I1
F0.131398
sI2
F0.251834
sI3
F1.107887
sI4
F-1.669491
sI6
F1.0
ssbsg16
g0
(g17
g2
Ntp5363
Rp5364
(dp5365
g21
I0
sbsba(ics475_types
Instance
p5366
(dp5367
g11
(ics475_types
FeatureVector
p5368
(dp5369
g14
(dp5370
I1
F1.305222
sI2
F-0.829313
sI3
F-0.119297
sI4
F-0.219061
sI7
F1.0
ssbsg16
g0
(g17
g2
Ntp5371
Rp5372
(dp5373
g21
I0
sbsba(ics475_types
Instance
p5374
(dp5375
g11
(ics475_types
FeatureVector
p5376
(dp5377
g14
(dp5378
I1
F-0.714316
sI2
F0.084092
sI3
F0.116897
sI4
F0.792411
sI9
F1.0
ssbsg16
g0
(g17
g2
Ntp5379
Rp5380
(dp5381
g21
I1
sbsba(ics475_types
Instance
p5382
(dp5383
g11
(ics475_types
FeatureVector
p5384
(dp5385
g14
(dp5386
I1
F-0.879348
sI2
F0.979329
sI3
F-0.858871
sI4
F1.275881
sI5
F1.0
ssbsg16
g0
(g17
g2
Ntp5387
Rp5388
(dp5389
g21
I0
sbsba(ics475_types
Instance
p5390
(dp5391
g11
(ics475_types
FeatureVector
p5392
(dp5393
g14
(dp5394
I1
F-0.306518
sI2
F0.993731
sI3
F0.328526
sI4
F-0.365527
sI6
F1.0
ssbsg16
g0
(g17
g2
Ntp5395
Rp5396
(dp5397
g21
I0
sbsba(ics475_types
Instance
p5398
(dp5399
g11
(ics475_types
FeatureVector
p5400
(dp5401
g14
(dp5402
I1
F-0.120122
sI2
F0.729368
sI3
F-0.976942
sI4
F0.706264
sI9
F1.0
ssbsg16
g0
(g17
g2
Ntp5403
Rp5404
(dp5405
g21
I1
sbsba(ics475_types
Instance
p5406
(dp5407
g11
(ics475_types
FeatureVector
p5408
(dp5409
g14
(dp5410
I8
F1.0
sI1
F-0.40674
sI2
F0.142586
sI3
F0.368171
sI4
F-0.465043
ssbsg16
g0
(g17
g2
Ntp5411
Rp5412
(dp5413
g21
I1
sbsba(ics475_types
Instance
p5414
(dp5415
g11
(ics475_types
FeatureVector
p5416
(dp5417
g14
(dp5418
I1
F-0.834292
sI2
F-0.08505
sI3
F0.685159
sI4
F0.68822
sI6
F1.0
ssbsg16
g0
(g17
g2
Ntp5419
Rp5420
(dp5421
g21
I0
sbsba(ics475_types
Instance
p5422
(dp5423
g11
(ics475_types
FeatureVector
p5424
(dp5425
g14
(dp5426
I8
F1.0
sI1
F0.024004
sI2
F-0.086942
sI3
F-0.188613
sI4
F-0.948658
ssbsg16
g0
(g17
g2
Ntp5427
Rp5428
(dp5429
g21
I1
sbsba(ics475_types
Instance
p5430
(dp5431
g11
(ics475_types
FeatureVector
p5432
(dp5433
g14
(dp5434
I1
F0.878704
sI2
F0.755097
sI3
F0.712313
sI4
F1.899099
sI9
F1.0
ssbsg16
g0
(g17
g2
Ntp5435
Rp5436
(dp5437
g21
I1
sbsba(ics475_types
Instance
p5438
(dp5439
g11
(ics475_types
FeatureVector
p5440
(dp5441
g14
(dp5442
I1
F1.204837
sI2
F-1.809088
sI3
F0.191045
sI4
F-0.272655
sI7
F1.0
ssbsg16
g0
(g17
g2
Ntp5443
Rp5444
(dp5445
g21
I0
sbsba(ics475_types
Instance
p5446
(dp5447
g11
(ics475_types
FeatureVector
p5448
(dp5449
g14
(dp5450
I1
F0.036726
sI2
F0.392212
sI3
F0.85625
sI4
F0.189695
sI5
F1.0
ssbsg16
g0
(g17
g2
Ntp5451
Rp5452
(dp5453
g21
I0
sbsba(ics475_types
Instance
p5454
(dp5455
g11
(ics475_types
FeatureVector
p5456
(dp5457
g14
(dp5458
I1
F-0.559625
sI2
F-0.327563
sI3
F-0.358884
sI4
F1.798496
sI6
F1.0
ssbsg16
g0
(g17
g2
Ntp5459
Rp5460
(dp5461
g21
I0
sbsba(ics475_types
Instance
p5462
(dp5463
g11
(ics475_types
FeatureVector
p5464
(dp5465
g14
(dp5466
I8
F1.0
sI1
F0.449171
sI2
F0.890911
sI3
F-0.878626
sI4
F0.618358
ssbsg16
g0
(g17
g2
Ntp5467
Rp5468
(dp5469
g21
I1
sbsba(ics475_types
Instance
p5470
(dp5471
g11
(ics475_types
FeatureVector
p5472
(dp5473
g14
(dp5474
I1
F0.294722
sI2
F-0.606198
sI3
F0.468306
sI4
F-0.553767
sI5
F1.0
ssbsg16
g0
(g17
g2
Ntp5475
Rp5476
(dp5477
g21
I0
sbsba(ics475_types
Instance
p5478
(dp5479
g11
(ics475_types
FeatureVector
p5480
(dp5481
g14
(dp5482
I8
F1.0
sI1
F-0.39946
sI2
F-0.50548
sI3
F-0.714531
sI4
F0.516479
ssbsg16
g0
(g17
g2
Ntp5483
Rp5484
(dp5485
g21
I1
sbsba(ics475_types
Instance
p5486
(dp5487
g11
(ics475_types
FeatureVector
p5488
(dp5489
g14
(dp5490
I1
F-0.225528
sI2
F-0.489269
sI3
F1.075687
sI4
F-1.143213
sI9
F1.0
ssbsg16
g0
(g17
g2
Ntp5491
Rp5492
(dp5493
g21
I1
sbsba(ics475_types
Instance
p5494
(dp5495
g11
(ics475_types
FeatureVector
p5496
(dp5497
g14
(dp5498
I1
F0.108084
sI2
F-0.648355
sI3
F0.718842
sI4
F1.842392
sI9
F1.0
ssbsg16
g0
(g17
g2
Ntp5499
Rp5500
(dp5501
g21
I1
sbsba(ics475_types
Instance
p5502
(dp5503
g11
(ics475_types
FeatureVector
p5504
(dp5505
g14
(dp5506
I1
F-0.115111
sI2
F0.761733
sI3
F-2.257093
sI4
F-0.956832
sI5
F1.0
ssbsg16
g0
(g17
g2
Ntp5507
Rp5508
(dp5509
g21
I0
sbsba(ics475_types
Instance
p5510
(dp5511
g11
(ics475_types
FeatureVector
p5512
(dp5513
g14
(dp5514
I1
F1.136777
sI2
F-0.16533
sI3
F-0.265256
sI4
F0.123462
sI10
F1.0
ssbsg16
g0
(g17
g2
Ntp5515
Rp5516
(dp5517
g21
I1
sbsba(ics475_types
Instance
p5518
(dp5519
g11
(ics475_types
FeatureVector
p5520
(dp5521
g14
(dp5522
I1
F-0.457042
sI2
F-0.478152
sI3
F0.253704
sI4
F0.826916
sI7
F1.0
ssbsg16
g0
(g17
g2
Ntp5523
Rp5524
(dp5525
g21
I0
sbsba(ics475_types
Instance
p5526
(dp5527
g11
(ics475_types
FeatureVector
p5528
(dp5529
g14
(dp5530
I1
F-0.440767
sI2
F-0.798738
sI3
F-0.244168
sI4
F-0.506041
sI10
F1.0
ssbsg16
g0
(g17
g2
Ntp5531
Rp5532
(dp5533
g21
I1
sbsba(ics475_types
Instance
p5534
(dp5535
g11
(ics475_types
FeatureVector
p5536
(dp5537
g14
(dp5538
I1
F1.072579
sI2
F-1.177375
sI3
F-0.98827
sI4
F0.094959
sI7
F1.0
ssbsg16
g0
(g17
g2
Ntp5539
Rp5540
(dp5541
g21
I0
sbsba(ics475_types
Instance
p5542
(dp5543
g11
(ics475_types
FeatureVector
p5544
(dp5545
g14
(dp5546
I1
F0.197023
sI2
F0.464776
sI3
F-1.166839
sI4
F-1.777512
sI6
F1.0
ssbsg16
g0
(g17
g2
Ntp5547
Rp5548
(dp5549
g21
I0
sbsba(ics475_types
Instance
p5550
(dp5551
g11
(ics475_types
FeatureVector
p5552
(dp5553
g14
(dp5554
I1
F-0.846725
sI2
F1.563251
sI3
F0.97233
sI4
F0.5102
sI7
F1.0
ssbsg16
g0
(g17
g2
Ntp5555
Rp5556
(dp5557
g21
I0
sbsba(ics475_types
Instance
p5558
(dp5559
g11
(ics475_types
FeatureVector
p5560
(dp5561
g14
(dp5562
I1
F0.321478
sI2
F-0.562936
sI3
F-1.295334
sI4
F2.423579
sI9
F1.0
ssbsg16
g0
(g17
g2
Ntp5563
Rp5564
(dp5565
g21
I1
sbsba(ics475_types
Instance
p5566
(dp5567
g11
(ics475_types
FeatureVector
p5568
(dp5569
g14
(dp5570
I1
F0.014548
sI2
F-0.365754
sI3
F-1.46238
sI4
F0.651667
sI9
F1.0
ssbsg16
g0
(g17
g2
Ntp5571
Rp5572
(dp5573
g21
I1
sbsba(ics475_types
Instance
p5574
(dp5575
g11
(ics475_types
FeatureVector
p5576
(dp5577
g14
(dp5578
I1
F0.542754
sI2
F-1.580056
sI3
F-2.257778
sI4
F-0.165425
sI9
F1.0
ssbsg16
g0
(g17
g2
Ntp5579
Rp5580
(dp5581
g21
I1
sbsba(ics475_types
Instance
p5582
(dp5583
g11
(ics475_types
FeatureVector
p5584
(dp5585
g14
(dp5586
I1
F-0.785252
sI2
F1.420704
sI3
F0.283317
sI4
F-0.555442
sI5
F1.0
ssbsg16
g0
(g17
g2
Ntp5587
Rp5588
(dp5589
g21
I0
sbsba(ics475_types
Instance
p5590
(dp5591
g11
(ics475_types
FeatureVector
p5592
(dp5593
g14
(dp5594
I1
F-0.104222
sI2
F0.005065
sI3
F0.99482
sI4
F-1.511918
sI6
F1.0
ssbsg16
g0
(g17
g2
Ntp5595
Rp5596
(dp5597
g21
I0
sbsba(ics475_types
Instance
p5598
(dp5599
g11
(ics475_types
FeatureVector
p5600
(dp5601
g14
(dp5602
I8
F1.0
sI1
F1.405689
sI2
F-1.197993
sI3
F1.307562
sI4
F0.203258
ssbsg16
g0
(g17
g2
Ntp5603
Rp5604
(dp5605
g21
I1
sbsba(ics475_types
Instance
p5606
(dp5607
g11
(ics475_types
FeatureVector
p5608
(dp5609
g14
(dp5610
I8
F1.0
sI1
F0.313665
sI2
F1.519812
sI3
F-0.22837
sI4
F1.848377
ssbsg16
g0
(g17
g2
Ntp5611
Rp5612
(dp5613
g21
I1
sbsba(ics475_types
Instance
p5614
(dp5615
g11
(ics475_types
FeatureVector
p5616
(dp5617
g14
(dp5618
I1
F-0.698881
sI2
F-0.469412
sI3
F0.357417
sI4
F-0.548438
sI5
F1.0
ssbsg16
g0
(g17
g2
Ntp5619
Rp5620
(dp5621
g21
I0
sbsba(ics475_types
Instance
p5622
(dp5623
g11
(ics475_types
FeatureVector
p5624
(dp5625
g14
(dp5626
I1
F-0.628757
sI2
F-0.817742
sI3
F-0.508721
sI4
F1.030159
sI5
F1.0
ssbsg16
g0
(g17
g2
Ntp5627
Rp5628
(dp5629
g21
I0
sbsba(ics475_types
Instance
p5630
(dp5631
g11
(ics475_types
FeatureVector
p5632
(dp5633
g14
(dp5634
I8
F1.0
sI1
F0.61057
sI2
F0.357435
sI3
F-0.404183
sI4
F-0.852576
ssbsg16
g0
(g17
g2
Ntp5635
Rp5636
(dp5637
g21
I1
sbsba(ics475_types
Instance
p5638
(dp5639
g11
(ics475_types
FeatureVector
p5640
(dp5641
g14
(dp5642
I1
F-0.977895
sI2
F-1.230815
sI3
F0.586433
sI4
F-1.364126
sI6
F1.0
ssbsg16
g0
(g17
g2
Ntp5643
Rp5644
(dp5645
g21
I0
sbsba(ics475_types
Instance
p5646
(dp5647
g11
(ics475_types
FeatureVector
p5648
(dp5649
g14
(dp5650
I1
F0.517911
sI2
F-1.324098
sI3
F-2.638273
sI4
F-0.779086
sI7
F1.0
ssbsg16
g0
(g17
g2
Ntp5651
Rp5652
(dp5653
g21
I0
sbsba(ics475_types
Instance
p5654
(dp5655
g11
(ics475_types
FeatureVector
p5656
(dp5657
g14
(dp5658
I1
F-0.157139
sI2
F-0.29651
sI3
F0.42164
sI4
F-0.114994
sI7
F1.0
ssbsg16
g0
(g17
g2
Ntp5659
Rp5660
(dp5661
g21
I0
sbsba(ics475_types
Instance
p5662
(dp5663
g11
(ics475_types
FeatureVector
p5664
(dp5665
g14
(dp5666
I8
F1.0
sI1
F-0.194456
sI2
F2.539667
sI3
F-1.244197
sI4
F-0.586367
ssbsg16
g0
(g17
g2
Ntp5667
Rp5668
(dp5669
g21
I1
sbsba(ics475_types
Instance
p5670
(dp5671
g11
(ics475_types
FeatureVector
p5672
(dp5673
g14
(dp5674
I1
F0.672271
sI2
F0.797382
sI3
F-1.121828
sI4
F-0.978849
sI10
F1.0
ssbsg16
g0
(g17
g2
Ntp5675
Rp5676
(dp5677
g21
I1
sbsba(ics475_types
Instance
p5678
(dp5679
g11
(ics475_types
FeatureVector
p5680
(dp5681
g14
(dp5682
I1
F1.560877
sI2
F-1.169031
sI3
F2.623063
sI4
F-0.149528
sI7
F1.0
ssbsg16
g0
(g17
g2
Ntp5683
Rp5684
(dp5685
g21
I0
sbsba(ics475_types
Instance
p5686
(dp5687
g11
(ics475_types
FeatureVector
p5688
(dp5689
g14
(dp5690
I1
F0.714122
sI2
F-2.625057
sI3
F2.108806
sI4
F0.825838
sI5
F1.0
ssbsg16
g0
(g17
g2
Ntp5691
Rp5692
(dp5693
g21
I0
sbsba(ics475_types
Instance
p5694
(dp5695
g11
(ics475_types
FeatureVector
p5696
(dp5697
g14
(dp5698
I1
F-0.917166
sI2
F-1.368169
sI3
F2.186413
sI4
F0.317125
sI10
F1.0
ssbsg16
g0
(g17
g2
Ntp5699
Rp5700
(dp5701
g21
I1
sbsba(ics475_types
Instance
p5702
(dp5703
g11
(ics475_types
FeatureVector
p5704
(dp5705
g14
(dp5706
I1
F-1.138387
sI2
F-2.878258
sI3
F0.382929
sI4
F0.126262
sI10
F1.0
ssbsg16
g0
(g17
g2
Ntp5707
Rp5708
(dp5709
g21
I1
sbsba(ics475_types
Instance
p5710
(dp5711
g11
(ics475_types
FeatureVector
p5712
(dp5713
g14
(dp5714
I1
F0.946889
sI2
F1.706731
sI3
F-1.574707
sI4
F1.700857
sI9
F1.0
ssbsg16
g0
(g17
g2
Ntp5715
Rp5716
(dp5717
g21
I1
sbsba(ics475_types
Instance
p5718
(dp5719
g11
(ics475_types
FeatureVector
p5720
(dp5721
g14
(dp5722
I1
F1.23444
sI2
F0.28141
sI3
F-0.545591
sI4
F-0.35701
sI7
F1.0
ssbsg16
g0
(g17
g2
Ntp5723
Rp5724
(dp5725
g21
I0
sbsba(ics475_types
Instance
p5726
(dp5727
g11
(ics475_types
FeatureVector
p5728
(dp5729
g14
(dp5730
I1
F0.822896
sI2
F-0.529204
sI3
F-1.780886
sI4
F-0.616537
sI7
F1.0
ssbsg16
g0
(g17
g2
Ntp5731
Rp5732
(dp5733
g21
I0
sbsba(ics475_types
Instance
p5734
(dp5735
g11
(ics475_types
FeatureVector
p5736
(dp5737
g14
(dp5738
I1
F-0.41629
sI2
F3.345535
sI3
F-0.079565
sI4
F1.517511
sI5
F1.0
ssbsg16
g0
(g17
g2
Ntp5739
Rp5740
(dp5741
g21
I0
sbsba(ics475_types
Instance
p5742
(dp5743
g11
(ics475_types
FeatureVector
p5744
(dp5745
g14
(dp5746
I1
F1.682503
sI2
F1.196108
sI3
F0.03435
sI4
F-1.254193
sI9
F1.0
ssbsg16
g0
(g17
g2
Ntp5747
Rp5748
(dp5749
g21
I1
sbsba(ics475_types
Instance
p5750
(dp5751
g11
(ics475_types
FeatureVector
p5752
(dp5753
g14
(dp5754
I1
F0.260811
sI2
F0.74149
sI3
F-0.712393
sI4
F0.202765
sI6
F1.0
ssbsg16
g0
(g17
g2
Ntp5755
Rp5756
(dp5757
g21
I0
sbsba(ics475_types
Instance
p5758
(dp5759
g11
(ics475_types
FeatureVector
p5760
(dp5761
g14
(dp5762
I8
F1.0
sI1
F-0.210397
sI2
F1.591334
sI3
F-0.416377
sI4
F0.868799
ssbsg16
g0
(g17
g2
Ntp5763
Rp5764
(dp5765
g21
I1
sbsba(ics475_types
Instance
p5766
(dp5767
g11
(ics475_types
FeatureVector
p5768
(dp5769
g14
(dp5770
I1
F2.577098
sI2
F0.79161
sI3
F0.493651
sI4
F0.763553
sI7
F1.0
ssbsg16
g0
(g17
g2
Ntp5771
Rp5772
(dp5773
g21
I0
sbsba(ics475_types
Instance
p5774
(dp5775
g11
(ics475_types
FeatureVector
p5776
(dp5777
g14
(dp5778
I1
F0.578134
sI2
F-0.507091
sI3
F0.774404
sI4
F-0.921824
sI7
F1.0
ssbsg16
g0
(g17
g2
Ntp5779
Rp5780
(dp5781
g21
I0
sbsba(ics475_types
Instance
p5782
(dp5783
g11
(ics475_types
FeatureVector
p5784
(dp5785
g14
(dp5786
I1
F-0.354447
sI2
F0.09966
sI3
F0.499866
sI4
F0.301284
sI7
F1.0
ssbsg16
g0
(g17
g2
Ntp5787
Rp5788
(dp5789
g21
I0
sbsba(ics475_types
Instance
p5790
(dp5791
g11
(ics475_types
FeatureVector
p5792
(dp5793
g14
(dp5794
I1
F1.249255
sI2
F1.38103
sI3
F1.791626
sI4
F-0.528259
sI6
F1.0
ssbsg16
g0
(g17
g2
Ntp5795
Rp5796
(dp5797
g21
I0
sbsba(ics475_types
Instance
p5798
(dp5799
g11
(ics475_types
FeatureVector
p5800
(dp5801
g14
(dp5802
I1
F-0.943014
sI2
F1.104956
sI3
F-0.110804
sI4
F0.769944
sI6
F1.0
ssbsg16
g0
(g17
g2
Ntp5803
Rp5804
(dp5805
g21
I0
sbsba(ics475_types
Instance
p5806
(dp5807
g11
(ics475_types
FeatureVector
p5808
(dp5809
g14
(dp5810
I1
F1.380188
sI2
F-0.884449
sI3
F0.033247
sI4
F1.626612
sI7
F1.0
ssbsg16
g0
(g17
g2
Ntp5811
Rp5812
(dp5813
g21
I0
sbsba(ics475_types
Instance
p5814
(dp5815
g11
(ics475_types
FeatureVector
p5816
(dp5817
g14
(dp5818
I1
F-0.169925
sI2
F3.770401
sI3
F0.270147
sI4
F0.915
sI7
F1.0
ssbsg16
g0
(g17
g2
Ntp5819
Rp5820
(dp5821
g21
I0
sbsba(ics475_types
Instance
p5822
(dp5823
g11
(ics475_types
FeatureVector
p5824
(dp5825
g14
(dp5826
I8
F1.0
sI1
F0.716376
sI2
F-0.009901
sI3
F-1.833668
sI4
F-0.026731
ssbsg16
g0
(g17
g2
Ntp5827
Rp5828
(dp5829
g21
I1
sbsba(ics475_types
Instance
p5830
(dp5831
g11
(ics475_types
FeatureVector
p5832
(dp5833
g14
(dp5834
I1
F1.02208
sI2
F-0.844832
sI3
F0.621647
sI4
F1.770263
sI5
F1.0
ssbsg16
g0
(g17
g2
Ntp5835
Rp5836
(dp5837
g21
I0
sbsba(ics475_types
Instance
p5838
(dp5839
g11
(ics475_types
FeatureVector
p5840
(dp5841
g14
(dp5842
I1
F1.628694
sI2
F1.772595
sI3
F-0.239292
sI4
F1.598837
sI6
F1.0
ssbsg16
g0
(g17
g2
Ntp5843
Rp5844
(dp5845
g21
I0
sbsba(ics475_types
Instance
p5846
(dp5847
g11
(ics475_types
FeatureVector
p5848
(dp5849
g14
(dp5850
I1
F-0.741642
sI2
F-1.333849
sI3
F-0.675291
sI4
F0.418752
sI6
F1.0
ssbsg16
g0
(g17
g2
Ntp5851
Rp5852
(dp5853
g21
I0
sbsba(ics475_types
Instance
p5854
(dp5855
g11
(ics475_types
FeatureVector
p5856
(dp5857
g14
(dp5858
I1
F1.69217
sI2
F0.299409
sI3
F1.148188
sI4
F1.819693
sI9
F1.0
ssbsg16
g0
(g17
g2
Ntp5859
Rp5860
(dp5861
g21
I1
sbsba(ics475_types
Instance
p5862
(dp5863
g11
(ics475_types
FeatureVector
p5864
(dp5865
g14
(dp5866
I1
F0.94133
sI2
F-0.18494
sI3
F0.628422
sI4
F-0.212919
sI9
F1.0
ssbsg16
g0
(g17
g2
Ntp5867
Rp5868
(dp5869
g21
I1
sbsba(ics475_types
Instance
p5870
(dp5871
g11
(ics475_types
FeatureVector
p5872
(dp5873
g14
(dp5874
I8
F1.0
sI1
F-0.405091
sI2
F0.799985
sI3
F-0.055967
sI4
F2.526421
ssbsg16
g0
(g17
g2
Ntp5875
Rp5876
(dp5877
g21
I1
sbsba(ics475_types
Instance
p5878
(dp5879
g11
(ics475_types
FeatureVector
p5880
(dp5881
g14
(dp5882
I8
F1.0
sI1
F1.16446
sI2
F0.829378
sI3
F0.93846
sI4
F-0.773498
ssbsg16
g0
(g17
g2
Ntp5883
Rp5884
(dp5885
g21
I1
sbsba(ics475_types
Instance
p5886
(dp5887
g11
(ics475_types
FeatureVector
p5888
(dp5889
g14
(dp5890
I1
F-0.42515
sI2
F-0.231974
sI3
F0.92202
sI4
F0.934717
sI5
F1.0
ssbsg16
g0
(g17
g2
Ntp5891
Rp5892
(dp5893
g21
I0
sbsba(ics475_types
Instance
p5894
(dp5895
g11
(ics475_types
FeatureVector
p5896
(dp5897
g14
(dp5898
I1
F-2.164514
sI2
F-0.271614
sI3
F2.20862
sI4
F1.295096
sI9
F1.0
ssbsg16
g0
(g17
g2
Ntp5899
Rp5900
(dp5901
g21
I1
sbsba(ics475_types
Instance
p5902
(dp5903
g11
(ics475_types
FeatureVector
p5904
(dp5905
g14
(dp5906
I8
F1.0
sI1
F0.0063
sI2
F-0.554609
sI3
F-0.486157
sI4
F1.434653
ssbsg16
g0
(g17
g2
Ntp5907
Rp5908
(dp5909
g21
I1
sbsba(ics475_types
Instance
p5910
(dp5911
g11
(ics475_types
FeatureVector
p5912
(dp5913
g14
(dp5914
I1
F0.588062
sI2
F-0.492361
sI3
F1.371995
sI4
F0.549475
sI6
F1.0
ssbsg16
g0
(g17
g2
Ntp5915
Rp5916
(dp5917
g21
I0
sbsba(ics475_types
Instance
p5918
(dp5919
g11
(ics475_types
FeatureVector
p5920
(dp5921
g14
(dp5922
I1
F1.604689
sI2
F0.932837
sI3
F-0.415219
sI4
F0.536494
sI5
F1.0
ssbsg16
g0
(g17
g2
Ntp5923
Rp5924
(dp5925
g21
I0
sbsba(ics475_types
Instance
p5926
(dp5927
g11
(ics475_types
FeatureVector
p5928
(dp5929
g14
(dp5930
I8
F1.0
sI1
F0.972907
sI2
F-0.013847
sI3
F0.533359
sI4
F1.361687
ssbsg16
g0
(g17
g2
Ntp5931
Rp5932
(dp5933
g21
I1
sbsba(ics475_types
Instance
p5934
(dp5935
g11
(ics475_types
FeatureVector
p5936
(dp5937
g14
(dp5938
I1
F1.283399
sI2
F-1.553984
sI3
F0.462525
sI4
F-2.192236
sI9
F1.0
ssbsg16
g0
(g17
g2
Ntp5939
Rp5940
(dp5941
g21
I1
sbsba(ics475_types
Instance
p5942
(dp5943
g11
(ics475_types
FeatureVector
p5944
(dp5945
g14
(dp5946
I8
F1.0
sI1
F-1.360483
sI2
F-0.821102
sI3
F-2.483708
sI4
F0.356854
ssbsg16
g0
(g17
g2
Ntp5947
Rp5948
(dp5949
g21
I1
sbsba(ics475_types
Instance
p5950
(dp5951
g11
(ics475_types
FeatureVector
p5952
(dp5953
g14
(dp5954
I1
F0.337126
sI2
F0.353124
sI3
F-1.015305
sI4
F-0.064523
sI5
F1.0
ssbsg16
g0
(g17
g2
Ntp5955
Rp5956
(dp5957
g21
I0
sbsba(ics475_types
Instance
p5958
(dp5959
g11
(ics475_types
FeatureVector
p5960
(dp5961
g14
(dp5962
I1
F0.14839
sI2
F-2.787906
sI3
F1.999386
sI4
F-0.877623
sI6
F1.0
ssbsg16
g0
(g17
g2
Ntp5963
Rp5964
(dp5965
g21
I0
sbsba(ics475_types
Instance
p5966
(dp5967
g11
(ics475_types
FeatureVector
p5968
(dp5969
g14
(dp5970
I1
F-0.407494
sI2
F-1.065345
sI3
F-0.148309
sI4
F0.963785
sI6
F1.0
ssbsg16
g0
(g17
g2
Ntp5971
Rp5972
(dp5973
g21
I0
sbsba(ics475_types
Instance
p5974
(dp5975
g11
(ics475_types
FeatureVector
p5976
(dp5977
g14
(dp5978
I8
F1.0
sI1
F0.04694
sI2
F-0.079466
sI3
F0.519738
sI4
F-1.288284
ssbsg16
g0
(g17
g2
Ntp5979
Rp5980
(dp5981
g21
I1
sbsba(ics475_types
Instance
p5982
(dp5983
g11
(ics475_types
FeatureVector
p5984
(dp5985
g14
(dp5986
I1
F-0.703285
sI2
F-0.934936
sI3
F-0.112053
sI4
F1.04448
sI6
F1.0
ssbsg16
g0
(g17
g2
Ntp5987
Rp5988
(dp5989
g21
I0
sbsba(ics475_types
Instance
p5990
(dp5991
g11
(ics475_types
FeatureVector
p5992
(dp5993
g14
(dp5994
I1
F1.012007
sI2
F1.201426
sI3
F-1.810577
sI4
F-0.670212
sI7
F1.0
ssbsg16
g0
(g17
g2
Ntp5995
Rp5996
(dp5997
g21
I0
sbsba(ics475_types
Instance
p5998
(dp5999
g11
(ics475_types
FeatureVector
p6000
(dp6001
g14
(dp6002
I1
F-1.364199
sI2
F0.054396
sI3
F-0.327045
sI4
F2.064138
sI5
F1.0
ssbsg16
g0
(g17
g2
Ntp6003
Rp6004
(dp6005
g21
I0
sbsba(ics475_types
Instance
p6006
(dp6007
g11
(ics475_types
FeatureVector
p6008
(dp6009
g14
(dp6010
I1
F0.447443
sI2
F0.565217
sI3
F0.835662
sI4
F0.084535
sI9
F1.0
ssbsg16
g0
(g17
g2
Ntp6011
Rp6012
(dp6013
g21
I1
sbsba(ics475_types
Instance
p6014
(dp6015
g11
(ics475_types
FeatureVector
p6016
(dp6017
g14
(dp6018
I1
F0.067826
sI2
F-0.861352
sI3
F1.159379
sI4
F-1.630244
sI7
F1.0
ssbsg16
g0
(g17
g2
Ntp6019
Rp6020
(dp6021
g21
I0
sbsba(ics475_types
Instance
p6022
(dp6023
g11
(ics475_types
FeatureVector
p6024
(dp6025
g14
(dp6026
I1
F0.510004
sI2
F0.856989
sI3
F-0.31827
sI4
F0.338321
sI7
F1.0
ssbsg16
g0
(g17
g2
Ntp6027
Rp6028
(dp6029
g21
I0
sbsba(ics475_types
Instance
p6030
(dp6031
g11
(ics475_types
FeatureVector
p6032
(dp6033
g14
(dp6034
I8
F1.0
sI1
F-1.403869
sI2
F0.135146
sI3
F-0.728152
sI4
F0.422243
ssbsg16
g0
(g17
g2
Ntp6035
Rp6036
(dp6037
g21
I1
sbsba(ics475_types
Instance
p6038
(dp6039
g11
(ics475_types
FeatureVector
p6040
(dp6041
g14
(dp6042
I1
F-1.212789
sI2
F-1.035413
sI3
F-0.349906
sI4
F0.39194
sI7
F1.0
ssbsg16
g0
(g17
g2
Ntp6043
Rp6044
(dp6045
g21
I0
sbsba(ics475_types
Instance
p6046
(dp6047
g11
(ics475_types
FeatureVector
p6048
(dp6049
g14
(dp6050
I1
F0.706918
sI2
F1.029577
sI3
F0.985369
sI4
F0.813646
sI7
F1.0
ssbsg16
g0
(g17
g2
Ntp6051
Rp6052
(dp6053
g21
I0
sbsba(ics475_types
Instance
p6054
(dp6055
g11
(ics475_types
FeatureVector
p6056
(dp6057
g14
(dp6058
I1
F-0.182663
sI2
F0.591325
sI3
F-0.355965
sI4
F0.289844
sI10
F1.0
ssbsg16
g0
(g17
g2
Ntp6059
Rp6060
(dp6061
g21
I1
sbsba(ics475_types
Instance
p6062
(dp6063
g11
(ics475_types
FeatureVector
p6064
(dp6065
g14
(dp6066
I1
F-0.442409
sI2
F0.770635
sI3
F-0.622708
sI4
F-0.307651
sI10
F1.0
ssbsg16
g0
(g17
g2
Ntp6067
Rp6068
(dp6069
g21
I1
sbsba(ics475_types
Instance
p6070
(dp6071
g11
(ics475_types
FeatureVector
p6072
(dp6073
g14
(dp6074
I1
F-0.675476
sI2
F1.020442
sI3
F2.019429
sI4
F0.627283
sI10
F1.0
ssbsg16
g0
(g17
g2
Ntp6075
Rp6076
(dp6077
g21
I1
sbsba(ics475_types
Instance
p6078
(dp6079
g11
(ics475_types
FeatureVector
p6080
(dp6081
g14
(dp6082
I1
F1.475281
sI2
F-0.431136
sI3
F1.985561
sI4
F0.762534
sI10
F1.0
ssbsg16
g0
(g17
g2
Ntp6083
Rp6084
(dp6085
g21
I1
sbsba(ics475_types
Instance
p6086
(dp6087
g11
(ics475_types
FeatureVector
p6088
(dp6089
g14
(dp6090
I1
F1.414656
sI2
F0.169847
sI3
F-0.292717
sI4
F1.183723
sI9
F1.0
ssbsg16
g0
(g17
g2
Ntp6091
Rp6092
(dp6093
g21
I1
sbsba(ics475_types
Instance
p6094
(dp6095
g11
(ics475_types
FeatureVector
p6096
(dp6097
g14
(dp6098
I8
F1.0
sI1
F0.334581
sI2
F-0.663928
sI3
F1.325387
sI4
F-1.815317
ssbsg16
g0
(g17
g2
Ntp6099
Rp6100
(dp6101
g21
I1
sbsba(ics475_types
Instance
p6102
(dp6103
g11
(ics475_types
FeatureVector
p6104
(dp6105
g14
(dp6106
I1
F-0.356251
sI2
F-0.754767
sI3
F-0.267057
sI4
F1.132254
sI5
F1.0
ssbsg16
g0
(g17
g2
Ntp6107
Rp6108
(dp6109
g21
I0
sbsba(ics475_types
Instance
p6110
(dp6111
g11
(ics475_types
FeatureVector
p6112
(dp6113
g14
(dp6114
I1
F-2.083454
sI2
F1.230721
sI3
F-1.642425
sI4
F1.479011
sI7
F1.0
ssbsg16
g0
(g17
g2
Ntp6115
Rp6116
(dp6117
g21
I0
sbsba(ics475_types
Instance
p6118
(dp6119
g11
(ics475_types
FeatureVector
p6120
(dp6121
g14
(dp6122
I1
F1.239117
sI2
F-0.45314
sI3
F-0.534477
sI4
F-0.31478
sI10
F1.0
ssbsg16
g0
(g17
g2
Ntp6123
Rp6124
(dp6125
g21
I1
sbsba(ics475_types
Instance
p6126
(dp6127
g11
(ics475_types
FeatureVector
p6128
(dp6129
g14
(dp6130
I1
F-2.256885
sI2
F0.329795
sI3
F-0.128847
sI4
F-0.183524
sI5
F1.0
ssbsg16
g0
(g17
g2
Ntp6131
Rp6132
(dp6133
g21
I0
sbsba(ics475_types
Instance
p6134
(dp6135
g11
(ics475_types
FeatureVector
p6136
(dp6137
g14
(dp6138
I1
F0.466629
sI2
F-1.542598
sI3
F-0.259531
sI4
F0.256397
sI10
F1.0
ssbsg16
g0
(g17
g2
Ntp6139
Rp6140
(dp6141
g21
I1
sbsba(ics475_types
Instance
p6142
(dp6143
g11
(ics475_types
FeatureVector
p6144
(dp6145
g14
(dp6146
I1
F0.613209
sI2
F1.601249
sI3
F1.367347
sI4
F-0.062748
sI5
F1.0
ssbsg16
g0
(g17
g2
Ntp6147
Rp6148
(dp6149
g21
I0
sbsba(ics475_types
Instance
p6150
(dp6151
g11
(ics475_types
FeatureVector
p6152
(dp6153
g14
(dp6154
I1
F-0.429855
sI2
F2.277637
sI3
F0.641658
sI4
F-0.818384
sI10
F1.0
ssbsg16
g0
(g17
g2
Ntp6155
Rp6156
(dp6157
g21
I1
sbsba(ics475_types
Instance
p6158
(dp6159
g11
(ics475_types
FeatureVector
p6160
(dp6161
g14
(dp6162
I8
F1.0
sI1
F0.3427
sI2
F-1.023988
sI3
F-0.536048
sI4
F0.946983
ssbsg16
g0
(g17
g2
Ntp6163
Rp6164
(dp6165
g21
I1
sbsba(ics475_types
Instance
p6166
(dp6167
g11
(ics475_types
FeatureVector
p6168
(dp6169
g14
(dp6170
I1
F1.181261
sI2
F0.986751
sI3
F0.893636
sI4
F0.994735
sI10
F1.0
ssbsg16
g0
(g17
g2
Ntp6171
Rp6172
(dp6173
g21
I1
sbsba(ics475_types
Instance
p6174
(dp6175
g11
(ics475_types
FeatureVector
p6176
(dp6177
g14
(dp6178
I1
F-2.175028
sI2
F-0.403748
sI3
F0.064987
sI4
F-0.159168
sI6
F1.0
ssbsg16
g0
(g17
g2
Ntp6179
Rp6180
(dp6181
g21
I0
sbsba(ics475_types
Instance
p6182
(dp6183
g11
(ics475_types
FeatureVector
p6184
(dp6185
g14
(dp6186
I1
F1.766061
sI2
F0.697618
sI3
F0.134404
sI4
F-0.05186
sI5
F1.0
ssbsg16
g0
(g17
g2
Ntp6187
Rp6188
(dp6189
g21
I0
sbsba(ics475_types
Instance
p6190
(dp6191
g11
(ics475_types
FeatureVector
p6192
(dp6193
g14
(dp6194
I1
F-0.046077
sI2
F-0.141092
sI3
F0.407623
sI4
F-0.339957
sI9
F1.0
ssbsg16
g0
(g17
g2
Ntp6195
Rp6196
(dp6197
g21
I1
sbsba(ics475_types
Instance
p6198
(dp6199
g11
(ics475_types
FeatureVector
p6200
(dp6201
g14
(dp6202
I1
F-0.100256
sI2
F0.475293
sI3
F-0.250147
sI4
F-0.922954
sI7
F1.0
ssbsg16
g0
(g17
g2
Ntp6203
Rp6204
(dp6205
g21
I0
sbsba(ics475_types
Instance
p6206
(dp6207
g11
(ics475_types
FeatureVector
p6208
(dp6209
g14
(dp6210
I8
F1.0
sI1
F-0.753832
sI2
F-1.616705
sI3
F-0.002873
sI4
F-1.933064
ssbsg16
g0
(g17
g2
Ntp6211
Rp6212
(dp6213
g21
I1
sbsba(ics475_types
Instance
p6214
(dp6215
g11
(ics475_types
FeatureVector
p6216
(dp6217
g14
(dp6218
I1
F-0.431013
sI2
F-2.178723
sI3
F0.464752
sI4
F-0.275947
sI7
F1.0
ssbsg16
g0
(g17
g2
Ntp6219
Rp6220
(dp6221
g21
I0
sbsba(ics475_types
Instance
p6222
(dp6223
g11
(ics475_types
FeatureVector
p6224
(dp6225
g14
(dp6226
I1
F0.254975
sI2
F0.241865
sI3
F-0.367937
sI4
F0.232541
sI5
F1.0
ssbsg16
g0
(g17
g2
Ntp6227
Rp6228
(dp6229
g21
I0
sbsba(ics475_types
Instance
p6230
(dp6231
g11
(ics475_types
FeatureVector
p6232
(dp6233
g14
(dp6234
I1
F0.610946
sI2
F0.073072
sI3
F-0.304683
sI4
F0.250382
sI10
F1.0
ssbsg16
g0
(g17
g2
Ntp6235
Rp6236
(dp6237
g21
I1
sbsba(ics475_types
Instance
p6238
(dp6239
g11
(ics475_types
FeatureVector
p6240
(dp6241
g14
(dp6242
I1
F0.065183
sI2
F0.097714
sI3
F0.394964
sI4
F0.81641
sI6
F1.0
ssbsg16
g0
(g17
g2
Ntp6243
Rp6244
(dp6245
g21
I0
sbsba(ics475_types
Instance
p6246
(dp6247
g11
(ics475_types
FeatureVector
p6248
(dp6249
g14
(dp6250
I1
F-0.328358
sI2
F-0.334053
sI3
F-0.330698
sI4
F-1.791339
sI7
F1.0
ssbsg16
g0
(g17
g2
Ntp6251
Rp6252
(dp6253
g21
I0
sbsba(ics475_types
Instance
p6254
(dp6255
g11
(ics475_types
FeatureVector
p6256
(dp6257
g14
(dp6258
I1
F1.611355
sI2
F0.187276
sI3
F-1.319376
sI4
F0.364516
sI7
F1.0
ssbsg16
g0
(g17
g2
Ntp6259
Rp6260
(dp6261
g21
I0
sbsba(ics475_types
Instance
p6262
(dp6263
g11
(ics475_types
FeatureVector
p6264
(dp6265
g14
(dp6266
I1
F1.574169
sI2
F2.329639
sI3
F2.555158
sI4
F1.175836
sI10
F1.0
ssbsg16
g0
(g17
g2
Ntp6267
Rp6268
(dp6269
g21
I1
sbsba(ics475_types
Instance
p6270
(dp6271
g11
(ics475_types
FeatureVector
p6272
(dp6273
g14
(dp6274
I1
F-0.083986
sI2
F-2.193992
sI3
F0.133911
sI4
F0.069842
sI7
F1.0
ssbsg16
g0
(g17
g2
Ntp6275
Rp6276
(dp6277
g21
I0
sbsba(ics475_types
Instance
p6278
(dp6279
g11
(ics475_types
FeatureVector
p6280
(dp6281
g14
(dp6282
I1
F-0.161329
sI2
F-2.304034
sI3
F0.459888
sI4
F1.836508
sI7
F1.0
ssbsg16
g0
(g17
g2
Ntp6283
Rp6284
(dp6285
g21
I0
sbsba(ics475_types
Instance
p6286
(dp6287
g11
(ics475_types
FeatureVector
p6288
(dp6289
g14
(dp6290
I1
F1.139297
sI2
F1.217385
sI3
F0.475696
sI4
F0.74147
sI6
F1.0
ssbsg16
g0
(g17
g2
Ntp6291
Rp6292
(dp6293
g21
I0
sbsba(ics475_types
Instance
p6294
(dp6295
g11
(ics475_types
FeatureVector
p6296
(dp6297
g14
(dp6298
I1
F0.497307
sI2
F0.657993
sI3
F-0.485506
sI4
F-0.867558
sI5
F1.0
ssbsg16
g0
(g17
g2
Ntp6299
Rp6300
(dp6301
g21
I0
sbsba(ics475_types
Instance
p6302
(dp6303
g11
(ics475_types
FeatureVector
p6304
(dp6305
g14
(dp6306
I1
F-0.425666
sI2
F-1.937544
sI3
F0.995424
sI4
F-0.496809
sI6
F1.0
ssbsg16
g0
(g17
g2
Ntp6307
Rp6308
(dp6309
g21
I0
sbsba(ics475_types
Instance
p6310
(dp6311
g11
(ics475_types
FeatureVector
p6312
(dp6313
g14
(dp6314
I1
F-0.697309
sI2
F0.928066
sI3
F-0.177466
sI4
F0.122503
sI7
F1.0
ssbsg16
g0
(g17
g2
Ntp6315
Rp6316
(dp6317
g21
I0
sbsba(ics475_types
Instance
p6318
(dp6319
g11
(ics475_types
FeatureVector
p6320
(dp6321
g14
(dp6322
I1
F0.637491
sI2
F0.15653
sI3
F0.105183
sI4
F-0.662894
sI5
F1.0
ssbsg16
g0
(g17
g2
Ntp6323
Rp6324
(dp6325
g21
I0
sbsba(ics475_types
Instance
p6326
(dp6327
g11
(ics475_types
FeatureVector
p6328
(dp6329
g14
(dp6330
I1
F-0.989459
sI2
F-0.693691
sI3
F-1.717076
sI4
F-0.540829
sI7
F1.0
ssbsg16
g0
(g17
g2
Ntp6331
Rp6332
(dp6333
g21
I0
sbsba(ics475_types
Instance
p6334
(dp6335
g11
(ics475_types
FeatureVector
p6336
(dp6337
g14
(dp6338
I1
F0.811965
sI2
F0.661544
sI3
F-0.884619
sI4
F-0.344964
sI10
F1.0
ssbsg16
g0
(g17
g2
Ntp6339
Rp6340
(dp6341
g21
I1
sbsba(ics475_types
Instance
p6342
(dp6343
g11
(ics475_types
FeatureVector
p6344
(dp6345
g14
(dp6346
I8
F1.0
sI1
F1.548816
sI2
F-0.889586
sI3
F0.276599
sI4
F-0.152543
ssbsg16
g0
(g17
g2
Ntp6347
Rp6348
(dp6349
g21
I1
sbsba(ics475_types
Instance
p6350
(dp6351
g11
(ics475_types
FeatureVector
p6352
(dp6353
g14
(dp6354
I1
F-1.34597
sI2
F-1.10394
sI3
F-0.864405
sI4
F-2.314459
sI6
F1.0
ssbsg16
g0
(g17
g2
Ntp6355
Rp6356
(dp6357
g21
I0
sbsba(ics475_types
Instance
p6358
(dp6359
g11
(ics475_types
FeatureVector
p6360
(dp6361
g14
(dp6362
I1
F1.075156
sI2
F-1.481816
sI3
F0.098269
sI4
F-0.539469
sI9
F1.0
ssbsg16
g0
(g17
g2
Ntp6363
Rp6364
(dp6365
g21
I1
sbsba(ics475_types
Instance
p6366
(dp6367
g11
(ics475_types
FeatureVector
p6368
(dp6369
g14
(dp6370
I8
F1.0
sI1
F-1.347346
sI2
F0.342174
sI3
F-0.606256
sI4
F-0.62978
ssbsg16
g0
(g17
g2
Ntp6371
Rp6372
(dp6373
g21
I1
sbsba(ics475_types
Instance
p6374
(dp6375
g11
(ics475_types
FeatureVector
p6376
(dp6377
g14
(dp6378
I1
F0.387722
sI2
F0.130468
sI3
F-0.409891
sI4
F-0.699486
sI10
F1.0
ssbsg16
g0
(g17
g2
Ntp6379
Rp6380
(dp6381
g21
I1
sbsba(ics475_types
Instance
p6382
(dp6383
g11
(ics475_types
FeatureVector
p6384
(dp6385
g14
(dp6386
I8
F1.0
sI1
F-0.375103
sI2
F1.212577
sI3
F0.800895
sI4
F-0.659392
ssbsg16
g0
(g17
g2
Ntp6387
Rp6388
(dp6389
g21
I1
sbsba(ics475_types
Instance
p6390
(dp6391
g11
(ics475_types
FeatureVector
p6392
(dp6393
g14
(dp6394
I1
F0.766184
sI2
F1.429601
sI3
F1.172027
sI4
F0.412581
sI10
F1.0
ssbsg16
g0
(g17
g2
Ntp6395
Rp6396
(dp6397
g21
I1
sbsba(ics475_types
Instance
p6398
(dp6399
g11
(ics475_types
FeatureVector
p6400
(dp6401
g14
(dp6402
I1
F-0.661633
sI2
F1.22606
sI3
F0.717335
sI4
F0.95689
sI7
F1.0
ssbsg16
g0
(g17
g2
Ntp6403
Rp6404
(dp6405
g21
I0
sbsba(ics475_types
Instance
p6406
(dp6407
g11
(ics475_types
FeatureVector
p6408
(dp6409
g14
(dp6410
I1
F0.076439
sI2
F0.621176
sI3
F-0.086392
sI4
F-1.008135
sI6
F1.0
ssbsg16
g0
(g17
g2
Ntp6411
Rp6412
(dp6413
g21
I0
sbsba(ics475_types
Instance
p6414
(dp6415
g11
(ics475_types
FeatureVector
p6416
(dp6417
g14
(dp6418
I8
F1.0
sI1
F0.0546
sI2
F0.108504
sI3
F0.3714
sI4
F-1.405677
ssbsg16
g0
(g17
g2
Ntp6419
Rp6420
(dp6421
g21
I1
sbsba(ics475_types
Instance
p6422
(dp6423
g11
(ics475_types
FeatureVector
p6424
(dp6425
g14
(dp6426
I1
F-0.617867
sI2
F-0.108138
sI3
F0.308113
sI4
F0.54109
sI5
F1.0
ssbsg16
g0
(g17
g2
Ntp6427
Rp6428
(dp6429
g21
I0
sbsba(ics475_types
Instance
p6430
(dp6431
g11
(ics475_types
FeatureVector
p6432
(dp6433
g14
(dp6434
I1
F1.059447
sI2
F-0.86985
sI3
F-0.275664
sI4
F0.412463
sI6
F1.0
ssbsg16
g0
(g17
g2
Ntp6435
Rp6436
(dp6437
g21
I0
sbsba(ics475_types
Instance
p6438
(dp6439
g11
(ics475_types
FeatureVector
p6440
(dp6441
g14
(dp6442
I1
F-0.568108
sI2
F-0.654938
sI3
F-1.12927
sI4
F1.81144
sI10
F1.0
ssbsg16
g0
(g17
g2
Ntp6443
Rp6444
(dp6445
g21
I1
sbsba(ics475_types
Instance
p6446
(dp6447
g11
(ics475_types
FeatureVector
p6448
(dp6449
g14
(dp6450
I8
F1.0
sI1
F-0.556078
sI2
F-2.484112
sI3
F0.383932
sI4
F0.332718
ssbsg16
g0
(g17
g2
Ntp6451
Rp6452
(dp6453
g21
I1
sbsba(ics475_types
Instance
p6454
(dp6455
g11
(ics475_types
FeatureVector
p6456
(dp6457
g14
(dp6458
I1
F-0.375792
sI2
F-1.19241
sI3
F0.280158
sI4
F-0.47598
sI5
F1.0
ssbsg16
g0
(g17
g2
Ntp6459
Rp6460
(dp6461
g21
I0
sbsba(ics475_types
Instance
p6462
(dp6463
g11
(ics475_types
FeatureVector
p6464
(dp6465
g14
(dp6466
I1
F-0.467167
sI2
F-1.347671
sI3
F-0.9291
sI4
F-1.364097
sI5
F1.0
ssbsg16
g0
(g17
g2
Ntp6467
Rp6468
(dp6469
g21
I0
sbsba(ics475_types
Instance
p6470
(dp6471
g11
(ics475_types
FeatureVector
p6472
(dp6473
g14
(dp6474
I1
F-0.125684
sI2
F-0.52353
sI3
F1.823408
sI4
F0.04806
sI10
F1.0
ssbsg16
g0
(g17
g2
Ntp6475
Rp6476
(dp6477
g21
I1
sbsba(ics475_types
Instance
p6478
(dp6479
g11
(ics475_types
FeatureVector
p6480
(dp6481
g14
(dp6482
I1
F-0.442981
sI2
F-0.208912
sI3
F-0.093474
sI4
F-1.540724
sI6
F1.0
ssbsg16
g0
(g17
g2
Ntp6483
Rp6484
(dp6485
g21
I0
sbsba(ics475_types
Instance
p6486
(dp6487
g11
(ics475_types
FeatureVector
p6488
(dp6489
g14
(dp6490
I1
F2.118582
sI2
F0.202727
sI3
F-0.748074
sI4
F-0.612991
sI6
F1.0
ssbsg16
g0
(g17
g2
Ntp6491
Rp6492
(dp6493
g21
I0
sbsba(ics475_types
Instance
p6494
(dp6495
g11
(ics475_types
FeatureVector
p6496
(dp6497
g14
(dp6498
I8
F1.0
sI1
F-0.72049
sI2
F1.341851
sI3
F-0.390361
sI4
F-0.497945
ssbsg16
g0
(g17
g2
Ntp6499
Rp6500
(dp6501
g21
I1
sbsba(ics475_types
Instance
p6502
(dp6503
g11
(ics475_types
FeatureVector
p6504
(dp6505
g14
(dp6506
I1
F0.630684
sI2
F-0.346228
sI3
F0.24733
sI4
F-0.259411
sI7
F1.0
ssbsg16
g0
(g17
g2
Ntp6507
Rp6508
(dp6509
g21
I0
sbsba(ics475_types
Instance
p6510
(dp6511
g11
(ics475_types
FeatureVector
p6512
(dp6513
g14
(dp6514
I1
F0.330001
sI2
F0.825777
sI3
F0.881559
sI4
F0.815285
sI9
F1.0
ssbsg16
g0
(g17
g2
Ntp6515
Rp6516
(dp6517
g21
I1
sbsba(ics475_types
Instance
p6518
(dp6519
g11
(ics475_types
FeatureVector
p6520
(dp6521
g14
(dp6522
I1
F0.059849
sI2
F-0.619191
sI3
F1.553188
sI4
F-0.431303
sI9
F1.0
ssbsg16
g0
(g17
g2
Ntp6523
Rp6524
(dp6525
g21
I1
sbsba(ics475_types
Instance
p6526
(dp6527
g11
(ics475_types
FeatureVector
p6528
(dp6529
g14
(dp6530
I1
F-0.393773
sI2
F-0.690265
sI3
F-0.431657
sI4
F0.844611
sI7
F1.0
ssbsg16
g0
(g17
g2
Ntp6531
Rp6532
(dp6533
g21
I0
sbsba(ics475_types
Instance
p6534
(dp6535
g11
(ics475_types
FeatureVector
p6536
(dp6537
g14
(dp6538
I8
F1.0
sI1
F1.658433
sI2
F-0.643128
sI3
F-1.03372
sI4
F0.742148
ssbsg16
g0
(g17
g2
Ntp6539
Rp6540
(dp6541
g21
I1
sbsba(ics475_types
Instance
p6542
(dp6543
g11
(ics475_types
FeatureVector
p6544
(dp6545
g14
(dp6546
I1
F-1.448048
sI2
F1.311017
sI3
F-0.899631
sI4
F-0.27765
sI7
F1.0
ssbsg16
g0
(g17
g2
Ntp6547
Rp6548
(dp6549
g21
I0
sbsba(ics475_types
Instance
p6550
(dp6551
g11
(ics475_types
FeatureVector
p6552
(dp6553
g14
(dp6554
I1
F0.996006
sI2
F-0.461191
sI3
F-0.802711
sI4
F1.208675
sI10
F1.0
ssbsg16
g0
(g17
g2
Ntp6555
Rp6556
(dp6557
g21
I1
sbsba(ics475_types
Instance
p6558
(dp6559
g11
(ics475_types
FeatureVector
p6560
(dp6561
g14
(dp6562
I1
F0.411084
sI2
F-0.313493
sI3
F0.914127
sI4
F-0.007615
sI9
F1.0
ssbsg16
g0
(g17
g2
Ntp6563
Rp6564
(dp6565
g21
I1
sbsba(ics475_types
Instance
p6566
(dp6567
g11
(ics475_types
FeatureVector
p6568
(dp6569
g14
(dp6570
I1
F0.082398
sI2
F-1.967409
sI3
F1.527436
sI4
F1.217827
sI10
F1.0
ssbsg16
g0
(g17
g2
Ntp6571
Rp6572
(dp6573
g21
I1
sbsba(ics475_types
Instance
p6574
(dp6575
g11
(ics475_types
FeatureVector
p6576
(dp6577
g14
(dp6578
I1
F-1.556224
sI2
F0.295728
sI3
F-0.434183
sI4
F-0.944481
sI6
F1.0
ssbsg16
g0
(g17
g2
Ntp6579
Rp6580
(dp6581
g21
I0
sbsba(ics475_types
Instance
p6582
(dp6583
g11
(ics475_types
FeatureVector
p6584
(dp6585
g14
(dp6586
I1
F-1.768291
sI2
F-1.550356
sI3
F0.072602
sI4
F0.21199
sI5
F1.0
ssbsg16
g0
(g17
g2
Ntp6587
Rp6588
(dp6589
g21
I0
sbsba(ics475_types
Instance
p6590
(dp6591
g11
(ics475_types
FeatureVector
p6592
(dp6593
g14
(dp6594
I1
F1.266198
sI2
F0.287867
sI3
F1.523862
sI4
F0.95775
sI10
F1.0
ssbsg16
g0
(g17
g2
Ntp6595
Rp6596
(dp6597
g21
I1
sbsba(ics475_types
Instance
p6598
(dp6599
g11
(ics475_types
FeatureVector
p6600
(dp6601
g14
(dp6602
I1
F0.84105
sI2
F2.352996
sI3
F0.718128
sI4
F0.702634
sI10
F1.0
ssbsg16
g0
(g17
g2
Ntp6603
Rp6604
(dp6605
g21
I1
sbsba(ics475_types
Instance
p6606
(dp6607
g11
(ics475_types
FeatureVector
p6608
(dp6609
g14
(dp6610
I8
F1.0
sI1
F-1.199314
sI2
F-0.934363
sI3
F1.072686
sI4
F0.382667
ssbsg16
g0
(g17
g2
Ntp6611
Rp6612
(dp6613
g21
I1
sbsba(ics475_types
Instance
p6614
(dp6615
g11
(ics475_types
FeatureVector
p6616
(dp6617
g14
(dp6618
I1
F0.621142
sI2
F-0.038477
sI3
F-0.113645
sI4
F-0.550614
sI10
F1.0
ssbsg16
g0
(g17
g2
Ntp6619
Rp6620
(dp6621
g21
I1
sbsba(ics475_types
Instance
p6622
(dp6623
g11
(ics475_types
FeatureVector
p6624
(dp6625
g14
(dp6626
I1
F-0.865098
sI2
F-0.275283
sI3
F-0.100158
sI4
F-0.704304
sI10
F1.0
ssbsg16
g0
(g17
g2
Ntp6627
Rp6628
(dp6629
g21
I1
sbsba(ics475_types
Instance
p6630
(dp6631
g11
(ics475_types
FeatureVector
p6632
(dp6633
g14
(dp6634
I8
F1.0
sI1
F0.690617
sI2
F-1.064108
sI3
F-0.375411
sI4
F0.180669
ssbsg16
g0
(g17
g2
Ntp6635
Rp6636
(dp6637
g21
I1
sbsba(ics475_types
Instance
p6638
(dp6639
g11
(ics475_types
FeatureVector
p6640
(dp6641
g14
(dp6642
I8
F1.0
sI1
F0.439296
sI2
F-0.195975
sI3
F0.753041
sI4
F-1.297466
ssbsg16
g0
(g17
g2
Ntp6643
Rp6644
(dp6645
g21
I1
sbsba(ics475_types
Instance
p6646
(dp6647
g11
(ics475_types
FeatureVector
p6648
(dp6649
g14
(dp6650
I1
F-1.335831
sI2
F-0.584441
sI3
F0.323075
sI4
F-0.922061
sI6
F1.0
ssbsg16
g0
(g17
g2
Ntp6651
Rp6652
(dp6653
g21
I0
sbsba(ics475_types
Instance
p6654
(dp6655
g11
(ics475_types
FeatureVector
p6656
(dp6657
g14
(dp6658
I1
F0.301277
sI2
F-0.042162
sI3
F-0.242183
sI4
F0.015224
sI10
F1.0
ssbsg16
g0
(g17
g2
Ntp6659
Rp6660
(dp6661
g21
I1
sbsba(ics475_types
Instance
p6662
(dp6663
g11
(ics475_types
FeatureVector
p6664
(dp6665
g14
(dp6666
I1
F0.007405
sI2
F0.371204
sI3
F-0.747913
sI4
F-0.770347
sI10
F1.0
ssbsg16
g0
(g17
g2
Ntp6667
Rp6668
(dp6669
g21
I1
sbsba(ics475_types
Instance
p6670
(dp6671
g11
(ics475_types
FeatureVector
p6672
(dp6673
g14
(dp6674
I1
F1.023246
sI2
F1.126487
sI3
F1.576849
sI4
F-0.59391
sI10
F1.0
ssbsg16
g0
(g17
g2
Ntp6675
Rp6676
(dp6677
g21
I1
sbsba(ics475_types
Instance
p6678
(dp6679
g11
(ics475_types
FeatureVector
p6680
(dp6681
g14
(dp6682
I8
F1.0
sI1
F0.813926
sI2
F1.617536
sI3
F-0.798929
sI4
F1.625701
ssbsg16
g0
(g17
g2
Ntp6683
Rp6684
(dp6685
g21
I1
sbsba(ics475_types
Instance
p6686
(dp6687
g11
(ics475_types
FeatureVector
p6688
(dp6689
g14
(dp6690
I1
F-0.664137
sI2
F0.138093
sI3
F-0.487603
sI4
F0.657531
sI9
F1.0
ssbsg16
g0
(g17
g2
Ntp6691
Rp6692
(dp6693
g21
I1
sbsba(ics475_types
Instance
p6694
(dp6695
g11
(ics475_types
FeatureVector
p6696
(dp6697
g14
(dp6698
I1
F0.611709
sI2
F-2.716133
sI3
F-0.077148
sI4
F-1.841818
sI10
F1.0
ssbsg16
g0
(g17
g2
Ntp6699
Rp6700
(dp6701
g21
I1
sbsba(ics475_types
Instance
p6702
(dp6703
g11
(ics475_types
FeatureVector
p6704
(dp6705
g14
(dp6706
I8
F1.0
sI1
F0.585776
sI2
F-0.840032
sI3
F-1.911036
sI4
F-0.966166
ssbsg16
g0
(g17
g2
Ntp6707
Rp6708
(dp6709
g21
I1
sbsba(ics475_types
Instance
p6710
(dp6711
g11
(ics475_types
FeatureVector
p6712
(dp6713
g14
(dp6714
I1
F-0.721022
sI2
F-1.400102
sI3
F-0.127489
sI4
F2.226691
sI9
F1.0
ssbsg16
g0
(g17
g2
Ntp6715
Rp6716
(dp6717
g21
I1
sbsba(ics475_types
Instance
p6718
(dp6719
g11
(ics475_types
FeatureVector
p6720
(dp6721
g14
(dp6722
I1
F1.610898
sI2
F-0.160807
sI3
F0.061358
sI4
F0.685719
sI7
F1.0
ssbsg16
g0
(g17
g2
Ntp6723
Rp6724
(dp6725
g21
I0
sbsba(ics475_types
Instance
p6726
(dp6727
g11
(ics475_types
FeatureVector
p6728
(dp6729
g14
(dp6730
I1
F0.588451
sI2
F-1.622086
sI3
F-1.597522
sI4
F-0.524117
sI7
F1.0
ssbsg16
g0
(g17
g2
Ntp6731
Rp6732
(dp6733
g21
I0
sbsba(ics475_types
Instance
p6734
(dp6735
g11
(ics475_types
FeatureVector
p6736
(dp6737
g14
(dp6738
I1
F-0.064277
sI2
F1.340607
sI3
F-0.345486
sI4
F-2.021005
sI10
F1.0
ssbsg16
g0
(g17
g2
Ntp6739
Rp6740
(dp6741
g21
I1
sbsba(ics475_types
Instance
p6742
(dp6743
g11
(ics475_types
FeatureVector
p6744
(dp6745
g14
(dp6746
I1
F0.192665
sI2
F1.426815
sI3
F0.887531
sI4
F1.424862
sI5
F1.0
ssbsg16
g0
(g17
g2
Ntp6747
Rp6748
(dp6749
g21
I0
sbsba(ics475_types
Instance
p6750
(dp6751
g11
(ics475_types
FeatureVector
p6752
(dp6753
g14
(dp6754
I1
F0.894539
sI2
F-1.579278
sI3
F-0.104796
sI4
F-0.386658
sI9
F1.0
ssbsg16
g0
(g17
g2
Ntp6755
Rp6756
(dp6757
g21
I1
sbsba(ics475_types
Instance
p6758
(dp6759
g11
(ics475_types
FeatureVector
p6760
(dp6761
g14
(dp6762
I1
F-0.717824
sI2
F-0.142992
sI3
F-2.403966
sI4
F1.691373
sI9
F1.0
ssbsg16
g0
(g17
g2
Ntp6763
Rp6764
(dp6765
g21
I1
sbsba(ics475_types
Instance
p6766
(dp6767
g11
(ics475_types
FeatureVector
p6768
(dp6769
g14
(dp6770
I1
F0.500435
sI2
F0.04215
sI3
F0.14244
sI4
F-0.759045
sI6
F1.0
ssbsg16
g0
(g17
g2
Ntp6771
Rp6772
(dp6773
g21
I0
sbsba(ics475_types
Instance
p6774
(dp6775
g11
(ics475_types
FeatureVector
p6776
(dp6777
g14
(dp6778
I1
F-0.848302
sI2
F1.918745
sI3
F-0.223409
sI4
F0.589152
sI5
F1.0
ssbsg16
g0
(g17
g2
Ntp6779
Rp6780
(dp6781
g21
I0
sbsba(ics475_types
Instance
p6782
(dp6783
g11
(ics475_types
FeatureVector
p6784
(dp6785
g14
(dp6786
I1
F-1.73617
sI2
F0.884465
sI3
F-1.450562
sI4
F0.320806
sI5
F1.0
ssbsg16
g0
(g17
g2
Ntp6787
Rp6788
(dp6789
g21
I0
sbsba(ics475_types
Instance
p6790
(dp6791
g11
(ics475_types
FeatureVector
p6792
(dp6793
g14
(dp6794
I1
F0.289045
sI2
F-1.744819
sI3
F0.043756
sI4
F-0.123885
sI9
F1.0
ssbsg16
g0
(g17
g2
Ntp6795
Rp6796
(dp6797
g21
I1
sbsba(ics475_types
Instance
p6798
(dp6799
g11
(ics475_types
FeatureVector
p6800
(dp6801
g14
(dp6802
I1
F-0.248744
sI2
F-1.074601
sI3
F0.977908
sI4
F-0.698032
sI6
F1.0
ssbsg16
g0
(g17
g2
Ntp6803
Rp6804
(dp6805
g21
I0
sbsba(ics475_types
Instance
p6806
(dp6807
g11
(ics475_types
FeatureVector
p6808
(dp6809
g14
(dp6810
I1
F-0.605279
sI2
F-1.948834
sI3
F-0.936294
sI4
F0.002047
sI7
F1.0
ssbsg16
g0
(g17
g2
Ntp6811
Rp6812
(dp6813
g21
I0
sbsba(ics475_types
Instance
p6814
(dp6815
g11
(ics475_types
FeatureVector
p6816
(dp6817
g14
(dp6818
I1
F-0.618737
sI2
F0.897711
sI3
F-1.461795
sI4
F-0.270193
sI5
F1.0
ssbsg16
g0
(g17
g2
Ntp6819
Rp6820
(dp6821
g21
I0
sbsba(ics475_types
Instance
p6822
(dp6823
g11
(ics475_types
FeatureVector
p6824
(dp6825
g14
(dp6826
I8
F1.0
sI1
F-0.432927
sI2
F0.508843
sI3
F-1.564025
sI4
F0.890961
ssbsg16
g0
(g17
g2
Ntp6827
Rp6828
(dp6829
g21
I1
sbsba(ics475_types
Instance
p6830
(dp6831
g11
(ics475_types
FeatureVector
p6832
(dp6833
g14
(dp6834
I1
F0.263463
sI2
F-0.206259
sI3
F0.341145
sI4
F0.77265
sI7
F1.0
ssbsg16
g0
(g17
g2
Ntp6835
Rp6836
(dp6837
g21
I0
sbsba(ics475_types
Instance
p6838
(dp6839
g11
(ics475_types
FeatureVector
p6840
(dp6841
g14
(dp6842
I1
F-0.337216
sI2
F-1.486374
sI3
F0.020715
sI4
F0.649023
sI6
F1.0
ssbsg16
g0
(g17
g2
Ntp6843
Rp6844
(dp6845
g21
I0
sbsba(ics475_types
Instance
p6846
(dp6847
g11
(ics475_types
FeatureVector
p6848
(dp6849
g14
(dp6850
I1
F0.254901
sI2
F-0.845497
sI3
F-0.400484
sI4
F-0.287754
sI10
F1.0
ssbsg16
g0
(g17
g2
Ntp6851
Rp6852
(dp6853
g21
I1
sbsba(ics475_types
Instance
p6854
(dp6855
g11
(ics475_types
FeatureVector
p6856
(dp6857
g14
(dp6858
I1
F-0.311208
sI2
F1.213711
sI3
F0.645398
sI4
F-0.164967
sI9
F1.0
ssbsg16
g0
(g17
g2
Ntp6859
Rp6860
(dp6861
g21
I1
sbsba(ics475_types
Instance
p6862
(dp6863
g11
(ics475_types
FeatureVector
p6864
(dp6865
g14
(dp6866
I8
F1.0
sI1
F1.454844
sI2
F-0.395072
sI3
F0.288405
sI4
F0.307511
ssbsg16
g0
(g17
g2
Ntp6867
Rp6868
(dp6869
g21
I1
sbsba(ics475_types
Instance
p6870
(dp6871
g11
(ics475_types
FeatureVector
p6872
(dp6873
g14
(dp6874
I1
F0.859829
sI2
F-2.579484
sI3
F-0.215555
sI4
F0.887669
sI7
F1.0
ssbsg16
g0
(g17
g2
Ntp6875
Rp6876
(dp6877
g21
I0
sbsba(ics475_types
Instance
p6878
(dp6879
g11
(ics475_types
FeatureVector
p6880
(dp6881
g14
(dp6882
I1
F-0.312466
sI2
F0.794523
sI3
F-0.45394
sI4
F0.8065
sI9
F1.0
ssbsg16
g0
(g17
g2
Ntp6883
Rp6884
(dp6885
g21
I1
sbsba(ics475_types
Instance
p6886
(dp6887
g11
(ics475_types
FeatureVector
p6888
(dp6889
g14
(dp6890
I1
F-1.68569
sI2
F1.39188
sI3
F-1.519395
sI4
F0.273106
sI7
F1.0
ssbsg16
g0
(g17
g2
Ntp6891
Rp6892
(dp6893
g21
I0
sbsba(ics475_types
Instance
p6894
(dp6895
g11
(ics475_types
FeatureVector
p6896
(dp6897
g14
(dp6898
I1
F1.137942
sI2
F-0.46026
sI3
F-0.249836
sI4
F1.620677
sI5
F1.0
ssbsg16
g0
(g17
g2
Ntp6899
Rp6900
(dp6901
g21
I0
sbsba(ics475_types
Instance
p6902
(dp6903
g11
(ics475_types
FeatureVector
p6904
(dp6905
g14
(dp6906
I1
F1.637832
sI2
F-0.003318
sI3
F1.070079
sI4
F-0.762862
sI7
F1.0
ssbsg16
g0
(g17
g2
Ntp6907
Rp6908
(dp6909
g21
I0
sbsba(ics475_types
Instance
p6910
(dp6911
g11
(ics475_types
FeatureVector
p6912
(dp6913
g14
(dp6914
I8
F1.0
sI1
F1.008446
sI2
F-1.07466
sI3
F-1.333657
sI4
F0.170358
ssbsg16
g0
(g17
g2
Ntp6915
Rp6916
(dp6917
g21
I1
sbsba(ics475_types
Instance
p6918
(dp6919
g11
(ics475_types
FeatureVector
p6920
(dp6921
g14
(dp6922
I1
F0.427719
sI2
F-1.158907
sI3
F-1.697013
sI4
F0.646371
sI5
F1.0
ssbsg16
g0
(g17
g2
Ntp6923
Rp6924
(dp6925
g21
I0
sbsba(ics475_types
Instance
p6926
(dp6927
g11
(ics475_types
FeatureVector
p6928
(dp6929
g14
(dp6930
I1
F-0.039423
sI2
F0.842336
sI3
F-0.691384
sI4
F-2.107616
sI6
F1.0
ssbsg16
g0
(g17
g2
Ntp6931
Rp6932
(dp6933
g21
I0
sbsba(ics475_types
Instance
p6934
(dp6935
g11
(ics475_types
FeatureVector
p6936
(dp6937
g14
(dp6938
I1
F-0.875328
sI2
F0.951693
sI3
F0.116581
sI4
F-0.539477
sI5
F1.0
ssbsg16
g0
(g17
g2
Ntp6939
Rp6940
(dp6941
g21
I0
sbsba(ics475_types
Instance
p6942
(dp6943
g11
(ics475_types
FeatureVector
p6944
(dp6945
g14
(dp6946
I1
F1.115019
sI2
F-0.704178
sI3
F-0.605872
sI4
F0.378726
sI6
F1.0
ssbsg16
g0
(g17
g2
Ntp6947
Rp6948
(dp6949
g21
I0
sbsba(ics475_types
Instance
p6950
(dp6951
g11
(ics475_types
FeatureVector
p6952
(dp6953
g14
(dp6954
I1
F0.018754
sI2
F0.31028
sI3
F-1.187808
sI4
F-1.661081
sI9
F1.0
ssbsg16
g0
(g17
g2
Ntp6955
Rp6956
(dp6957
g21
I1
sbsba(ics475_types
Instance
p6958
(dp6959
g11
(ics475_types
FeatureVector
p6960
(dp6961
g14
(dp6962
I1
F1.004843
sI2
F-0.410731
sI3
F-0.749455
sI4
F-0.039778
sI5
F1.0
ssbsg16
g0
(g17
g2
Ntp6963
Rp6964
(dp6965
g21
I0
sbsba(ics475_types
Instance
p6966
(dp6967
g11
(ics475_types
FeatureVector
p6968
(dp6969
g14
(dp6970
I8
F1.0
sI1
F-0.608764
sI2
F-1.3306
sI3
F-0.869013
sI4
F2.040152
ssbsg16
g0
(g17
g2
Ntp6971
Rp6972
(dp6973
g21
I1
sbsba(ics475_types
Instance
p6974
(dp6975
g11
(ics475_types
FeatureVector
p6976
(dp6977
g14
(dp6978
I1
F0.180116
sI2
F0.588889
sI3
F-0.079646
sI4
F-1.136689
sI7
F1.0
ssbsg16
g0
(g17
g2
Ntp6979
Rp6980
(dp6981
g21
I0
sbsba(ics475_types
Instance
p6982
(dp6983
g11
(ics475_types
FeatureVector
p6984
(dp6985
g14
(dp6986
I1
F-0.349587
sI2
F-1.410589
sI3
F0.244615
sI4
F0.197585
sI10
F1.0
ssbsg16
g0
(g17
g2
Ntp6987
Rp6988
(dp6989
g21
I1
sbsba(ics475_types
Instance
p6990
(dp6991
g11
(ics475_types
FeatureVector
p6992
(dp6993
g14
(dp6994
I8
F1.0
sI1
F0.871957
sI2
F0.111202
sI3
F2.024019
sI4
F-1.538448
ssbsg16
g0
(g17
g2
Ntp6995
Rp6996
(dp6997
g21
I1
sbsba(ics475_types
Instance
p6998
(dp6999
g11
(ics475_types
FeatureVector
p7000
(dp7001
g14
(dp7002
I1
F-0.021196
sI2
F-0.217394
sI3
F-1.917692
sI4
F-0.797905
sI10
F1.0
ssbsg16
g0
(g17
g2
Ntp7003
Rp7004
(dp7005
g21
I1
sbsba(ics475_types
Instance
p7006
(dp7007
g11
(ics475_types
FeatureVector
p7008
(dp7009
g14
(dp7010
I1
F0.762067
sI2
F0.02761
sI3
F1.544592
sI4
F-0.651187
sI5
F1.0
ssbsg16
g0
(g17
g2
Ntp7011
Rp7012
(dp7013
g21
I0
sbsba(ics475_types
Instance
p7014
(dp7015
g11
(ics475_types
FeatureVector
p7016
(dp7017
g14
(dp7018
I1
F-1.220006
sI2
F-0.031058
sI3
F1.61208
sI4
F0.62494
sI6
F1.0
ssbsg16
g0
(g17
g2
Ntp7019
Rp7020
(dp7021
g21
I0
sbsba(ics475_types
Instance
p7022
(dp7023
g11
(ics475_types
FeatureVector
p7024
(dp7025
g14
(dp7026
I8
F1.0
sI1
F-0.935183
sI2
F-1.404527
sI3
F-0.411079
sI4
F-1.352981
ssbsg16
g0
(g17
g2
Ntp7027
Rp7028
(dp7029
g21
I1
sbsba(ics475_types
Instance
p7030
(dp7031
g11
(ics475_types
FeatureVector
p7032
(dp7033
g14
(dp7034
I1
F0.644905
sI2
F0.283367
sI3
F-0.360947
sI4
F0.018331
sI6
F1.0
ssbsg16
g0
(g17
g2
Ntp7035
Rp7036
(dp7037
g21
I0
sbsba(ics475_types
Instance
p7038
(dp7039
g11
(ics475_types
FeatureVector
p7040
(dp7041
g14
(dp7042
I1
F0.998904
sI2
F-0.014027
sI3
F1.005596
sI4
F-0.800695
sI6
F1.0
ssbsg16
g0
(g17
g2
Ntp7043
Rp7044
(dp7045
g21
I0
sbsba(ics475_types
Instance
p7046
(dp7047
g11
(ics475_types
FeatureVector
p7048
(dp7049
g14
(dp7050
I8
F1.0
sI1
F0.377223
sI2
F1.289677
sI3
F-1.665667
sI4
F1.587663
ssbsg16
g0
(g17
g2
Ntp7051
Rp7052
(dp7053
g21
I1
sbsba(ics475_types
Instance
p7054
(dp7055
g11
(ics475_types
FeatureVector
p7056
(dp7057
g14
(dp7058
I1
F0.565651
sI2
F-0.672777
sI3
F1.018056
sI4
F-0.099146
sI9
F1.0
ssbsg16
g0
(g17
g2
Ntp7059
Rp7060
(dp7061
g21
I1
sbsba(ics475_types
Instance
p7062
(dp7063
g11
(ics475_types
FeatureVector
p7064
(dp7065
g14
(dp7066
I1
F-0.696434
sI2
F-0.123978
sI3
F1.077315
sI4
F0.184023
sI7
F1.0
ssbsg16
g0
(g17
g2
Ntp7067
Rp7068
(dp7069
g21
I0
sbsba(ics475_types
Instance
p7070
(dp7071
g11
(ics475_types
FeatureVector
p7072
(dp7073
g14
(dp7074
I1
F1.574221
sI2
F-0.002074
sI3
F-0.069594
sI4
F-1.062408
sI6
F1.0
ssbsg16
g0
(g17
g2
Ntp7075
Rp7076
(dp7077
g21
I0
sbsba(ics475_types
Instance
p7078
(dp7079
g11
(ics475_types
FeatureVector
p7080
(dp7081
g14
(dp7082
I1
F1.675077
sI2
F0.496042
sI3
F-0.450688
sI4
F-2.20559
sI10
F1.0
ssbsg16
g0
(g17
g2
Ntp7083
Rp7084
(dp7085
g21
I1
sbsba(ics475_types
Instance
p7086
(dp7087
g11
(ics475_types
FeatureVector
p7088
(dp7089
g14
(dp7090
I8
F1.0
sI1
F-0.885476
sI2
F-0.033291
sI3
F0.35623
sI4
F0.783397
ssbsg16
g0
(g17
g2
Ntp7091
Rp7092
(dp7093
g21
I1
sbsba(ics475_types
Instance
p7094
(dp7095
g11
(ics475_types
FeatureVector
p7096
(dp7097
g14
(dp7098
I1
F-0.197522
sI2
F-0.208085
sI3
F0.242044
sI4
F-0.584448
sI6
F1.0
ssbsg16
g0
(g17
g2
Ntp7099
Rp7100
(dp7101
g21
I0
sbsba(ics475_types
Instance
p7102
(dp7103
g11
(ics475_types
FeatureVector
p7104
(dp7105
g14
(dp7106
I1
F-0.681126
sI2
F0.953684
sI3
F1.179957
sI4
F0.068309
sI10
F1.0
ssbsg16
g0
(g17
g2
Ntp7107
Rp7108
(dp7109
g21
I1
sbsba(ics475_types
Instance
p7110
(dp7111
g11
(ics475_types
FeatureVector
p7112
(dp7113
g14
(dp7114
I1
F-0.781493
sI2
F0.041714
sI3
F1.859784
sI4
F-0.052643
sI10
F1.0
ssbsg16
g0
(g17
g2
Ntp7115
Rp7116
(dp7117
g21
I1
sbsba(ics475_types
Instance
p7118
(dp7119
g11
(ics475_types
FeatureVector
p7120
(dp7121
g14
(dp7122
I1
F0.398588
sI2
F-0.605888
sI3
F-0.180537
sI4
F-2.095867
sI5
F1.0
ssbsg16
g0
(g17
g2
Ntp7123
Rp7124
(dp7125
g21
I0
sbsba(ics475_types
Instance
p7126
(dp7127
g11
(ics475_types
FeatureVector
p7128
(dp7129
g14
(dp7130
I1
F1.098455
sI2
F1.941205
sI3
F-0.306633
sI4
F1.417736
sI10
F1.0
ssbsg16
g0
(g17
g2
Ntp7131
Rp7132
(dp7133
g21
I1
sbsba(ics475_types
Instance
p7134
(dp7135
g11
(ics475_types
FeatureVector
p7136
(dp7137
g14
(dp7138
I8
F1.0
sI1
F-1.405488
sI2
F-0.311167
sI3
F-0.497462
sI4
F-0.621657
ssbsg16
g0
(g17
g2
Ntp7139
Rp7140
(dp7141
g21
I1
sbsba(ics475_types
Instance
p7142
(dp7143
g11
(ics475_types
FeatureVector
p7144
(dp7145
g14
(dp7146
I8
F1.0
sI1
F0.234391
sI2
F0.336163
sI3
F-0.842309
sI4
F-1.183525
ssbsg16
g0
(g17
g2
Ntp7147
Rp7148
(dp7149
g21
I1
sbsba(ics475_types
Instance
p7150
(dp7151
g11
(ics475_types
FeatureVector
p7152
(dp7153
g14
(dp7154
I1
F-0.349941
sI2
F-1.889044
sI3
F0.471399
sI4
F-0.23574
sI6
F1.0
ssbsg16
g0
(g17
g2
Ntp7155
Rp7156
(dp7157
g21
I0
sbsba(ics475_types
Instance
p7158
(dp7159
g11
(ics475_types
FeatureVector
p7160
(dp7161
g14
(dp7162
I1
F0.424303
sI2
F0.646603
sI3
F2.0158
sI4
F0.487925
sI5
F1.0
ssbsg16
g0
(g17
g2
Ntp7163
Rp7164
(dp7165
g21
I0
sbsba(ics475_types
Instance
p7166
(dp7167
g11
(ics475_types
FeatureVector
p7168
(dp7169
g14
(dp7170
I1
F0.812564
sI2
F-0.918273
sI3
F0.36061
sI4
F1.129917
sI10
F1.0
ssbsg16
g0
(g17
g2
Ntp7171
Rp7172
(dp7173
g21
I1
sbsba(ics475_types
Instance
p7174
(dp7175
g11
(ics475_types
FeatureVector
p7176
(dp7177
g14
(dp7178
I1
F0.090495
sI2
F1.562944
sI3
F0.753801
sI4
F0.51175
sI6
F1.0
ssbsg16
g0
(g17
g2
Ntp7179
Rp7180
(dp7181
g21
I0
sbsba(ics475_types
Instance
p7182
(dp7183
g11
(ics475_types
FeatureVector
p7184
(dp7185
g14
(dp7186
I1
F-0.157625
sI2
F-0.95421
sI3
F0.68495
sI4
F-1.269349
sI10
F1.0
ssbsg16
g0
(g17
g2
Ntp7187
Rp7188
(dp7189
g21
I1
sbsba(ics475_types
Instance
p7190
(dp7191
g11
(ics475_types
FeatureVector
p7192
(dp7193
g14
(dp7194
I1
F-0.50208
sI2
F1.389379
sI3
F0.316174
sI4
F-1.409503
sI7
F1.0
ssbsg16
g0
(g17
g2
Ntp7195
Rp7196
(dp7197
g21
I0
sbsba(ics475_types
Instance
p7198
(dp7199
g11
(ics475_types
FeatureVector
p7200
(dp7201
g14
(dp7202
I1
F0.351844
sI2
F-0.030856
sI3
F1.339655
sI4
F0.389923
sI10
F1.0
ssbsg16
g0
(g17
g2
Ntp7203
Rp7204
(dp7205
g21
I1
sbsba(ics475_types
Instance
p7206
(dp7207
g11
(ics475_types
FeatureVector
p7208
(dp7209
g14
(dp7210
I1
F-0.223017
sI2
F-0.716249
sI3
F1.033376
sI4
F-0.5736
sI6
F1.0
ssbsg16
g0
(g17
g2
Ntp7211
Rp7212
(dp7213
g21
I0
sbsbasS'is_weighted'
p7214
I00
sS'all_features'
p7215
(lp7216
I8
aI1
aI2
aI3
aI4
aI9
aI10
aI5
aI7
aI6
asb.