ccopy_reg
_reconstructor
p0
(cpredictor_subclasses
LambdaMeans
p1
c__builtin__
object
p2
Ntp3
Rp4
(dp5
S'r_vector'
p6
(dp7
I0
I0
sI1
I0
sI2
I0
sI3
I0
sI4
I0
sI5
I1
sI6
I0
sI7
I0
sI8
I0
sI9
I0
sI10
I0
sI11
I0
sI12
I0
sI13
I0
sI14
I0
sI15
I0
sI16
I0
sI17
I0
sI18
I0
sI19
I0
sI20
I0
sI21
I0
sI22
I0
sI23
I0
sI24
I0
sI25
I0
sI26
I0
sI27
I0
sI28
I0
sI29
I0
sI30
I0
sI31
I0
sI32
I0
sI33
I0
sI34
I0
sI35
I0
sI36
I1
sI37
I0
sI38
I0
sI39
I1
sI40
I1
sI41
I0
sI42
I0
sI43
I0
sI44
I0
sI45
I0
sI46
I0
sI47
I0
sI48
I0
sI49
I0
sI50
I0
sI51
I0
sI52
I0
sI53
I0
sI54
I0
sI55
I0
sI56
I0
sI57
I0
sI58
I0
sI59
I2
sI60
I0
sI61
I0
sI62
I0
sI63
I0
sI64
I0
sI65
I5
sI66
I5
sI67
I0
sI68
I0
sI69
I0
sI70
I0
sI71
I0
sI72
I0
sI73
I0
sI74
I0
sI75
I1
sI76
I0
sI77
I0
sI78
I0
sI79
I0
sI80
I0
sI81
I0
sI82
I0
sI83
I0
sI84
I0
sI85
I1
sI86
I0
sI87
I0
sI88
I0
sI89
I0
sI90
I0
sI91
I0
sI92
I0
sI93
I3
sI94
I0
sI95
I0
sI96
I0
sI97
I0
sI98
I0
sI99
I0
sI100
I0
sI101
I0
sI102
I0
sI103
I0
sI104
I0
sI105
I0
sI106
I0
sI107
I0
sI108
I0
sI109
I0
sI110
I2
sI111
I0
sI112
I0
sI113
I0
sI114
I0
sI115
I0
sI116
I0
sI117
I0
sI118
I0
sI119
I0
sI120
I0
sI121
I0
sI122
I0
sI123
I0
sI124
I0
sI125
I0
sI126
I0
sI127
I1
sI128
I0
sI129
I0
sI130
I0
sI131
I0
sI132
I1
sI133
I0
sI134
I0
sI135
I0
sI136
I1
sI137
I3
sI138
I0
sI139
I0
sI140
I0
sI141
I0
sI142
I0
sI143
I0
sI144
I1
sI145
I0
sI146
I0
sI147
I0
sI148
I0
sI149
I0
sI150
I0
sI151
I0
sI152
I0
sI153
I0
sI154
I0
sI155
I0
sI156
I0
sI157
I0
sI158
I0
sI159
I0
sI160
I0
sI161
I0
sI162
I0
sI163
I0
sI164
I0
sI165
I0
sI166
I1
sI167
I0
sI168
I0
sI169
I0
sI170
I0
sI171
I0
sI172
I0
sI173
I0
sI174
I0
sI175
I0
sI176
I1
sI177
I0
sI178
I0
sI179
I0
sI180
I0
sI181
I0
sI182
I0
sI183
I0
sI184
I0
sI185
I0
sI186
I0
sI187
I0
sI188
I0
sI189
I0
sI190
I0
sI191
I0
sI192
I1
sI193
I1
sI194
I0
sI195
I0
sI196
I0
sI197
I0
sI198
I0
sI199
I2
sI200
I0
sI201
I0
sI202
I1
sI203
I0
sI204
I0
sI205
I5
sI206
I0
sI207
I0
sI208
I0
sI209
I0
sI210
I0
sI211
I0
sI212
I0
sI213
I0
sI214
I0
sI215
I2
sI216
I0
sI217
I0
sI218
I0
sI219
I0
sI220
I0
sI221
I1
sI222
I0
sI223
I2
sI224
I0
sI225
I0
sI226
I0
sI227
I0
sI228
I0
sI229
I0
sI230
I1
sI231
I0
sI232
I0
sI233
I0
sI234
I0
sI235
I0
sI236
I0
sI237
I0
sI238
I2
sI239
I0
sI240
I0
sI241
I0
sI242
I0
sI243
I2
sI244
I0
sI245
I0
sI246
I0
sI247
I0
sI248
I0
sI249
I0
sI250
I0
sI251
I0
sI252
I1
sI253
I0
sI254
I0
sI255
I0
sI256
I0
sI257
I0
sI258
I0
sI259
I0
sI260
I0
sI261
I0
sI262
I0
sI263
I0
sI264
I0
sI265
I0
sI266
I0
sI267
I0
sI268
I0
sI269
I0
sI270
I0
sI271
I0
sI272
I0
sI273
I0
sI274
I0
sI275
I0
sI276
I0
sI277
I0
sI278
I0
sI279
I0
sI280
I0
sI281
I0
sI282
I0
sI283
I0
sI284
I0
sI285
I0
sI286
I0
sI287
I1
sI288
I0
sI289
I0
sI290
I0
sI291
I0
sI292
I1
sI293
I0
sI294
I0
sI295
I0
sI296
I0
sI297
I1
sI298
I4
sI299
I0
sI300
I1
sI301
I0
sI302
I0
sI303
I0
sI304
I0
sI305
I0
sI306
I0
sI307
I0
sI308
I0
sI309
I0
sI310
I0
sI311
I0
sI312
I0
sI313
I0
sI314
I0
sI315
I0
sI316
I0
sI317
I0
sI318
I0
sI319
I0
sI320
I0
sI321
I0
sI322
I0
sI323
I1
sI324
I0
sI325
I0
sI326
I0
sI327
I0
sI328
I0
sI329
I0
sI330
I0
sI331
I0
sI332
I0
sI333
I1
sI334
I0
sI335
I0
sI336
I0
sI337
I0
sI338
I0
sI339
I0
sI340
I0
sI341
I0
sI342
I0
sI343
I0
sI344
I2
sI345
I1
sI346
I0
sI347
I0
sI348
I0
sI349
I0
sI350
I0
sI351
I0
sI352
I0
sI353
I1
sI354
I1
sI355
I0
sI356
I0
sI357
I0
sI358
I0
sI359
I0
sI360
I1
sI361
I0
sI362
I0
sI363
I0
sI364
I0
sI365
I0
sI366
I0
sI367
I0
sI368
I0
sI369
I0
sI370
I0
sI371
I0
sI372
I0
sI373
I0
sI374
I0
sI375
I0
sI376
I1
sI377
I0
sI378
I0
sI379
I0
sI380
I2
sI381
I0
sI382
I0
sI383
I0
sI384
I0
sI385
I0
sI386
I0
sI387
I0
sI388
I0
sI389
I0
sI390
I0
sI391
I0
sI392
I0
sI393
I0
sI394
I0
sI395
I0
sI396
I0
sI397
I0
sI398
I0
sI399
I0
sI400
I0
sI401
I0
sI402
I0
sI403
I0
sI404
I0
sI405
I0
sI406
I0
sI407
I0
sI408
I0
sI409
I0
sI410
I1
sI411
I0
sI412
I0
sI413
I1
sI414
I0
sI415
I0
sI416
I0
sI417
I0
sI418
I0
sI419
I0
sI420
I0
sI421
I0
sI422
I0
sI423
I0
sI424
I0
sI425
I0
sI426
I0
sI427
I0
sI428
I0
sI429
I0
sI430
I0
sI431
I1
sI432
I0
sI433
I1
sI434
I0
sI435
I0
sI436
I0
sI437
I0
sI438
I0
sI439
I0
sI440
I0
sI441
I0
sI442
I1
sI443
I0
sI444
I0
sI445
I0
sI446
I0
sI447
I0
sI448
I0
sI449
I0
sI450
I0
sI451
I0
sI452
I0
sI453
I1
sI454
I0
sI455
I1
sI456
I0
sI457
I1
sI458
I0
sI459
I0
sI460
I0
sI461
I0
sI462
I0
sI463
I1
sI464
I0
sI465
I0
sI466
I0
sI467
I0
sI468
I0
sI469
I0
sI470
I0
sI471
I0
sI472
I1
sI473
I0
sI474
I0
sI475
I0
sI476
I0
sI477
I1
sI478
I0
sI479
I0
sI480
I0
sI481
I0
sI482
I0
sI483
I0
sI484
I0
sI485
I0
sI486
I0
sI487
I1
sI488
I1
sI489
I0
sI490
I0
sI491
I0
sI492
I0
sI493
I0
sI494
I1
sI495
I0
sI496
I0
sI497
I0
sI498
I0
sI499
I0
sI500
I0
sI501
I0
sI502
I0
sI503
I0
sI504
I0
sI505
I0
sI506
I0
sI507
I0
sI508
I0
sI509
I0
sI510
I0
sI511
I0
sI512
I0
sI513
I0
sI514
I0
sI515
I0
sI516
I0
sI517
I0
sI518
I0
sI519
I0
sI520
I0
sI521
I0
sI522
I0
sI523
I0
sI524
I0
sI525
I0
sI526
I0
sI527
I0
sI528
I2
sI529
I1
sI530
I0
sI531
I0
sI532
I0
sI533
I0
sI534
I0
sI535
I0
sI536
I0
sI537
I0
sI538
I0
sI539
I0
sI540
I0
sI541
I0
sI542
I0
sI543
I0
sI544
I0
sI545
I0
sI546
I1
sI547
I0
sI548
I0
sI549
I0
ssS'mu_vector'
p8
(dp9
I0
(dp10
I1
F0.3087934560327206
sI2
F31.386912065439663
sI3
F4.61213701431492
sI4
F0.7668711656441668
sI5
F0.7668711656441668
sI6
F0.2024539877300618
sI7
F0.6053169734151318
sI8
F2.1896728016359908
sI9
F0.48670756646216906
sI10
F0.4049079754601238
sI11
F2.0879345603271977
sI12
F0.47239263803681114
sI13
F0.9100204498977421
sI14
F181.62167689161552
sI15
F174.63394683026598
sI16
F0.691206543967277
sI17
F0.23108384458077763
sI18
F0.23108384458077763
sI19
F0.06952965235173826
sI20
F0.5950920245398764
sI21
F0.5276073619631909
sI22
F0.08793456032719844
sI23
F0.07770961145194279
sI24
F0.08793456032719844
sI25
F0.08997955010224958
sI26
F0.002044989775051125
sI27
F0.19222903885480613
sI28
F0.016359918200409
sI29
F0.012269938650306749
sI30
F0.11247443762781202
sI31
F0.10020449897750523
sI32
F0.07361963190184052
sI33
F0.5132924335378334
sI34
F0.03680981595092025
sI35
F0.05521472392638037
sI36
F0.053169734151329244
sI37
F0.09611451942740297
sI38
F0.00408997955010225
sI39
F0.05521472392638037
sI40
F0.0081799591002045
sI41
F0.03067484662576687
sI42
F0.012269938650306749
sI43
F0.006134969325153375
sI44
F0.002044989775051125
sI45
F0.002044989775051125
sI46
F0.002044989775051125
ssI1
(dp11
I1
F0.26666666666666666
sI2
F34.342888888888886
sI3
F5.556888888888888
sI4
F0.8666666666666669
sI5
F0.8666666666666669
sI6
F0.24444444444444446
sI7
F0.5777777777777776
sI8
F2.4695555555555555
sI9
F0.22222222222222224
sI10
F0.6888888888888889
sI11
F5.622222222222221
sI12
F0.46666666666666645
sI13
F1.0000000000000004
sI14
F162.26666666666665
sI15
F3414.9111111111106
sI16
F0.7333333333333334
sI17
F0.13333333333333333
sI18
F0.13333333333333333
sI19
F0.08888888888888889
sI20
F0.31111111111111106
sI21
F0.5333333333333331
sI22
F0.0
sI23
F0.022222222222222223
sI24
F0.022222222222222223
sI25
F0.06666666666666667
sI26
F0.0
sI27
F0.26666666666666666
sI28
F0.0
sI29
F0.0
sI30
F0.11111111111111112
sI31
F0.13333333333333333
sI32
F0.11111111111111112
sI33
F0.7777777777777779
sI34
F0.0
sI35
F0.11111111111111112
sI36
F0.044444444444444446
sI37
F0.0
sI38
F0.0
sI39
F0.13333333333333333
sI40
F0.0
sI41
F0.044444444444444446
sI42
F0.022222222222222223
sI43
F0.0
sI44
F0.0
sI45
F0.0
sI46
F0.0
ssI2
(dp12
I1
F0.4
sI2
F40.159
sI3
F8.1205
sI4
F0.8999999999999999
sI5
F0.8999999999999999
sI6
F0.1
sI7
F0.5
sI8
F5.262
sI9
F0.0
sI10
F0.7999999999999999
sI11
F5.4
sI12
F0.2
sI13
F0.9999999999999999
sI14
F111.3
sI15
F8748.4
sI16
F0.6
sI17
F0.1
sI18
F0.1
sI19
F0.1
sI20
F0.2
sI21
F0.7999999999999999
sI22
F0.0
sI23
F0.1
sI24
F0.1
sI25
F0.1
sI26
F0.0
sI27
F0.30000000000000004
sI28
F0.0
sI29
F0.0
sI30
F0.2
sI31
F0.0
sI32
F0.1
sI33
F0.9999999999999999
sI34
F0.0
sI35
F0.0
sI36
F0.2
sI37
F0.1
sI38
F0.0
sI39
F0.1
sI40
F0.0
sI41
F0.0
sI42
F0.0
sI43
F0.0
sI44
F0.0
sI45
F0.0
sI46
F0.0
ssI3
(dp13
I1
F0.5
sI2
F40.795
sI3
F4.77
sI4
F1.0
sI5
F1.0
sI6
F0.0
sI7
F0.5
sI8
F4.02
sI9
F0.0
sI10
F1.0
sI11
F3.5
sI12
F0.5
sI13
F1.0
sI14
F447.5
sI15
F50550.0
sI16
F0.5
sI17
F0.0
sI18
F0.0
sI19
F0.0
sI20
F0.0
sI21
F0.5
sI22
F0.0
sI23
F0.0
sI24
F0.0
sI25
F0.0
sI26
F0.0
sI27
F0.0
sI28
F0.0
sI29
F0.0
sI30
F0.0
sI31
F0.0
sI32
F0.5
sI33
F1.0
sI34
F0.0
sI35
F0.0
sI36
F0.5
sI37
F0.0
sI38
F0.0
sI39
F0.0
sI40
F0.0
sI41
F0.5
sI42
F0.0
sI43
F0.0
sI44
F0.0
sI45
F0.0
sI46
F0.0
ssI4
(dp14
I1
F0.0
sI2
F17.5
sI3
F22.0
sI4
F0.0
sI5
F0.0
sI6
F0.0
sI7
F0.0
sI8
F0.0
sI9
F1.0
sI10
F0.0
sI11
F0.0
sI12
F1.0
sI13
F0.0
sI14
F450.0
sI15
F100000.0
sI16
F1.0
sI17
F0.0
sI18
F0.0
sI19
F0.0
sI20
F1.0
sI21
F0.0
sI22
F0.0
sI23
F1.0
sI24
F0.0
sI25
F0.0
sI26
F1.0
sI27
F0.0
sI28
F0.0
sI29
F0.0
sI30
F0.0
sI31
F0.0
sI32
F0.0
sI33
F0.0
sI34
F0.0
sI35
F0.0
sI36
F0.0
sI37
F0.0
sI38
F0.0
sI39
F0.0
sI40
F0.0
sI41
F0.0
sI42
F0.0
sI43
F0.0
sI44
F1.0
sI45
F1.0
sI46
F1.0
ssI5
(dp15
I1
F0.3333333333333333
sI2
F28.916666666666664
sI3
F6.138333333333334
sI4
F0.3333333333333333
sI5
F0.3333333333333333
sI6
F0.3333333333333333
sI7
F0.3333333333333333
sI8
F0.7633333333333334
sI9
F0.0
sI10
F0.6666666666666666
sI11
F1.3333333333333333
sI12
F0.3333333333333333
sI13
F1.0
sI14
F146.66666666666669
sI15
F15449.0
sI16
F0.6666666666666666
sI17
F0.6666666666666666
sI18
F0.6666666666666666
sI19
F0.0
sI20
F0.3333333333333333
sI21
F0.6666666666666666
sI22
F0.0
sI23
F0.0
sI24
F0.0
sI25
F0.0
sI26
F0.0
sI27
F0.3333333333333333
sI28
F0.0
sI29
F0.0
sI30
F0.0
sI31
F0.0
sI32
F0.0
sI33
F1.0
sI34
F0.0
sI35
F0.3333333333333333
sI36
F0.0
sI37
F0.0
sI38
F0.0
sI39
F0.0
sI40
F0.0
sI41
F0.3333333333333333
sI42
F0.3333333333333333
sI43
F0.0
sI44
F0.0
sI45
F0.0
sI46
F0.0
sssS'K'
p16
I6
sS'N'
p17
I550
sS'instances'
p18
(lp19
(ics475_types
Instance
p20
(dp21
S'_feature_vector'
p22
(ics475_types
FeatureVector
p23
(dp24
S'feature_vector'
p25
(dp26
I1
F1.0
sI2
F22.25
sI3
F1.25
sI8
F3.25
sI9
F1.0
sI13
F1.0
sI14
F280.0
sI17
F1.0
sI18
F1.0
sI20
F1.0
sI21
F1.0
sI23
F1.0
sI24
F1.0
ssbsS'_label'
p27
g0
(ccs475_types
ClassificationLabel
p28
g2
Ntp29
Rp30
(dp31
S'label'
p32
I0
sbsba(ics475_types
Instance
p33
(dp34
g22
(ics475_types
FeatureVector
p35
(dp36
g25
(dp37
I33
F1.0
sI2
F16.25
sI3
F0.835
sI4
F1.0
sI5
F1.0
sI7
F1.0
sI8
F0.085
sI14
F200.0
sI16
F1.0
sI35
F1.0
sI20
F1.0
sI21
F1.0
sI22
F1.0
ssbsg27
g0
(g28
g2
Ntp38
Rp39
(dp40
g32
I0
sbsba(ics475_types
Instance
p41
(dp42
g22
(ics475_types
FeatureVector
p43
(dp44
g25
(dp45
I1
F1.0
sI2
F55.75
sI3
F7.08
sI4
F1.0
sI5
F1.0
sI33
F1.0
sI8
F6.75
sI10
F1.0
sI11
F3.0
sI12
F1.0
sI13
F1.0
sI14
F100.0
sI15
F50.0
sI19
F1.0
sI27
F1.0
ssbsg27
g0
(g28
g2
Ntp46
Rp47
(dp48
g32
I0
sbsba(ics475_types
Instance
p49
(dp50
g22
(ics475_types
FeatureVector
p51
(dp52
g25
(dp53
I2
F44.83
sI3
F7.0
sI6
F1.0
sI7
F1.0
sI8
F1.625
sI9
F1.0
sI13
F1.0
sI14
F160.0
sI15
F2.0
sI16
F1.0
sI17
F1.0
sI18
F1.0
sI20
F1.0
sI21
F1.0
ssbsg27
g0
(g28
g2
Ntp54
Rp55
(dp56
g32
I0
sbsba(ics475_types
Instance
p57
(dp58
g22
(ics475_types
FeatureVector
p59
(dp60
g25
(dp61
I1
F1.0
sI2
F24.08
sI3
F0.5
sI4
F1.0
sI5
F1.0
sI33
F1.0
sI8
F1.25
sI10
F1.0
sI11
F1.0
sI13
F1.0
sI15
F678.0
sI21
F1.0
sI27
F1.0
sI30
F1.0
ssbsg27
g0
(g28
g2
Ntp62
Rp63
(dp64
g32
I1
sbsba(ics475_types
Instance
p65
(dp66
g22
(ics475_types
FeatureVector
p67
(dp68
g25
(dp69
I33
F1.0
sI2
F40.58
sI3
F5.0
sI4
F1.0
sI5
F1.0
sI6
F1.0
sI7
F1.0
sI8
F5.0
sI10
F1.0
sI11
F7.0
sI13
F1.0
sI15
F3065.0
sI16
F1.0
sI21
F1.0
ssbsg27
g0
(g28
g2
Ntp70
Rp71
(dp72
g32
I1
sbsba(ics475_types
Instance
p73
(dp74
g22
(ics475_types
FeatureVector
p75
(dp76
g25
(dp77
I33
F1.0
sI2
F25.0
sI3
F12.5
sI4
F1.0
sI5
F1.0
sI7
F1.0
sI8
F3.0
sI12
F1.0
sI14
F20.0
sI16
F1.0
sI20
F1.0
sI22
F1.0
sI37
F1.0
ssbsg27
g0
(g28
g2
Ntp78
Rp79
(dp80
g32
I1
sbsba(ics475_types
Instance
p81
(dp82
g22
(ics475_types
FeatureVector
p83
(dp84
g25
(dp85
I2
F29.83
sI3
F1.25
sI7
F1.0
sI8
F0.25
sI9
F1.0
sI13
F1.0
sI14
F224.0
sI16
F1.0
sI17
F1.0
sI18
F1.0
sI19
F1.0
sI20
F1.0
sI21
F1.0
ssbsg27
g0
(g28
g2
Ntp86
Rp87
(dp88
g32
I0
sbsba(ics475_types
Instance
p89
(dp90
g22
(ics475_types
FeatureVector
p91
(dp92
g25
(dp93
I2
F23.58
sI3
F1.79
sI4
F1.0
sI5
F1.0
sI6
F1.0
sI7
F1.0
sI8
F0.54
sI9
F1.0
sI12
F1.0
sI13
F1.0
sI14
F136.0
sI15
F1.0
sI16
F1.0
sI20
F1.0
ssbsg27
g0
(g28
g2
Ntp94
Rp95
(dp96
g32
I0
sbsba(ics475_types
Instance
p97
(dp98
g22
(ics475_types
FeatureVector
p99
(dp100
g25
(dp101
I33
F1.0
sI2
F27.58
sI3
F2.04
sI37
F1.0
sI7
F1.0
sI8
F2.0
sI10
F1.0
sI11
F3.0
sI12
F1.0
sI13
F1.0
sI14
F370.0
sI15
F560.0
sI16
F1.0
sI17
F1.0
sI18
F1.0
ssbsg27
g0
(g28
g2
Ntp102
Rp103
(dp104
g32
I1
sbsba(ics475_types
Instance
p105
(dp106
g22
(ics475_types
FeatureVector
p107
(dp108
g25
(dp109
I33
F1.0
sI2
F18.42
sI3
F10.415
sI37
F1.0
sI7
F1.0
sI8
F0.125
sI13
F1.0
sI14
F120.0
sI15
F375.0
sI16
F1.0
sI17
F1.0
sI18
F1.0
sI20
F1.0
sI21
F1.0
ssbsg27
g0
(g28
g2
Ntp110
Rp111
(dp112
g32
I0
sbsba(ics475_types
Instance
p113
(dp114
g22
(ics475_types
FeatureVector
p115
(dp116
g25
(dp117
I33
F1.0
sI2
F32.08
sI3
F4.0
sI4
F1.0
sI5
F1.0
sI7
F1.0
sI8
F2.5
sI12
F1.0
sI13
F1.0
sI14
F360.0
sI16
F1.0
sI35
F1.0
sI20
F1.0
ssbsg27
g0
(g28
g2
Ntp118
Rp119
(dp120
g32
I1
sbsba(ics475_types
Instance
p121
(dp122
g22
(ics475_types
FeatureVector
p123
(dp124
g25
(dp125
I33
F1.0
sI2
F44.25
sI3
F11.0
sI7
F1.0
sI8
F1.5
sI34
F1.0
sI16
F1.0
sI17
F1.0
sI18
F1.0
sI20
F1.0
sI21
F1.0
sI22
F1.0
ssbsg27
g0
(g28
g2
Ntp126
Rp127
(dp128
g32
I0
sbsba(ics475_types
Instance
p129
(dp130
g22
(ics475_types
FeatureVector
p131
(dp132
g25
(dp133
I2
F24.5
sI3
F13.335
sI37
F1.0
sI7
F1.0
sI8
F0.04
sI9
F1.0
sI12
F1.0
sI13
F1.0
sI14
F120.0
sI15
F475.0
sI16
F1.0
sI17
F1.0
sI18
F1.0
sI20
F1.0
ssbsg27
g0
(g28
g2
Ntp134
Rp135
(dp136
g32
I0
sbsba(ics475_types
Instance
p137
(dp138
g22
(ics475_types
FeatureVector
p139
(dp140
g25
(dp141
I33
F1.0
sI2
F42.0
sI3
F9.79
sI4
F1.0
sI5
F1.0
sI39
F1.0
sI8
F7.96
sI10
F1.0
sI11
F8.0
sI13
F1.0
sI16
F1.0
sI21
F1.0
sI27
F1.0
ssbsg27
g0
(g28
g2
Ntp142
Rp143
(dp144
g32
I1
sbsba(ics475_types
Instance
p145
(dp146
g22
(ics475_types
FeatureVector
p147
(dp148
g25
(dp149
I32
F1.0
sI33
F1.0
sI2
F36.25
sI3
F5.0
sI4
F1.0
sI5
F1.0
sI6
F1.0
sI8
F2.5
sI10
F1.0
sI11
F6.0
sI13
F1.0
sI15
F367.0
sI16
F1.0
sI21
F1.0
ssbsg27
g0
(g28
g2
Ntp150
Rp151
(dp152
g32
I1
sbsba(ics475_types
Instance
p153
(dp154
g22
(ics475_types
FeatureVector
p155
(dp156
g25
(dp157
I33
F1.0
sI2
F23.17
sI4
F1.0
sI5
F1.0
sI7
F1.0
sI8
F0.085
sI13
F1.0
sI16
F1.0
sI20
F1.0
sI21
F1.0
sI36
F1.0
ssbsg27
g0
(g28
g2
Ntp158
Rp159
(dp160
g32
I1
sbsba(ics475_types
Instance
p161
(dp162
g22
(ics475_types
FeatureVector
p163
(dp164
g25
(dp165
I2
F34.17
sI3
F5.25
sI4
F1.0
sI5
F1.0
sI7
F1.0
sI8
F0.085
sI9
F1.0
sI12
F1.0
sI13
F1.0
sI14
F290.0
sI15
F6.0
sI16
F1.0
sI20
F1.0
sI31
F1.0
ssbsg27
g0
(g28
g2
Ntp166
Rp167
(dp168
g32
I1
sbsba(ics475_types
Instance
p169
(dp170
g22
(ics475_types
FeatureVector
p171
(dp172
g25
(dp173
I33
F1.0
sI2
F26.67
sI3
F2.71
sI36
F1.0
sI7
F1.0
sI8
F5.25
sI10
F1.0
sI11
F1.0
sI13
F1.0
sI14
F211.0
sI16
F1.0
sI17
F1.0
sI18
F1.0
sI21
F1.0
ssbsg27
g0
(g28
g2
Ntp174
Rp175
(dp176
g32
I1
sbsba(ics475_types
Instance
p177
(dp178
g22
(ics475_types
FeatureVector
p179
(dp180
g25
(dp181
I2
F25.42
sI3
F0.54
sI4
F1.0
sI5
F1.0
sI7
F1.0
sI8
F0.165
sI9
F1.0
sI10
F1.0
sI11
F1.0
sI13
F1.0
sI14
F272.0
sI15
F444.0
sI16
F1.0
sI21
F1.0
sI31
F1.0
ssbsg27
g0
(g28
g2
Ntp182
Rp183
(dp184
g32
I0
sbsba(ics475_types
Instance
p185
(dp186
g22
(ics475_types
FeatureVector
p187
(dp188
g25
(dp189
I1
F1.0
sI2
F19.58
sI3
F0.665
sI6
F1.0
sI7
F1.0
sI8
F1.0
sI9
F1.0
sI10
F1.0
sI11
F1.0
sI13
F1.0
sI14
F2000.0
sI15
F2.0
sI17
F1.0
sI18
F1.0
sI21
F1.0
ssbsg27
g0
(g28
g2
Ntp190
Rp191
(dp192
g32
I0
sbsba(ics475_types
Instance
p193
(dp194
g22
(ics475_types
FeatureVector
p195
(dp196
g25
(dp197
I33
F1.0
sI2
F39.0
sI3
F5.0
sI4
F1.0
sI5
F1.0
sI7
F1.0
sI8
F3.5
sI10
F1.0
sI11
F10.0
sI12
F1.0
sI13
F1.0
sI16
F1.0
sI36
F1.0
ssbsg27
g0
(g28
g2
Ntp198
Rp199
(dp200
g32
I1
sbsba(ics475_types
Instance
p201
(dp202
g22
(ics475_types
FeatureVector
p203
(dp204
g25
(dp205
I1
F1.0
sI2
F30.67
sI3
F12.0
sI4
F1.0
sI5
F1.0
sI6
F1.0
sI7
F1.0
sI8
F2.0
sI10
F1.0
sI11
F1.0
sI13
F1.0
sI14
F220.0
sI15
F19.0
sI21
F1.0
sI33
F1.0
ssbsg27
g0
(g28
g2
Ntp206
Rp207
(dp208
g32
I1
sbsba(ics475_types
Instance
p209
(dp210
g22
(ics475_types
FeatureVector
p211
(dp212
g25
(dp213
I1
F1.0
sI2
F19.17
sI3
F5.415
sI4
F1.0
sI5
F1.0
sI8
F0.29
sI9
F1.0
sI13
F1.0
sI14
F80.0
sI15
F484.0
sI20
F1.0
sI21
F1.0
sI25
F1.0
sI27
F1.0
ssbsg27
g0
(g28
g2
Ntp214
Rp215
(dp216
g32
I0
sbsba(ics475_types
Instance
p217
(dp218
g22
(ics475_types
FeatureVector
p219
(dp220
g25
(dp221
I1
F1.0
sI2
F49.83
sI3
F13.585
sI4
F1.0
sI5
F1.0
sI33
F1.0
sI8
F8.5
sI12
F1.0
sI13
F1.0
sI19
F1.0
sI20
F1.0
sI27
F1.0
ssbsg27
g0
(g28
g2
Ntp222
Rp223
(dp224
g32
I1
sbsba(ics475_types
Instance
p225
(dp226
g22
(ics475_types
FeatureVector
p227
(dp228
g25
(dp229
I1
F1.0
sI2
F18.83
sI3
F9.5
sI4
F1.0
sI5
F1.0
sI7
F1.0
sI8
F1.625
sI10
F1.0
sI11
F6.0
sI12
F1.0
sI13
F1.0
sI14
F40.0
sI15
F600.0
sI33
F1.0
sI31
F1.0
ssbsg27
g0
(g28
g2
Ntp230
Rp231
(dp232
g32
I1
sbsba(ics475_types
Instance
p233
(dp234
g22
(ics475_types
FeatureVector
p235
(dp236
g25
(dp237
I2
F38.42
sI3
F0.705
sI4
F1.0
sI5
F1.0
sI6
F1.0
sI7
F1.0
sI8
F0.375
sI9
F1.0
sI10
F1.0
sI11
F2.0
sI13
F1.0
sI14
F225.0
sI15
F500.0
sI16
F1.0
sI21
F1.0
ssbsg27
g0
(g28
g2
Ntp238
Rp239
(dp240
g32
I0
sbsba(ics475_types
Instance
p241
(dp242
g22
(ics475_types
FeatureVector
p243
(dp244
g25
(dp245
I33
F1.0
sI2
F31.92
sI3
F4.46
sI4
F1.0
sI5
F1.0
sI8
F6.04
sI10
F1.0
sI11
F3.0
sI13
F1.0
sI14
F311.0
sI15
F300.0
sI16
F1.0
sI21
F1.0
sI36
F1.0
sI27
F1.0
ssbsg27
g0
(g28
g2
Ntp246
Rp247
(dp248
g32
I1
sbsba(ics475_types
Instance
p249
(dp250
g22
(ics475_types
FeatureVector
p251
(dp252
g25
(dp253
I1
F1.0
sI2
F22.5
sI3
F8.46
sI7
F1.0
sI8
F2.46
sI9
F1.0
sI39
F1.0
sI13
F1.0
sI14
F164.0
sI17
F1.0
sI18
F1.0
sI20
F1.0
sI21
F1.0
ssbsg27
g0
(g28
g2
Ntp254
Rp255
(dp256
g32
I1
sbsba(ics475_types
Instance
p257
(dp258
g22
(ics475_types
FeatureVector
p259
(dp260
g25
(dp261
I1
F1.0
sI2
F17.58
sI3
F9.0
sI4
F1.0
sI5
F1.0
sI7
F1.0
sI8
F1.375
sI12
F1.0
sI13
F1.0
sI20
F1.0
sI33
F1.0
sI37
F1.0
ssbsg27
g0
(g28
g2
Ntp262
Rp263
(dp264
g32
I1
sbsba(ics475_types
Instance
p265
(dp266
g22
(ics475_types
FeatureVector
p267
(dp268
g25
(dp269
I33
F1.0
sI2
F57.83
sI3
F7.04
sI4
F1.0
sI5
F1.0
sI7
F1.0
sI8
F14.0
sI10
F1.0
sI11
F6.0
sI12
F1.0
sI13
F1.0
sI14
F360.0
sI15
F1332.0
sI16
F1.0
sI35
F1.0
ssbsg27
g0
(g28
g2
Ntp270
Rp271
(dp272
g32
I1
sbsba(ics475_types
Instance
p273
(dp274
g22
(ics475_types
FeatureVector
p275
(dp276
g25
(dp277
I1
F1.0
sI2
F25.17
sI3
F2.875
sI4
F1.0
sI5
F1.0
sI33
F1.0
sI8
F0.875
sI39
F1.0
sI13
F1.0
sI14
F360.0
sI20
F1.0
sI21
F1.0
sI27
F1.0
ssbsg27
g0
(g28
g2
Ntp278
Rp279
(dp280
g32
I1
sbsba(ics475_types
Instance
p281
(dp282
g22
(ics475_types
FeatureVector
p283
(dp284
g25
(dp285
I2
F36.08
sI3
F2.54
sI4
F1.0
sI5
F1.0
sI9
F1.0
sI13
F1.0
sI15
F1000.0
sI16
F1.0
sI20
F1.0
sI21
F1.0
sI23
F1.0
sI24
F1.0
ssbsg27
g0
(g28
g2
Ntp286
Rp287
(dp288
g32
I0
sbsba(ics475_types
Instance
p289
(dp290
g22
(ics475_types
FeatureVector
p291
(dp292
g25
(dp293
I2
F26.25
sI3
F1.54
sI4
F1.0
sI5
F1.0
sI7
F1.0
sI8
F0.125
sI9
F1.0
sI13
F1.0
sI14
F100.0
sI16
F1.0
sI20
F1.0
sI21
F1.0
sI31
F1.0
ssbsg27
g0
(g28
g2
Ntp294
Rp295
(dp296
g32
I0
sbsba(ics475_types
Instance
p297
(dp298
g22
(ics475_types
FeatureVector
p299
(dp300
g25
(dp301
I1
F1.0
sI2
F20.83
sI3
F3.0
sI4
F1.0
sI5
F1.0
sI7
F1.0
sI8
F0.04
sI13
F1.0
sI14
F100.0
sI20
F1.0
sI21
F1.0
sI33
F1.0
sI37
F1.0
ssbsg27
g0
(g28
g2
Ntp302
Rp303
(dp304
g32
I1
sbsba(ics475_types
Instance
p305
(dp306
g22
(ics475_types
FeatureVector
p307
(dp308
g25
(dp309
I33
F1.0
sI2
F48.5
sI3
F4.25
sI4
F1.0
sI5
F1.0
sI7
F1.0
sI8
F0.125
sI12
F1.0
sI13
F1.0
sI14
F225.0
sI16
F1.0
sI35
F1.0
sI20
F1.0
ssbsg27
g0
(g28
g2
Ntp310
Rp311
(dp312
g32
I1
sbsba(ics475_types
Instance
p313
(dp314
g22
(ics475_types
FeatureVector
p315
(dp316
g25
(dp317
I1
F1.0
sI2
F32.17
sI3
F1.46
sI4
F1.0
sI5
F1.0
sI7
F1.0
sI8
F1.085
sI10
F1.0
sI11
F16.0
sI13
F1.0
sI14
F120.0
sI15
F2079.0
sI21
F1.0
sI33
F1.0
sI31
F1.0
ssbsg27
g0
(g28
g2
Ntp318
Rp319
(dp320
g32
I1
sbsba(ics475_types
Instance
p321
(dp322
g22
(ics475_types
FeatureVector
p323
(dp324
g25
(dp325
I1
F1.0
sI2
F25.08
sI3
F2.54
sI33
F1.0
sI7
F1.0
sI8
F0.25
sI12
F1.0
sI13
F1.0
sI14
F370.0
sI17
F1.0
sI18
F1.0
sI20
F1.0
sI37
F1.0
ssbsg27
g0
(g28
g2
Ntp326
Rp327
(dp328
g32
I1
sbsba(ics475_types
Instance
p329
(dp330
g22
(ics475_types
FeatureVector
p331
(dp332
g25
(dp333
I33
F1.0
sI2
F33.5
sI3
F1.75
sI4
F1.0
sI5
F1.0
sI39
F1.0
sI8
F4.5
sI10
F1.0
sI11
F4.0
sI12
F1.0
sI13
F1.0
sI14
F253.0
sI15
F857.0
sI16
F1.0
sI27
F1.0
ssbsg27
g0
(g28
g2
Ntp334
Rp335
(dp336
g32
I1
sbsba(ics475_types
Instance
p337
(dp338
g22
(ics475_types
FeatureVector
p339
(dp340
g25
(dp341
I33
F1.0
sI2
F19.17
sI3
F9.5
sI4
F1.0
sI5
F1.0
sI7
F1.0
sI8
F1.5
sI13
F1.0
sI14
F120.0
sI15
F2206.0
sI16
F1.0
sI20
F1.0
sI21
F1.0
sI31
F1.0
ssbsg27
g0
(g28
g2
Ntp342
Rp343
(dp344
g32
I1
sbsba(ics475_types
Instance
p345
(dp346
g22
(ics475_types
FeatureVector
p347
(dp348
g25
(dp349
I33
F1.0
sI2
F26.67
sI3
F1.75
sI6
F1.0
sI7
F1.0
sI8
F1.0
sI10
F1.0
sI11
F5.0
sI12
F1.0
sI13
F1.0
sI14
F160.0
sI15
F5777.0
sI16
F1.0
sI17
F1.0
sI18
F1.0
ssbsg27
g0
(g28
g2
Ntp350
Rp351
(dp352
g32
I1
sbsba(ics475_types
Instance
p353
(dp354
g22
(ics475_types
FeatureVector
p355
(dp356
g25
(dp357
I33
F1.0
sI2
F23.0
sI3
F0.75
sI4
F1.0
sI5
F1.0
sI7
F1.0
sI8
F0.5
sI12
F1.0
sI14
F320.0
sI16
F1.0
sI35
F1.0
sI20
F1.0
sI22
F1.0
ssbsg27
g0
(g28
g2
Ntp358
Rp359
(dp360
g32
I0
sbsba(ics475_types
Instance
p361
(dp362
g22
(ics475_types
FeatureVector
p363
(dp364
g25
(dp365
I33
F1.0
sI2
F57.42
sI3
F8.5
sI4
F1.0
sI5
F1.0
sI8
F7.0
sI41
F1.0
sI10
F1.0
sI11
F3.0
sI13
F1.0
sI16
F1.0
sI21
F1.0
sI27
F1.0
ssbsg27
g0
(g28
g2
Ntp366
Rp367
(dp368
g32
I1
sbsba(ics475_types
Instance
p369
(dp370
g22
(ics475_types
FeatureVector
p371
(dp372
g25
(dp373
I33
F1.0
sI2
F20.67
sI3
F5.29
sI4
F1.0
sI5
F1.0
sI7
F1.0
sI8
F0.375
sI10
F1.0
sI11
F1.0
sI13
F1.0
sI14
F160.0
sI16
F1.0
sI21
F1.0
sI30
F1.0
ssbsg27
g0
(g28
g2
Ntp374
Rp375
(dp376
g32
I0
sbsba(ics475_types
Instance
p377
(dp378
g22
(ics475_types
FeatureVector
p379
(dp380
g25
(dp381
I33
F1.0
sI2
F21.83
sI3
F11.0
sI4
F1.0
sI5
F1.0
sI7
F1.0
sI8
F0.29
sI10
F1.0
sI11
F6.0
sI13
F1.0
sI14
F121.0
sI16
F1.0
sI21
F1.0
sI39
F1.0
ssbsg27
g0
(g28
g2
Ntp382
Rp383
(dp384
g32
I1
sbsba(ics475_types
Instance
p385
(dp386
g22
(ics475_types
FeatureVector
p387
(dp388
g25
(dp389
I2
F15.17
sI3
F7.0
sI4
F1.0
sI5
F1.0
sI7
F1.0
sI8
F1.0
sI9
F1.0
sI13
F1.0
sI14
F600.0
sI16
F1.0
sI20
F1.0
sI21
F1.0
sI41
F1.0
ssbsg27
g0
(g28
g2
Ntp390
Rp391
(dp392
g32
I0
sbsba(ics475_types
Instance
p393
(dp394
g22
(ics475_types
FeatureVector
p395
(dp396
g25
(dp397
I2
F22.25
sI3
F9.0
sI4
F1.0
sI5
F1.0
sI7
F1.0
sI8
F0.085
sI9
F1.0
sI13
F1.0
sI16
F1.0
sI20
F1.0
sI21
F1.0
sI37
F1.0
ssbsg27
g0
(g28
g2
Ntp398
Rp399
(dp400
g32
I0
sbsba(ics475_types
Instance
p401
(dp402
g22
(ics475_types
FeatureVector
p403
(dp404
g25
(dp405
I33
F1.0
sI2
F25.17
sI3
F6.0
sI4
F1.0
sI5
F1.0
sI6
F1.0
sI7
F1.0
sI8
F1.0
sI10
F1.0
sI11
F3.0
sI13
F1.0
sI16
F1.0
sI21
F1.0
ssbsg27
g0
(g28
g2
Ntp406
Rp407
(dp408
g32
I1
sbsba(ics475_types
Instance
p409
(dp410
g22
(ics475_types
FeatureVector
p411
(dp412
g25
(dp413
I2
F38.92
sI3
F1.75
sI4
F1.0
sI5
F1.0
sI7
F1.0
sI8
F0.5
sI9
F1.0
sI12
F1.0
sI13
F1.0
sI14
F300.0
sI15
F2.0
sI16
F1.0
sI19
F1.0
sI20
F1.0
ssbsg27
g0
(g28
g2
Ntp414
Rp415
(dp416
g32
I0
sbsba(ics475_types
Instance
p417
(dp418
g22
(ics475_types
FeatureVector
p419
(dp420
g25
(dp421
I2
F20.08
sI3
F0.25
sI4
F1.0
sI5
F1.0
sI7
F1.0
sI8
F0.125
sI9
F1.0
sI13
F1.0
sI14
F200.0
sI16
F1.0
sI20
F1.0
sI21
F1.0
sI30
F1.0
ssbsg27
g0
(g28
g2
Ntp422
Rp423
(dp424
g32
I0
sbsba(ics475_types
Instance
p425
(dp426
g22
(ics475_types
FeatureVector
p427
(dp428
g25
(dp429
I2
F22.08
sI3
F11.46
sI4
F1.0
sI5
F1.0
sI7
F1.0
sI8
F1.585
sI9
F1.0
sI12
F1.0
sI13
F1.0
sI14
F100.0
sI15
F1212.0
sI16
F1.0
sI19
F1.0
sI20
F1.0
ssbsg27
g0
(g28
g2
Ntp430
Rp431
(dp432
g32
I0
sbsba(ics475_types
Instance
p433
(dp434
g22
(ics475_types
FeatureVector
p435
(dp436
g25
(dp437
I33
F1.0
sI2
F42.0
sI3
F0.205
sI4
F1.0
sI5
F1.0
sI8
F5.125
sI13
F1.0
sI14
F400.0
sI16
F1.0
sI20
F1.0
sI21
F1.0
sI25
F1.0
sI27
F1.0
ssbsg27
g0
(g28
g2
Ntp438
Rp439
(dp440
g32
I1
sbsba(ics475_types
Instance
p441
(dp442
g22
(ics475_types
FeatureVector
p443
(dp444
g25
(dp445
I2
F26.83
sI3
F0.54
sI4
F1.0
sI5
F1.0
sI9
F1.0
sI13
F1.0
sI14
F100.0
sI16
F1.0
sI19
F1.0
sI20
F1.0
sI21
F1.0
sI24
F1.0
ssbsg27
g0
(g28
g2
Ntp446
Rp447
(dp448
g32
I0
sbsba(ics475_types
Instance
p449
(dp450
g22
(ics475_types
FeatureVector
p451
(dp452
g25
(dp453
I32
F1.0
sI2
F27.42
sI3
F12.5
sI4
F1.0
sI5
F1.0
sI8
F0.25
sI9
F1.0
sI12
F1.0
sI13
F1.0
sI14
F720.0
sI16
F1.0
sI20
F1.0
sI37
F1.0
ssbsg27
g0
(g28
g2
Ntp454
Rp455
(dp456
g32
I0
sbsba(ics475_types
Instance
p457
(dp458
g22
(ics475_types
FeatureVector
p459
(dp460
g25
(dp461
I33
F1.0
sI2
F41.58
sI3
F1.75
sI4
F1.0
sI5
F1.0
sI7
F1.0
sI8
F0.21
sI13
F1.0
sI14
F160.0
sI16
F1.0
sI19
F1.0
sI20
F1.0
sI21
F1.0
ssbsg27
g0
(g28
g2
Ntp462
Rp463
(dp464
g32
I0
sbsba(ics475_types
Instance
p465
(dp466
g22
(ics475_types
FeatureVector
p467
(dp468
g25
(dp469
I1
F1.0
sI2
F39.08
sI3
F4.0
sI4
F1.0
sI5
F1.0
sI6
F1.0
sI7
F1.0
sI8
F3.0
sI9
F1.0
sI13
F1.0
sI14
F480.0
sI20
F1.0
sI21
F1.0
ssbsg27
g0
(g28
g2
Ntp470
Rp471
(dp472
g32
I0
sbsba(ics475_types
Instance
p473
(dp474
g22
(ics475_types
FeatureVector
p475
(dp476
g25
(dp477
I1
F1.0
sI2
F33.25
sI3
F2.5
sI6
F1.0
sI7
F1.0
sI8
F2.5
sI9
F1.0
sI12
F1.0
sI13
F1.0
sI15
F2.0
sI17
F1.0
sI18
F1.0
sI20
F1.0
ssbsg27
g0
(g28
g2
Ntp478
Rp479
(dp480
g32
I0
sbsba(ics475_types
Instance
p481
(dp482
g22
(ics475_types
FeatureVector
p483
(dp484
g25
(dp485
I33
F1.0
sI2
F32.0
sI3
F1.75
sI8
F0.04
sI41
F1.0
sI12
F1.0
sI13
F1.0
sI14
F393.0
sI16
F1.0
sI17
F1.0
sI18
F1.0
sI20
F1.0
sI27
F1.0
ssbsg27
g0
(g28
g2
Ntp486
Rp487
(dp488
g32
I1
sbsba(ics475_types
Instance
p489
(dp490
g22
(ics475_types
FeatureVector
p491
(dp492
g25
(dp493
I1
F1.0
sI2
F36.75
sI3
F4.71
sI4
F1.0
sI5
F1.0
sI9
F1.0
sI13
F1.0
sI14
F160.0
sI20
F1.0
sI21
F1.0
sI23
F1.0
sI24
F1.0
ssbsg27
g0
(g28
g2
Ntp494
Rp495
(dp496
g32
I0
sbsba(ics475_types
Instance
p497
(dp498
g22
(ics475_types
FeatureVector
p499
(dp500
g25
(dp501
I1
F1.0
sI2
F35.42
sI3
F12.0
sI4
F1.0
sI5
F1.0
sI33
F1.0
sI8
F14.0
sI10
F1.0
sI11
F8.0
sI13
F1.0
sI15
F6590.0
sI21
F1.0
sI27
F1.0
sI30
F1.0
ssbsg27
g0
(g28
g2
Ntp502
Rp503
(dp504
g32
I1
sbsba(ics475_types
Instance
p505
(dp506
g22
(ics475_types
FeatureVector
p507
(dp508
g25
(dp509
I1
F1.0
sI2
F26.17
sI3
F2.0
sI4
F1.0
sI5
F1.0
sI9
F1.0
sI12
F1.0
sI13
F1.0
sI14
F276.0
sI15
F1.0
sI20
F1.0
sI28
F1.0
sI29
F1.0
ssbsg27
g0
(g28
g2
Ntp510
Rp511
(dp512
g32
I0
sbsba(ics475_types
Instance
p513
(dp514
g22
(ics475_types
FeatureVector
p515
(dp516
g25
(dp517
I2
F25.83
sI3
F12.835
sI4
F1.0
sI5
F1.0
sI7
F1.0
sI8
F0.5
sI9
F1.0
sI13
F1.0
sI15
F2.0
sI16
F1.0
sI20
F1.0
sI21
F1.0
sI36
F1.0
ssbsg27
g0
(g28
g2
Ntp518
Rp519
(dp520
g32
I0
sbsba(ics475_types
Instance
p521
(dp522
g22
(ics475_types
FeatureVector
p523
(dp524
g25
(dp525
I2
F22.58
sI3
F1.5
sI37
F1.0
sI7
F1.0
sI8
F0.54
sI9
F1.0
sI12
F1.0
sI13
F1.0
sI14
F120.0
sI15
F67.0
sI16
F1.0
sI17
F1.0
sI18
F1.0
sI20
F1.0
ssbsg27
g0
(g28
g2
Ntp526
Rp527
(dp528
g32
I0
sbsba(ics475_types
Instance
p529
(dp530
g22
(ics475_types
FeatureVector
p531
(dp532
g25
(dp533
I33
F1.0
sI2
F22.67
sI3
F10.5
sI4
F1.0
sI5
F1.0
sI8
F1.335
sI13
F1.0
sI14
F100.0
sI16
F1.0
sI20
F1.0
sI21
F1.0
sI27
F1.0
sI30
F1.0
ssbsg27
g0
(g28
g2
Ntp534
Rp535
(dp536
g32
I1
sbsba(ics475_types
Instance
p537
(dp538
g22
(ics475_types
FeatureVector
p539
(dp540
g25
(dp541
I32
F1.0
sI2
F34.17
sI3
F2.75
sI4
F1.0
sI5
F1.0
sI8
F2.5
sI9
F1.0
sI12
F1.0
sI13
F1.0
sI14
F232.0
sI15
F200.0
sI16
F1.0
sI20
F1.0
sI25
F1.0
ssbsg27
g0
(g28
g2
Ntp542
Rp543
(dp544
g32
I0
sbsba(ics475_types
Instance
p545
(dp546
g22
(ics475_types
FeatureVector
p547
(dp548
g25
(dp549
I1
F1.0
sI2
F28.08
sI3
F15.0
sI33
F1.0
sI41
F1.0
sI42
F1.0
sI13
F1.0
sI15
F13212.0
sI17
F1.0
sI18
F1.0
sI20
F1.0
sI21
F1.0
ssbsg27
g0
(g28
g2
Ntp550
Rp551
(dp552
g32
I1
sbsba(ics475_types
Instance
p553
(dp554
g22
(ics475_types
FeatureVector
p555
(dp556
g25
(dp557
I33
F1.0
sI2
F25.5
sI3
F0.375
sI4
F1.0
sI5
F1.0
sI7
F1.0
sI8
F0.25
sI10
F1.0
sI11
F3.0
sI13
F1.0
sI14
F260.0
sI15
F15108.0
sI16
F1.0
sI35
F1.0
sI21
F1.0
ssbsg27
g0
(g28
g2
Ntp558
Rp559
(dp560
g32
I1
sbsba(ics475_types
Instance
p561
(dp562
g22
(ics475_types
FeatureVector
p563
(dp564
g25
(dp565
I2
F17.08
sI3
F0.085
sI6
F1.0
sI7
F1.0
sI8
F0.04
sI9
F1.0
sI13
F1.0
sI14
F140.0
sI15
F722.0
sI16
F1.0
sI17
F1.0
sI18
F1.0
sI20
F1.0
sI21
F1.0
ssbsg27
g0
(g28
g2
Ntp566
Rp567
(dp568
g32
I0
sbsba(ics475_types
Instance
p569
(dp570
g22
(ics475_types
FeatureVector
p571
(dp572
g25
(dp573
I32
F1.0
sI33
F1.0
sI2
F41.33
sI4
F1.0
sI5
F1.0
sI6
F1.0
sI8
F15.0
sI13
F1.0
sI16
F1.0
sI20
F1.0
sI21
F1.0
ssbsg27
g0
(g28
g2
Ntp574
Rp575
(dp576
g32
I1
sbsba(ics475_types
Instance
p577
(dp578
g22
(ics475_types
FeatureVector
p579
(dp580
g25
(dp581
I2
F31.25
sI3
F2.835
sI4
F1.0
sI5
F1.0
sI9
F1.0
sI10
F1.0
sI11
F5.0
sI13
F1.0
sI14
F176.0
sI15
F146.0
sI16
F1.0
sI21
F1.0
sI23
F1.0
sI24
F1.0
ssbsg27
g0
(g28
g2
Ntp582
Rp583
(dp584
g32
I0
sbsba(ics475_types
Instance
p585
(dp586
g22
(ics475_types
FeatureVector
p587
(dp588
g25
(dp589
I33
F1.0
sI2
F31.42
sI3
F15.5
sI4
F1.0
sI5
F1.0
sI6
F1.0
sI7
F1.0
sI8
F0.5
sI13
F1.0
sI14
F120.0
sI16
F1.0
sI20
F1.0
sI21
F1.0
ssbsg27
g0
(g28
g2
Ntp590
Rp591
(dp592
g32
I0
sbsba(ics475_types
Instance
p593
(dp594
g22
(ics475_types
FeatureVector
p595
(dp596
g25
(dp597
I1
F1.0
sI2
F32.0
sI3
F6.0
sI4
F1.0
sI5
F1.0
sI7
F1.0
sI8
F1.25
sI9
F1.0
sI13
F1.0
sI14
F272.0
sI34
F1.0
sI20
F1.0
sI21
F1.0
ssbsg27
g0
(g28
g2
Ntp598
Rp599
(dp600
g32
I0
sbsba(ics475_types
Instance
p601
(dp602
g22
(ics475_types
FeatureVector
p603
(dp604
g25
(dp605
I33
F1.0
sI2
F22.83
sI3
F3.0
sI4
F1.0
sI5
F1.0
sI7
F1.0
sI8
F1.29
sI10
F1.0
sI11
F1.0
sI13
F1.0
sI14
F260.0
sI15
F800.0
sI16
F1.0
sI35
F1.0
sI21
F1.0
ssbsg27
g0
(g28
g2
Ntp606
Rp607
(dp608
g32
I1
sbsba(ics475_types
Instance
p609
(dp610
g22
(ics475_types
FeatureVector
p611
(dp612
g25
(dp613
I33
F1.0
sI2
F23.25
sI3
F1.0
sI4
F1.0
sI5
F1.0
sI6
F1.0
sI7
F1.0
sI8
F0.835
sI14
F300.0
sI16
F1.0
sI20
F1.0
sI21
F1.0
sI22
F1.0
ssbsg27
g0
(g28
g2
Ntp614
Rp615
(dp616
g32
I1
sbsba(ics475_types
Instance
p617
(dp618
g22
(ics475_types
FeatureVector
p619
(dp620
g25
(dp621
I1
F1.0
sI2
F31.25
sI3
F3.75
sI4
F1.0
sI5
F1.0
sI33
F1.0
sI8
F0.625
sI10
F1.0
sI11
F9.0
sI12
F1.0
sI13
F1.0
sI14
F181.0
sI36
F1.0
sI27
F1.0
ssbsg27
g0
(g28
g2
Ntp622
Rp623
(dp624
g32
I1
sbsba(ics475_types
Instance
p625
(dp626
g22
(ics475_types
FeatureVector
p627
(dp628
g25
(dp629
I33
F1.0
sI2
F37.42
sI3
F2.04
sI4
F1.0
sI5
F1.0
sI7
F1.0
sI8
F0.04
sI12
F1.0
sI13
F1.0
sI14
F400.0
sI15
F5800.0
sI16
F1.0
sI20
F1.0
sI31
F1.0
ssbsg27
g0
(g28
g2
Ntp630
Rp631
(dp632
g32
I1
sbsba(ics475_types
Instance
p633
(dp634
g22
(ics475_types
FeatureVector
p635
(dp636
g25
(dp637
I33
F1.0
sI2
F36.67
sI3
F3.25
sI4
F1.0
sI5
F1.0
sI8
F9.0
sI12
F1.0
sI13
F1.0
sI14
F102.0
sI15
F639.0
sI16
F1.0
sI20
F1.0
sI27
F1.0
sI30
F1.0
ssbsg27
g0
(g28
g2
Ntp638
Rp639
(dp640
g32
I1
sbsba(ics475_types
Instance
p641
(dp642
g22
(ics475_types
FeatureVector
p643
(dp644
g25
(dp645
I2
F34.67
sI3
F1.08
sI4
F1.0
sI5
F1.0
sI7
F1.0
sI8
F1.165
sI9
F1.0
sI14
F28.0
sI16
F1.0
sI35
F1.0
sI20
F1.0
sI21
F1.0
sI22
F1.0
ssbsg27
g0
(g28
g2
Ntp646
Rp647
(dp648
g32
I0
sbsba(ics475_types
Instance
p649
(dp650
g22
(ics475_types
FeatureVector
p651
(dp652
g25
(dp653
I1
F1.0
sI2
F33.08
sI3
F4.625
sI4
F1.0
sI5
F1.0
sI33
F1.0
sI8
F1.625
sI10
F1.0
sI11
F2.0
sI13
F1.0
sI21
F1.0
sI27
F1.0
sI30
F1.0
ssbsg27
g0
(g28
g2
Ntp654
Rp655
(dp656
g32
I1
sbsba(ics475_types
Instance
p657
(dp658
g22
(ics475_types
FeatureVector
p659
(dp660
g25
(dp661
I1
F1.0
sI2
F53.33
sI3
F0.165
sI4
F1.0
sI5
F1.0
sI9
F1.0
sI12
F1.0
sI14
F62.0
sI15
F27.0
sI20
F1.0
sI22
F1.0
sI23
F1.0
sI24
F1.0
ssbsg27
g0
(g28
g2
Ntp662
Rp663
(dp664
g32
I0
sbsba(ics475_types
Instance
p665
(dp666
g22
(ics475_types
FeatureVector
p667
(dp668
g25
(dp669
I2
F25.67
sI3
F0.29
sI6
F1.0
sI7
F1.0
sI8
F1.5
sI9
F1.0
sI12
F1.0
sI13
F1.0
sI14
F160.0
sI16
F1.0
sI17
F1.0
sI18
F1.0
sI20
F1.0
ssbsg27
g0
(g28
g2
Ntp670
Rp671
(dp672
g32
I0
sbsba(ics475_types
Instance
p673
(dp674
g22
(ics475_types
FeatureVector
p675
(dp676
g25
(dp677
I33
F1.0
sI2
F22.67
sI3
F1.585
sI7
F1.0
sI8
F3.085
sI10
F1.0
sI11
F6.0
sI13
F1.0
sI14
F80.0
sI16
F1.0
sI17
F1.0
sI18
F1.0
sI21
F1.0
sI31
F1.0
ssbsg27
g0
(g28
g2
Ntp678
Rp679
(dp680
g32
I1
sbsba(ics475_types
Instance
p681
(dp682
g22
(ics475_types
FeatureVector
p683
(dp684
g25
(dp685
I33
F1.0
sI2
F28.25
sI3
F0.875
sI4
F1.0
sI5
F1.0
sI7
F1.0
sI8
F0.96
sI10
F1.0
sI11
F3.0
sI12
F1.0
sI13
F1.0
sI14
F396.0
sI16
F1.0
sI35
F1.0
ssbsg27
g0
(g28
g2
Ntp686
Rp687
(dp688
g32
I1
sbsba(ics475_types
Instance
p689
(dp690
g22
(ics475_types
FeatureVector
p691
(dp692
g25
(dp693
I33
F1.0
sI2
F35.25
sI3
F16.5
sI6
F1.0
sI7
F1.0
sI8
F4.0
sI13
F1.0
sI14
F80.0
sI16
F1.0
sI17
F1.0
sI18
F1.0
sI20
F1.0
sI21
F1.0
ssbsg27
g0
(g28
g2
Ntp694
Rp695
(dp696
g32
I0
sbsba(ics475_types
Instance
p697
(dp698
g22
(ics475_types
FeatureVector
p699
(dp700
g25
(dp701
I2
F51.83
sI3
F2.04
sI8
F1.5
sI9
F1.0
sI13
F1.0
sI14
F120.0
sI15
F1.0
sI16
F1.0
sI17
F1.0
sI18
F1.0
sI20
F1.0
sI21
F1.0
sI23
F1.0
sI24
F1.0
ssbsg27
g0
(g28
g2
Ntp702
Rp703
(dp704
g32
I0
sbsba(ics475_types
Instance
p705
(dp706
g22
(ics475_types
FeatureVector
p707
(dp708
g25
(dp709
I1
F1.0
sI2
F22.83
sI3
F2.29
sI4
F1.0
sI5
F1.0
sI33
F1.0
sI8
F2.29
sI10
F1.0
sI11
F7.0
sI12
F1.0
sI13
F1.0
sI14
F140.0
sI15
F2384.0
sI27
F1.0
sI30
F1.0
ssbsg27
g0
(g28
g2
Ntp710
Rp711
(dp712
g32
I1
sbsba(ics475_types
Instance
p713
(dp714
g22
(ics475_types
FeatureVector
p715
(dp716
g25
(dp717
I2
F36.67
sI3
F2.0
sI4
F1.0
sI5
F1.0
sI7
F1.0
sI8
F0.25
sI9
F1.0
sI12
F1.0
sI13
F1.0
sI14
F221.0
sI16
F1.0
sI20
F1.0
sI25
F1.0
ssbsg27
g0
(g28
g2
Ntp718
Rp719
(dp720
g32
I0
sbsba(ics475_types
Instance
p721
(dp722
g22
(ics475_types
FeatureVector
p723
(dp724
g25
(dp725
I33
F1.0
sI2
F18.08
sI3
F5.5
sI4
F1.0
sI5
F1.0
sI7
F1.0
sI8
F0.5
sI13
F1.0
sI14
F80.0
sI16
F1.0
sI19
F1.0
sI20
F1.0
sI21
F1.0
ssbsg27
g0
(g28
g2
Ntp726
Rp727
(dp728
g32
I1
sbsba(ics475_types
Instance
p729
(dp730
g22
(ics475_types
FeatureVector
p731
(dp732
g25
(dp733
I33
F1.0
sI2
F54.42
sI3
F0.5
sI8
F3.96
sI13
F1.0
sI14
F180.0
sI15
F314.0
sI16
F1.0
sI17
F1.0
sI18
F1.0
sI19
F1.0
sI20
F1.0
sI21
F1.0
sI27
F1.0
ssbsg27
g0
(g28
g2
Ntp734
Rp735
(dp736
g32
I1
sbsba(ics475_types
Instance
p737
(dp738
g22
(ics475_types
FeatureVector
p739
(dp740
g25
(dp741
I2
F35.58
sI3
F0.75
sI4
F1.0
sI5
F1.0
sI7
F1.0
sI8
F1.5
sI9
F1.0
sI12
F1.0
sI13
F1.0
sI14
F231.0
sI16
F1.0
sI19
F1.0
sI20
F1.0
ssbsg27
g0
(g28
g2
Ntp742
Rp743
(dp744
g32
I0
sbsba(ics475_types
Instance
p745
(dp746
g22
(ics475_types
FeatureVector
p747
(dp748
g25
(dp749
I1
F1.0
sI2
F20.42
sI3
F0.835
sI4
F1.0
sI5
F1.0
sI7
F1.0
sI8
F1.585
sI10
F1.0
sI11
F1.0
sI13
F1.0
sI21
F1.0
sI33
F1.0
sI30
F1.0
ssbsg27
g0
(g28
g2
Ntp750
Rp751
(dp752
g32
I1
sbsba(ics475_types
Instance
p753
(dp754
g22
(ics475_types
FeatureVector
p755
(dp756
g25
(dp757
I1
F1.0
sI2
F38.75
sI3
F1.5
sI4
F1.0
sI5
F1.0
sI9
F1.0
sI13
F1.0
sI14
F76.0
sI20
F1.0
sI21
F1.0
sI23
F1.0
sI24
F1.0
ssbsg27
g0
(g28
g2
Ntp758
Rp759
(dp760
g32
I0
sbsba(ics475_types
Instance
p761
(dp762
g22
(ics475_types
FeatureVector
p763
(dp764
g25
(dp765
I1
F1.0
sI2
F25.42
sI3
F1.125
sI4
F1.0
sI5
F1.0
sI7
F1.0
sI8
F1.29
sI10
F1.0
sI11
F2.0
sI13
F1.0
sI14
F200.0
sI21
F1.0
sI33
F1.0
sI30
F1.0
ssbsg27
g0
(g28
g2
Ntp766
Rp767
(dp768
g32
I0
sbsba(ics475_types
Instance
p769
(dp770
g22
(ics475_types
FeatureVector
p771
(dp772
g25
(dp773
I32
F1.0
sI1
F1.0
sI2
F47.42
sI3
F8.0
sI4
F1.0
sI5
F1.0
sI33
F1.0
sI8
F6.5
sI41
F1.0
sI10
F1.0
sI11
F6.0
sI13
F1.0
sI14
F375.0
sI15
F51100.0
sI21
F1.0
ssbsg27
g0
(g28
g2
Ntp774
Rp775
(dp776
g32
I1
sbsba(ics475_types
Instance
p777
(dp778
g22
(ics475_types
FeatureVector
p779
(dp780
g25
(dp781
I33
F1.0
sI2
F36.33
sI3
F3.79
sI4
F1.0
sI5
F1.0
sI7
F1.0
sI8
F1.165
sI12
F1.0
sI13
F1.0
sI14
F200.0
sI16
F1.0
sI20
F1.0
sI31
F1.0
ssbsg27
g0
(g28
g2
Ntp782
Rp783
(dp784
g32
I0
sbsba(ics475_types
Instance
p785
(dp786
g22
(ics475_types
FeatureVector
p787
(dp788
g25
(dp789
I2
F20.42
sI3
F1.085
sI4
F1.0
sI5
F1.0
sI7
F1.0
sI8
F1.5
sI9
F1.0
sI13
F1.0
sI14
F108.0
sI15
F7.0
sI16
F1.0
sI20
F1.0
sI21
F1.0
sI30
F1.0
ssbsg27
g0
(g28
g2
Ntp790
Rp791
(dp792
g32
I0
sbsba(ics475_types
Instance
p793
(dp794
g22
(ics475_types
FeatureVector
p795
(dp796
g25
(dp797
I2
F17.92
sI3
F0.205
sI4
F1.0
sI5
F1.0
sI7
F1.0
sI8
F0.04
sI9
F1.0
sI13
F1.0
sI14
F280.0
sI15
F750.0
sI16
F1.0
sI20
F1.0
sI21
F1.0
sI37
F1.0
ssbsg27
g0
(g28
g2
Ntp798
Rp799
(dp800
g32
I0
sbsba(ics475_types
Instance
p801
(dp802
g22
(ics475_types
FeatureVector
p803
(dp804
g25
(dp805
I2
F35.0
sI3
F2.5
sI4
F1.0
sI5
F1.0
sI7
F1.0
sI8
F1.0
sI9
F1.0
sI12
F1.0
sI13
F1.0
sI14
F210.0
sI16
F1.0
sI20
F1.0
sI25
F1.0
ssbsg27
g0
(g28
g2
Ntp806
Rp807
(dp808
g32
I0
sbsba(ics475_types
Instance
p809
(dp810
g22
(ics475_types
FeatureVector
p811
(dp812
g25
(dp813
I33
F1.0
sI2
F34.92
sI3
F5.0
sI4
F1.0
sI5
F1.0
sI39
F1.0
sI8
F7.5
sI10
F1.0
sI11
F6.0
sI12
F1.0
sI13
F1.0
sI15
F1000.0
sI16
F1.0
sI27
F1.0
ssbsg27
g0
(g28
g2
Ntp814
Rp815
(dp816
g32
I1
sbsba(ics475_types
Instance
p817
(dp818
g22
(ics475_types
FeatureVector
p819
(dp820
g25
(dp821
I1
F1.0
sI2
F18.83
sI3
F9.54
sI4
F1.0
sI5
F1.0
sI7
F1.0
sI8
F0.085
sI13
F1.0
sI14
F100.0
sI20
F1.0
sI21
F1.0
sI33
F1.0
sI37
F1.0
ssbsg27
g0
(g28
g2
Ntp822
Rp823
(dp824
g32
I1
sbsba(ics475_types
Instance
p825
(dp826
g22
(ics475_types
FeatureVector
p827
(dp828
g25
(dp829
I2
F22.67
sI3
F0.75
sI4
F1.0
sI5
F1.0
sI7
F1.0
sI8
F1.585
sI9
F1.0
sI10
F1.0
sI11
F1.0
sI12
F1.0
sI13
F1.0
sI14
F400.0
sI15
F9.0
sI16
F1.0
sI25
F1.0
ssbsg27
g0
(g28
g2
Ntp830
Rp831
(dp832
g32
I0
sbsba(ics475_types
Instance
p833
(dp834
g22
(ics475_types
FeatureVector
p835
(dp836
g25
(dp837
I33
F1.0
sI2
F31.83
sI3
F2.5
sI4
F1.0
sI5
F1.0
sI7
F1.0
sI8
F7.5
sI12
F1.0
sI13
F1.0
sI14
F523.0
sI16
F1.0
sI20
F1.0
sI37
F1.0
ssbsg27
g0
(g28
g2
Ntp838
Rp839
(dp840
g32
I0
sbsba(ics475_types
Instance
p841
(dp842
g22
(ics475_types
FeatureVector
p843
(dp844
g25
(dp845
I33
F1.0
sI2
F23.17
sI3
F11.125
sI4
F1.0
sI5
F1.0
sI39
F1.0
sI8
F0.46
sI10
F1.0
sI11
F1.0
sI13
F1.0
sI14
F100.0
sI16
F1.0
sI21
F1.0
sI27
F1.0
ssbsg27
g0
(g28
g2
Ntp846
Rp847
(dp848
g32
I1
sbsba(ics475_types
Instance
p849
(dp850
g22
(ics475_types
FeatureVector
p851
(dp852
g25
(dp853
I33
F1.0
sI2
F41.92
sI3
F0.42
sI4
F1.0
sI5
F1.0
sI6
F1.0
sI8
F0.21
sI10
F1.0
sI11
F6.0
sI13
F1.0
sI14
F220.0
sI15
F948.0
sI16
F1.0
sI21
F1.0
sI27
F1.0
ssbsg27
g0
(g28
g2
Ntp854
Rp855
(dp856
g32
I1
sbsba(ics475_types
Instance
p857
(dp858
g22
(ics475_types
FeatureVector
p859
(dp860
g25
(dp861
I33
F1.0
sI2
F48.75
sI3
F8.5
sI4
F1.0
sI5
F1.0
sI6
F1.0
sI8
F12.5
sI10
F1.0
sI11
F9.0
sI13
F1.0
sI14
F181.0
sI15
F1655.0
sI16
F1.0
sI21
F1.0
sI27
F1.0
ssbsg27
g0
(g28
g2
Ntp862
Rp863
(dp864
g32
I1
sbsba(ics475_types
Instance
p865
(dp866
g22
(ics475_types
FeatureVector
p867
(dp868
g25
(dp869
I1
F1.0
sI2
F47.25
sI3
F0.75
sI4
F1.0
sI5
F1.0
sI33
F1.0
sI8
F2.75
sI10
F1.0
sI11
F1.0
sI13
F1.0
sI14
F333.0
sI15
F892.0
sI21
F1.0
sI27
F1.0
sI30
F1.0
ssbsg27
g0
(g28
g2
Ntp870
Rp871
(dp872
g32
I1
sbsba(ics475_types
Instance
p873
(dp874
g22
(ics475_types
FeatureVector
p875
(dp876
g25
(dp877
I33
F1.0
sI2
F18.67
sI3
F5.0
sI4
F1.0
sI5
F1.0
sI7
F1.0
sI8
F0.375
sI10
F1.0
sI11
F2.0
sI13
F1.0
sI15
F38.0
sI16
F1.0
sI21
F1.0
sI30
F1.0
ssbsg27
g0
(g28
g2
Ntp878
Rp879
(dp880
g32
I0
sbsba(ics475_types
Instance
p881
(dp882
g22
(ics475_types
FeatureVector
p883
(dp884
g25
(dp885
I1
F1.0
sI2
F29.58
sI3
F1.75
sI7
F1.0
sI8
F1.25
sI9
F1.0
sI12
F1.0
sI13
F1.0
sI14
F280.0
sI17
F1.0
sI18
F1.0
sI19
F1.0
sI20
F1.0
ssbsg27
g0
(g28
g2
Ntp886
Rp887
(dp888
g32
I0
sbsba(ics475_types
Instance
p889
(dp890
g22
(ics475_types
FeatureVector
p891
(dp892
g25
(dp893
I33
F1.0
sI2
F35.17
sI3
F25.125
sI4
F1.0
sI5
F1.0
sI39
F1.0
sI8
F1.625
sI10
F1.0
sI11
F1.0
sI12
F1.0
sI13
F1.0
sI14
F515.0
sI15
F500.0
sI16
F1.0
sI27
F1.0
ssbsg27
g0
(g28
g2
Ntp894
Rp895
(dp896
g32
I1
sbsba(ics475_types
Instance
p897
(dp898
g22
(ics475_types
FeatureVector
p899
(dp900
g25
(dp901
I2
F26.17
sI3
F12.5
sI8
F1.25
sI9
F1.0
sI12
F1.0
sI13
F1.0
sI15
F17.0
sI16
F1.0
sI17
F1.0
sI18
F1.0
sI19
F1.0
sI20
F1.0
sI27
F1.0
ssbsg27
g0
(g28
g2
Ntp902
Rp903
(dp904
g32
I0
sbsba(ics475_types
Instance
p905
(dp906
g22
(ics475_types
FeatureVector
p907
(dp908
g25
(dp909
I1
F1.0
sI2
F32.33
sI3
F0.54
sI4
F1.0
sI5
F1.0
sI7
F1.0
sI8
F0.04
sI13
F1.0
sI14
F440.0
sI15
F11177.0
sI20
F1.0
sI21
F1.0
sI36
F1.0
sI33
F1.0
ssbsg27
g0
(g28
g2
Ntp910
Rp911
(dp912
g32
I1
sbsba(ics475_types
Instance
p913
(dp914
g22
(ics475_types
FeatureVector
p915
(dp916
g25
(dp917
I33
F1.0
sI2
F40.92
sI3
F0.835
sI4
F1.0
sI5
F1.0
sI13
F1.0
sI14
F130.0
sI15
F1.0
sI16
F1.0
sI20
F1.0
sI21
F1.0
sI23
F1.0
sI24
F1.0
ssbsg27
g0
(g28
g2
Ntp918
Rp919
(dp920
g32
I0
sbsba(ics475_types
Instance
p921
(dp922
g22
(ics475_types
FeatureVector
p923
(dp924
g25
(dp925
I33
F1.0
sI2
F21.5
sI3
F11.5
sI4
F1.0
sI5
F1.0
sI7
F1.0
sI8
F0.5
sI12
F1.0
sI13
F1.0
sI14
F100.0
sI15
F68.0
sI16
F1.0
sI20
F1.0
sI25
F1.0
ssbsg27
g0
(g28
g2
Ntp926
Rp927
(dp928
g32
I0
sbsba(ics475_types
Instance
p929
(dp930
g22
(ics475_types
FeatureVector
p931
(dp932
g25
(dp933
I32
F1.0
sI33
F1.0
sI2
F34.5
sI3
F4.04
sI8
F8.5
sI10
F1.0
sI11
F7.0
sI12
F1.0
sI13
F1.0
sI14
F195.0
sI16
F1.0
sI17
F1.0
sI18
F1.0
sI25
F1.0
ssbsg27
g0
(g28
g2
Ntp934
Rp935
(dp936
g32
I1
sbsba(ics475_types
Instance
p937
(dp938
g22
(ics475_types
FeatureVector
p939
(dp940
g25
(dp941
I1
F1.0
sI2
F60.92
sI3
F5.0
sI4
F1.0
sI5
F1.0
sI7
F1.0
sI8
F4.0
sI10
F1.0
sI11
F4.0
sI13
F1.0
sI15
F99.0
sI21
F1.0
sI33
F1.0
sI37
F1.0
ssbsg27
g0
(g28
g2
Ntp942
Rp943
(dp944
g32
I1
sbsba(ics475_types
Instance
p945
(dp946
g22
(ics475_types
FeatureVector
p947
(dp948
g25
(dp949
I33
F1.0
sI2
F67.75
sI3
F5.5
sI4
F1.0
sI5
F1.0
sI8
F13.0
sI41
F1.0
sI10
F1.0
sI11
F1.0
sI12
F1.0
sI13
F1.0
sI16
F1.0
sI42
F1.0
ssbsg27
g0
(g28
g2
Ntp950
Rp951
(dp952
g32
I1
sbsba(ics475_types
Instance
p953
(dp954
g22
(ics475_types
FeatureVector
p955
(dp956
g25
(dp957
I1
F1.0
sI2
F41.17
sI3
F6.5
sI4
F1.0
sI5
F1.0
sI7
F1.0
sI8
F0.5
sI10
F1.0
sI11
F3.0
sI12
F1.0
sI13
F1.0
sI14
F145.0
sI33
F1.0
sI30
F1.0
ssbsg27
g0
(g28
g2
Ntp958
Rp959
(dp960
g32
I1
sbsba(ics475_types
Instance
p961
(dp962
g22
(ics475_types
FeatureVector
p963
(dp964
g25
(dp965
I33
F1.0
sI2
F39.92
sI3
F0.54
sI37
F1.0
sI7
F1.0
sI8
F0.5
sI10
F1.0
sI11
F3.0
sI13
F1.0
sI14
F200.0
sI15
F1000.0
sI16
F1.0
sI17
F1.0
sI18
F1.0
sI21
F1.0
ssbsg27
g0
(g28
g2
Ntp966
Rp967
(dp968
g32
I1
sbsba(ics475_types
Instance
p969
(dp970
g22
(ics475_types
FeatureVector
p971
(dp972
g25
(dp973
I33
F1.0
sI2
F48.25
sI3
F25.085
sI4
F1.0
sI5
F1.0
sI7
F1.0
sI8
F1.75
sI10
F1.0
sI11
F3.0
sI13
F1.0
sI14
F120.0
sI15
F14.0
sI16
F1.0
sI21
F1.0
sI31
F1.0
ssbsg27
g0
(g28
g2
Ntp974
Rp975
(dp976
g32
I1
sbsba(ics475_types
Instance
p977
(dp978
g22
(ics475_types
FeatureVector
p979
(dp980
g25
(dp981
I33
F1.0
sI2
F27.0
sI3
F1.5
sI7
F1.0
sI8
F0.375
sI12
F1.0
sI13
F1.0
sI14
F260.0
sI15
F1065.0
sI16
F1.0
sI17
F1.0
sI18
F1.0
sI20
F1.0
sI31
F1.0
ssbsg27
g0
(g28
g2
Ntp982
Rp983
(dp984
g32
I1
sbsba(ics475_types
Instance
p985
(dp986
g22
(ics475_types
FeatureVector
p987
(dp988
g25
(dp989
I2
F31.08
sI3
F1.5
sI7
F1.0
sI8
F0.04
sI9
F1.0
sI14
F160.0
sI16
F1.0
sI17
F1.0
sI18
F1.0
sI20
F1.0
sI21
F1.0
sI22
F1.0
sI31
F1.0
ssbsg27
g0
(g28
g2
Ntp990
Rp991
(dp992
g32
I0
sbsba(ics475_types
Instance
p993
(dp994
g22
(ics475_types
FeatureVector
p995
(dp996
g25
(dp997
I1
F1.0
sI2
F22.58
sI3
F10.75
sI4
F1.0
sI5
F1.0
sI7
F1.0
sI8
F0.415
sI10
F1.0
sI11
F5.0
sI12
F1.0
sI13
F1.0
sI15
F560.0
sI33
F1.0
sI30
F1.0
ssbsg27
g0
(g28
g2
Ntp998
Rp999
(dp1000
g32
I1
sbsba(ics475_types
Instance
p1001
(dp1002
g22
(ics475_types
FeatureVector
p1003
(dp1004
g25
(dp1005
I2
F17.08
sI3
F3.29
sI4
F1.0
sI5
F1.0
sI7
F1.0
sI8
F0.335
sI9
F1.0
sI12
F1.0
sI13
F1.0
sI14
F140.0
sI15
F2.0
sI16
F1.0
sI20
F1.0
sI25
F1.0
ssbsg27
g0
(g28
g2
Ntp1006
Rp1007
(dp1008
g32
I0
sbsba(ics475_types
Instance
p1009
(dp1010
g22
(ics475_types
FeatureVector
p1011
(dp1012
g25
(dp1013
I1
F1.0
sI2
F69.5
sI3
F6.0
sI4
F1.0
sI5
F1.0
sI9
F1.0
sI20
F1.0
sI21
F1.0
sI22
F1.0
sI23
F1.0
sI24
F1.0
ssbsg27
g0
(g28
g2
Ntp1014
Rp1015
(dp1016
g32
I0
sbsba(ics475_types
Instance
p1017
(dp1018
g22
(ics475_types
FeatureVector
p1019
(dp1020
g25
(dp1021
I1
F1.0
sI2
F47.42
sI3
F3.0
sI4
F1.0
sI5
F1.0
sI7
F1.0
sI8
F13.875
sI10
F1.0
sI11
F2.0
sI12
F1.0
sI13
F1.0
sI14
F519.0
sI15
F1704.0
sI39
F1.0
sI33
F1.0
ssbsg27
g0
(g28
g2
Ntp1022
Rp1023
(dp1024
g32
I1
sbsba(ics475_types
Instance
p1025
(dp1026
g22
(ics475_types
FeatureVector
p1027
(dp1028
g25
(dp1029
I2
F22.17
sI3
F0.585
sI9
F1.0
sI13
F1.0
sI14
F100.0
sI16
F1.0
sI17
F1.0
sI18
F1.0
sI20
F1.0
sI21
F1.0
sI23
F1.0
sI24
F1.0
ssbsg27
g0
(g28
g2
Ntp1030
Rp1031
(dp1032
g32
I0
sbsba(ics475_types
Instance
p1033
(dp1034
g22
(ics475_types
FeatureVector
p1035
(dp1036
g25
(dp1037
I32
F1.0
sI2
F26.67
sI3
F14.585
sI4
F1.0
sI5
F1.0
sI9
F1.0
sI12
F1.0
sI13
F1.0
sI14
F178.0
sI16
F1.0
sI20
F1.0
sI25
F1.0
ssbsg27
g0
(g28
g2
Ntp1038
Rp1039
(dp1040
g32
I0
sbsba(ics475_types
Instance
p1041
(dp1042
g22
(ics475_types
FeatureVector
p1043
(dp1044
g25
(dp1045
I33
F1.0
sI2
F25.33
sI3
F0.58
sI4
F1.0
sI5
F1.0
sI6
F1.0
sI7
F1.0
sI8
F0.29
sI10
F1.0
sI11
F7.0
sI12
F1.0
sI13
F1.0
sI14
F96.0
sI15
F5124.0
sI16
F1.0
ssbsg27
g0
(g28
g2
Ntp1046
Rp1047
(dp1048
g32
I1
sbsba(ics475_types
Instance
p1049
(dp1050
g22
(ics475_types
FeatureVector
p1051
(dp1052
g25
(dp1053
I33
F1.0
sI2
F18.5
sI3
F2.0
sI4
F1.0
sI5
F1.0
sI7
F1.0
sI8
F1.5
sI10
F1.0
sI11
F2.0
sI13
F1.0
sI14
F120.0
sI15
F300.0
sI16
F1.0
sI21
F1.0
sI25
F1.0
ssbsg27
g0
(g28
g2
Ntp1054
Rp1055
(dp1056
g32
I1
sbsba(ics475_types
Instance
p1057
(dp1058
g22
(ics475_types
FeatureVector
p1059
(dp1060
g25
(dp1061
I2
F17.42
sI3
F6.5
sI4
F1.0
sI5
F1.0
sI7
F1.0
sI8
F0.125
sI9
F1.0
sI13
F1.0
sI14
F60.0
sI15
F100.0
sI16
F1.0
sI20
F1.0
sI21
F1.0
sI25
F1.0
ssbsg27
g0
(g28
g2
Ntp1062
Rp1063
(dp1064
g32
I0
sbsba(ics475_types
Instance
p1065
(dp1066
g22
(ics475_types
FeatureVector
p1067
(dp1068
g25
(dp1069
I1
F1.0
sI2
F20.83
sI3
F8.5
sI4
F1.0
sI5
F1.0
sI6
F1.0
sI7
F1.0
sI8
F0.165
sI9
F1.0
sI13
F1.0
sI15
F351.0
sI20
F1.0
sI21
F1.0
ssbsg27
g0
(g28
g2
Ntp1070
Rp1071
(dp1072
g32
I0
sbsba(ics475_types
Instance
p1073
(dp1074
g22
(ics475_types
FeatureVector
p1075
(dp1076
g25
(dp1077
I1
F1.0
sI2
F27.42
sI3
F14.5
sI4
F1.0
sI5
F1.0
sI33
F1.0
sI8
F3.085
sI10
F1.0
sI11
F1.0
sI13
F1.0
sI14
F120.0
sI15
F11.0
sI21
F1.0
sI39
F1.0
sI27
F1.0
ssbsg27
g0
(g28
g2
Ntp1078
Rp1079
(dp1080
g32
I1
sbsba(ics475_types
Instance
p1081
(dp1082
g22
(ics475_types
FeatureVector
p1083
(dp1084
g25
(dp1085
I1
F1.0
sI2
F17.83
sI3
F11.0
sI4
F1.0
sI5
F1.0
sI33
F1.0
sI8
F1.0
sI10
F1.0
sI11
F11.0
sI13
F1.0
sI15
F3000.0
sI21
F1.0
sI39
F1.0
sI27
F1.0
ssbsg27
g0
(g28
g2
Ntp1086
Rp1087
(dp1088
g32
I1
sbsba(ics475_types
Instance
p1089
(dp1090
g22
(ics475_types
FeatureVector
p1091
(dp1092
g25
(dp1093
I1
F1.0
sI2
F24.58
sI3
F0.67
sI4
F1.0
sI5
F1.0
sI33
F1.0
sI8
F1.75
sI13
F1.0
sI14
F400.0
sI20
F1.0
sI21
F1.0
sI27
F1.0
sI37
F1.0
ssbsg27
g0
(g28
g2
Ntp1094
Rp1095
(dp1096
g32
I0
sbsba(ics475_types
Instance
p1097
(dp1098
g22
(ics475_types
FeatureVector
p1099
(dp1100
g25
(dp1101
I33
F1.0
sI2
F29.58
sI3
F4.5
sI4
F1.0
sI5
F1.0
sI7
F1.0
sI8
F7.5
sI10
F1.0
sI11
F2.0
sI12
F1.0
sI13
F1.0
sI14
F330.0
sI16
F1.0
sI31
F1.0
ssbsg27
g0
(g28
g2
Ntp1102
Rp1103
(dp1104
g32
I1
sbsba(ics475_types
Instance
p1105
(dp1106
g22
(ics475_types
FeatureVector
p1107
(dp1108
g25
(dp1109
I1
F1.0
sI2
F24.92
sI3
F1.25
sI4
F1.0
sI5
F1.0
sI33
F1.0
sI13
F1.0
sI14
F80.0
sI20
F1.0
sI21
F1.0
sI23
F1.0
sI24
F1.0
ssbsg27
g0
(g28
g2
Ntp1110
Rp1111
(dp1112
g32
I0
sbsba(ics475_types
Instance
p1113
(dp1114
g22
(ics475_types
FeatureVector
p1115
(dp1116
g25
(dp1117
I1
F1.0
sI2
F57.08
sI3
F19.5
sI4
F1.0
sI5
F1.0
sI6
F1.0
sI7
F1.0
sI8
F5.5
sI10
F1.0
sI11
F7.0
sI13
F1.0
sI15
F3000.0
sI21
F1.0
sI33
F1.0
ssbsg27
g0
(g28
g2
Ntp1118
Rp1119
(dp1120
g32
I1
sbsba(ics475_types
Instance
p1121
(dp1122
g22
(ics475_types
FeatureVector
p1123
(dp1124
g25
(dp1125
I33
F1.0
sI2
F34.17
sI3
F1.54
sI4
F1.0
sI5
F1.0
sI7
F1.0
sI8
F1.54
sI10
F1.0
sI11
F1.0
sI12
F1.0
sI13
F1.0
sI14
F520.0
sI15
F50000.0
sI16
F1.0
sI36
F1.0
ssbsg27
g0
(g28
g2
Ntp1126
Rp1127
(dp1128
g32
I1
sbsba(ics475_types
Instance
p1129
(dp1130
g22
(ics475_types
FeatureVector
p1131
(dp1132
g25
(dp1133
I1
F1.0
sI2
F24.5
sI3
F1.04
sI33
F1.0
sI8
F0.5
sI10
F1.0
sI11
F3.0
sI13
F1.0
sI14
F180.0
sI15
F147.0
sI17
F1.0
sI18
F1.0
sI21
F1.0
sI23
F1.0
sI24
F1.0
ssbsg27
g0
(g28
g2
Ntp1134
Rp1135
(dp1136
g32
I0
sbsba(ics475_types
Instance
p1137
(dp1138
g22
(ics475_types
FeatureVector
p1139
(dp1140
g25
(dp1141
I2
F32.08
sI3
F4.0
sI36
F1.0
sI7
F1.0
sI8
F1.5
sI9
F1.0
sI12
F1.0
sI13
F1.0
sI14
F120.0
sI16
F1.0
sI17
F1.0
sI18
F1.0
sI20
F1.0
ssbsg27
g0
(g28
g2
Ntp1142
Rp1143
(dp1144
g32
I0
sbsba(ics475_types
Instance
p1145
(dp1146
g22
(ics475_types
FeatureVector
p1147
(dp1148
g25
(dp1149
I33
F1.0
sI2
F28.0
sI3
F2.0
sI4
F1.0
sI5
F1.0
sI8
F4.165
sI10
F1.0
sI11
F2.0
sI12
F1.0
sI13
F1.0
sI14
F181.0
sI16
F1.0
sI19
F1.0
sI27
F1.0
ssbsg27
g0
(g28
g2
Ntp1150
Rp1151
(dp1152
g32
I1
sbsba(ics475_types
Instance
p1153
(dp1154
g22
(ics475_types
FeatureVector
p1155
(dp1156
g25
(dp1157
I33
F1.0
sI2
F32.67
sI3
F9.0
sI8
F5.25
sI12
F1.0
sI13
F1.0
sI14
F154.0
sI16
F1.0
sI17
F1.0
sI18
F1.0
sI20
F1.0
sI27
F1.0
sI31
F1.0
ssbsg27
g0
(g28
g2
Ntp1158
Rp1159
(dp1160
g32
I1
sbsba(ics475_types
Instance
p1161
(dp1162
g22
(ics475_types
FeatureVector
p1163
(dp1164
g25
(dp1165
I32
F1.0
sI33
F1.0
sI2
F37.5
sI3
F1.75
sI6
F1.0
sI8
F0.25
sI12
F1.0
sI13
F1.0
sI14
F164.0
sI15
F400.0
sI16
F1.0
sI17
F1.0
sI18
F1.0
sI20
F1.0
ssbsg27
g0
(g28
g2
Ntp1166
Rp1167
(dp1168
g32
I0
sbsba(ics475_types
Instance
p1169
(dp1170
g22
(ics475_types
FeatureVector
p1171
(dp1172
g25
(dp1173
I33
F1.0
sI2
F33.58
sI3
F2.75
sI4
F1.0
sI5
F1.0
sI7
F1.0
sI8
F4.25
sI10
F1.0
sI11
F6.0
sI13
F1.0
sI14
F204.0
sI16
F1.0
sI35
F1.0
sI21
F1.0
ssbsg27
g0
(g28
g2
Ntp1174
Rp1175
(dp1176
g32
I1
sbsba(ics475_types
Instance
p1177
(dp1178
g22
(ics475_types
FeatureVector
p1179
(dp1180
g25
(dp1181
I1
F1.0
sI2
F25.0
sI3
F0.875
sI4
F1.0
sI5
F1.0
sI33
F1.0
sI8
F1.04
sI39
F1.0
sI12
F1.0
sI13
F1.0
sI14
F160.0
sI15
F5860.0
sI20
F1.0
sI27
F1.0
ssbsg27
g0
(g28
g2
Ntp1182
Rp1183
(dp1184
g32
I1
sbsba(ics475_types
Instance
p1185
(dp1186
g22
(ics475_types
FeatureVector
p1187
(dp1188
g25
(dp1189
I1
F1.0
sI2
F23.58
sI3
F0.83
sI4
F1.0
sI5
F1.0
sI7
F1.0
sI8
F0.415
sI9
F1.0
sI10
F1.0
sI11
F1.0
sI12
F1.0
sI13
F1.0
sI14
F200.0
sI15
F11.0
sI30
F1.0
ssbsg27
g0
(g28
g2
Ntp1190
Rp1191
(dp1192
g32
I0
sbsba(ics475_types
Instance
p1193
(dp1194
g22
(ics475_types
FeatureVector
p1195
(dp1196
g25
(dp1197
I33
F1.0
sI2
F27.25
sI3
F1.665
sI4
F1.0
sI5
F1.0
sI8
F5.085
sI10
F1.0
sI11
F9.0
sI13
F1.0
sI14
F399.0
sI15
F827.0
sI16
F1.0
sI21
F1.0
sI36
F1.0
sI27
F1.0
ssbsg27
g0
(g28
g2
Ntp1198
Rp1199
(dp1200
g32
I1
sbsba(ics475_types
Instance
p1201
(dp1202
g22
(ics475_types
FeatureVector
p1203
(dp1204
g25
(dp1205
I33
F1.0
sI2
F23.33
sI3
F11.625
sI7
F1.0
sI8
F0.835
sI12
F1.0
sI13
F1.0
sI14
F160.0
sI15
F300.0
sI16
F1.0
sI17
F1.0
sI18
F1.0
sI20
F1.0
sI31
F1.0
ssbsg27
g0
(g28
g2
Ntp1206
Rp1207
(dp1208
g32
I1
sbsba(ics475_types
Instance
p1209
(dp1210
g22
(ics475_types
FeatureVector
p1211
(dp1212
g25
(dp1213
I33
F1.0
sI2
F27.67
sI3
F13.75
sI4
F1.0
sI5
F1.0
sI7
F1.0
sI8
F5.75
sI12
F1.0
sI13
F1.0
sI14
F487.0
sI15
F500.0
sI16
F1.0
sI20
F1.0
sI31
F1.0
ssbsg27
g0
(g28
g2
Ntp1214
Rp1215
(dp1216
g32
I1
sbsba(ics475_types
Instance
p1217
(dp1218
g22
(ics475_types
FeatureVector
p1219
(dp1220
g25
(dp1221
I33
F1.0
sI2
F34.92
sI3
F2.5
sI4
F1.0
sI5
F1.0
sI7
F1.0
sI12
F1.0
sI13
F1.0
sI14
F239.0
sI15
F200.0
sI16
F1.0
sI20
F1.0
sI31
F1.0
ssbsg27
g0
(g28
g2
Ntp1222
Rp1223
(dp1224
g32
I1
sbsba(ics475_types
Instance
p1225
(dp1226
g22
(ics475_types
FeatureVector
p1227
(dp1228
g25
(dp1229
I2
F18.83
sI3
F0.415
sI6
F1.0
sI7
F1.0
sI8
F0.165
sI9
F1.0
sI10
F1.0
sI11
F1.0
sI13
F1.0
sI14
F200.0
sI15
F1.0
sI16
F1.0
sI17
F1.0
sI18
F1.0
sI21
F1.0
ssbsg27
g0
(g28
g2
Ntp1230
Rp1231
(dp1232
g32
I0
sbsba(ics475_types
Instance
p1233
(dp1234
g22
(ics475_types
FeatureVector
p1235
(dp1236
g25
(dp1237
I1
F1.0
sI2
F20.67
sI3
F3.0
sI4
F1.0
sI5
F1.0
sI7
F1.0
sI8
F0.165
sI10
F1.0
sI11
F3.0
sI13
F1.0
sI14
F100.0
sI15
F6.0
sI21
F1.0
sI33
F1.0
sI30
F1.0
ssbsg27
g0
(g28
g2
Ntp1238
Rp1239
(dp1240
g32
I1
sbsba(ics475_types
Instance
p1241
(dp1242
g22
(ics475_types
FeatureVector
p1243
(dp1244
g25
(dp1245
I33
F1.0
sI2
F39.92
sI3
F6.21
sI4
F1.0
sI5
F1.0
sI7
F1.0
sI8
F0.04
sI10
F1.0
sI11
F1.0
sI13
F1.0
sI14
F200.0
sI15
F300.0
sI16
F1.0
sI21
F1.0
sI30
F1.0
ssbsg27
g0
(g28
g2
Ntp1246
Rp1247
(dp1248
g32
I1
sbsba(ics475_types
Instance
p1249
(dp1250
g22
(ics475_types
FeatureVector
p1251
(dp1252
g25
(dp1253
I32
F1.0
sI2
F33.75
sI3
F2.75
sI4
F1.0
sI5
F1.0
sI9
F1.0
sI13
F1.0
sI14
F180.0
sI16
F1.0
sI20
F1.0
sI21
F1.0
sI25
F1.0
ssbsg27
g0
(g28
g2
Ntp1254
Rp1255
(dp1256
g32
I0
sbsba(ics475_types
Instance
p1257
(dp1258
g22
(ics475_types
FeatureVector
p1259
(dp1260
g25
(dp1261
I2
F16.0
sI3
F3.125
sI4
F1.0
sI5
F1.0
sI7
F1.0
sI8
F0.085
sI9
F1.0
sI10
F1.0
sI11
F1.0
sI13
F1.0
sI15
F6.0
sI16
F1.0
sI21
F1.0
sI31
F1.0
ssbsg27
g0
(g28
g2
Ntp1262
Rp1263
(dp1264
g32
I0
sbsba(ics475_types
Instance
p1265
(dp1266
g22
(ics475_types
FeatureVector
p1267
(dp1268
g25
(dp1269
I2
F23.92
sI3
F0.665
sI4
F1.0
sI5
F1.0
sI6
F1.0
sI7
F1.0
sI8
F0.165
sI9
F1.0
sI13
F1.0
sI14
F100.0
sI16
F1.0
sI20
F1.0
sI21
F1.0
ssbsg27
g0
(g28
g2
Ntp1270
Rp1271
(dp1272
g32
I1
sbsba(ics475_types
Instance
p1273
(dp1274
g22
(ics475_types
FeatureVector
p1275
(dp1276
g25
(dp1277
I1
F1.0
sI2
F58.33
sI3
F10.0
sI4
F1.0
sI5
F1.0
sI7
F1.0
sI8
F4.0
sI10
F1.0
sI11
F14.0
sI13
F1.0
sI15
F1602.0
sI21
F1.0
sI33
F1.0
sI30
F1.0
ssbsg27
g0
(g28
g2
Ntp1278
Rp1279
(dp1280
g32
I1
sbsba(ics475_types
Instance
p1281
(dp1282
g22
(ics475_types
FeatureVector
p1283
(dp1284
g25
(dp1285
I33
F1.0
sI2
F28.75
sI3
F1.5
sI6
F1.0
sI7
F1.0
sI8
F1.5
sI12
F1.0
sI13
F1.0
sI15
F225.0
sI16
F1.0
sI17
F1.0
sI18
F1.0
sI20
F1.0
ssbsg27
g0
(g28
g2
Ntp1286
Rp1287
(dp1288
g32
I0
sbsba(ics475_types
Instance
p1289
(dp1290
g22
(ics475_types
FeatureVector
p1291
(dp1292
g25
(dp1293
I33
F1.0
sI2
F40.92
sI3
F2.25
sI39
F1.0
sI8
F10.0
sI12
F1.0
sI13
F1.0
sI14
F176.0
sI16
F1.0
sI17
F1.0
sI18
F1.0
sI20
F1.0
sI27
F1.0
ssbsg27
g0
(g28
g2
Ntp1294
Rp1295
(dp1296
g32
I0
sbsba(ics475_types
Instance
p1297
(dp1298
g22
(ics475_types
FeatureVector
p1299
(dp1300
g25
(dp1301
I1
F1.0
sI2
F22.67
sI3
F0.335
sI4
F1.0
sI5
F1.0
sI7
F1.0
sI8
F0.75
sI9
F1.0
sI14
F160.0
sI20
F1.0
sI21
F1.0
sI22
F1.0
sI30
F1.0
ssbsg27
g0
(g28
g2
Ntp1302
Rp1303
(dp1304
g32
I0
sbsba(ics475_types
Instance
p1305
(dp1306
g22
(ics475_types
FeatureVector
p1307
(dp1308
g25
(dp1309
I33
F1.0
sI2
F43.0
sI3
F0.29
sI36
F1.0
sI8
F1.75
sI10
F1.0
sI11
F8.0
sI13
F1.0
sI14
F100.0
sI15
F375.0
sI16
F1.0
sI17
F1.0
sI18
F1.0
sI21
F1.0
sI27
F1.0
ssbsg27
g0
(g28
g2
Ntp1310
Rp1311
(dp1312
g32
I1
sbsba(ics475_types
Instance
p1313
(dp1314
g22
(ics475_types
FeatureVector
p1315
(dp1316
g25
(dp1317
I33
F1.0
sI2
F22.75
sI3
F11.0
sI4
F1.0
sI5
F1.0
sI7
F1.0
sI8
F2.5
sI10
F1.0
sI11
F7.0
sI12
F1.0
sI13
F1.0
sI14
F100.0
sI15
F809.0
sI16
F1.0
sI30
F1.0
ssbsg27
g0
(g28
g2
Ntp1318
Rp1319
(dp1320
g32
I1
sbsba(ics475_types
Instance
p1321
(dp1322
g22
(ics475_types
FeatureVector
p1323
(dp1324
g25
(dp1325
I1
F1.0
sI2
F18.42
sI3
F9.25
sI4
F1.0
sI5
F1.0
sI7
F1.0
sI8
F1.21
sI10
F1.0
sI11
F4.0
sI13
F1.0
sI14
F60.0
sI15
F540.0
sI21
F1.0
sI33
F1.0
sI30
F1.0
ssbsg27
g0
(g28
g2
Ntp1326
Rp1327
(dp1328
g32
I1
sbsba(ics475_types
Instance
p1329
(dp1330
g22
(ics475_types
FeatureVector
p1331
(dp1332
g25
(dp1333
I1
F1.0
sI2
F15.83
sI3
F0.585
sI4
F1.0
sI5
F1.0
sI6
F1.0
sI33
F1.0
sI8
F1.5
sI10
F1.0
sI11
F2.0
sI13
F1.0
sI14
F100.0
sI21
F1.0
sI27
F1.0
ssbsg27
g0
(g28
g2
Ntp1334
Rp1335
(dp1336
g32
I1
sbsba(ics475_types
Instance
p1337
(dp1338
g22
(ics475_types
FeatureVector
p1339
(dp1340
g25
(dp1341
I33
F1.0
sI2
F54.33
sI3
F6.75
sI4
F1.0
sI5
F1.0
sI6
F1.0
sI8
F2.625
sI10
F1.0
sI11
F11.0
sI12
F1.0
sI13
F1.0
sI15
F284.0
sI16
F1.0
sI27
F1.0
ssbsg27
g0
(g28
g2
Ntp1342
Rp1343
(dp1344
g32
I1
sbsba(ics475_types
Instance
p1345
(dp1346
g22
(ics475_types
FeatureVector
p1347
(dp1348
g25
(dp1349
I33
F1.0
sI2
F22.58
sI3
F10.04
sI4
F1.0
sI5
F1.0
sI7
F1.0
sI8
F0.04
sI10
F1.0
sI11
F9.0
sI13
F1.0
sI14
F60.0
sI15
F396.0
sI16
F1.0
sI21
F1.0
sI39
F1.0
ssbsg27
g0
(g28
g2
Ntp1350
Rp1351
(dp1352
g32
I1
sbsba(ics475_types
Instance
p1353
(dp1354
g22
(ics475_types
FeatureVector
p1355
(dp1356
g25
(dp1357
I1
F1.0
sI2
F52.83
sI3
F15.0
sI4
F1.0
sI5
F1.0
sI6
F1.0
sI7
F1.0
sI8
F5.5
sI10
F1.0
sI11
F14.0
sI13
F1.0
sI15
F2200.0
sI21
F1.0
sI33
F1.0
ssbsg27
g0
(g28
g2
Ntp1358
Rp1359
(dp1360
g32
I1
sbsba(ics475_types
Instance
p1361
(dp1362
g22
(ics475_types
FeatureVector
p1363
(dp1364
g25
(dp1365
I1
F1.0
sI2
F20.75
sI3
F10.335
sI4
F1.0
sI5
F1.0
sI33
F1.0
sI8
F0.335
sI10
F1.0
sI11
F1.0
sI12
F1.0
sI13
F1.0
sI14
F80.0
sI15
F50.0
sI36
F1.0
sI27
F1.0
ssbsg27
g0
(g28
g2
Ntp1366
Rp1367
(dp1368
g32
I1
sbsba(ics475_types
Instance
p1369
(dp1370
g22
(ics475_types
FeatureVector
p1371
(dp1372
g25
(dp1373
I1
F1.0
sI2
F26.08
sI3
F8.665
sI4
F1.0
sI5
F1.0
sI7
F1.0
sI8
F1.415
sI13
F1.0
sI14
F160.0
sI15
F150.0
sI20
F1.0
sI21
F1.0
sI33
F1.0
sI37
F1.0
ssbsg27
g0
(g28
g2
Ntp1374
Rp1375
(dp1376
g32
I1
sbsba(ics475_types
Instance
p1377
(dp1378
g22
(ics475_types
FeatureVector
p1379
(dp1380
g25
(dp1381
I1
F1.0
sI2
F17.33
sI3
F9.5
sI4
F1.0
sI5
F1.0
sI7
F1.0
sI8
F1.75
sI9
F1.0
sI10
F1.0
sI11
F10.0
sI12
F1.0
sI13
F1.0
sI15
F10.0
sI37
F1.0
ssbsg27
g0
(g28
g2
Ntp1382
Rp1383
(dp1384
g32
I0
sbsba(ics475_types
Instance
p1385
(dp1386
g22
(ics475_types
FeatureVector
p1387
(dp1388
g25
(dp1389
I1
F1.0
sI2
F24.5
sI3
F2.415
sI6
F1.0
sI7
F1.0
sI9
F1.0
sI13
F1.0
sI14
F120.0
sI17
F1.0
sI18
F1.0
sI20
F1.0
sI21
F1.0
ssbsg27
g0
(g28
g2
Ntp1390
Rp1391
(dp1392
g32
I0
sbsba(ics475_types
Instance
p1393
(dp1394
g22
(ics475_types
FeatureVector
p1395
(dp1396
g25
(dp1397
I1
F1.0
sI2
F27.25
sI3
F0.29
sI4
F1.0
sI5
F1.0
sI8
F0.125
sI9
F1.0
sI10
F1.0
sI11
F1.0
sI12
F1.0
sI13
F1.0
sI14
F272.0
sI15
F108.0
sI35
F1.0
sI27
F1.0
ssbsg27
g0
(g28
g2
Ntp1398
Rp1399
(dp1400
g32
I0
sbsba(ics475_types
Instance
p1401
(dp1402
g22
(ics475_types
FeatureVector
p1403
(dp1404
g25
(dp1405
I2
F28.58
sI3
F3.625
sI4
F1.0
sI5
F1.0
sI7
F1.0
sI8
F0.25
sI9
F1.0
sI12
F1.0
sI13
F1.0
sI14
F100.0
sI16
F1.0
sI20
F1.0
sI37
F1.0
ssbsg27
g0
(g28
g2
Ntp1406
Rp1407
(dp1408
g32
I0
sbsba(ics475_types
Instance
p1409
(dp1410
g22
(ics475_types
FeatureVector
p1411
(dp1412
g25
(dp1413
I32
F1.0
sI1
F1.0
sI2
F41.33
sI3
F1.0
sI4
F1.0
sI5
F1.0
sI33
F1.0
sI8
F2.25
sI12
F1.0
sI13
F1.0
sI15
F300.0
sI20
F1.0
sI25
F1.0
ssbsg27
g0
(g28
g2
Ntp1414
Rp1415
(dp1416
g32
I1
sbsba(ics475_types
Instance
p1417
(dp1418
g22
(ics475_types
FeatureVector
p1419
(dp1420
g25
(dp1421
I32
F1.0
sI2
F19.33
sI3
F10.915
sI4
F1.0
sI5
F1.0
sI6
F1.0
sI8
F0.585
sI9
F1.0
sI10
F1.0
sI11
F2.0
sI12
F1.0
sI13
F1.0
sI14
F200.0
sI15
F7.0
sI16
F1.0
ssbsg27
g0
(g28
g2
Ntp1422
Rp1423
(dp1424
g32
I0
sbsba(ics475_types
Instance
p1425
(dp1426
g22
(ics475_types
FeatureVector
p1427
(dp1428
g25
(dp1429
I1
F1.0
sI2
F24.83
sI3
F4.5
sI4
F1.0
sI5
F1.0
sI7
F1.0
sI8
F1.0
sI9
F1.0
sI12
F1.0
sI13
F1.0
sI14
F360.0
sI15
F6.0
sI20
F1.0
sI31
F1.0
ssbsg27
g0
(g28
g2
Ntp1430
Rp1431
(dp1432
g32
I0
sbsba(ics475_types
Instance
p1433
(dp1434
g22
(ics475_types
FeatureVector
p1435
(dp1436
g25
(dp1437
I32
F1.0
sI2
F26.92
sI3
F2.25
sI4
F1.0
sI5
F1.0
sI8
F0.5
sI9
F1.0
sI12
F1.0
sI13
F1.0
sI14
F640.0
sI15
F4000.0
sI16
F1.0
sI20
F1.0
sI25
F1.0
ssbsg27
g0
(g28
g2
Ntp1438
Rp1439
(dp1440
g32
I0
sbsba(ics475_types
Instance
p1441
(dp1442
g22
(ics475_types
FeatureVector
p1443
(dp1444
g25
(dp1445
I33
F1.0
sI2
F27.83
sI3
F4.0
sI8
F5.75
sI10
F1.0
sI11
F2.0
sI12
F1.0
sI13
F1.0
sI14
F75.0
sI16
F1.0
sI17
F1.0
sI18
F1.0
sI25
F1.0
sI27
F1.0
ssbsg27
g0
(g28
g2
Ntp1446
Rp1447
(dp1448
g32
I0
sbsba(ics475_types
Instance
p1449
(dp1450
g22
(ics475_types
FeatureVector
p1451
(dp1452
g25
(dp1453
I2
F29.42
sI3
F1.25
sI4
F1.0
sI5
F1.0
sI7
F1.0
sI8
F1.75
sI9
F1.0
sI13
F1.0
sI14
F200.0
sI16
F1.0
sI20
F1.0
sI21
F1.0
sI31
F1.0
ssbsg27
g0
(g28
g2
Ntp1454
Rp1455
(dp1456
g32
I0
sbsba(ics475_types
Instance
p1457
(dp1458
g22
(ics475_types
FeatureVector
p1459
(dp1460
g25
(dp1461
I2
F41.17
sI3
F1.335
sI4
F1.0
sI5
F1.0
sI7
F1.0
sI8
F0.165
sI9
F1.0
sI13
F1.0
sI14
F168.0
sI16
F1.0
sI34
F1.0
sI20
F1.0
sI21
F1.0
ssbsg27
g0
(g28
g2
Ntp1462
Rp1463
(dp1464
g32
I0
sbsba(ics475_types
Instance
p1465
(dp1466
g22
(ics475_types
FeatureVector
p1467
(dp1468
g25
(dp1469
I2
F20.0
sI34
F1.0
sI4
F1.0
sI5
F1.0
sI7
F1.0
sI8
F0.5
sI9
F1.0
sI13
F1.0
sI14
F144.0
sI16
F1.0
sI20
F1.0
sI21
F1.0
ssbsg27
g0
(g28
g2
Ntp1470
Rp1471
(dp1472
g32
I0
sbsba(ics475_types
Instance
p1473
(dp1474
g22
(ics475_types
FeatureVector
p1475
(dp1476
g25
(dp1477
I1
F1.0
sI2
F28.5
sI3
F1.0
sI4
F1.0
sI5
F1.0
sI7
F1.0
sI8
F1.0
sI10
F1.0
sI11
F2.0
sI12
F1.0
sI13
F1.0
sI14
F167.0
sI15
F500.0
sI33
F1.0
sI30
F1.0
ssbsg27
g0
(g28
g2
Ntp1478
Rp1479
(dp1480
g32
I0
sbsba(ics475_types
Instance
p1481
(dp1482
g22
(ics475_types
FeatureVector
p1483
(dp1484
g25
(dp1485
I1
F1.0
sI2
F22.92
sI3
F1.25
sI4
F1.0
sI5
F1.0
sI7
F1.0
sI8
F0.25
sI9
F1.0
sI12
F1.0
sI13
F1.0
sI14
F120.0
sI15
F809.0
sI20
F1.0
sI30
F1.0
ssbsg27
g0
(g28
g2
Ntp1486
Rp1487
(dp1488
g32
I0
sbsba(ics475_types
Instance
p1489
(dp1490
g22
(ics475_types
FeatureVector
p1491
(dp1492
g25
(dp1493
I1
F1.0
sI2
F58.67
sI3
F4.46
sI4
F1.0
sI5
F1.0
sI33
F1.0
sI8
F3.04
sI10
F1.0
sI11
F6.0
sI13
F1.0
sI14
F43.0
sI15
F560.0
sI21
F1.0
sI27
F1.0
sI30
F1.0
ssbsg27
g0
(g28
g2
Ntp1494
Rp1495
(dp1496
g32
I1
sbsba(ics475_types
Instance
p1497
(dp1498
g22
(ics475_types
FeatureVector
p1499
(dp1500
g25
(dp1501
I33
F1.0
sI2
F23.42
sI3
F0.585
sI4
F1.0
sI5
F1.0
sI6
F1.0
sI8
F0.085
sI13
F1.0
sI14
F180.0
sI16
F1.0
sI20
F1.0
sI21
F1.0
sI27
F1.0
ssbsg27
g0
(g28
g2
Ntp1502
Rp1503
(dp1504
g32
I0
sbsba(ics475_types
Instance
p1505
(dp1506
g22
(ics475_types
FeatureVector
p1507
(dp1508
g25
(dp1509
I1
F1.0
sI2
F16.5
sI3
F1.25
sI4
F1.0
sI5
F1.0
sI7
F1.0
sI8
F0.25
sI9
F1.0
sI10
F1.0
sI11
F1.0
sI13
F1.0
sI14
F108.0
sI15
F98.0
sI21
F1.0
sI30
F1.0
ssbsg27
g0
(g28
g2
Ntp1510
Rp1511
(dp1512
g32
I0
sbsba(ics475_types
Instance
p1513
(dp1514
g22
(ics475_types
FeatureVector
p1515
(dp1516
g25
(dp1517
I1
F1.0
sI2
F21.67
sI3
F11.5
sI33
F1.0
sI10
F1.0
sI11
F11.0
sI12
F1.0
sI13
F1.0
sI17
F1.0
sI18
F1.0
sI28
F1.0
sI29
F1.0
ssbsg27
g0
(g28
g2
Ntp1518
Rp1519
(dp1520
g32
I1
sbsba(ics475_types
Instance
p1521
(dp1522
g22
(ics475_types
FeatureVector
p1523
(dp1524
g25
(dp1525
I1
F1.0
sI2
F22.92
sI3
F11.585
sI4
F1.0
sI5
F1.0
sI7
F1.0
sI8
F0.04
sI13
F1.0
sI14
F80.0
sI15
F1349.0
sI20
F1.0
sI21
F1.0
sI36
F1.0
sI33
F1.0
ssbsg27
g0
(g28
g2
Ntp1526
Rp1527
(dp1528
g32
I1
sbsba(ics475_types
Instance
p1529
(dp1530
g22
(ics475_types
FeatureVector
p1531
(dp1532
g25
(dp1533
I33
F1.0
sI2
F42.5
sI3
F4.915
sI7
F1.0
sI8
F3.165
sI12
F1.0
sI13
F1.0
sI14
F52.0
sI15
F1442.0
sI16
F1.0
sI17
F1.0
sI18
F1.0
sI20
F1.0
sI31
F1.0
ssbsg27
g0
(g28
g2
Ntp1534
Rp1535
(dp1536
g32
I1
sbsba(ics475_types
Instance
p1537
(dp1538
g22
(ics475_types
FeatureVector
p1539
(dp1540
g25
(dp1541
I2
F30.58
sI3
F2.71
sI7
F1.0
sI8
F0.125
sI9
F1.0
sI12
F1.0
sI14
F80.0
sI16
F1.0
sI17
F1.0
sI18
F1.0
sI35
F1.0
sI20
F1.0
sI22
F1.0
ssbsg27
g0
(g28
g2
Ntp1542
Rp1543
(dp1544
g32
I0
sbsba(ics475_types
Instance
p1545
(dp1546
g22
(ics475_types
FeatureVector
p1547
(dp1548
g25
(dp1549
I33
F1.0
sI2
F39.83
sI3
F0.5
sI4
F1.0
sI5
F1.0
sI7
F1.0
sI8
F0.25
sI14
F288.0
sI16
F1.0
sI35
F1.0
sI20
F1.0
sI21
F1.0
sI22
F1.0
ssbsg27
g0
(g28
g2
Ntp1550
Rp1551
(dp1552
g32
I0
sbsba(ics475_types
Instance
p1553
(dp1554
g22
(ics475_types
FeatureVector
p1555
(dp1556
g25
(dp1557
I32
F1.0
sI1
F1.0
sI2
F24.33
sI3
F2.5
sI8
F4.5
sI9
F1.0
sI13
F1.0
sI14
F200.0
sI15
F456.0
sI17
F1.0
sI18
F1.0
sI20
F1.0
sI21
F1.0
sI25
F1.0
ssbsg27
g0
(g28
g2
Ntp1558
Rp1559
(dp1560
g32
I0
sbsba(ics475_types
Instance
p1561
(dp1562
g22
(ics475_types
FeatureVector
p1563
(dp1564
g25
(dp1565
I2
F28.17
sI3
F0.125
sI7
F1.0
sI8
F0.085
sI9
F1.0
sI13
F1.0
sI14
F216.0
sI15
F2100.0
sI16
F1.0
sI17
F1.0
sI18
F1.0
sI19
F1.0
sI20
F1.0
sI21
F1.0
ssbsg27
g0
(g28
g2
Ntp1566
Rp1567
(dp1568
g32
I0
sbsba(ics475_types
Instance
p1569
(dp1570
g22
(ics475_types
FeatureVector
p1571
(dp1572
g25
(dp1573
I2
F23.08
sI3
F2.5
sI4
F1.0
sI5
F1.0
sI8
F0.085
sI9
F1.0
sI12
F1.0
sI13
F1.0
sI14
F100.0
sI15
F4208.0
sI16
F1.0
sI20
F1.0
sI23
F1.0
sI24
F1.0
ssbsg27
g0
(g28
g2
Ntp1574
Rp1575
(dp1576
g32
I0
sbsba(ics475_types
Instance
p1577
(dp1578
g22
(ics475_types
FeatureVector
p1579
(dp1580
g25
(dp1581
I1
F1.0
sI2
F19.5
sI3
F0.165
sI4
F1.0
sI5
F1.0
sI7
F1.0
sI8
F0.04
sI9
F1.0
sI12
F1.0
sI13
F1.0
sI14
F380.0
sI20
F1.0
sI30
F1.0
ssbsg27
g0
(g28
g2
Ntp1582
Rp1583
(dp1584
g32
I0
sbsba(ics475_types
Instance
p1585
(dp1586
g22
(ics475_types
FeatureVector
p1587
(dp1588
g25
(dp1589
I1
F1.0
sI2
F52.5
sI3
F7.0
sI4
F1.0
sI5
F1.0
sI8
F3.0
sI9
F1.0
sI13
F1.0
sI20
F1.0
sI21
F1.0
sI27
F1.0
sI37
F1.0
ssbsg27
g0
(g28
g2
Ntp1590
Rp1591
(dp1592
g32
I0
sbsba(ics475_types
Instance
p1593
(dp1594
g22
(ics475_types
FeatureVector
p1595
(dp1596
g25
(dp1597
I33
F1.0
sI2
F29.25
sI3
F14.79
sI4
F1.0
sI5
F1.0
sI7
F1.0
sI8
F5.04
sI10
F1.0
sI11
F5.0
sI12
F1.0
sI13
F1.0
sI14
F168.0
sI16
F1.0
sI37
F1.0
ssbsg27
g0
(g28
g2
Ntp1598
Rp1599
(dp1600
g32
I1
sbsba(ics475_types
Instance
p1601
(dp1602
g22
(ics475_types
FeatureVector
p1603
(dp1604
g25
(dp1605
I2
F26.17
sI3
F0.835
sI4
F1.0
sI5
F1.0
sI7
F1.0
sI8
F1.165
sI9
F1.0
sI13
F1.0
sI14
F100.0
sI16
F1.0
sI20
F1.0
sI21
F1.0
sI36
F1.0
ssbsg27
g0
(g28
g2
Ntp1606
Rp1607
(dp1608
g32
I0
sbsba(ics475_types
Instance
p1609
(dp1610
g22
(ics475_types
FeatureVector
p1611
(dp1612
g25
(dp1613
I33
F1.0
sI2
F38.58
sI3
F3.335
sI4
F1.0
sI5
F1.0
sI7
F1.0
sI8
F4.0
sI10
F1.0
sI11
F14.0
sI13
F1.0
sI14
F383.0
sI15
F1344.0
sI16
F1.0
sI21
F1.0
sI31
F1.0
ssbsg27
g0
(g28
g2
Ntp1614
Rp1615
(dp1616
g32
I1
sbsba(ics475_types
Instance
p1617
(dp1618
g22
(ics475_types
FeatureVector
p1619
(dp1620
g25
(dp1621
I33
F1.0
sI2
F32.25
sI3
F0.165
sI6
F1.0
sI8
F3.25
sI10
F1.0
sI11
F1.0
sI12
F1.0
sI13
F1.0
sI14
F432.0
sI15
F8000.0
sI16
F1.0
sI17
F1.0
sI18
F1.0
sI27
F1.0
ssbsg27
g0
(g28
g2
Ntp1622
Rp1623
(dp1624
g32
I1
sbsba(ics475_types
Instance
p1625
(dp1626
g22
(ics475_types
FeatureVector
p1627
(dp1628
g25
(dp1629
I2
F32.42
sI3
F2.165
sI9
F1.0
sI13
F1.0
sI14
F120.0
sI16
F1.0
sI17
F1.0
sI18
F1.0
sI19
F1.0
sI20
F1.0
sI21
F1.0
sI24
F1.0
ssbsg27
g0
(g28
g2
Ntp1630
Rp1631
(dp1632
g32
I0
sbsba(ics475_types
Instance
p1633
(dp1634
g22
(ics475_types
FeatureVector
p1635
(dp1636
g25
(dp1637
I33
F1.0
sI2
F20.67
sI3
F1.25
sI6
F1.0
sI8
F1.375
sI10
F1.0
sI11
F3.0
sI12
F1.0
sI13
F1.0
sI14
F140.0
sI15
F210.0
sI16
F1.0
sI17
F1.0
sI18
F1.0
sI27
F1.0
ssbsg27
g0
(g28
g2
Ntp1638
Rp1639
(dp1640
g32
I0
sbsba(ics475_types
Instance
p1641
(dp1642
g22
(ics475_types
FeatureVector
p1643
(dp1644
g25
(dp1645
I33
F1.0
sI2
F39.17
sI3
F1.625
sI4
F1.0
sI5
F1.0
sI6
F1.0
sI7
F1.0
sI8
F1.5
sI10
F1.0
sI11
F10.0
sI13
F1.0
sI14
F186.0
sI15
F4700.0
sI16
F1.0
sI21
F1.0
ssbsg27
g0
(g28
g2
Ntp1646
Rp1647
(dp1648
g32
I1
sbsba(ics475_types
Instance
p1649
(dp1650
g22
(ics475_types
FeatureVector
p1651
(dp1652
g25
(dp1653
I2
F21.17
sI3
F0.25
sI6
F1.0
sI8
F0.25
sI9
F1.0
sI13
F1.0
sI14
F280.0
sI15
F204.0
sI16
F1.0
sI17
F1.0
sI18
F1.0
sI20
F1.0
sI21
F1.0
sI27
F1.0
ssbsg27
g0
(g28
g2
Ntp1654
Rp1655
(dp1656
g32
I0
sbsba(ics475_types
Instance
p1657
(dp1658
g22
(ics475_types
FeatureVector
p1659
(dp1660
g25
(dp1661
I2
F17.08
sI3
F0.25
sI4
F1.0
sI5
F1.0
sI7
F1.0
sI8
F0.335
sI9
F1.0
sI10
F1.0
sI11
F4.0
sI13
F1.0
sI14
F160.0
sI15
F8.0
sI16
F1.0
sI21
F1.0
sI30
F1.0
ssbsg27
g0
(g28
g2
Ntp1662
Rp1663
(dp1664
g32
I0
sbsba(ics475_types
Instance
p1665
(dp1666
g22
(ics475_types
FeatureVector
p1667
(dp1668
g25
(dp1669
I33
F1.0
sI2
F33.17
sI3
F3.04
sI6
F1.0
sI8
F2.04
sI10
F1.0
sI11
F1.0
sI12
F1.0
sI13
F1.0
sI14
F180.0
sI15
F18027.0
sI16
F1.0
sI17
F1.0
sI18
F1.0
sI27
F1.0
ssbsg27
g0
(g28
g2
Ntp1670
Rp1671
(dp1672
g32
I1
sbsba(ics475_types
Instance
p1673
(dp1674
g22
(ics475_types
FeatureVector
p1675
(dp1676
g25
(dp1677
I1
F1.0
sI2
F38.33
sI3
F4.415
sI4
F1.0
sI5
F1.0
sI6
F1.0
sI7
F1.0
sI8
F0.125
sI9
F1.0
sI13
F1.0
sI14
F160.0
sI20
F1.0
sI21
F1.0
ssbsg27
g0
(g28
g2
Ntp1678
Rp1679
(dp1680
g32
I0
sbsba(ics475_types
Instance
p1681
(dp1682
g22
(ics475_types
FeatureVector
p1683
(dp1684
g25
(dp1685
I1
F1.0
sI2
F33.25
sI3
F3.0
sI37
F1.0
sI7
F1.0
sI8
F2.0
sI9
F1.0
sI13
F1.0
sI14
F180.0
sI17
F1.0
sI18
F1.0
sI20
F1.0
sI21
F1.0
ssbsg27
g0
(g28
g2
Ntp1686
Rp1687
(dp1688
g32
I0
sbsba(ics475_types
Instance
p1689
(dp1690
g22
(ics475_types
FeatureVector
p1691
(dp1692
g25
(dp1693
I2
F19.5
sI3
F9.585
sI4
F1.0
sI5
F1.0
sI7
F1.0
sI8
F0.79
sI9
F1.0
sI13
F1.0
sI14
F80.0
sI15
F350.0
sI16
F1.0
sI20
F1.0
sI21
F1.0
sI37
F1.0
ssbsg27
g0
(g28
g2
Ntp1694
Rp1695
(dp1696
g32
I0
sbsba(ics475_types
Instance
p1697
(dp1698
g22
(ics475_types
FeatureVector
p1699
(dp1700
g25
(dp1701
I1
F1.0
sI2
F37.75
sI3
F5.5
sI4
F1.0
sI5
F1.0
sI7
F1.0
sI8
F0.125
sI12
F1.0
sI13
F1.0
sI14
F228.0
sI20
F1.0
sI33
F1.0
sI30
F1.0
ssbsg27
g0
(g28
g2
Ntp1702
Rp1703
(dp1704
g32
I1
sbsba(ics475_types
Instance
p1705
(dp1706
g22
(ics475_types
FeatureVector
p1707
(dp1708
g25
(dp1709
I2
F29.25
sI3
F13.0
sI4
F1.0
sI5
F1.0
sI8
F0.5
sI9
F1.0
sI13
F1.0
sI14
F228.0
sI16
F1.0
sI34
F1.0
sI20
F1.0
sI21
F1.0
sI27
F1.0
ssbsg27
g0
(g28
g2
Ntp1710
Rp1711
(dp1712
g32
I0
sbsba(ics475_types
Instance
p1713
(dp1714
g22
(ics475_types
FeatureVector
p1715
(dp1716
g25
(dp1717
I1
F1.0
sI2
F19.17
sI3
F8.585
sI4
F1.0
sI5
F1.0
sI33
F1.0
sI8
F0.75
sI10
F1.0
sI11
F7.0
sI13
F1.0
sI14
F96.0
sI21
F1.0
sI36
F1.0
sI27
F1.0
ssbsg27
g0
(g28
g2
Ntp1718
Rp1719
(dp1720
g32
I1
sbsba(ics475_types
Instance
p1721
(dp1722
g22
(ics475_types
FeatureVector
p1723
(dp1724
g25
(dp1725
I2
F20.75
sI3
F5.085
sI7
F1.0
sI8
F0.29
sI9
F1.0
sI13
F1.0
sI14
F140.0
sI15
F184.0
sI16
F1.0
sI17
F1.0
sI18
F1.0
sI20
F1.0
sI21
F1.0
sI28
F1.0
ssbsg27
g0
(g28
g2
Ntp1726
Rp1727
(dp1728
g32
I0
sbsba(ics475_types
Instance
p1729
(dp1730
g22
(ics475_types
FeatureVector
p1731
(dp1732
g25
(dp1733
I1
F1.0
sI2
F27.67
sI3
F1.5
sI4
F1.0
sI5
F1.0
sI7
F1.0
sI8
F2.0
sI14
F368.0
sI35
F1.0
sI20
F1.0
sI21
F1.0
sI22
F1.0
sI33
F1.0
ssbsg27
g0
(g28
g2
Ntp1734
Rp1735
(dp1736
g32
I0
sbsba(ics475_types
Instance
p1737
(dp1738
g22
(ics475_types
FeatureVector
p1739
(dp1740
g25
(dp1741
I33
F1.0
sI2
F39.08
sI3
F6.0
sI4
F1.0
sI5
F1.0
sI7
F1.0
sI8
F1.29
sI10
F1.0
sI11
F5.0
sI12
F1.0
sI13
F1.0
sI14
F108.0
sI15
F1097.0
sI16
F1.0
sI35
F1.0
ssbsg27
g0
(g28
g2
Ntp1742
Rp1743
(dp1744
g32
I1
sbsba(ics475_types
Instance
p1745
(dp1746
g22
(ics475_types
FeatureVector
p1747
(dp1748
g25
(dp1749
I33
F1.0
sI2
F52.5
sI3
F6.5
sI4
F1.0
sI5
F1.0
sI7
F1.0
sI8
F6.29
sI10
F1.0
sI11
F15.0
sI13
F1.0
sI15
F11202.0
sI16
F1.0
sI19
F1.0
sI21
F1.0
ssbsg27
g0
(g28
g2
Ntp1750
Rp1751
(dp1752
g32
I1
sbsba(ics475_types
Instance
p1753
(dp1754
g22
(ics475_types
FeatureVector
p1755
(dp1756
g25
(dp1757
I1
F1.0
sI2
F46.67
sI3
F0.46
sI4
F1.0
sI5
F1.0
sI33
F1.0
sI8
F0.415
sI10
F1.0
sI11
F11.0
sI12
F1.0
sI13
F1.0
sI14
F440.0
sI15
F6.0
sI36
F1.0
sI27
F1.0
ssbsg27
g0
(g28
g2
Ntp1758
Rp1759
(dp1760
g32
I1
sbsba(ics475_types
Instance
p1761
(dp1762
g22
(ics475_types
FeatureVector
p1763
(dp1764
g25
(dp1765
I2
F29.83
sI3
F2.04
sI39
F1.0
sI8
F0.04
sI9
F1.0
sI13
F1.0
sI14
F128.0
sI15
F1.0
sI16
F1.0
sI17
F1.0
sI18
F1.0
sI20
F1.0
sI21
F1.0
sI27
F1.0
ssbsg27
g0
(g28
g2
Ntp1766
Rp1767
(dp1768
g32
I0
sbsba(ics475_types
Instance
p1769
(dp1770
g22
(ics475_types
FeatureVector
p1771
(dp1772
g25
(dp1773
I1
F1.0
sI2
F38.25
sI3
F6.0
sI4
F1.0
sI5
F1.0
sI7
F1.0
sI8
F1.0
sI12
F1.0
sI13
F1.0
sI19
F1.0
sI20
F1.0
sI33
F1.0
ssbsg27
g0
(g28
g2
Ntp1774
Rp1775
(dp1776
g32
I1
sbsba(ics475_types
Instance
p1777
(dp1778
g22
(ics475_types
FeatureVector
p1779
(dp1780
g25
(dp1781
I1
F1.0
sI2
F34.83
sI3
F1.25
sI8
F0.5
sI9
F1.0
sI12
F1.0
sI13
F1.0
sI14
F160.0
sI17
F1.0
sI18
F1.0
sI20
F1.0
sI25
F1.0
sI27
F1.0
ssbsg27
g0
(g28
g2
Ntp1782
Rp1783
(dp1784
g32
I0
sbsba(ics475_types
Instance
p1785
(dp1786
g22
(ics475_types
FeatureVector
p1787
(dp1788
g25
(dp1789
I1
F1.0
sI2
F44.33
sI4
F1.0
sI5
F1.0
sI6
F1.0
sI7
F1.0
sI8
F2.5
sI13
F1.0
sI20
F1.0
sI21
F1.0
sI33
F1.0
ssbsg27
g0
(g28
g2
Ntp1790
Rp1791
(dp1792
g32
I1
sbsba(ics475_types
Instance
p1793
(dp1794
g22
(ics475_types
FeatureVector
p1795
(dp1796
g25
(dp1797
I33
F1.0
sI2
F26.75
sI3
F1.125
sI4
F1.0
sI5
F1.0
sI39
F1.0
sI8
F1.25
sI13
F1.0
sI15
F5298.0
sI16
F1.0
sI20
F1.0
sI21
F1.0
sI27
F1.0
ssbsg27
g0
(g28
g2
Ntp1798
Rp1799
(dp1800
g32
I1
sbsba(ics475_types
Instance
p1801
(dp1802
g22
(ics475_types
FeatureVector
p1803
(dp1804
g25
(dp1805
I33
F1.0
sI2
F23.0
sI3
F0.625
sI37
F1.0
sI7
F1.0
sI8
F0.125
sI13
F1.0
sI14
F180.0
sI15
F1.0
sI16
F1.0
sI17
F1.0
sI18
F1.0
sI20
F1.0
sI21
F1.0
ssbsg27
g0
(g28
g2
Ntp1806
Rp1807
(dp1808
g32
I0
sbsba(ics475_types
Instance
p1809
(dp1810
g22
(ics475_types
FeatureVector
p1811
(dp1812
g25
(dp1813
I32
F1.0
sI1
F1.0
sI2
F58.42
sI3
F21.0
sI4
F1.0
sI5
F1.0
sI33
F1.0
sI8
F10.0
sI10
F1.0
sI11
F13.0
sI13
F1.0
sI15
F6700.0
sI21
F1.0
sI25
F1.0
ssbsg27
g0
(g28
g2
Ntp1814
Rp1815
(dp1816
g32
I1
sbsba(ics475_types
Instance
p1817
(dp1818
g22
(ics475_types
FeatureVector
p1819
(dp1820
g25
(dp1821
I1
F1.0
sI2
F28.58
sI3
F1.665
sI4
F1.0
sI5
F1.0
sI7
F1.0
sI8
F2.415
sI12
F1.0
sI13
F1.0
sI14
F440.0
sI20
F1.0
sI33
F1.0
sI30
F1.0
ssbsg27
g0
(g28
g2
Ntp1822
Rp1823
(dp1824
g32
I0
sbsba(ics475_types
Instance
p1825
(dp1826
g22
(ics475_types
FeatureVector
p1827
(dp1828
g25
(dp1829
I2
F20.0
sI3
F7.0
sI4
F1.0
sI5
F1.0
sI6
F1.0
sI7
F1.0
sI8
F0.5
sI9
F1.0
sI13
F1.0
sI16
F1.0
sI20
F1.0
sI21
F1.0
ssbsg27
g0
(g28
g2
Ntp1830
Rp1831
(dp1832
g32
I0
sbsba(ics475_types
Instance
p1833
(dp1834
g22
(ics475_types
FeatureVector
p1835
(dp1836
g25
(dp1837
I1
F1.0
sI2
F48.17
sI3
F1.335
sI4
F1.0
sI5
F1.0
sI8
F0.335
sI9
F1.0
sI13
F1.0
sI15
F120.0
sI20
F1.0
sI21
F1.0
sI25
F1.0
sI26
F1.0
ssbsg27
g0
(g28
g2
Ntp1838
Rp1839
(dp1840
g32
I0
sbsba(ics475_types
Instance
p1841
(dp1842
g22
(ics475_types
FeatureVector
p1843
(dp1844
g25
(dp1845
I33
F1.0
sI2
F22.33
sI3
F11.0
sI4
F1.0
sI5
F1.0
sI7
F1.0
sI8
F2.0
sI10
F1.0
sI11
F1.0
sI13
F1.0
sI14
F80.0
sI15
F278.0
sI16
F1.0
sI21
F1.0
sI31
F1.0
ssbsg27
g0
(g28
g2
Ntp1846
Rp1847
(dp1848
g32
I1
sbsba(ics475_types
Instance
p1849
(dp1850
g22
(ics475_types
FeatureVector
p1851
(dp1852
g25
(dp1853
I2
F21.92
sI3
F0.5
sI4
F1.0
sI5
F1.0
sI6
F1.0
sI7
F1.0
sI8
F0.125
sI9
F1.0
sI13
F1.0
sI14
F360.0
sI16
F1.0
sI20
F1.0
sI21
F1.0
ssbsg27
g0
(g28
g2
Ntp1854
Rp1855
(dp1856
g32
I0
sbsba(ics475_types
Instance
p1857
(dp1858
g22
(ics475_types
FeatureVector
p1859
(dp1860
g25
(dp1861
I1
F1.0
sI2
F23.75
sI3
F0.71
sI4
F1.0
sI5
F1.0
sI7
F1.0
sI8
F0.25
sI9
F1.0
sI10
F1.0
sI11
F1.0
sI12
F1.0
sI13
F1.0
sI14
F240.0
sI15
F4.0
sI31
F1.0
ssbsg27
g0
(g28
g2
Ntp1862
Rp1863
(dp1864
g32
I0
sbsba(ics475_types
Instance
p1865
(dp1866
g22
(ics475_types
FeatureVector
p1867
(dp1868
g25
(dp1869
I33
F1.0
sI2
F33.17
sI3
F1.0
sI4
F1.0
sI5
F1.0
sI7
F1.0
sI8
F0.75
sI10
F1.0
sI11
F7.0
sI12
F1.0
sI13
F1.0
sI14
F340.0
sI15
F4071.0
sI16
F1.0
sI39
F1.0
ssbsg27
g0
(g28
g2
Ntp1870
Rp1871
(dp1872
g32
I1
sbsba(ics475_types
Instance
p1873
(dp1874
g22
(ics475_types
FeatureVector
p1875
(dp1876
g25
(dp1877
I1
F1.0
sI2
F27.33
sI3
F1.665
sI4
F1.0
sI5
F1.0
sI9
F1.0
sI13
F1.0
sI14
F340.0
sI15
F1.0
sI20
F1.0
sI21
F1.0
sI23
F1.0
sI24
F1.0
ssbsg27
g0
(g28
g2
Ntp1878
Rp1879
(dp1880
g32
I0
sbsba(ics475_types
Instance
p1881
(dp1882
g22
(ics475_types
FeatureVector
p1883
(dp1884
g25
(dp1885
I1
F1.0
sI2
F25.25
sI3
F13.5
sI8
F2.0
sI9
F1.0
sI10
F1.0
sI11
F1.0
sI12
F1.0
sI13
F1.0
sI14
F200.0
sI15
F1.0
sI17
F1.0
sI18
F1.0
sI23
F1.0
sI24
F1.0
ssbsg27
g0
(g28
g2
Ntp1886
Rp1887
(dp1888
g32
I0
sbsba(ics475_types
Instance
p1889
(dp1890
g22
(ics475_types
FeatureVector
p1891
(dp1892
g25
(dp1893
I2
F21.83
sI3
F1.54
sI4
F1.0
sI5
F1.0
sI7
F1.0
sI8
F0.085
sI9
F1.0
sI12
F1.0
sI13
F1.0
sI14
F356.0
sI16
F1.0
sI19
F1.0
sI20
F1.0
ssbsg27
g0
(g28
g2
Ntp1894
Rp1895
(dp1896
g32
I0
sbsba(ics475_types
Instance
p1897
(dp1898
g22
(ics475_types
FeatureVector
p1899
(dp1900
g25
(dp1901
I2
F22.08
sI3
F0.83
sI4
F1.0
sI5
F1.0
sI6
F1.0
sI8
F2.165
sI9
F1.0
sI12
F1.0
sI13
F1.0
sI14
F128.0
sI16
F1.0
sI20
F1.0
sI27
F1.0
ssbsg27
g0
(g28
g2
Ntp1902
Rp1903
(dp1904
g32
I1
sbsba(ics475_types
Instance
p1905
(dp1906
g22
(ics475_types
FeatureVector
p1907
(dp1908
g25
(dp1909
I33
F1.0
sI2
F19.33
sI3
F9.5
sI4
F1.0
sI5
F1.0
sI7
F1.0
sI8
F1.0
sI12
F1.0
sI13
F1.0
sI14
F60.0
sI15
F400.0
sI16
F1.0
sI20
F1.0
sI30
F1.0
ssbsg27
g0
(g28
g2
Ntp1910
Rp1911
(dp1912
g32
I1
sbsba(ics475_types
Instance
p1913
(dp1914
g22
(ics475_types
FeatureVector
p1915
(dp1916
g25
(dp1917
I2
F49.17
sI3
F2.29
sI4
F1.0
sI5
F1.0
sI8
F0.29
sI9
F1.0
sI13
F1.0
sI14
F200.0
sI15
F3.0
sI16
F1.0
sI20
F1.0
sI21
F1.0
sI23
F1.0
sI24
F1.0
ssbsg27
g0
(g28
g2
Ntp1918
Rp1919
(dp1920
g32
I0
sbsba(ics475_types
Instance
p1921
(dp1922
g22
(ics475_types
FeatureVector
p1923
(dp1924
g25
(dp1925
I33
F1.0
sI2
F23.08
sI3
F11.5
sI4
F1.0
sI5
F1.0
sI7
F1.0
sI8
F3.5
sI10
F1.0
sI11
F9.0
sI13
F1.0
sI14
F56.0
sI15
F742.0
sI16
F1.0
sI21
F1.0
sI25
F1.0
ssbsg27
g0
(g28
g2
Ntp1926
Rp1927
(dp1928
g32
I1
sbsba(ics475_types
Instance
p1929
(dp1930
g22
(ics475_types
FeatureVector
p1931
(dp1932
g25
(dp1933
I1
F1.0
sI2
F60.58
sI3
F16.5
sI4
F1.0
sI5
F1.0
sI7
F1.0
sI8
F11.0
sI12
F1.0
sI13
F1.0
sI14
F21.0
sI15
F10561.0
sI20
F1.0
sI33
F1.0
sI30
F1.0
ssbsg27
g0
(g28
g2
Ntp1934
Rp1935
(dp1936
g32
I1
sbsba(ics475_types
Instance
p1937
(dp1938
g22
(ics475_types
FeatureVector
p1939
(dp1940
g25
(dp1941
I33
F1.0
sI2
F19.67
sI3
F0.375
sI4
F1.0
sI5
F1.0
sI7
F1.0
sI8
F2.0
sI10
F1.0
sI11
F2.0
sI12
F1.0
sI13
F1.0
sI14
F80.0
sI16
F1.0
sI30
F1.0
ssbsg27
g0
(g28
g2
Ntp1942
Rp1943
(dp1944
g32
I1
sbsba(ics475_types
Instance
p1945
(dp1946
g22
(ics475_types
FeatureVector
p1947
(dp1948
g25
(dp1949
I33
F1.0
sI2
F20.17
sI3
F8.17
sI4
F1.0
sI5
F1.0
sI7
F1.0
sI8
F1.96
sI10
F1.0
sI11
F14.0
sI13
F1.0
sI14
F60.0
sI15
F158.0
sI16
F1.0
sI21
F1.0
sI37
F1.0
ssbsg27
g0
(g28
g2
Ntp1950
Rp1951
(dp1952
g32
I1
sbsba(ics475_types
Instance
p1953
(dp1954
g22
(ics475_types
FeatureVector
p1955
(dp1956
g25
(dp1957
I33
F1.0
sI2
F34.25
sI3
F3.0
sI4
F1.0
sI5
F1.0
sI8
F7.415
sI12
F1.0
sI13
F1.0
sI16
F1.0
sI20
F1.0
sI36
F1.0
sI27
F1.0
ssbsg27
g0
(g28
g2
Ntp1958
Rp1959
(dp1960
g32
I1
sbsba(ics475_types
Instance
p1961
(dp1962
g22
(ics475_types
FeatureVector
p1963
(dp1964
g25
(dp1965
I2
F18.17
sI3
F2.46
sI4
F1.0
sI5
F1.0
sI6
F1.0
sI8
F0.96
sI9
F1.0
sI10
F1.0
sI11
F2.0
sI12
F1.0
sI13
F1.0
sI14
F160.0
sI15
F587.0
sI16
F1.0
sI40
F1.0
ssbsg27
g0
(g28
g2
Ntp1966
Rp1967
(dp1968
g32
I0
sbsba(ics475_types
Instance
p1969
(dp1970
g22
(ics475_types
FeatureVector
p1971
(dp1972
g25
(dp1973
I33
F1.0
sI2
F27.67
sI3
F2.0
sI4
F1.0
sI5
F1.0
sI39
F1.0
sI8
F1.0
sI10
F1.0
sI11
F4.0
sI13
F1.0
sI14
F140.0
sI15
F7544.0
sI16
F1.0
sI21
F1.0
sI27
F1.0
ssbsg27
g0
(g28
g2
Ntp1974
Rp1975
(dp1976
g32
I1
sbsba(ics475_types
Instance
p1977
(dp1978
g22
(ics475_types
FeatureVector
p1979
(dp1980
g25
(dp1981
I33
F1.0
sI2
F36.33
sI3
F2.125
sI7
F1.0
sI8
F0.085
sI10
F1.0
sI11
F1.0
sI13
F1.0
sI14
F50.0
sI15
F1187.0
sI16
F1.0
sI17
F1.0
sI18
F1.0
sI21
F1.0
sI31
F1.0
ssbsg27
g0
(g28
g2
Ntp1982
Rp1983
(dp1984
g32
I1
sbsba(ics475_types
Instance
p1985
(dp1986
g22
(ics475_types
FeatureVector
p1987
(dp1988
g25
(dp1989
I2
F20.0
sI3
F1.25
sI7
F1.0
sI8
F0.125
sI9
F1.0
sI13
F1.0
sI14
F140.0
sI15
F4.0
sI16
F1.0
sI17
F1.0
sI18
F1.0
sI19
F1.0
sI20
F1.0
sI21
F1.0
ssbsg27
g0
(g28
g2
Ntp1990
Rp1991
(dp1992
g32
I0
sbsba(ics475_types
Instance
p1993
(dp1994
g22
(ics475_types
FeatureVector
p1995
(dp1996
g25
(dp1997
I1
F1.0
sI2
F22.67
sI3
F0.75
sI4
F1.0
sI5
F1.0
sI6
F1.0
sI7
F1.0
sI8
F2.0
sI9
F1.0
sI10
F1.0
sI11
F2.0
sI12
F1.0
sI13
F1.0
sI14
F200.0
sI15
F394.0
ssbsg27
g0
(g28
g2
Ntp1998
Rp1999
(dp2000
g32
I0
sbsba(ics475_types
Instance
p2001
(dp2002
g22
(ics475_types
FeatureVector
p2003
(dp2004
g25
(dp2005
I2
F21.42
sI3
F0.75
sI38
F1.0
sI8
F0.75
sI9
F1.0
sI12
F1.0
sI13
F1.0
sI14
F132.0
sI15
F2.0
sI16
F1.0
sI17
F1.0
sI18
F1.0
sI20
F1.0
sI40
F1.0
ssbsg27
g0
(g28
g2
Ntp2006
Rp2007
(dp2008
g32
I0
sbsba(ics475_types
Instance
p2009
(dp2010
g22
(ics475_types
FeatureVector
p2011
(dp2012
g25
(dp2013
I2
F18.0
sI3
F0.165
sI4
F1.0
sI5
F1.0
sI8
F0.21
sI9
F1.0
sI13
F1.0
sI14
F200.0
sI15
F40.0
sI16
F1.0
sI40
F1.0
sI20
F1.0
sI21
F1.0
sI30
F1.0
ssbsg27
g0
(g28
g2
Ntp2014
Rp2015
(dp2016
g32
I1
sbsba(ics475_types
Instance
p2017
(dp2018
g22
(ics475_types
FeatureVector
p2019
(dp2020
g25
(dp2021
I2
F23.5
sI3
F3.165
sI7
F1.0
sI8
F0.415
sI9
F1.0
sI10
F1.0
sI11
F1.0
sI12
F1.0
sI13
F1.0
sI14
F280.0
sI15
F80.0
sI16
F1.0
sI17
F1.0
sI18
F1.0
sI19
F1.0
ssbsg27
g0
(g28
g2
Ntp2022
Rp2023
(dp2024
g32
I0
sbsba(ics475_types
Instance
p2025
(dp2026
g22
(ics475_types
FeatureVector
p2027
(dp2028
g25
(dp2029
I1
F1.0
sI2
F24.75
sI3
F12.5
sI4
F1.0
sI5
F1.0
sI7
F1.0
sI8
F1.5
sI10
F1.0
sI11
F12.0
sI12
F1.0
sI13
F1.0
sI14
F120.0
sI15
F567.0
sI33
F1.0
sI37
F1.0
ssbsg27
g0
(g28
g2
Ntp2030
Rp2031
(dp2032
g32
I1
sbsba(ics475_types
Instance
p2033
(dp2034
g22
(ics475_types
FeatureVector
p2035
(dp2036
g25
(dp2037
I2
F24.08
sI3
F9.0
sI4
F1.0
sI5
F1.0
sI7
F1.0
sI8
F0.25
sI9
F1.0
sI12
F1.0
sI13
F1.0
sI16
F1.0
sI20
F1.0
sI37
F1.0
ssbsg27
g0
(g28
g2
Ntp2038
Rp2039
(dp2040
g32
I0
sbsba(ics475_types
Instance
p2041
(dp2042
g22
(ics475_types
FeatureVector
p2043
(dp2044
g25
(dp2045
I33
F1.0
sI2
F48.58
sI3
F0.205
sI7
F1.0
sI8
F0.25
sI10
F1.0
sI11
F11.0
sI13
F1.0
sI14
F380.0
sI15
F2732.0
sI16
F1.0
sI17
F1.0
sI18
F1.0
sI19
F1.0
sI21
F1.0
ssbsg27
g0
(g28
g2
Ntp2046
Rp2047
(dp2048
g32
I1
sbsba(ics475_types
Instance
p2049
(dp2050
g22
(ics475_types
FeatureVector
p2051
(dp2052
g25
(dp2053
I33
F1.0
sI2
F52.33
sI3
F1.375
sI6
F1.0
sI8
F9.46
sI12
F1.0
sI13
F1.0
sI14
F200.0
sI15
F100.0
sI16
F1.0
sI17
F1.0
sI18
F1.0
sI20
F1.0
sI27
F1.0
ssbsg27
g0
(g28
g2
Ntp2054
Rp2055
(dp2056
g32
I0
sbsba(ics475_types
Instance
p2057
(dp2058
g22
(ics475_types
FeatureVector
p2059
(dp2060
g25
(dp2061
I2
F25.67
sI3
F3.25
sI4
F1.0
sI5
F1.0
sI6
F1.0
sI8
F2.29
sI9
F1.0
sI10
F1.0
sI11
F1.0
sI12
F1.0
sI13
F1.0
sI14
F416.0
sI15
F21.0
sI16
F1.0
sI27
F1.0
ssbsg27
g0
(g28
g2
Ntp2062
Rp2063
(dp2064
g32
I0
sbsba(ics475_types
Instance
p2065
(dp2066
g22
(ics475_types
FeatureVector
p2067
(dp2068
g25
(dp2069
I1
F1.0
sI2
F21.08
sI3
F5.0
sI9
F1.0
sI13
F1.0
sI17
F1.0
sI18
F1.0
sI20
F1.0
sI21
F1.0
sI23
F1.0
sI24
F1.0
ssbsg27
g0
(g28
g2
Ntp2070
Rp2071
(dp2072
g32
I0
sbsba(ics475_types
Instance
p2073
(dp2074
g22
(ics475_types
FeatureVector
p2075
(dp2076
g25
(dp2077
I33
F1.0
sI2
F26.0
sI3
F1.0
sI4
F1.0
sI5
F1.0
sI7
F1.0
sI8
F1.75
sI12
F1.0
sI13
F1.0
sI14
F280.0
sI16
F1.0
sI20
F1.0
sI30
F1.0
ssbsg27
g0
(g28
g2
Ntp2078
Rp2079
(dp2080
g32
I1
sbsba(ics475_types
Instance
p2081
(dp2082
g22
(ics475_types
FeatureVector
p2083
(dp2084
g25
(dp2085
I2
F69.17
sI3
F9.0
sI4
F1.0
sI5
F1.0
sI8
F4.0
sI9
F1.0
sI10
F1.0
sI11
F1.0
sI13
F1.0
sI14
F70.0
sI15
F6.0
sI16
F1.0
sI21
F1.0
sI23
F1.0
sI24
F1.0
ssbsg27
g0
(g28
g2
Ntp2086
Rp2087
(dp2088
g32
I0
sbsba(ics475_types
Instance
p2089
(dp2090
g22
(ics475_types
FeatureVector
p2091
(dp2092
g25
(dp2093
I33
F1.0
sI2
F20.17
sI3
F5.625
sI4
F1.0
sI5
F1.0
sI7
F1.0
sI8
F1.71
sI14
F120.0
sI16
F1.0
sI20
F1.0
sI21
F1.0
sI22
F1.0
sI31
F1.0
ssbsg27
g0
(g28
g2
Ntp2094
Rp2095
(dp2096
g32
I1
sbsba(ics475_types
Instance
p2097
(dp2098
g22
(ics475_types
FeatureVector
p2099
(dp2100
g25
(dp2101
I33
F1.0
sI2
F25.67
sI3
F12.5
sI4
F1.0
sI5
F1.0
sI7
F1.0
sI8
F1.21
sI10
F1.0
sI11
F67.0
sI12
F1.0
sI13
F1.0
sI14
F140.0
sI15
F258.0
sI16
F1.0
sI36
F1.0
ssbsg27
g0
(g28
g2
Ntp2102
Rp2103
(dp2104
g32
I1
sbsba(ics475_types
Instance
p2105
(dp2106
g22
(ics475_types
FeatureVector
p2107
(dp2108
g25
(dp2109
I1
F1.0
sI2
F20.33
sI3
F10.0
sI4
F1.0
sI5
F1.0
sI6
F1.0
sI33
F1.0
sI8
F1.0
sI10
F1.0
sI11
F4.0
sI13
F1.0
sI14
F50.0
sI15
F1465.0
sI21
F1.0
sI27
F1.0
ssbsg27
g0
(g28
g2
Ntp2110
Rp2111
(dp2112
g32
I1
sbsba(ics475_types
Instance
p2113
(dp2114
g22
(ics475_types
FeatureVector
p2115
(dp2116
g25
(dp2117
I2
F74.83
sI3
F19.0
sI8
F0.04
sI9
F1.0
sI10
F1.0
sI11
F2.0
sI13
F1.0
sI15
F351.0
sI16
F1.0
sI17
F1.0
sI18
F1.0
sI21
F1.0
sI23
F1.0
sI24
F1.0
ssbsg27
g0
(g28
g2
Ntp2118
Rp2119
(dp2120
g32
I0
sbsba(ics475_types
Instance
p2121
(dp2122
g22
(ics475_types
FeatureVector
p2123
(dp2124
g25
(dp2125
I32
F1.0
sI33
F1.0
sI2
F32.33
sI3
F7.5
sI4
F1.0
sI5
F1.0
sI8
F1.585
sI41
F1.0
sI12
F1.0
sI14
F420.0
sI16
F1.0
sI20
F1.0
sI22
F1.0
ssbsg27
g0
(g28
g2
Ntp2126
Rp2127
(dp2128
g32
I0
sbsba(ics475_types
Instance
p2129
(dp2130
g22
(ics475_types
FeatureVector
p2131
(dp2132
g25
(dp2133
I2
F35.17
sI3
F4.5
sI4
F1.0
sI5
F1.0
sI39
F1.0
sI8
F5.75
sI9
F1.0
sI12
F1.0
sI14
F711.0
sI16
F1.0
sI20
F1.0
sI22
F1.0
sI27
F1.0
ssbsg27
g0
(g28
g2
Ntp2134
Rp2135
(dp2136
g32
I1
sbsba(ics475_types
Instance
p2137
(dp2138
g22
(ics475_types
FeatureVector
p2139
(dp2140
g25
(dp2141
I33
F1.0
sI2
F27.83
sI3
F1.5
sI4
F1.0
sI5
F1.0
sI7
F1.0
sI8
F2.0
sI10
F1.0
sI11
F11.0
sI12
F1.0
sI13
F1.0
sI14
F434.0
sI15
F35.0
sI16
F1.0
sI31
F1.0
ssbsg27
g0
(g28
g2
Ntp2142
Rp2143
(dp2144
g32
I1
sbsba(ics475_types
Instance
p2145
(dp2146
g22
(ics475_types
FeatureVector
p2147
(dp2148
g25
(dp2149
I2
F42.83
sI3
F1.25
sI4
F1.0
sI5
F1.0
sI7
F1.0
sI8
F13.875
sI9
F1.0
sI10
F1.0
sI11
F1.0
sI12
F1.0
sI13
F1.0
sI14
F352.0
sI15
F112.0
sI16
F1.0
sI35
F1.0
ssbsg27
g0
(g28
g2
Ntp2150
Rp2151
(dp2152
g32
I0
sbsba(ics475_types
Instance
p2153
(dp2154
g22
(ics475_types
FeatureVector
p2155
(dp2156
g25
(dp2157
I1
F1.0
sI2
F56.5
sI3
F16.0
sI4
F1.0
sI5
F1.0
sI33
F1.0
sI10
F1.0
sI11
F15.0
sI13
F1.0
sI15
F247.0
sI21
F1.0
sI24
F1.0
sI28
F1.0
ssbsg27
g0
(g28
g2
Ntp2158
Rp2159
(dp2160
g32
I1
sbsba(ics475_types
Instance
p2161
(dp2162
g22
(ics475_types
FeatureVector
p2163
(dp2164
g25
(dp2165
I2
F26.75
sI3
F2.0
sI4
F1.0
sI5
F1.0
sI7
F1.0
sI8
F0.75
sI9
F1.0
sI12
F1.0
sI13
F1.0
sI14
F80.0
sI16
F1.0
sI34
F1.0
sI20
F1.0
ssbsg27
g0
(g28
g2
Ntp2166
Rp2167
(dp2168
g32
I0
sbsba(ics475_types
Instance
p2169
(dp2170
g22
(ics475_types
FeatureVector
p2171
(dp2172
g25
(dp2173
I2
F33.67
sI3
F1.25
sI4
F1.0
sI5
F1.0
sI7
F1.0
sI8
F1.165
sI9
F1.0
sI13
F1.0
sI14
F120.0
sI16
F1.0
sI20
F1.0
sI21
F1.0
sI31
F1.0
ssbsg27
g0
(g28
g2
Ntp2174
Rp2175
(dp2176
g32
I0
sbsba(ics475_types
Instance
p2177
(dp2178
g22
(ics475_types
FeatureVector
p2179
(dp2180
g25
(dp2181
I1
F1.0
sI2
F57.58
sI3
F2.0
sI4
F1.0
sI5
F1.0
sI8
F6.5
sI9
F1.0
sI10
F1.0
sI11
F1.0
sI13
F1.0
sI15
F10.0
sI21
F1.0
sI23
F1.0
sI24
F1.0
ssbsg27
g0
(g28
g2
Ntp2182
Rp2183
(dp2184
g32
I0
sbsba(ics475_types
Instance
p2185
(dp2186
g22
(ics475_types
FeatureVector
p2187
(dp2188
g25
(dp2189
I1
F1.0
sI2
F16.0
sI3
F0.165
sI4
F1.0
sI5
F1.0
sI7
F1.0
sI8
F1.0
sI9
F1.0
sI10
F1.0
sI11
F2.0
sI12
F1.0
sI13
F1.0
sI14
F320.0
sI15
F1.0
sI37
F1.0
ssbsg27
g0
(g28
g2
Ntp2190
Rp2191
(dp2192
g32
I0
sbsba(ics475_types
Instance
p2193
(dp2194
g22
(ics475_types
FeatureVector
p2195
(dp2196
g25
(dp2197
I32
F1.0
sI2
F48.08
sI3
F3.75
sI4
F1.0
sI5
F1.0
sI8
F1.0
sI9
F1.0
sI13
F1.0
sI14
F100.0
sI15
F2.0
sI16
F1.0
sI20
F1.0
sI21
F1.0
sI25
F1.0
ssbsg27
g0
(g28
g2
Ntp2198
Rp2199
(dp2200
g32
I0
sbsba(ics475_types
Instance
p2201
(dp2202
g22
(ics475_types
FeatureVector
p2203
(dp2204
g25
(dp2205
I33
F1.0
sI2
F25.08
sI3
F1.71
sI4
F1.0
sI5
F1.0
sI7
F1.0
sI8
F1.665
sI10
F1.0
sI11
F1.0
sI12
F1.0
sI13
F1.0
sI14
F395.0
sI15
F20.0
sI16
F1.0
sI39
F1.0
ssbsg27
g0
(g28
g2
Ntp2206
Rp2207
(dp2208
g32
I1
sbsba(ics475_types
Instance
p2209
(dp2210
g22
(ics475_types
FeatureVector
p2211
(dp2212
g25
(dp2213
I1
F1.0
sI2
F19.17
sI3
F0.585
sI33
F1.0
sI7
F1.0
sI8
F0.585
sI12
F1.0
sI13
F1.0
sI14
F160.0
sI17
F1.0
sI18
F1.0
sI20
F1.0
sI37
F1.0
ssbsg27
g0
(g28
g2
Ntp2214
Rp2215
(dp2216
g32
I0
sbsba(ics475_types
Instance
p2217
(dp2218
g22
(ics475_types
FeatureVector
p2219
(dp2220
g25
(dp2221
I1
F1.0
sI2
F19.67
sI3
F0.21
sI4
F1.0
sI5
F1.0
sI33
F1.0
sI8
F0.29
sI10
F1.0
sI11
F11.0
sI13
F1.0
sI14
F80.0
sI15
F99.0
sI21
F1.0
sI27
F1.0
sI30
F1.0
ssbsg27
g0
(g28
g2
Ntp2222
Rp2223
(dp2224
g32
I1
sbsba(ics475_types
Instance
p2225
(dp2226
g22
(ics475_types
FeatureVector
p2227
(dp2228
g25
(dp2229
I33
F1.0
sI2
F56.42
sI3
F28.0
sI6
F1.0
sI7
F1.0
sI8
F28.5
sI10
F1.0
sI11
F40.0
sI13
F1.0
sI15
F15.0
sI16
F1.0
sI17
F1.0
sI18
F1.0
sI21
F1.0
ssbsg27
g0
(g28
g2
Ntp2230
Rp2231
(dp2232
g32
I1
sbsba(ics475_types
Instance
p2233
(dp2234
g22
(ics475_types
FeatureVector
p2235
(dp2236
g25
(dp2237
I33
F1.0
sI2
F28.75
sI3
F1.165
sI4
F1.0
sI5
F1.0
sI7
F1.0
sI8
F0.5
sI14
F280.0
sI16
F1.0
sI19
F1.0
sI20
F1.0
sI21
F1.0
sI22
F1.0
ssbsg27
g0
(g28
g2
Ntp2238
Rp2239
(dp2240
g32
I0
sbsba(ics475_types
Instance
p2241
(dp2242
g22
(ics475_types
FeatureVector
p2243
(dp2244
g25
(dp2245
I2
F36.5
sI3
F4.25
sI4
F1.0
sI5
F1.0
sI7
F1.0
sI8
F3.5
sI9
F1.0
sI13
F1.0
sI14
F454.0
sI15
F50.0
sI16
F1.0
sI20
F1.0
sI21
F1.0
sI30
F1.0
ssbsg27
g0
(g28
g2
Ntp2246
Rp2247
(dp2248
g32
I0
sbsba(ics475_types
Instance
p2249
(dp2250
g22
(ics475_types
FeatureVector
p2251
(dp2252
g25
(dp2253
I33
F1.0
sI2
F24.42
sI3
F12.335
sI4
F1.0
sI5
F1.0
sI8
F1.585
sI12
F1.0
sI13
F1.0
sI14
F120.0
sI16
F1.0
sI20
F1.0
sI27
F1.0
sI30
F1.0
ssbsg27
g0
(g28
g2
Ntp2254
Rp2255
(dp2256
g32
I1
sbsba(ics475_types
Instance
p2257
(dp2258
g22
(ics475_types
FeatureVector
p2259
(dp2260
g25
(dp2261
I2
F62.75
sI3
F7.0
sI4
F1.0
sI5
F1.0
sI9
F1.0
sI42
F1.0
sI13
F1.0
sI15
F12.0
sI16
F1.0
sI20
F1.0
sI21
F1.0
sI41
F1.0
ssbsg27
g0
(g28
g2
Ntp2262
Rp2263
(dp2264
g32
I0
sbsba(ics475_types
Instance
p2265
(dp2266
g22
(ics475_types
FeatureVector
p2267
(dp2268
g25
(dp2269
I1
F1.0
sI2
F15.83
sI3
F7.625
sI4
F1.0
sI5
F1.0
sI7
F1.0
sI8
F0.125
sI9
F1.0
sI10
F1.0
sI11
F1.0
sI12
F1.0
sI13
F1.0
sI15
F160.0
sI30
F1.0
ssbsg27
g0
(g28
g2
Ntp2270
Rp2271
(dp2272
g32
I0
sbsba(ics475_types
Instance
p2273
(dp2274
g22
(ics475_types
FeatureVector
p2275
(dp2276
g25
(dp2277
I32
F1.0
sI1
F1.0
sI2
F51.92
sI3
F6.5
sI4
F1.0
sI5
F1.0
sI8
F3.085
sI9
F1.0
sI12
F1.0
sI13
F1.0
sI14
F73.0
sI20
F1.0
sI25
F1.0
ssbsg27
g0
(g28
g2
Ntp2278
Rp2279
(dp2280
g32
I0
sbsba(ics475_types
Instance
p2281
(dp2282
g22
(ics475_types
FeatureVector
p2283
(dp2284
g25
(dp2285
I1
F1.0
sI2
F26.58
sI3
F2.54
sI9
F1.0
sI12
F1.0
sI13
F1.0
sI14
F180.0
sI15
F60.0
sI17
F1.0
sI18
F1.0
sI20
F1.0
sI23
F1.0
sI24
F1.0
ssbsg27
g0
(g28
g2
Ntp2286
Rp2287
(dp2288
g32
I0
sbsba(ics475_types
Instance
p2289
(dp2290
g22
(ics475_types
FeatureVector
p2291
(dp2292
g25
(dp2293
I33
F1.0
sI2
F44.33
sI3
F0.5
sI4
F1.0
sI5
F1.0
sI8
F5.0
sI12
F1.0
sI13
F1.0
sI14
F320.0
sI16
F1.0
sI20
F1.0
sI25
F1.0
sI27
F1.0
ssbsg27
g0
(g28
g2
Ntp2294
Rp2295
(dp2296
g32
I1
sbsba(ics475_types
Instance
p2297
(dp2298
g22
(ics475_types
FeatureVector
p2299
(dp2300
g25
(dp2301
I1
F1.0
sI2
F29.5
sI3
F1.085
sI7
F1.0
sI8
F1.0
sI9
F1.0
sI39
F1.0
sI13
F1.0
sI14
F280.0
sI15
F13.0
sI17
F1.0
sI18
F1.0
sI20
F1.0
sI21
F1.0
ssbsg27
g0
(g28
g2
Ntp2302
Rp2303
(dp2304
g32
I0
sbsba(ics475_types
Instance
p2305
(dp2306
g22
(ics475_types
FeatureVector
p2307
(dp2308
g25
(dp2309
I2
F20.67
sI3
F0.835
sI6
F1.0
sI7
F1.0
sI8
F2.0
sI9
F1.0
sI12
F1.0
sI14
F240.0
sI16
F1.0
sI17
F1.0
sI18
F1.0
sI20
F1.0
sI22
F1.0
ssbsg27
g0
(g28
g2
Ntp2310
Rp2311
(dp2312
g32
I0
sbsba(ics475_types
Instance
p2313
(dp2314
g22
(ics475_types
FeatureVector
p2315
(dp2316
g25
(dp2317
I32
F1.0
sI33
F1.0
sI2
F42.75
sI3
F3.0
sI4
F1.0
sI5
F1.0
sI8
F1.0
sI13
F1.0
sI15
F200.0
sI16
F1.0
sI20
F1.0
sI21
F1.0
sI25
F1.0
ssbsg27
g0
(g28
g2
Ntp2318
Rp2319
(dp2320
g32
I0
sbsba(ics475_types
Instance
p2321
(dp2322
g22
(ics475_types
FeatureVector
p2323
(dp2324
g25
(dp2325
I33
F1.0
sI2
F24.17
sI3
F0.875
sI4
F1.0
sI5
F1.0
sI7
F1.0
sI8
F4.625
sI10
F1.0
sI11
F2.0
sI12
F1.0
sI13
F1.0
sI14
F520.0
sI15
F2000.0
sI16
F1.0
sI30
F1.0
ssbsg27
g0
(g28
g2
Ntp2326
Rp2327
(dp2328
g32
I1
sbsba(ics475_types
Instance
p2329
(dp2330
g22
(ics475_types
FeatureVector
p2331
(dp2332
g25
(dp2333
I33
F1.0
sI2
F60.08
sI3
F14.5
sI4
F1.0
sI5
F1.0
sI8
F18.0
sI10
F1.0
sI11
F15.0
sI12
F1.0
sI13
F1.0
sI15
F1000.0
sI16
F1.0
sI23
F1.0
sI24
F1.0
ssbsg27
g0
(g28
g2
Ntp2334
Rp2335
(dp2336
g32
I1
sbsba(ics475_types
Instance
p2337
(dp2338
g22
(ics475_types
FeatureVector
p2339
(dp2340
g25
(dp2341
I33
F1.0
sI2
F34.08
sI3
F6.5
sI4
F1.0
sI5
F1.0
sI7
F1.0
sI8
F0.125
sI12
F1.0
sI13
F1.0
sI14
F443.0
sI16
F1.0
sI20
F1.0
sI37
F1.0
ssbsg27
g0
(g28
g2
Ntp2342
Rp2343
(dp2344
g32
I0
sbsba(ics475_types
Instance
p2345
(dp2346
g22
(ics475_types
FeatureVector
p2347
(dp2348
g25
(dp2349
I32
F1.0
sI2
F34.0
sI3
F5.085
sI8
F1.085
sI9
F1.0
sI12
F1.0
sI13
F1.0
sI14
F480.0
sI16
F1.0
sI17
F1.0
sI18
F1.0
sI20
F1.0
sI25
F1.0
ssbsg27
g0
(g28
g2
Ntp2350
Rp2351
(dp2352
g32
I0
sbsba(ics475_types
Instance
p2353
(dp2354
g22
(ics475_types
FeatureVector
p2355
(dp2356
g25
(dp2357
I33
F1.0
sI2
F41.75
sI3
F0.96
sI4
F1.0
sI5
F1.0
sI7
F1.0
sI8
F2.5
sI39
F1.0
sI13
F1.0
sI14
F510.0
sI15
F600.0
sI16
F1.0
sI20
F1.0
sI21
F1.0
ssbsg27
g0
(g28
g2
Ntp2358
Rp2359
(dp2360
g32
I1
sbsba(ics475_types
Instance
p2361
(dp2362
g22
(ics475_types
FeatureVector
p2363
(dp2364
g25
(dp2365
I33
F1.0
sI2
F19.42
sI3
F6.5
sI4
F1.0
sI5
F1.0
sI8
F1.46
sI10
F1.0
sI11
F7.0
sI13
F1.0
sI14
F80.0
sI15
F2954.0
sI16
F1.0
sI21
F1.0
sI27
F1.0
sI31
F1.0
ssbsg27
g0
(g28
g2
Ntp2366
Rp2367
(dp2368
g32
I1
sbsba(ics475_types
Instance
p2369
(dp2370
g22
(ics475_types
FeatureVector
p2371
(dp2372
g25
(dp2373
I1
F1.0
sI2
F25.33
sI3
F2.085
sI4
F1.0
sI5
F1.0
sI6
F1.0
sI33
F1.0
sI8
F2.75
sI12
F1.0
sI13
F1.0
sI14
F360.0
sI15
F1.0
sI20
F1.0
sI27
F1.0
ssbsg27
g0
(g28
g2
Ntp2374
Rp2375
(dp2376
g32
I0
sbsba(ics475_types
Instance
p2377
(dp2378
g22
(ics475_types
FeatureVector
p2379
(dp2380
g25
(dp2381
I33
F1.0
sI2
F30.17
sI3
F0.5
sI4
F1.0
sI5
F1.0
sI6
F1.0
sI7
F1.0
sI8
F1.75
sI10
F1.0
sI11
F11.0
sI13
F1.0
sI14
F32.0
sI15
F540.0
sI16
F1.0
sI21
F1.0
ssbsg27
g0
(g28
g2
Ntp2382
Rp2383
(dp2384
g32
I1
sbsba(ics475_types
Instance
p2385
(dp2386
g22
(ics475_types
FeatureVector
p2387
(dp2388
g25
(dp2389
I2
F32.92
sI3
F2.5
sI4
F1.0
sI5
F1.0
sI7
F1.0
sI8
F1.75
sI9
F1.0
sI10
F1.0
sI11
F2.0
sI12
F1.0
sI13
F1.0
sI14
F720.0
sI16
F1.0
sI37
F1.0
ssbsg27
g0
(g28
g2
Ntp2390
Rp2391
(dp2392
g32
I0
sbsba(ics475_types
Instance
p2393
(dp2394
g22
(ics475_types
FeatureVector
p2395
(dp2396
g25
(dp2397
I2
F34.0
sI3
F5.5
sI6
F1.0
sI7
F1.0
sI8
F1.5
sI9
F1.0
sI12
F1.0
sI13
F1.0
sI14
F60.0
sI16
F1.0
sI17
F1.0
sI18
F1.0
sI20
F1.0
ssbsg27
g0
(g28
g2
Ntp2398
Rp2399
(dp2400
g32
I0
sbsba(ics475_types
Instance
p2401
(dp2402
g22
(ics475_types
FeatureVector
p2403
(dp2404
g25
(dp2405
I33
F1.0
sI2
F45.0
sI3
F8.5
sI4
F1.0
sI5
F1.0
sI8
F14.0
sI10
F1.0
sI11
F1.0
sI12
F1.0
sI13
F1.0
sI14
F88.0
sI15
F2000.0
sI16
F1.0
sI36
F1.0
sI27
F1.0
ssbsg27
g0
(g28
g2
Ntp2406
Rp2407
(dp2408
g32
I1
sbsba(ics475_types
Instance
p2409
(dp2410
g22
(ics475_types
FeatureVector
p2411
(dp2412
g25
(dp2413
I2
F17.5
sI3
F22.0
sI9
F1.0
sI12
F1.0
sI45
F1.0
sI14
F450.0
sI15
F100000.0
sI16
F1.0
sI20
F1.0
sI46
F1.0
sI23
F1.0
sI26
F1.0
sI44
F1.0
ssbsg27
g0
(g28
g2
Ntp2414
Rp2415
(dp2416
g32
I1
sbsba(ics475_types
Instance
p2417
(dp2418
g22
(ics475_types
FeatureVector
p2419
(dp2420
g25
(dp2421
I1
F1.0
sI2
F23.5
sI3
F9.0
sI4
F1.0
sI5
F1.0
sI7
F1.0
sI8
F8.5
sI10
F1.0
sI11
F5.0
sI12
F1.0
sI13
F1.0
sI14
F120.0
sI33
F1.0
sI30
F1.0
ssbsg27
g0
(g28
g2
Ntp2422
Rp2423
(dp2424
g32
I1
sbsba(ics475_types
Instance
p2425
(dp2426
g22
(ics475_types
FeatureVector
p2427
(dp2428
g25
(dp2429
I1
F1.0
sI2
F22.42
sI3
F5.665
sI4
F1.0
sI5
F1.0
sI7
F1.0
sI8
F2.585
sI10
F1.0
sI11
F7.0
sI13
F1.0
sI14
F129.0
sI15
F3257.0
sI21
F1.0
sI33
F1.0
sI30
F1.0
ssbsg27
g0
(g28
g2
Ntp2430
Rp2431
(dp2432
g32
I1
sbsba(ics475_types
Instance
p2433
(dp2434
g22
(ics475_types
FeatureVector
p2435
(dp2436
g25
(dp2437
I2
F41.0
sI3
F0.04
sI4
F1.0
sI5
F1.0
sI7
F1.0
sI8
F0.04
sI9
F1.0
sI10
F1.0
sI11
F1.0
sI14
F560.0
sI16
F1.0
sI21
F1.0
sI22
F1.0
sI41
F1.0
ssbsg27
g0
(g28
g2
Ntp2438
Rp2439
(dp2440
g32
I1
sbsba(ics475_types
Instance
p2441
(dp2442
g22
(ics475_types
FeatureVector
p2443
(dp2444
g25
(dp2445
I33
F1.0
sI2
F41.17
sI3
F4.04
sI4
F1.0
sI5
F1.0
sI8
F7.0
sI10
F1.0
sI11
F8.0
sI13
F1.0
sI14
F320.0
sI16
F1.0
sI21
F1.0
sI36
F1.0
sI27
F1.0
ssbsg27
g0
(g28
g2
Ntp2446
Rp2447
(dp2448
g32
I1
sbsba(ics475_types
Instance
p2449
(dp2450
g22
(ics475_types
FeatureVector
p2451
(dp2452
g25
(dp2453
I1
F1.0
sI2
F24.75
sI3
F13.665
sI4
F1.0
sI5
F1.0
sI8
F1.5
sI9
F1.0
sI13
F1.0
sI14
F280.0
sI15
F1.0
sI20
F1.0
sI21
F1.0
sI27
F1.0
sI30
F1.0
ssbsg27
g0
(g28
g2
Ntp2454
Rp2455
(dp2456
g32
I0
sbsba(ics475_types
Instance
p2457
(dp2458
g22
(ics475_types
FeatureVector
p2459
(dp2460
g25
(dp2461
I33
F1.0
sI2
F41.42
sI3
F5.0
sI4
F1.0
sI5
F1.0
sI8
F5.0
sI10
F1.0
sI11
F6.0
sI12
F1.0
sI13
F1.0
sI14
F470.0
sI16
F1.0
sI27
F1.0
sI30
F1.0
ssbsg27
g0
(g28
g2
Ntp2462
Rp2463
(dp2464
g32
I1
sbsba(ics475_types
Instance
p2465
(dp2466
g22
(ics475_types
FeatureVector
p2467
(dp2468
g25
(dp2469
I33
F1.0
sI2
F48.17
sI3
F3.5
sI4
F1.0
sI5
F1.0
sI7
F1.0
sI8
F3.5
sI14
F230.0
sI16
F1.0
sI20
F1.0
sI21
F1.0
sI22
F1.0
sI37
F1.0
ssbsg27
g0
(g28
g2
Ntp2470
Rp2471
(dp2472
g32
I1
sbsba(ics475_types
Instance
p2473
(dp2474
g22
(ics475_types
FeatureVector
p2475
(dp2476
g25
(dp2477
I32
F1.0
sI2
F36.17
sI3
F5.5
sI4
F1.0
sI5
F1.0
sI8
F5.0
sI9
F1.0
sI13
F1.0
sI14
F210.0
sI15
F687.0
sI16
F1.0
sI20
F1.0
sI21
F1.0
sI25
F1.0
ssbsg27
g0
(g28
g2
Ntp2478
Rp2479
(dp2480
g32
I0
sbsba(ics475_types
Instance
p2481
(dp2482
g22
(ics475_types
FeatureVector
p2483
(dp2484
g25
(dp2485
I2
F24.58
sI3
F1.25
sI4
F1.0
sI5
F1.0
sI6
F1.0
sI7
F1.0
sI8
F0.25
sI9
F1.0
sI13
F1.0
sI14
F110.0
sI16
F1.0
sI20
F1.0
sI21
F1.0
ssbsg27
g0
(g28
g2
Ntp2486
Rp2487
(dp2488
g32
I0
sbsba(ics475_types
Instance
p2489
(dp2490
g22
(ics475_types
FeatureVector
p2491
(dp2492
g25
(dp2493
I1
F1.0
sI2
F52.17
sI9
F1.0
sI13
F1.0
sI17
F1.0
sI18
F1.0
sI20
F1.0
sI21
F1.0
sI23
F1.0
sI24
F1.0
ssbsg27
g0
(g28
g2
Ntp2494
Rp2495
(dp2496
g32
I0
sbsba(ics475_types
Instance
p2497
(dp2498
g22
(ics475_types
FeatureVector
p2499
(dp2500
g25
(dp2501
I1
F1.0
sI2
F18.25
sI3
F10.0
sI4
F1.0
sI5
F1.0
sI7
F1.0
sI8
F1.0
sI9
F1.0
sI10
F1.0
sI11
F1.0
sI13
F1.0
sI14
F120.0
sI15
F1.0
sI21
F1.0
sI31
F1.0
ssbsg27
g0
(g28
g2
Ntp2502
Rp2503
(dp2504
g32
I0
sbsba(ics475_types
Instance
p2505
(dp2506
g22
(ics475_types
FeatureVector
p2507
(dp2508
g25
(dp2509
I33
F1.0
sI2
F54.58
sI3
F9.415
sI4
F1.0
sI5
F1.0
sI8
F14.415
sI10
F1.0
sI11
F11.0
sI12
F1.0
sI13
F1.0
sI14
F30.0
sI15
F300.0
sI16
F1.0
sI23
F1.0
sI24
F1.0
ssbsg27
g0
(g28
g2
Ntp2510
Rp2511
(dp2512
g32
I1
sbsba(ics475_types
Instance
p2513
(dp2514
g22
(ics475_types
FeatureVector
p2515
(dp2516
g25
(dp2517
I2
F17.67
sI3
F4.46
sI4
F1.0
sI5
F1.0
sI6
F1.0
sI7
F1.0
sI8
F0.25
sI9
F1.0
sI14
F80.0
sI16
F1.0
sI20
F1.0
sI21
F1.0
sI22
F1.0
ssbsg27
g0
(g28
g2
Ntp2518
Rp2519
(dp2520
g32
I0
sbsba(ics475_types
Instance
p2521
(dp2522
g22
(ics475_types
FeatureVector
p2523
(dp2524
g25
(dp2525
I33
F1.0
sI2
F27.0
sI3
F0.75
sI4
F1.0
sI5
F1.0
sI6
F1.0
sI8
F4.25
sI10
F1.0
sI11
F3.0
sI12
F1.0
sI13
F1.0
sI14
F312.0
sI15
F150.0
sI16
F1.0
sI27
F1.0
ssbsg27
g0
(g28
g2
Ntp2526
Rp2527
(dp2528
g32
I1
sbsba(ics475_types
Instance
p2529
(dp2530
g22
(ics475_types
FeatureVector
p2531
(dp2532
g25
(dp2533
I33
F1.0
sI2
F59.5
sI3
F2.75
sI4
F1.0
sI5
F1.0
sI7
F1.0
sI8
F1.75
sI10
F1.0
sI11
F5.0
sI12
F1.0
sI13
F1.0
sI14
F60.0
sI15
F58.0
sI16
F1.0
sI31
F1.0
ssbsg27
g0
(g28
g2
Ntp2534
Rp2535
(dp2536
g32
I1
sbsba(ics475_types
Instance
p2537
(dp2538
g22
(ics475_types
FeatureVector
p2539
(dp2540
g25
(dp2541
I33
F1.0
sI2
F48.17
sI3
F7.625
sI4
F1.0
sI5
F1.0
sI8
F15.5
sI10
F1.0
sI11
F12.0
sI13
F1.0
sI15
F790.0
sI16
F1.0
sI21
F1.0
sI27
F1.0
sI31
F1.0
ssbsg27
g0
(g28
g2
Ntp2542
Rp2543
(dp2544
g32
I1
sbsba(ics475_types
Instance
p2545
(dp2546
g22
(ics475_types
FeatureVector
p2547
(dp2548
g25
(dp2549
I1
F1.0
sI2
F15.75
sI3
F0.375
sI4
F1.0
sI5
F1.0
sI6
F1.0
sI7
F1.0
sI8
F1.0
sI9
F1.0
sI13
F1.0
sI14
F120.0
sI15
F18.0
sI20
F1.0
sI21
F1.0
ssbsg27
g0
(g28
g2
Ntp2550
Rp2551
(dp2552
g32
I0
sbsba(ics475_types
Instance
p2553
(dp2554
g22
(ics475_types
FeatureVector
p2555
(dp2556
g25
(dp2557
I33
F1.0
sI2
F30.83
sI4
F1.0
sI5
F1.0
sI7
F1.0
sI8
F1.25
sI10
F1.0
sI11
F1.0
sI13
F1.0
sI14
F202.0
sI16
F1.0
sI21
F1.0
sI31
F1.0
ssbsg27
g0
(g28
g2
Ntp2558
Rp2559
(dp2560
g32
I1
sbsba(ics475_types
Instance
p2561
(dp2562
g22
(ics475_types
FeatureVector
p2563
(dp2564
g25
(dp2565
I2
F21.17
sI4
F1.0
sI5
F1.0
sI6
F1.0
sI7
F1.0
sI8
F0.5
sI9
F1.0
sI12
F1.0
sI16
F1.0
sI20
F1.0
sI22
F1.0
ssbsg27
g0
(g28
g2
Ntp2566
Rp2567
(dp2568
g32
I0
sbsba(ics475_types
Instance
p2569
(dp2570
g22
(ics475_types
FeatureVector
p2571
(dp2572
g25
(dp2573
I33
F1.0
sI2
F28.67
sI3
F9.335
sI4
F1.0
sI5
F1.0
sI8
F5.665
sI10
F1.0
sI11
F6.0
sI13
F1.0
sI14
F381.0
sI15
F168.0
sI16
F1.0
sI21
F1.0
sI27
F1.0
sI30
F1.0
ssbsg27
g0
(g28
g2
Ntp2574
Rp2575
(dp2576
g32
I1
sbsba(ics475_types
Instance
p2577
(dp2578
g22
(ics475_types
FeatureVector
p2579
(dp2580
g25
(dp2581
I2
F22.17
sI3
F2.25
sI4
F1.0
sI5
F1.0
sI7
F1.0
sI8
F0.125
sI9
F1.0
sI13
F1.0
sI14
F160.0
sI15
F10.0
sI16
F1.0
sI20
F1.0
sI21
F1.0
sI25
F1.0
ssbsg27
g0
(g28
g2
Ntp2582
Rp2583
(dp2584
g32
I0
sbsba(ics475_types
Instance
p2585
(dp2586
g22
(ics475_types
FeatureVector
p2587
(dp2588
g25
(dp2589
I33
F1.0
sI2
F44.0
sI3
F2.0
sI4
F1.0
sI5
F1.0
sI7
F1.0
sI8
F1.75
sI10
F1.0
sI11
F2.0
sI12
F1.0
sI13
F1.0
sI15
F15.0
sI16
F1.0
sI35
F1.0
ssbsg27
g0
(g28
g2
Ntp2590
Rp2591
(dp2592
g32
I1
sbsba(ics475_types
Instance
p2593
(dp2594
g22
(ics475_types
FeatureVector
p2595
(dp2596
g25
(dp2597
I1
F1.0
sI2
F33.67
sI3
F0.375
sI4
F1.0
sI5
F1.0
sI7
F1.0
sI8
F0.375
sI9
F1.0
sI13
F1.0
sI14
F300.0
sI15
F44.0
sI20
F1.0
sI21
F1.0
sI36
F1.0
ssbsg27
g0
(g28
g2
Ntp2598
Rp2599
(dp2600
g32
I1
sbsba(ics475_types
Instance
p2601
(dp2602
g22
(ics475_types
FeatureVector
p2603
(dp2604
g25
(dp2605
I1
F1.0
sI2
F56.83
sI3
F4.25
sI8
F5.0
sI9
F1.0
sI12
F1.0
sI13
F1.0
sI15
F4.0
sI17
F1.0
sI18
F1.0
sI20
F1.0
sI23
F1.0
sI24
F1.0
ssbsg27
g0
(g28
g2
Ntp2606
Rp2607
(dp2608
g32
I0
sbsba(ics475_types
Instance
p2609
(dp2610
g22
(ics475_types
FeatureVector
p2611
(dp2612
g25
(dp2613
I33
F1.0
sI2
F31.67
sI3
F0.83
sI4
F1.0
sI5
F1.0
sI7
F1.0
sI8
F1.335
sI10
F1.0
sI11
F8.0
sI12
F1.0
sI13
F1.0
sI14
F303.0
sI15
F3290.0
sI16
F1.0
sI39
F1.0
ssbsg27
g0
(g28
g2
Ntp2614
Rp2615
(dp2616
g32
I1
sbsba(ics475_types
Instance
p2617
(dp2618
g22
(ics475_types
FeatureVector
p2619
(dp2620
g25
(dp2621
I33
F1.0
sI2
F20.42
sI3
F7.0
sI4
F1.0
sI5
F1.0
sI6
F1.0
sI7
F1.0
sI8
F1.625
sI10
F1.0
sI11
F3.0
sI13
F1.0
sI14
F200.0
sI15
F1391.0
sI16
F1.0
sI21
F1.0
ssbsg27
g0
(g28
g2
Ntp2622
Rp2623
(dp2624
g32
I1
sbsba(ics475_types
Instance
p2625
(dp2626
g22
(ics475_types
FeatureVector
p2627
(dp2628
g25
(dp2629
I33
F1.0
sI2
F21.0
sI3
F3.0
sI7
F1.0
sI8
F1.085
sI10
F1.0
sI11
F8.0
sI12
F1.0
sI13
F1.0
sI14
F160.0
sI15
F1.0
sI16
F1.0
sI17
F1.0
sI18
F1.0
sI34
F1.0
ssbsg27
g0
(g28
g2
Ntp2630
Rp2631
(dp2632
g32
I1
sbsba(ics475_types
Instance
p2633
(dp2634
g22
(ics475_types
FeatureVector
p2635
(dp2636
g25
(dp2637
I32
F1.0
sI2
F39.92
sI3
F5.0
sI4
F1.0
sI5
F1.0
sI8
F0.21
sI9
F1.0
sI13
F1.0
sI14
F550.0
sI16
F1.0
sI20
F1.0
sI21
F1.0
sI25
F1.0
ssbsg27
g0
(g28
g2
Ntp2638
Rp2639
(dp2640
g32
I0
sbsba(ics475_types
Instance
p2641
(dp2642
g22
(ics475_types
FeatureVector
p2643
(dp2644
g25
(dp2645
I33
F1.0
sI2
F65.42
sI3
F11.0
sI4
F1.0
sI5
F1.0
sI8
F20.0
sI41
F1.0
sI10
F1.0
sI11
F7.0
sI12
F1.0
sI13
F1.0
sI14
F22.0
sI16
F1.0
sI42
F1.0
ssbsg27
g0
(g28
g2
Ntp2646
Rp2647
(dp2648
g32
I1
sbsba(ics475_types
Instance
p2649
(dp2650
g22
(ics475_types
FeatureVector
p2651
(dp2652
g25
(dp2653
I33
F1.0
sI2
F43.08
sI3
F0.375
sI6
F1.0
sI7
F1.0
sI8
F0.375
sI10
F1.0
sI11
F8.0
sI12
F1.0
sI13
F1.0
sI14
F300.0
sI15
F162.0
sI16
F1.0
sI17
F1.0
sI18
F1.0
ssbsg27
g0
(g28
g2
Ntp2654
Rp2655
(dp2656
g32
I1
sbsba(ics475_types
Instance
p2657
(dp2658
g22
(ics475_types
FeatureVector
p2659
(dp2660
g25
(dp2661
I2
F31.0
sI3
F2.085
sI4
F1.0
sI5
F1.0
sI6
F1.0
sI7
F1.0
sI8
F0.085
sI9
F1.0
sI13
F1.0
sI14
F300.0
sI16
F1.0
sI20
F1.0
sI21
F1.0
ssbsg27
g0
(g28
g2
Ntp2662
Rp2663
(dp2664
g32
I0
sbsba(ics475_types
Instance
p2665
(dp2666
g22
(ics475_types
FeatureVector
p2667
(dp2668
g25
(dp2669
I1
F1.0
sI2
F22.42
sI3
F11.25
sI33
F1.0
sI8
F0.75
sI10
F1.0
sI11
F4.0
sI13
F1.0
sI15
F321.0
sI17
F1.0
sI18
F1.0
sI21
F1.0
sI39
F1.0
sI27
F1.0
ssbsg27
g0
(g28
g2
Ntp2670
Rp2671
(dp2672
g32
I1
sbsba(ics475_types
Instance
p2673
(dp2674
g22
(ics475_types
FeatureVector
p2675
(dp2676
g25
(dp2677
I2
F22.17
sI3
F12.125
sI4
F1.0
sI5
F1.0
sI6
F1.0
sI7
F1.0
sI8
F3.335
sI9
F1.0
sI10
F1.0
sI11
F2.0
sI12
F1.0
sI13
F1.0
sI14
F180.0
sI15
F173.0
sI16
F1.0
ssbsg27
g0
(g28
g2
Ntp2678
Rp2679
(dp2680
g32
I0
sbsba(ics475_types
Instance
p2681
(dp2682
g22
(ics475_types
FeatureVector
p2683
(dp2684
g25
(dp2685
I1
F1.0
sI2
F20.83
sI3
F0.5
sI8
F1.0
sI9
F1.0
sI43
F1.0
sI13
F1.0
sI14
F260.0
sI17
F1.0
sI18
F1.0
sI20
F1.0
sI21
F1.0
sI41
F1.0
ssbsg27
g0
(g28
g2
Ntp2686
Rp2687
(dp2688
g32
I0
sbsba(ics475_types
Instance
p2689
(dp2690
g22
(ics475_types
FeatureVector
p2691
(dp2692
g25
(dp2693
I1
F1.0
sI2
F40.33
sI3
F7.54
sI33
F1.0
sI8
F8.0
sI10
F1.0
sI11
F14.0
sI13
F1.0
sI15
F2300.0
sI17
F1.0
sI18
F1.0
sI21
F1.0
sI27
F1.0
sI30
F1.0
ssbsg27
g0
(g28
g2
Ntp2694
Rp2695
(dp2696
g32
I1
sbsba(ics475_types
Instance
p2697
(dp2698
g22
(ics475_types
FeatureVector
p2699
(dp2700
g25
(dp2701
I32
F1.0
sI33
F1.0
sI2
F23.25
sI3
F4.0
sI4
F1.0
sI5
F1.0
sI6
F1.0
sI8
F0.25
sI12
F1.0
sI13
F1.0
sI14
F160.0
sI16
F1.0
sI20
F1.0
ssbsg27
g0
(g28
g2
Ntp2702
Rp2703
(dp2704
g32
I1
sbsba(ics475_types
Instance
p2705
(dp2706
g22
(ics475_types
FeatureVector
p2707
(dp2708
g25
(dp2709
I2
F16.17
sI3
F0.04
sI4
F1.0
sI5
F1.0
sI6
F1.0
sI7
F1.0
sI8
F0.04
sI9
F1.0
sI13
F1.0
sI16
F1.0
sI20
F1.0
sI21
F1.0
ssbsg27
g0
(g28
g2
Ntp2710
Rp2711
(dp2712
g32
I1
sbsba(ics475_types
Instance
p2713
(dp2714
g22
(ics475_types
FeatureVector
p2715
(dp2716
g25
(dp2717
I1
F1.0
sI2
F19.75
sI3
F0.75
sI4
F1.0
sI5
F1.0
sI6
F1.0
sI7
F1.0
sI8
F0.795
sI10
F1.0
sI11
F5.0
sI12
F1.0
sI13
F1.0
sI14
F140.0
sI15
F5.0
sI33
F1.0
ssbsg27
g0
(g28
g2
Ntp2718
Rp2719
(dp2720
g32
I0
sbsba(ics475_types
Instance
p2721
(dp2722
g22
(ics475_types
FeatureVector
p2723
(dp2724
g25
(dp2725
I33
F1.0
sI2
F39.58
sI3
F13.915
sI4
F1.0
sI5
F1.0
sI7
F1.0
sI8
F8.625
sI10
F1.0
sI11
F6.0
sI12
F1.0
sI13
F1.0
sI14
F70.0
sI16
F1.0
sI31
F1.0
ssbsg27
g0
(g28
g2
Ntp2726
Rp2727
(dp2728
g32
I1
sbsba(ics475_types
Instance
p2729
(dp2730
g22
(ics475_types
FeatureVector
p2731
(dp2732
g25
(dp2733
I33
F1.0
sI2
F21.92
sI3
F0.54
sI7
F1.0
sI8
F0.04
sI10
F1.0
sI11
F1.0
sI12
F1.0
sI13
F1.0
sI14
F840.0
sI15
F59.0
sI16
F1.0
sI17
F1.0
sI18
F1.0
sI39
F1.0
ssbsg27
g0
(g28
g2
Ntp2734
Rp2735
(dp2736
g32
I1
sbsba(ics475_types
Instance
p2737
(dp2738
g22
(ics475_types
FeatureVector
p2739
(dp2740
g25
(dp2741
I2
F23.42
sI3
F1.0
sI4
F1.0
sI5
F1.0
sI6
F1.0
sI7
F1.0
sI8
F0.5
sI9
F1.0
sI12
F1.0
sI14
F280.0
sI16
F1.0
sI20
F1.0
sI22
F1.0
ssbsg27
g0
(g28
g2
Ntp2742
Rp2743
(dp2744
g32
I0
sbsba(ics475_types
Instance
p2745
(dp2746
g22
(ics475_types
FeatureVector
p2747
(dp2748
g25
(dp2749
I33
F1.0
sI2
F27.25
sI3
F1.585
sI4
F1.0
sI5
F1.0
sI8
F1.835
sI10
F1.0
sI11
F12.0
sI12
F1.0
sI13
F1.0
sI14
F583.0
sI15
F713.0
sI16
F1.0
sI36
F1.0
sI27
F1.0
ssbsg27
g0
(g28
g2
Ntp2750
Rp2751
(dp2752
g32
I1
sbsba(ics475_types
Instance
p2753
(dp2754
g22
(ics475_types
FeatureVector
p2755
(dp2756
g25
(dp2757
I33
F1.0
sI2
F64.08
sI3
F20.0
sI4
F1.0
sI5
F1.0
sI39
F1.0
sI8
F17.5
sI10
F1.0
sI11
F9.0
sI12
F1.0
sI13
F1.0
sI15
F1000.0
sI16
F1.0
sI27
F1.0
ssbsg27
g0
(g28
g2
Ntp2758
Rp2759
(dp2760
g32
I1
sbsba(ics475_types
Instance
p2761
(dp2762
g22
(ics475_types
FeatureVector
p2763
(dp2764
g25
(dp2765
I33
F1.0
sI2
F16.08
sI3
F0.75
sI4
F1.0
sI5
F1.0
sI6
F1.0
sI7
F1.0
sI8
F1.75
sI10
F1.0
sI11
F5.0
sI12
F1.0
sI13
F1.0
sI14
F352.0
sI15
F690.0
sI16
F1.0
ssbsg27
g0
(g28
g2
Ntp2766
Rp2767
(dp2768
g32
I1
sbsba(ics475_types
Instance
p2769
(dp2770
g22
(ics475_types
FeatureVector
p2771
(dp2772
g25
(dp2773
I2
F31.58
sI3
F0.75
sI37
F1.0
sI7
F1.0
sI8
F3.5
sI9
F1.0
sI12
F1.0
sI13
F1.0
sI14
F320.0
sI16
F1.0
sI17
F1.0
sI18
F1.0
sI20
F1.0
ssbsg27
g0
(g28
g2
Ntp2774
Rp2775
(dp2776
g32
I0
sbsba(ics475_types
Instance
p2777
(dp2778
g22
(ics475_types
FeatureVector
p2779
(dp2780
g25
(dp2781
I33
F1.0
sI2
F25.17
sI3
F3.5
sI4
F1.0
sI5
F1.0
sI7
F1.0
sI8
F0.625
sI10
F1.0
sI11
F7.0
sI13
F1.0
sI15
F7059.0
sI16
F1.0
sI21
F1.0
sI36
F1.0
ssbsg27
g0
(g28
g2
Ntp2782
Rp2783
(dp2784
g32
I1
sbsba(ics475_types
Instance
p2785
(dp2786
g22
(ics475_types
FeatureVector
p2787
(dp2788
g25
(dp2789
I33
F1.0
sI2
F20.5
sI3
F2.415
sI4
F1.0
sI5
F1.0
sI6
F1.0
sI7
F1.0
sI8
F2.0
sI10
F1.0
sI11
F11.0
sI12
F1.0
sI13
F1.0
sI14
F200.0
sI15
F3000.0
sI16
F1.0
ssbsg27
g0
(g28
g2
Ntp2790
Rp2791
(dp2792
g32
I1
sbsba(ics475_types
Instance
p2793
(dp2794
g22
(ics475_types
FeatureVector
p2795
(dp2796
g25
(dp2797
I32
F1.0
sI1
F1.0
sI2
F28.58
sI3
F3.54
sI4
F1.0
sI5
F1.0
sI33
F1.0
sI8
F0.5
sI12
F1.0
sI13
F1.0
sI14
F171.0
sI20
F1.0
sI25
F1.0
ssbsg27
g0
(g28
g2
Ntp2798
Rp2799
(dp2800
g32
I0
sbsba(ics475_types
Instance
p2801
(dp2802
g22
(ics475_types
FeatureVector
p2803
(dp2804
g25
(dp2805
I2
F16.33
sI3
F4.085
sI4
F1.0
sI5
F1.0
sI8
F0.415
sI9
F1.0
sI12
F1.0
sI13
F1.0
sI14
F120.0
sI16
F1.0
sI20
F1.0
sI25
F1.0
sI27
F1.0
ssbsg27
g0
(g28
g2
Ntp2806
Rp2807
(dp2808
g32
I0
sbsba(ics475_types
Instance
p2809
(dp2810
g22
(ics475_types
FeatureVector
p2811
(dp2812
g25
(dp2813
I2
F22.67
sI3
F0.165
sI4
F1.0
sI5
F1.0
sI6
F1.0
sI8
F2.25
sI9
F1.0
sI12
F1.0
sI16
F1.0
sI20
F1.0
sI22
F1.0
sI29
F1.0
ssbsg27
g0
(g28
g2
Ntp2814
Rp2815
(dp2816
g32
I1
sbsba(ics475_types
Instance
p2817
(dp2818
g22
(ics475_types
FeatureVector
p2819
(dp2820
g25
(dp2821
I2
F18.83
sI4
F1.0
sI5
F1.0
sI7
F1.0
sI8
F0.665
sI9
F1.0
sI13
F1.0
sI14
F160.0
sI15
F1.0
sI16
F1.0
sI20
F1.0
sI21
F1.0
sI30
F1.0
ssbsg27
g0
(g28
g2
Ntp2822
Rp2823
(dp2824
g32
I0
sbsba(ics475_types
Instance
p2825
(dp2826
g22
(ics475_types
FeatureVector
p2827
(dp2828
g25
(dp2829
I1
F1.0
sI2
F16.33
sI3
F0.21
sI4
F1.0
sI5
F1.0
sI7
F1.0
sI8
F0.125
sI9
F1.0
sI13
F1.0
sI14
F200.0
sI15
F1.0
sI20
F1.0
sI21
F1.0
sI37
F1.0
ssbsg27
g0
(g28
g2
Ntp2830
Rp2831
(dp2832
g32
I0
sbsba(ics475_types
Instance
p2833
(dp2834
g22
(ics475_types
FeatureVector
p2835
(dp2836
g25
(dp2837
I1
F1.0
sI2
F64.08
sI3
F0.165
sI4
F1.0
sI5
F1.0
sI33
F1.0
sI10
F1.0
sI11
F1.0
sI13
F1.0
sI14
F232.0
sI15
F100.0
sI21
F1.0
sI23
F1.0
sI24
F1.0
ssbsg27
g0
(g28
g2
Ntp2838
Rp2839
(dp2840
g32
I1
sbsba(ics475_types
Instance
p2841
(dp2842
g22
(ics475_types
FeatureVector
p2843
(dp2844
g25
(dp2845
I1
F1.0
sI2
F37.33
sI3
F2.5
sI4
F1.0
sI5
F1.0
sI8
F0.21
sI9
F1.0
sI13
F1.0
sI14
F260.0
sI15
F246.0
sI20
F1.0
sI21
F1.0
sI25
F1.0
sI27
F1.0
ssbsg27
g0
(g28
g2
Ntp2846
Rp2847
(dp2848
g32
I0
sbsba(ics475_types
Instance
p2849
(dp2850
g22
(ics475_types
FeatureVector
p2851
(dp2852
g25
(dp2853
I33
F1.0
sI2
F32.83
sI3
F2.5
sI4
F1.0
sI5
F1.0
sI8
F2.75
sI10
F1.0
sI11
F6.0
sI13
F1.0
sI14
F160.0
sI15
F2072.0
sI16
F1.0
sI21
F1.0
sI36
F1.0
sI27
F1.0
ssbsg27
g0
(g28
g2
Ntp2854
Rp2855
(dp2856
g32
I1
sbsba(ics475_types
Instance
p2857
(dp2858
g22
(ics475_types
FeatureVector
p2859
(dp2860
g25
(dp2861
I32
F1.0
sI33
F1.0
sI2
F47.67
sI3
F2.5
sI4
F1.0
sI5
F1.0
sI8
F2.5
sI10
F1.0
sI11
F12.0
sI12
F1.0
sI13
F1.0
sI14
F410.0
sI15
F2510.0
sI16
F1.0
sI35
F1.0
ssbsg27
g0
(g28
g2
Ntp2862
Rp2863
(dp2864
g32
I1
sbsba(ics475_types
Instance
p2865
(dp2866
g22
(ics475_types
FeatureVector
p2867
(dp2868
g25
(dp2869
I1
F1.0
sI2
F50.08
sI3
F12.54
sI4
F1.0
sI5
F1.0
sI7
F1.0
sI8
F2.29
sI10
F1.0
sI11
F3.0
sI12
F1.0
sI13
F1.0
sI14
F156.0
sI33
F1.0
sI37
F1.0
ssbsg27
g0
(g28
g2
Ntp2870
Rp2871
(dp2872
g32
I1
sbsba(ics475_types
Instance
p2873
(dp2874
g22
(ics475_types
FeatureVector
p2875
(dp2876
g25
(dp2877
I33
F1.0
sI2
F28.33
sI3
F5.0
sI4
F1.0
sI5
F1.0
sI7
F1.0
sI8
F11.0
sI12
F1.0
sI13
F1.0
sI14
F70.0
sI16
F1.0
sI20
F1.0
sI31
F1.0
ssbsg27
g0
(g28
g2
Ntp2878
Rp2879
(dp2880
g32
I1
sbsba(ics475_types
Instance
p2881
(dp2882
g22
(ics475_types
FeatureVector
p2883
(dp2884
g25
(dp2885
I33
F1.0
sI2
F29.67
sI3
F1.415
sI4
F1.0
sI5
F1.0
sI8
F0.75
sI10
F1.0
sI11
F1.0
sI13
F1.0
sI14
F240.0
sI15
F100.0
sI16
F1.0
sI21
F1.0
sI27
F1.0
sI31
F1.0
ssbsg27
g0
(g28
g2
Ntp2886
Rp2887
(dp2888
g32
I1
sbsba(ics475_types
Instance
p2889
(dp2890
g22
(ics475_types
FeatureVector
p2891
(dp2892
g25
(dp2893
I33
F1.0
sI2
F42.83
sI3
F4.625
sI4
F1.0
sI5
F1.0
sI7
F1.0
sI8
F4.58
sI16
F1.0
sI20
F1.0
sI21
F1.0
sI22
F1.0
sI30
F1.0
ssbsg27
g0
(g28
g2
Ntp2894
Rp2895
(dp2896
g32
I1
sbsba(ics475_types
Instance
p2897
(dp2898
g22
(ics475_types
FeatureVector
p2899
(dp2900
g25
(dp2901
I1
F1.0
sI2
F28.5
sI3
F3.04
sI33
F1.0
sI8
F2.54
sI10
F1.0
sI11
F1.0
sI13
F1.0
sI14
F70.0
sI17
F1.0
sI18
F1.0
sI21
F1.0
sI39
F1.0
sI27
F1.0
ssbsg27
g0
(g28
g2
Ntp2902
Rp2903
(dp2904
g32
I1
sbsba(ics475_types
Instance
p2905
(dp2906
g22
(ics475_types
FeatureVector
p2907
(dp2908
g25
(dp2909
I2
F23.25
sI3
F12.625
sI4
F1.0
sI5
F1.0
sI6
F1.0
sI7
F1.0
sI8
F0.125
sI9
F1.0
sI10
F1.0
sI11
F2.0
sI13
F1.0
sI15
F5552.0
sI16
F1.0
sI21
F1.0
ssbsg27
g0
(g28
g2
Ntp2910
Rp2911
(dp2912
g32
I0
sbsba(ics475_types
Instance
p2913
(dp2914
g22
(ics475_types
FeatureVector
p2915
(dp2916
g25
(dp2917
I2
F47.33
sI3
F6.5
sI4
F1.0
sI5
F1.0
sI6
F1.0
sI7
F1.0
sI8
F1.0
sI9
F1.0
sI12
F1.0
sI13
F1.0
sI15
F228.0
sI16
F1.0
sI20
F1.0
ssbsg27
g0
(g28
g2
Ntp2918
Rp2919
(dp2920
g32
I0
sbsba(ics475_types
Instance
p2921
(dp2922
g22
(ics475_types
FeatureVector
p2923
(dp2924
g25
(dp2925
I2
F16.5
sI3
F0.125
sI4
F1.0
sI5
F1.0
sI6
F1.0
sI7
F1.0
sI8
F0.165
sI9
F1.0
sI13
F1.0
sI14
F132.0
sI16
F1.0
sI20
F1.0
sI21
F1.0
ssbsg27
g0
(g28
g2
Ntp2926
Rp2927
(dp2928
g32
I0
sbsba(ics475_types
Instance
p2929
(dp2930
g22
(ics475_types
FeatureVector
p2931
(dp2932
g25
(dp2933
I2
F33.0
sI3
F2.5
sI7
F1.0
sI8
F7.0
sI9
F1.0
sI12
F1.0
sI13
F1.0
sI14
F280.0
sI16
F1.0
sI17
F1.0
sI18
F1.0
sI20
F1.0
sI31
F1.0
ssbsg27
g0
(g28
g2
Ntp2934
Rp2935
(dp2936
g32
I0
sbsba(ics475_types
Instance
p2937
(dp2938
g22
(ics475_types
FeatureVector
p2939
(dp2940
g25
(dp2941
I33
F1.0
sI2
F27.83
sI3
F1.54
sI4
F1.0
sI5
F1.0
sI7
F1.0
sI8
F3.75
sI10
F1.0
sI11
F5.0
sI12
F1.0
sI13
F1.0
sI14
F100.0
sI15
F3.0
sI16
F1.0
sI31
F1.0
ssbsg27
g0
(g28
g2
Ntp2942
Rp2943
(dp2944
g32
I1
sbsba(ics475_types
Instance
p2945
(dp2946
g22
(ics475_types
FeatureVector
p2947
(dp2948
g25
(dp2949
I2
F21.17
sI3
F0.875
sI6
F1.0
sI8
F0.25
sI9
F1.0
sI13
F1.0
sI14
F280.0
sI15
F204.0
sI16
F1.0
sI17
F1.0
sI18
F1.0
sI20
F1.0
sI21
F1.0
sI27
F1.0
ssbsg27
g0
(g28
g2
Ntp2950
Rp2951
(dp2952
g32
I0
sbsba(ics475_types
Instance
p2953
(dp2954
g22
(ics475_types
FeatureVector
p2955
(dp2956
g25
(dp2957
I33
F1.0
sI2
F22.67
sI3
F2.54
sI6
F1.0
sI8
F2.585
sI13
F1.0
sI16
F1.0
sI17
F1.0
sI18
F1.0
sI20
F1.0
sI21
F1.0
sI27
F1.0
ssbsg27
g0
(g28
g2
Ntp2958
Rp2959
(dp2960
g32
I1
sbsba(ics475_types
Instance
p2961
(dp2962
g22
(ics475_types
FeatureVector
p2963
(dp2964
g25
(dp2965
I2
F19.0
sI9
F1.0
sI10
F1.0
sI11
F4.0
sI13
F1.0
sI14
F45.0
sI15
F1.0
sI16
F1.0
sI17
F1.0
sI18
F1.0
sI21
F1.0
sI23
F1.0
sI24
F1.0
ssbsg27
g0
(g28
g2
Ntp2966
Rp2967
(dp2968
g32
I0
sbsba(ics475_types
Instance
p2969
(dp2970
g22
(ics475_types
FeatureVector
p2971
(dp2972
g25
(dp2973
I33
F1.0
sI2
F39.17
sI3
F1.71
sI4
F1.0
sI5
F1.0
sI7
F1.0
sI8
F0.125
sI10
F1.0
sI11
F5.0
sI12
F1.0
sI13
F1.0
sI14
F480.0
sI16
F1.0
sI39
F1.0
ssbsg27
g0
(g28
g2
Ntp2974
Rp2975
(dp2976
g32
I1
sbsba(ics475_types
Instance
p2977
(dp2978
g22
(ics475_types
FeatureVector
p2979
(dp2980
g25
(dp2981
I2
F19.58
sI3
F0.585
sI4
F1.0
sI5
F1.0
sI9
F1.0
sI10
F1.0
sI11
F3.0
sI13
F1.0
sI14
F350.0
sI15
F769.0
sI16
F1.0
sI21
F1.0
sI23
F1.0
sI24
F1.0
ssbsg27
g0
(g28
g2
Ntp2982
Rp2983
(dp2984
g32
I0
sbsba(ics475_types
Instance
p2985
(dp2986
g22
(ics475_types
FeatureVector
p2987
(dp2988
g25
(dp2989
I33
F1.0
sI2
F42.17
sI3
F5.04
sI4
F1.0
sI5
F1.0
sI8
F12.75
sI12
F1.0
sI13
F1.0
sI14
F92.0
sI16
F1.0
sI20
F1.0
sI27
F1.0
sI30
F1.0
ssbsg27
g0
(g28
g2
Ntp2990
Rp2991
(dp2992
g32
I1
sbsba(ics475_types
Instance
p2993
(dp2994
g22
(ics475_types
FeatureVector
p2995
(dp2996
g25
(dp2997
I33
F1.0
sI2
F54.83
sI3
F15.5
sI4
F1.0
sI5
F1.0
sI41
F1.0
sI10
F1.0
sI11
F20.0
sI13
F1.0
sI14
F152.0
sI15
F130.0
sI16
F1.0
sI21
F1.0
sI42
F1.0
ssbsg27
g0
(g28
g2
Ntp2998
Rp2999
(dp3000
g32
I0
sbsba(ics475_types
Instance
p3001
(dp3002
g22
(ics475_types
FeatureVector
p3003
(dp3004
g25
(dp3005
I1
F1.0
sI2
F36.58
sI3
F0.29
sI4
F1.0
sI5
F1.0
sI9
F1.0
sI10
F1.0
sI11
F10.0
sI13
F1.0
sI14
F200.0
sI15
F18.0
sI21
F1.0
sI23
F1.0
sI24
F1.0
ssbsg27
g0
(g28
g2
Ntp3006
Rp3007
(dp3008
g32
I0
sbsba(ics475_types
Instance
p3009
(dp3010
g22
(ics475_types
FeatureVector
p3011
(dp3012
g25
(dp3013
I2
F18.33
sI3
F1.21
sI9
F1.0
sI43
F1.0
sI13
F1.0
sI14
F100.0
sI16
F1.0
sI17
F1.0
sI18
F1.0
sI20
F1.0
sI21
F1.0
sI41
F1.0
ssbsg27
g0
(g28
g2
Ntp3014
Rp3015
(dp3016
g32
I0
sbsba(ics475_types
Instance
p3017
(dp3018
g22
(ics475_types
FeatureVector
p3019
(dp3020
g25
(dp3021
I2
F34.08
sI3
F2.5
sI4
F1.0
sI5
F1.0
sI6
F1.0
sI7
F1.0
sI8
F1.0
sI9
F1.0
sI13
F1.0
sI14
F460.0
sI15
F16.0
sI16
F1.0
sI20
F1.0
sI21
F1.0
ssbsg27
g0
(g28
g2
Ntp3022
Rp3023
(dp3024
g32
I0
sbsba(ics475_types
Instance
p3025
(dp3026
g22
(ics475_types
FeatureVector
p3027
(dp3028
g25
(dp3029
I2
F25.25
sI3
F1.0
sI4
F1.0
sI5
F1.0
sI7
F1.0
sI8
F0.5
sI9
F1.0
sI13
F1.0
sI14
F200.0
sI16
F1.0
sI20
F1.0
sI21
F1.0
sI37
F1.0
ssbsg27
g0
(g28
g2
Ntp3030
Rp3031
(dp3032
g32
I0
sbsba(ics475_types
Instance
p3033
(dp3034
g22
(ics475_types
FeatureVector
p3035
(dp3036
g25
(dp3037
I33
F1.0
sI2
F39.25
sI3
F9.5
sI4
F1.0
sI5
F1.0
sI7
F1.0
sI8
F6.5
sI10
F1.0
sI11
F14.0
sI13
F1.0
sI14
F240.0
sI15
F4607.0
sI16
F1.0
sI35
F1.0
sI21
F1.0
ssbsg27
g0
(g28
g2
Ntp3038
Rp3039
(dp3040
g32
I1
sbsba(ics475_types
Instance
p3041
(dp3042
g22
(ics475_types
FeatureVector
p3043
(dp3044
g25
(dp3045
I2
F20.0
sI3
F11.045
sI4
F1.0
sI5
F1.0
sI6
F1.0
sI7
F1.0
sI8
F2.0
sI9
F1.0
sI12
F1.0
sI13
F1.0
sI14
F136.0
sI16
F1.0
sI20
F1.0
ssbsg27
g0
(g28
g2
Ntp3046
Rp3047
(dp3048
g32
I0
sbsba(ics475_types
Instance
p3049
(dp3050
g22
(ics475_types
FeatureVector
p3051
(dp3052
g25
(dp3053
I1
F1.0
sI2
F24.5
sI3
F0.5
sI4
F1.0
sI5
F1.0
sI33
F1.0
sI8
F1.5
sI13
F1.0
sI14
F280.0
sI15
F824.0
sI20
F1.0
sI21
F1.0
sI27
F1.0
sI30
F1.0
ssbsg27
g0
(g28
g2
Ntp3054
Rp3055
(dp3056
g32
I1
sbsba(ics475_types
Instance
p3057
(dp3058
g22
(ics475_types
FeatureVector
p3059
(dp3060
g25
(dp3061
I2
F23.75
sI3
F0.415
sI6
F1.0
sI7
F1.0
sI8
F0.04
sI9
F1.0
sI10
F1.0
sI11
F2.0
sI13
F1.0
sI14
F128.0
sI15
F6.0
sI16
F1.0
sI17
F1.0
sI18
F1.0
sI21
F1.0
ssbsg27
g0
(g28
g2
Ntp3062
Rp3063
(dp3064
g32
I0
sbsba(ics475_types
Instance
p3065
(dp3066
g22
(ics475_types
FeatureVector
p3067
(dp3068
g25
(dp3069
I33
F1.0
sI2
F21.33
sI3
F7.5
sI4
F1.0
sI5
F1.0
sI7
F1.0
sI8
F1.415
sI10
F1.0
sI11
F1.0
sI13
F1.0
sI14
F80.0
sI15
F9800.0
sI16
F1.0
sI21
F1.0
sI37
F1.0
ssbsg27
g0
(g28
g2
Ntp3070
Rp3071
(dp3072
g32
I1
sbsba(ics475_types
Instance
p3073
(dp3074
g22
(ics475_types
FeatureVector
p3075
(dp3076
g25
(dp3077
I1
F1.0
sI2
F30.58
sI3
F10.665
sI4
F1.0
sI5
F1.0
sI8
F0.085
sI9
F1.0
sI10
F1.0
sI11
F12.0
sI12
F1.0
sI13
F1.0
sI14
F129.0
sI15
F3.0
sI27
F1.0
sI30
F1.0
ssbsg27
g0
(g28
g2
Ntp3078
Rp3079
(dp3080
g32
I0
sbsba(ics475_types
Instance
p3081
(dp3082
g22
(ics475_types
FeatureVector
p3083
(dp3084
g25
(dp3085
I2
F40.58
sI3
F3.29
sI4
F1.0
sI5
F1.0
sI7
F1.0
sI8
F3.5
sI9
F1.0
sI12
F1.0
sI14
F400.0
sI16
F1.0
sI35
F1.0
sI20
F1.0
sI22
F1.0
ssbsg27
g0
(g28
g2
Ntp3086
Rp3087
(dp3088
g32
I0
sbsba(ics475_types
Instance
p3089
(dp3090
g22
(ics475_types
FeatureVector
p3091
(dp3092
g25
(dp3093
I2
F31.08
sI3
F3.085
sI4
F1.0
sI5
F1.0
sI6
F1.0
sI7
F1.0
sI8
F2.5
sI9
F1.0
sI10
F1.0
sI11
F2.0
sI12
F1.0
sI13
F1.0
sI14
F160.0
sI15
F41.0
sI16
F1.0
ssbsg27
g0
(g28
g2
Ntp3094
Rp3095
(dp3096
g32
I0
sbsba(ics475_types
Instance
p3097
(dp3098
g22
(ics475_types
FeatureVector
p3099
(dp3100
g25
(dp3101
I1
F1.0
sI2
F17.67
sI9
F1.0
sI13
F1.0
sI14
F86.0
sI17
F1.0
sI18
F1.0
sI20
F1.0
sI21
F1.0
sI24
F1.0
sI28
F1.0
ssbsg27
g0
(g28
g2
Ntp3102
Rp3103
(dp3104
g32
I0
sbsba(ics475_types
Instance
p3105
(dp3106
g22
(ics475_types
FeatureVector
p3107
(dp3108
g25
(dp3109
I32
F1.0
sI33
F1.0
sI2
F40.0
sI3
F6.5
sI4
F1.0
sI5
F1.0
sI8
F3.5
sI10
F1.0
sI11
F1.0
sI13
F1.0
sI15
F500.0
sI16
F1.0
sI21
F1.0
sI37
F1.0
ssbsg27
g0
(g28
g2
Ntp3110
Rp3111
(dp3112
g32
I1
sbsba(ics475_types
Instance
p3113
(dp3114
g22
(ics475_types
FeatureVector
p3115
(dp3116
g25
(dp3117
I1
F1.0
sI2
F16.08
sI3
F0.335
sI4
F1.0
sI5
F1.0
sI9
F1.0
sI10
F1.0
sI11
F1.0
sI13
F1.0
sI14
F160.0
sI15
F126.0
sI21
F1.0
sI23
F1.0
sI24
F1.0
ssbsg27
g0
(g28
g2
Ntp3118
Rp3119
(dp3120
g32
I0
sbsba(ics475_types
Instance
p3121
(dp3122
g22
(ics475_types
FeatureVector
p3123
(dp3124
g25
(dp3125
I33
F1.0
sI2
F44.25
sI3
F0.5
sI4
F1.0
sI5
F1.0
sI7
F1.0
sI8
F10.75
sI14
F400.0
sI16
F1.0
sI35
F1.0
sI20
F1.0
sI21
F1.0
sI22
F1.0
ssbsg27
g0
(g28
g2
Ntp3126
Rp3127
(dp3128
g32
I0
sbsba(ics475_types
Instance
p3129
(dp3130
g22
(ics475_types
FeatureVector
p3131
(dp3132
g25
(dp3133
I32
F1.0
sI33
F1.0
sI2
F34.25
sI3
F1.75
sI4
F1.0
sI5
F1.0
sI8
F0.25
sI12
F1.0
sI13
F1.0
sI14
F163.0
sI16
F1.0
sI20
F1.0
sI31
F1.0
ssbsg27
g0
(g28
g2
Ntp3134
Rp3135
(dp3136
g32
I0
sbsba(ics475_types
Instance
p3137
(dp3138
g22
(ics475_types
FeatureVector
p3139
(dp3140
g25
(dp3141
I2
F22.0
sI3
F0.79
sI4
F1.0
sI5
F1.0
sI7
F1.0
sI8
F0.29
sI9
F1.0
sI10
F1.0
sI11
F1.0
sI13
F1.0
sI14
F420.0
sI15
F283.0
sI16
F1.0
sI21
F1.0
sI31
F1.0
ssbsg27
g0
(g28
g2
Ntp3142
Rp3143
(dp3144
g32
I0
sbsba(ics475_types
Instance
p3145
(dp3146
g22
(ics475_types
FeatureVector
p3147
(dp3148
g25
(dp3149
I33
F1.0
sI2
F13.75
sI3
F4.0
sI7
F1.0
sI8
F1.75
sI10
F1.0
sI11
F2.0
sI12
F1.0
sI13
F1.0
sI14
F120.0
sI15
F1000.0
sI16
F1.0
sI17
F1.0
sI18
F1.0
sI31
F1.0
ssbsg27
g0
(g28
g2
Ntp3150
Rp3151
(dp3152
g32
I1
sbsba(ics475_types
Instance
p3153
(dp3154
g22
(ics475_types
FeatureVector
p3155
(dp3156
g25
(dp3157
I2
F19.17
sI3
F4.0
sI7
F1.0
sI8
F1.0
sI9
F1.0
sI12
F1.0
sI13
F1.0
sI14
F360.0
sI15
F1000.0
sI16
F1.0
sI17
F1.0
sI18
F1.0
sI20
F1.0
sI25
F1.0
ssbsg27
g0
(g28
g2
Ntp3158
Rp3159
(dp3160
g32
I0
sbsba(ics475_types
Instance
p3161
(dp3162
g22
(ics475_types
FeatureVector
p3163
(dp3164
g25
(dp3165
I1
F1.0
sI2
F28.58
sI3
F3.75
sI4
F1.0
sI5
F1.0
sI6
F1.0
sI7
F1.0
sI8
F0.25
sI9
F1.0
sI10
F1.0
sI11
F1.0
sI12
F1.0
sI13
F1.0
sI14
F40.0
sI15
F154.0
ssbsg27
g0
(g28
g2
Ntp3166
Rp3167
(dp3168
g32
I0
sbsba(ics475_types
Instance
p3169
(dp3170
g22
(ics475_types
FeatureVector
p3171
(dp3172
g25
(dp3173
I33
F1.0
sI2
F43.25
sI3
F3.0
sI4
F1.0
sI5
F1.0
sI8
F6.0
sI10
F1.0
sI11
F11.0
sI13
F1.0
sI14
F80.0
sI16
F1.0
sI21
F1.0
sI27
F1.0
sI30
F1.0
ssbsg27
g0
(g28
g2
Ntp3174
Rp3175
(dp3176
g32
I1
sbsba(ics475_types
Instance
p3177
(dp3178
g22
(ics475_types
FeatureVector
p3179
(dp3180
g25
(dp3181
I33
F1.0
sI2
F63.33
sI3
F0.54
sI4
F1.0
sI5
F1.0
sI6
F1.0
sI7
F1.0
sI8
F0.585
sI10
F1.0
sI11
F3.0
sI12
F1.0
sI13
F1.0
sI14
F180.0
sI16
F1.0
ssbsg27
g0
(g28
g2
Ntp3182
Rp3183
(dp3184
g32
I0
sbsba(ics475_types
Instance
p3185
(dp3186
g22
(ics475_types
FeatureVector
p3187
(dp3188
g25
(dp3189
I1
F1.0
sI2
F18.92
sI3
F9.0
sI4
F1.0
sI5
F1.0
sI7
F1.0
sI8
F0.75
sI10
F1.0
sI11
F2.0
sI13
F1.0
sI14
F88.0
sI15
F591.0
sI21
F1.0
sI33
F1.0
sI37
F1.0
ssbsg27
g0
(g28
g2
Ntp3190
Rp3191
(dp3192
g32
I1
sbsba(ics475_types
Instance
p3193
(dp3194
g22
(ics475_types
FeatureVector
p3195
(dp3196
g25
(dp3197
I33
F1.0
sI2
F31.67
sI3
F16.165
sI4
F1.0
sI5
F1.0
sI7
F1.0
sI8
F3.0
sI10
F1.0
sI11
F9.0
sI13
F1.0
sI14
F250.0
sI15
F730.0
sI16
F1.0
sI34
F1.0
sI21
F1.0
ssbsg27
g0
(g28
g2
Ntp3198
Rp3199
(dp3200
g32
I1
sbsba(ics475_types
Instance
p3201
(dp3202
g22
(ics475_types
FeatureVector
p3203
(dp3204
g25
(dp3205
I1
F1.0
sI2
F35.17
sI3
F3.75
sI4
F1.0
sI5
F1.0
sI9
F1.0
sI10
F1.0
sI11
F6.0
sI13
F1.0
sI15
F200.0
sI21
F1.0
sI23
F1.0
sI24
F1.0
ssbsg27
g0
(g28
g2
Ntp3206
Rp3207
(dp3208
g32
I0
sbsba(ics475_types
Instance
p3209
(dp3210
g22
(ics475_types
FeatureVector
p3211
(dp3212
g25
(dp3213
I2
F30.75
sI3
F1.585
sI4
F1.0
sI5
F1.0
sI7
F1.0
sI8
F0.585
sI9
F1.0
sI12
F1.0
sI34
F1.0
sI16
F1.0
sI20
F1.0
sI22
F1.0
ssbsg27
g0
(g28
g2
Ntp3214
Rp3215
(dp3216
g32
I0
sbsba(ics475_types
Instance
p3217
(dp3218
g22
(ics475_types
FeatureVector
p3219
(dp3220
g25
(dp3221
I1
F1.0
sI2
F25.25
sI3
F12.5
sI4
F1.0
sI5
F1.0
sI7
F1.0
sI8
F1.0
sI9
F1.0
sI12
F1.0
sI13
F1.0
sI14
F180.0
sI15
F1062.0
sI34
F1.0
sI20
F1.0
ssbsg27
g0
(g28
g2
Ntp3222
Rp3223
(dp3224
g32
I0
sbsba(ics475_types
Instance
p3225
(dp3226
g22
(ics475_types
FeatureVector
p3227
(dp3228
g25
(dp3229
I2
F36.17
sI3
F0.42
sI7
F1.0
sI8
F0.29
sI9
F1.0
sI12
F1.0
sI13
F1.0
sI14
F309.0
sI15
F2.0
sI16
F1.0
sI17
F1.0
sI18
F1.0
sI20
F1.0
sI31
F1.0
ssbsg27
g0
(g28
g2
Ntp3230
Rp3231
(dp3232
g32
I0
sbsba(ics475_types
Instance
p3233
(dp3234
g22
(ics475_types
FeatureVector
p3235
(dp3236
g25
(dp3237
I33
F1.0
sI2
F20.5
sI3
F10.0
sI6
F1.0
sI7
F1.0
sI8
F2.5
sI14
F40.0
sI16
F1.0
sI17
F1.0
sI18
F1.0
sI20
F1.0
sI21
F1.0
sI22
F1.0
ssbsg27
g0
(g28
g2
Ntp3238
Rp3239
(dp3240
g32
I1
sbsba(ics475_types
Instance
p3241
(dp3242
g22
(ics475_types
FeatureVector
p3243
(dp3244
g25
(dp3245
I33
F1.0
sI2
F37.75
sI3
F7.0
sI4
F1.0
sI5
F1.0
sI8
F11.5
sI10
F1.0
sI11
F7.0
sI12
F1.0
sI13
F1.0
sI14
F300.0
sI15
F5.0
sI16
F1.0
sI27
F1.0
sI30
F1.0
ssbsg27
g0
(g28
g2
Ntp3246
Rp3247
(dp3248
g32
I0
sbsba(ics475_types
Instance
p3249
(dp3250
g22
(ics475_types
FeatureVector
p3251
(dp3252
g25
(dp3253
I1
F1.0
sI2
F27.67
sI3
F2.04
sI4
F1.0
sI5
F1.0
sI7
F1.0
sI8
F0.25
sI9
F1.0
sI12
F1.0
sI13
F1.0
sI14
F180.0
sI15
F50.0
sI20
F1.0
sI31
F1.0
ssbsg27
g0
(g28
g2
Ntp3254
Rp3255
(dp3256
g32
I0
sbsba(ics475_types
Instance
p3257
(dp3258
g22
(ics475_types
FeatureVector
p3259
(dp3260
g25
(dp3261
I2
F20.67
sI3
F0.415
sI4
F1.0
sI5
F1.0
sI6
F1.0
sI7
F1.0
sI8
F0.125
sI9
F1.0
sI13
F1.0
sI15
F44.0
sI16
F1.0
sI20
F1.0
sI21
F1.0
ssbsg27
g0
(g28
g2
Ntp3262
Rp3263
(dp3264
g32
I0
sbsba(ics475_types
Instance
p3265
(dp3266
g22
(ics475_types
FeatureVector
p3267
(dp3268
g25
(dp3269
I2
F32.33
sI3
F3.5
sI4
F1.0
sI5
F1.0
sI7
F1.0
sI8
F0.5
sI9
F1.0
sI12
F1.0
sI13
F1.0
sI14
F232.0
sI16
F1.0
sI19
F1.0
sI20
F1.0
ssbsg27
g0
(g28
g2
Ntp3270
Rp3271
(dp3272
g32
I0
sbsba(ics475_types
Instance
p3273
(dp3274
g22
(ics475_types
FeatureVector
p3275
(dp3276
g25
(dp3277
I2
F22.25
sI3
F0.46
sI4
F1.0
sI5
F1.0
sI7
F1.0
sI8
F0.125
sI9
F1.0
sI12
F1.0
sI13
F1.0
sI14
F280.0
sI15
F55.0
sI16
F1.0
sI19
F1.0
sI20
F1.0
ssbsg27
g0
(g28
g2
Ntp3278
Rp3279
(dp3280
g32
I0
sbsba(ics475_types
Instance
p3281
(dp3282
g22
(ics475_types
FeatureVector
p3283
(dp3284
g25
(dp3285
I32
F1.0
sI1
F1.0
sI2
F21.25
sI3
F2.335
sI4
F1.0
sI5
F1.0
sI33
F1.0
sI8
F0.5
sI10
F1.0
sI11
F4.0
sI14
F80.0
sI21
F1.0
sI22
F1.0
sI25
F1.0
ssbsg27
g0
(g28
g2
Ntp3286
Rp3287
(dp3288
g32
I1
sbsba(ics475_types
Instance
p3289
(dp3290
g22
(ics475_types
FeatureVector
p3291
(dp3292
g25
(dp3293
I33
F1.0
sI2
F25.0
sI3
F12.0
sI4
F1.0
sI5
F1.0
sI7
F1.0
sI8
F2.25
sI10
F1.0
sI11
F2.0
sI12
F1.0
sI13
F1.0
sI14
F120.0
sI15
F5.0
sI16
F1.0
sI19
F1.0
ssbsg27
g0
(g28
g2
Ntp3294
Rp3295
(dp3296
g32
I0
sbsba(ics475_types
Instance
p3297
(dp3298
g22
(ics475_types
FeatureVector
p3299
(dp3300
g25
(dp3301
I33
F1.0
sI2
F38.67
sI3
F0.21
sI4
F1.0
sI5
F1.0
sI7
F1.0
sI8
F0.085
sI12
F1.0
sI13
F1.0
sI14
F280.0
sI16
F1.0
sI19
F1.0
sI20
F1.0
ssbsg27
g0
(g28
g2
Ntp3302
Rp3303
(dp3304
g32
I1
sbsba(ics475_types
Instance
p3305
(dp3306
g22
(ics475_types
FeatureVector
p3307
(dp3308
g25
(dp3309
I33
F1.0
sI2
F56.0
sI3
F12.5
sI4
F1.0
sI5
F1.0
sI8
F8.0
sI12
F1.0
sI13
F1.0
sI14
F24.0
sI15
F2028.0
sI16
F1.0
sI19
F1.0
sI20
F1.0
sI27
F1.0
ssbsg27
g0
(g28
g2
Ntp3310
Rp3311
(dp3312
g32
I1
sbsba(ics475_types
Instance
p3313
(dp3314
g22
(ics475_types
FeatureVector
p3315
(dp3316
g25
(dp3317
I1
F1.0
sI2
F19.58
sI3
F0.665
sI4
F1.0
sI5
F1.0
sI7
F1.0
sI8
F1.665
sI9
F1.0
sI13
F1.0
sI14
F220.0
sI15
F5.0
sI20
F1.0
sI21
F1.0
sI31
F1.0
ssbsg27
g0
(g28
g2
Ntp3318
Rp3319
(dp3320
g32
I0
sbsba(ics475_types
Instance
p3321
(dp3322
g22
(ics475_types
FeatureVector
p3323
(dp3324
g25
(dp3325
I2
F29.83
sI3
F3.5
sI4
F1.0
sI5
F1.0
sI6
F1.0
sI7
F1.0
sI8
F0.165
sI9
F1.0
sI13
F1.0
sI14
F216.0
sI16
F1.0
sI20
F1.0
sI21
F1.0
ssbsg27
g0
(g28
g2
Ntp3326
Rp3327
(dp3328
g32
I0
sbsba(ics475_types
Instance
p3329
(dp3330
g22
(ics475_types
FeatureVector
p3331
(dp3332
g25
(dp3333
I33
F1.0
sI2
F23.08
sI3
F2.5
sI4
F1.0
sI5
F1.0
sI6
F1.0
sI7
F1.0
sI8
F1.085
sI10
F1.0
sI11
F11.0
sI12
F1.0
sI13
F1.0
sI14
F60.0
sI15
F2184.0
sI16
F1.0
ssbsg27
g0
(g28
g2
Ntp3334
Rp3335
(dp3336
g32
I1
sbsba(ics475_types
Instance
p3337
(dp3338
g22
(ics475_types
FeatureVector
p3339
(dp3340
g25
(dp3341
I1
F1.0
sI2
F38.92
sI3
F1.665
sI4
F1.0
sI5
F1.0
sI7
F1.0
sI8
F0.25
sI9
F1.0
sI13
F1.0
sI15
F390.0
sI20
F1.0
sI21
F1.0
sI37
F1.0
ssbsg27
g0
(g28
g2
Ntp3342
Rp3343
(dp3344
g32
I0
sbsba(ics475_types
Instance
p3345
(dp3346
g22
(ics475_types
FeatureVector
p3347
(dp3348
g25
(dp3349
I2
F39.17
sI3
F2.5
sI8
F10.0
sI9
F1.0
sI12
F1.0
sI14
F200.0
sI16
F1.0
sI17
F1.0
sI18
F1.0
sI20
F1.0
sI22
F1.0
sI25
F1.0
sI27
F1.0
ssbsg27
g0
(g28
g2
Ntp3350
Rp3351
(dp3352
g32
I0
sbsba(ics475_types
Instance
p3353
(dp3354
g22
(ics475_types
FeatureVector
p3355
(dp3356
g25
(dp3357
I2
F29.42
sI3
F1.25
sI4
F1.0
sI5
F1.0
sI6
F1.0
sI8
F0.25
sI9
F1.0
sI10
F1.0
sI11
F2.0
sI12
F1.0
sI13
F1.0
sI14
F400.0
sI15
F108.0
sI16
F1.0
sI27
F1.0
ssbsg27
g0
(g28
g2
Ntp3358
Rp3359
(dp3360
g32
I0
sbsba(ics475_types
Instance
p3361
(dp3362
g22
(ics475_types
FeatureVector
p3363
(dp3364
g25
(dp3365
I2
F23.08
sI4
F1.0
sI5
F1.0
sI7
F1.0
sI8
F1.0
sI9
F1.0
sI10
F1.0
sI11
F11.0
sI16
F1.0
sI19
F1.0
sI21
F1.0
sI22
F1.0
ssbsg27
g0
(g28
g2
Ntp3366
Rp3367
(dp3368
g32
I0
sbsba(ics475_types
Instance
p3369
(dp3370
g22
(ics475_types
FeatureVector
p3371
(dp3372
g25
(dp3373
I33
F1.0
sI2
F22.08
sI3
F11.0
sI4
F1.0
sI5
F1.0
sI7
F1.0
sI8
F0.665
sI13
F1.0
sI14
F100.0
sI16
F1.0
sI20
F1.0
sI21
F1.0
sI36
F1.0
ssbsg27
g0
(g28
g2
Ntp3374
Rp3375
(dp3376
g32
I1
sbsba(ics475_types
Instance
p3377
(dp3378
g22
(ics475_types
FeatureVector
p3379
(dp3380
g25
(dp3381
I33
F1.0
sI2
F21.67
sI3
F1.165
sI7
F1.0
sI8
F2.5
sI10
F1.0
sI11
F1.0
sI13
F1.0
sI14
F180.0
sI15
F20.0
sI16
F1.0
sI17
F1.0
sI18
F1.0
sI19
F1.0
sI21
F1.0
ssbsg27
g0
(g28
g2
Ntp3382
Rp3383
(dp3384
g32
I0
sbsba(ics475_types
Instance
p3385
(dp3386
g22
(ics475_types
FeatureVector
p3387
(dp3388
g25
(dp3389
I33
F1.0
sI2
F23.25
sI3
F1.5
sI4
F1.0
sI5
F1.0
sI7
F1.0
sI8
F2.375
sI10
F1.0
sI11
F3.0
sI12
F1.0
sI13
F1.0
sI15
F582.0
sI16
F1.0
sI30
F1.0
ssbsg27
g0
(g28
g2
Ntp3390
Rp3391
(dp3392
g32
I1
sbsba(ics475_types
Instance
p3393
(dp3394
g22
(ics475_types
FeatureVector
p3395
(dp3396
g25
(dp3397
I1
F1.0
sI2
F40.83
sI3
F10.0
sI4
F1.0
sI5
F1.0
sI33
F1.0
sI8
F1.75
sI13
F1.0
sI14
F29.0
sI15
F837.0
sI20
F1.0
sI21
F1.0
sI27
F1.0
sI30
F1.0
ssbsg27
g0
(g28
g2
Ntp3398
Rp3399
(dp3400
g32
I1
sbsba(ics475_types
Instance
p3401
(dp3402
g22
(ics475_types
FeatureVector
p3403
(dp3404
g25
(dp3405
I33
F1.0
sI2
F27.25
sI3
F0.625
sI4
F1.0
sI5
F1.0
sI7
F1.0
sI8
F0.455
sI12
F1.0
sI13
F1.0
sI14
F200.0
sI16
F1.0
sI20
F1.0
sI37
F1.0
ssbsg27
g0
(g28
g2
Ntp3406
Rp3407
(dp3408
g32
I0
sbsba(ics475_types
Instance
p3409
(dp3410
g22
(ics475_types
FeatureVector
p3411
(dp3412
g25
(dp3413
I1
F1.0
sI2
F21.75
sI3
F11.75
sI4
F1.0
sI5
F1.0
sI6
F1.0
sI7
F1.0
sI8
F0.25
sI9
F1.0
sI12
F1.0
sI13
F1.0
sI14
F180.0
sI20
F1.0
ssbsg27
g0
(g28
g2
Ntp3414
Rp3415
(dp3416
g32
I0
sbsba(ics475_types
Instance
p3417
(dp3418
g22
(ics475_types
FeatureVector
p3419
(dp3420
g25
(dp3421
I1
F1.0
sI2
F21.92
sI3
F11.665
sI4
F1.0
sI5
F1.0
sI8
F0.085
sI9
F1.0
sI13
F1.0
sI14
F320.0
sI15
F5.0
sI19
F1.0
sI20
F1.0
sI21
F1.0
sI27
F1.0
ssbsg27
g0
(g28
g2
Ntp3422
Rp3423
(dp3424
g32
I0
sbsba(ics475_types
Instance
p3425
(dp3426
g22
(ics475_types
FeatureVector
p3427
(dp3428
g25
(dp3429
I1
F1.0
sI2
F31.92
sI3
F3.125
sI4
F1.0
sI5
F1.0
sI8
F3.04
sI9
F1.0
sI10
F1.0
sI11
F2.0
sI12
F1.0
sI13
F1.0
sI14
F200.0
sI15
F4.0
sI23
F1.0
sI24
F1.0
ssbsg27
g0
(g28
g2
Ntp3430
Rp3431
(dp3432
g32
I0
sbsba(ics475_types
Instance
p3433
(dp3434
g22
(ics475_types
FeatureVector
p3435
(dp3436
g25
(dp3437
I33
F1.0
sI2
F29.92
sI3
F1.835
sI4
F1.0
sI5
F1.0
sI6
F1.0
sI8
F4.335
sI13
F1.0
sI14
F260.0
sI15
F200.0
sI16
F1.0
sI20
F1.0
sI21
F1.0
sI27
F1.0
ssbsg27
g0
(g28
g2
Ntp3438
Rp3439
(dp3440
g32
I1
sbsba(ics475_types
Instance
p3441
(dp3442
g22
(ics475_types
FeatureVector
p3443
(dp3444
g25
(dp3445
I1
F1.0
sI2
F21.75
sI3
F1.75
sI9
F1.0
sI13
F1.0
sI14
F160.0
sI17
F1.0
sI18
F1.0
sI20
F1.0
sI21
F1.0
sI28
F1.0
sI29
F1.0
ssbsg27
g0
(g28
g2
Ntp3446
Rp3447
(dp3448
g32
I0
sbsba(ics475_types
Instance
p3449
(dp3450
g22
(ics475_types
FeatureVector
p3451
(dp3452
g25
(dp3453
I2
F37.33
sI3
F2.665
sI4
F1.0
sI5
F1.0
sI7
F1.0
sI8
F0.165
sI9
F1.0
sI12
F1.0
sI13
F1.0
sI15
F501.0
sI16
F1.0
sI20
F1.0
sI36
F1.0
ssbsg27
g0
(g28
g2
Ntp3454
Rp3455
(dp3456
g32
I0
sbsba(ics475_types
Instance
p3457
(dp3458
g22
(ics475_types
FeatureVector
p3459
(dp3460
g25
(dp3461
I1
F1.0
sI2
F47.75
sI3
F8.0
sI4
F1.0
sI5
F1.0
sI6
F1.0
sI7
F1.0
sI8
F7.875
sI10
F1.0
sI11
F6.0
sI12
F1.0
sI13
F1.0
sI15
F1260.0
sI33
F1.0
ssbsg27
g0
(g28
g2
Ntp3462
Rp3463
(dp3464
g32
I1
sbsba(ics475_types
Instance
p3465
(dp3466
g22
(ics475_types
FeatureVector
p3467
(dp3468
g25
(dp3469
I1
F1.0
sI2
F22.5
sI3
F11.0
sI33
F1.0
sI7
F1.0
sI8
F3.0
sI12
F1.0
sI13
F1.0
sI14
F268.0
sI17
F1.0
sI18
F1.0
sI20
F1.0
sI30
F1.0
ssbsg27
g0
(g28
g2
Ntp3470
Rp3471
(dp3472
g32
I0
sbsba(ics475_types
Instance
p3473
(dp3474
g22
(ics475_types
FeatureVector
p3475
(dp3476
g25
(dp3477
I2
F29.5
sI3
F0.58
sI4
F1.0
sI5
F1.0
sI7
F1.0
sI8
F0.29
sI9
F1.0
sI10
F1.0
sI11
F1.0
sI13
F1.0
sI14
F340.0
sI15
F2803.0
sI16
F1.0
sI21
F1.0
sI31
F1.0
ssbsg27
g0
(g28
g2
Ntp3478
Rp3479
(dp3480
g32
I0
sbsba(ics475_types
Instance
p3481
(dp3482
g22
(ics475_types
FeatureVector
p3483
(dp3484
g25
(dp3485
I32
F1.0
sI33
F1.0
sI2
F51.33
sI3
F10.0
sI4
F1.0
sI5
F1.0
sI10
F1.0
sI11
F11.0
sI13
F1.0
sI15
F1249.0
sI16
F1.0
sI21
F1.0
sI25
F1.0
ssbsg27
g0
(g28
g2
Ntp3486
Rp3487
(dp3488
g32
I1
sbsba(ics475_types
Instance
p3489
(dp3490
g22
(ics475_types
FeatureVector
p3491
(dp3492
g25
(dp3493
I2
F24.08
sI3
F0.875
sI4
F1.0
sI5
F1.0
sI7
F1.0
sI8
F0.085
sI9
F1.0
sI10
F1.0
sI11
F4.0
sI13
F1.0
sI14
F254.0
sI15
F1950.0
sI16
F1.0
sI35
F1.0
sI21
F1.0
ssbsg27
g0
(g28
g2
Ntp3494
Rp3495
(dp3496
g32
I0
sbsba(ics475_types
Instance
p3497
(dp3498
g22
(ics475_types
FeatureVector
p3499
(dp3500
g25
(dp3501
I32
F1.0
sI2
F47.83
sI3
F4.165
sI4
F1.0
sI5
F1.0
sI39
F1.0
sI8
F0.085
sI9
F1.0
sI12
F1.0
sI13
F1.0
sI14
F520.0
sI16
F1.0
sI20
F1.0
ssbsg27
g0
(g28
g2
Ntp3502
Rp3503
(dp3504
g32
I0
sbsba(ics475_types
Instance
p3505
(dp3506
g22
(ics475_types
FeatureVector
p3507
(dp3508
g25
(dp3509
I2
F18.25
sI3
F0.165
sI4
F1.0
sI5
F1.0
sI7
F1.0
sI8
F0.25
sI9
F1.0
sI12
F1.0
sI34
F1.0
sI14
F280.0
sI16
F1.0
sI20
F1.0
sI22
F1.0
ssbsg27
g0
(g28
g2
Ntp3510
Rp3511
(dp3512
g32
I0
sbsba(ics475_types
Instance
p3513
(dp3514
g22
(ics475_types
FeatureVector
p3515
(dp3516
g25
(dp3517
I33
F1.0
sI2
F48.75
sI3
F26.335
sI12
F1.0
sI13
F1.0
sI16
F1.0
sI17
F1.0
sI18
F1.0
sI20
F1.0
sI23
F1.0
sI24
F1.0
ssbsg27
g0
(g28
g2
Ntp3518
Rp3519
(dp3520
g32
I0
sbsba(ics475_types
Instance
p3521
(dp3522
g22
(ics475_types
FeatureVector
p3523
(dp3524
g25
(dp3525
I33
F1.0
sI2
F34.75
sI3
F15.0
sI4
F1.0
sI5
F1.0
sI38
F1.0
sI8
F5.375
sI10
F1.0
sI11
F9.0
sI12
F1.0
sI13
F1.0
sI15
F134.0
sI16
F1.0
sI40
F1.0
ssbsg27
g0
(g28
g2
Ntp3526
Rp3527
(dp3528
g32
I1
sbsba(ics475_types
Instance
p3529
(dp3530
g22
(ics475_types
FeatureVector
p3531
(dp3532
g25
(dp3533
I1
F1.0
sI2
F18.83
sI3
F4.415
sI6
F1.0
sI33
F1.0
sI8
F3.0
sI13
F1.0
sI14
F240.0
sI17
F1.0
sI18
F1.0
sI20
F1.0
sI21
F1.0
sI27
F1.0
ssbsg27
g0
(g28
g2
Ntp3534
Rp3535
(dp3536
g32
I1
sbsba(ics475_types
Instance
p3537
(dp3538
g22
(ics475_types
FeatureVector
p3539
(dp3540
g25
(dp3541
I2
F21.25
sI3
F1.5
sI4
F1.0
sI5
F1.0
sI7
F1.0
sI8
F1.5
sI9
F1.0
sI13
F1.0
sI14
F150.0
sI15
F8.0
sI16
F1.0
sI20
F1.0
sI21
F1.0
sI31
F1.0
ssbsg27
g0
(g28
g2
Ntp3542
Rp3543
(dp3544
g32
I1
sbsba(ics475_types
Instance
p3545
(dp3546
g22
(ics475_types
FeatureVector
p3547
(dp3548
g25
(dp3549
I33
F1.0
sI2
F48.58
sI3
F6.5
sI4
F1.0
sI5
F1.0
sI8
F6.0
sI12
F1.0
sI13
F1.0
sI14
F350.0
sI16
F1.0
sI20
F1.0
sI27
F1.0
sI30
F1.0
ssbsg27
g0
(g28
g2
Ntp3550
Rp3551
(dp3552
g32
I1
sbsba(ics475_types
Instance
p3553
(dp3554
g22
(ics475_types
FeatureVector
p3555
(dp3556
g25
(dp3557
I32
F1.0
sI33
F1.0
sI2
F25.75
sI3
F0.75
sI4
F1.0
sI5
F1.0
sI6
F1.0
sI8
F0.25
sI13
F1.0
sI14
F349.0
sI15
F23.0
sI16
F1.0
sI20
F1.0
sI21
F1.0
ssbsg27
g0
(g28
g2
Ntp3558
Rp3559
(dp3560
g32
I1
sbsba(ics475_types
Instance
p3561
(dp3562
g22
(ics475_types
FeatureVector
p3563
(dp3564
g25
(dp3565
I1
F1.0
sI2
F46.08
sI3
F3.0
sI4
F1.0
sI5
F1.0
sI6
F1.0
sI7
F1.0
sI8
F2.375
sI10
F1.0
sI11
F8.0
sI12
F1.0
sI13
F1.0
sI14
F396.0
sI15
F4159.0
sI33
F1.0
ssbsg27
g0
(g28
g2
Ntp3566
Rp3567
(dp3568
g32
I1
sbsba(ics475_types
Instance
p3569
(dp3570
g22
(ics475_types
FeatureVector
p3571
(dp3572
g25
(dp3573
I2
F30.33
sI3
F0.5
sI4
F1.0
sI5
F1.0
sI8
F0.085
sI9
F1.0
sI12
F1.0
sI34
F1.0
sI14
F252.0
sI16
F1.0
sI20
F1.0
sI22
F1.0
sI27
F1.0
ssbsg27
g0
(g28
g2
Ntp3574
Rp3575
(dp3576
g32
I0
sbsba(ics475_types
Instance
p3577
(dp3578
g22
(ics475_types
FeatureVector
p3579
(dp3580
g25
(dp3581
I33
F1.0
sI2
F34.0
sI3
F4.5
sI4
F1.0
sI5
F1.0
sI7
F1.0
sI8
F1.0
sI12
F1.0
sI13
F1.0
sI14
F240.0
sI16
F1.0
sI20
F1.0
sI37
F1.0
ssbsg27
g0
(g28
g2
Ntp3582
Rp3583
(dp3584
g32
I0
sbsba(ics475_types
Instance
p3585
(dp3586
g22
(ics475_types
FeatureVector
p3587
(dp3588
g25
(dp3589
I33
F1.0
sI2
F24.58
sI3
F12.5
sI4
F1.0
sI5
F1.0
sI7
F1.0
sI8
F0.875
sI12
F1.0
sI13
F1.0
sI14
F260.0
sI16
F1.0
sI20
F1.0
sI31
F1.0
ssbsg27
g0
(g28
g2
Ntp3590
Rp3591
(dp3592
g32
I0
sbsba(ics475_types
Instance
p3593
(dp3594
g22
(ics475_types
FeatureVector
p3595
(dp3596
g25
(dp3597
I2
F32.33
sI3
F2.5
sI4
F1.0
sI5
F1.0
sI6
F1.0
sI7
F1.0
sI8
F1.25
sI9
F1.0
sI12
F1.0
sI13
F1.0
sI14
F280.0
sI16
F1.0
sI20
F1.0
ssbsg27
g0
(g28
g2
Ntp3598
Rp3599
(dp3600
g32
I0
sbsba(ics475_types
Instance
p3601
(dp3602
g22
(ics475_types
FeatureVector
p3603
(dp3604
g25
(dp3605
I33
F1.0
sI2
F20.42
sI3
F1.835
sI4
F1.0
sI5
F1.0
sI6
F1.0
sI7
F1.0
sI8
F2.25
sI10
F1.0
sI11
F1.0
sI13
F1.0
sI14
F100.0
sI15
F150.0
sI16
F1.0
sI21
F1.0
ssbsg27
g0
(g28
g2
Ntp3606
Rp3607
(dp3608
g32
I1
sbsba(ics475_types
Instance
p3609
(dp3610
g22
(ics475_types
FeatureVector
p3611
(dp3612
g25
(dp3613
I33
F1.0
sI2
F29.17
sI3
F3.5
sI4
F1.0
sI5
F1.0
sI7
F1.0
sI8
F3.5
sI10
F1.0
sI11
F3.0
sI12
F1.0
sI13
F1.0
sI14
F329.0
sI16
F1.0
sI31
F1.0
ssbsg27
g0
(g28
g2
Ntp3614
Rp3615
(dp3616
g32
I0
sbsba(ics475_types
Instance
p3617
(dp3618
g22
(ics475_types
FeatureVector
p3619
(dp3620
g25
(dp3621
I2
F51.83
sI3
F3.0
sI8
F1.5
sI9
F1.0
sI13
F1.0
sI14
F180.0
sI15
F4.0
sI16
F1.0
sI17
F1.0
sI18
F1.0
sI20
F1.0
sI21
F1.0
sI23
F1.0
sI24
F1.0
ssbsg27
g0
(g28
g2
Ntp3622
Rp3623
(dp3624
g32
I0
sbsba(ics475_types
Instance
p3625
(dp3626
g22
(ics475_types
FeatureVector
p3627
(dp3628
g25
(dp3629
I1
F1.0
sI2
F29.5
sI3
F0.46
sI4
F1.0
sI5
F1.0
sI7
F1.0
sI8
F0.54
sI10
F1.0
sI11
F4.0
sI13
F1.0
sI14
F380.0
sI15
F500.0
sI19
F1.0
sI21
F1.0
sI33
F1.0
ssbsg27
g0
(g28
g2
Ntp3630
Rp3631
(dp3632
g32
I1
sbsba(ics475_types
Instance
p3633
(dp3634
g22
(ics475_types
FeatureVector
p3635
(dp3636
g25
(dp3637
I2
F33.58
sI3
F0.335
sI36
F1.0
sI7
F1.0
sI8
F0.085
sI9
F1.0
sI13
F1.0
sI14
F180.0
sI16
F1.0
sI17
F1.0
sI18
F1.0
sI20
F1.0
sI21
F1.0
ssbsg27
g0
(g28
g2
Ntp3638
Rp3639
(dp3640
g32
I0
sbsba(ics475_types
Instance
p3641
(dp3642
g22
(ics475_types
FeatureVector
p3643
(dp3644
g25
(dp3645
I1
F1.0
sI2
F45.83
sI3
F10.5
sI4
F1.0
sI5
F1.0
sI7
F1.0
sI8
F5.0
sI10
F1.0
sI11
F7.0
sI12
F1.0
sI13
F1.0
sI33
F1.0
sI30
F1.0
ssbsg27
g0
(g28
g2
Ntp3646
Rp3647
(dp3648
g32
I1
sbsba(ics475_types
Instance
p3649
(dp3650
g22
(ics475_types
FeatureVector
p3651
(dp3652
g25
(dp3653
I2
F48.08
sI3
F6.04
sI4
F1.0
sI5
F1.0
sI7
F1.0
sI8
F0.04
sI9
F1.0
sI13
F1.0
sI15
F2690.0
sI16
F1.0
sI19
F1.0
sI20
F1.0
sI21
F1.0
ssbsg27
g0
(g28
g2
Ntp3654
Rp3655
(dp3656
g32
I1
sbsba(ics475_types
Instance
p3657
(dp3658
g22
(ics475_types
FeatureVector
p3659
(dp3660
g25
(dp3661
I32
F1.0
sI2
F33.58
sI3
F0.25
sI4
F1.0
sI5
F1.0
sI8
F4.0
sI9
F1.0
sI12
F1.0
sI14
F420.0
sI16
F1.0
sI20
F1.0
sI22
F1.0
sI25
F1.0
ssbsg27
g0
(g28
g2
Ntp3662
Rp3663
(dp3664
g32
I0
sbsba(ics475_types
Instance
p3665
(dp3666
g22
(ics475_types
FeatureVector
p3667
(dp3668
g25
(dp3669
I32
F1.0
sI2
F34.42
sI3
F1.335
sI4
F1.0
sI5
F1.0
sI8
F0.125
sI9
F1.0
sI12
F1.0
sI13
F1.0
sI14
F440.0
sI15
F4500.0
sI16
F1.0
sI20
F1.0
sI25
F1.0
ssbsg27
g0
(g28
g2
Ntp3670
Rp3671
(dp3672
g32
I0
sbsba(ics475_types
Instance
p3673
(dp3674
g22
(ics475_types
FeatureVector
p3675
(dp3676
g25
(dp3677
I2
F22.5
sI3
F0.125
sI7
F1.0
sI8
F0.125
sI9
F1.0
sI13
F1.0
sI14
F200.0
sI15
F70.0
sI16
F1.0
sI17
F1.0
sI18
F1.0
sI19
F1.0
sI20
F1.0
sI21
F1.0
ssbsg27
g0
(g28
g2
Ntp3678
Rp3679
(dp3680
g32
I0
sbsba(ics475_types
Instance
p3681
(dp3682
g22
(ics475_types
FeatureVector
p3683
(dp3684
g25
(dp3685
I1
F1.0
sI2
F68.67
sI3
F15.0
sI4
F1.0
sI5
F1.0
sI33
F1.0
sI41
F1.0
sI10
F1.0
sI11
F14.0
sI13
F1.0
sI15
F3376.0
sI21
F1.0
sI42
F1.0
ssbsg27
g0
(g28
g2
Ntp3686
Rp3687
(dp3688
g32
I1
sbsba(ics475_types
Instance
p3689
(dp3690
g22
(ics475_types
FeatureVector
p3691
(dp3692
g25
(dp3693
I1
F1.0
sI2
F30.25
sI3
F5.5
sI4
F1.0
sI5
F1.0
sI7
F1.0
sI8
F5.5
sI9
F1.0
sI12
F1.0
sI14
F100.0
sI19
F1.0
sI20
F1.0
sI22
F1.0
ssbsg27
g0
(g28
g2
Ntp3694
Rp3695
(dp3696
g32
I0
sbsba(ics475_types
Instance
p3697
(dp3698
g22
(ics475_types
FeatureVector
p3699
(dp3700
g25
(dp3701
I32
F1.0
sI2
F19.17
sI35
F1.0
sI9
F1.0
sI12
F1.0
sI14
F500.0
sI15
F1.0
sI16
F1.0
sI17
F1.0
sI18
F1.0
sI20
F1.0
sI22
F1.0
ssbsg27
g0
(g28
g2
Ntp3702
Rp3703
(dp3704
g32
I1
sbsba(ics475_types
Instance
p3705
(dp3706
g22
(ics475_types
FeatureVector
p3707
(dp3708
g25
(dp3709
I33
F1.0
sI2
F28.25
sI3
F5.125
sI4
F1.0
sI5
F1.0
sI7
F1.0
sI8
F4.75
sI10
F1.0
sI11
F2.0
sI13
F1.0
sI14
F420.0
sI15
F7.0
sI16
F1.0
sI21
F1.0
sI39
F1.0
ssbsg27
g0
(g28
g2
Ntp3710
Rp3711
(dp3712
g32
I1
sbsba(ics475_types
Instance
p3713
(dp3714
g22
(ics475_types
FeatureVector
p3715
(dp3716
g25
(dp3717
I33
F1.0
sI2
F23.92
sI3
F1.5
sI4
F1.0
sI5
F1.0
sI8
F1.875
sI10
F1.0
sI11
F6.0
sI13
F1.0
sI14
F200.0
sI15
F327.0
sI16
F1.0
sI34
F1.0
sI21
F1.0
sI27
F1.0
ssbsg27
g0
(g28
g2
Ntp3718
Rp3719
(dp3720
g32
I1
sbsba(ics475_types
Instance
p3721
(dp3722
g22
(ics475_types
FeatureVector
p3723
(dp3724
g25
(dp3725
I2
F25.58
sI3
F0.335
sI4
F1.0
sI5
F1.0
sI8
F3.5
sI9
F1.0
sI12
F1.0
sI13
F1.0
sI14
F340.0
sI16
F1.0
sI19
F1.0
sI20
F1.0
sI27
F1.0
ssbsg27
g0
(g28
g2
Ntp3726
Rp3727
(dp3728
g32
I0
sbsba(ics475_types
Instance
p3729
(dp3730
g22
(ics475_types
FeatureVector
p3731
(dp3732
g25
(dp3733
I33
F1.0
sI2
F51.42
sI3
F0.04
sI4
F1.0
sI5
F1.0
sI39
F1.0
sI8
F0.04
sI13
F1.0
sI15
F3000.0
sI16
F1.0
sI20
F1.0
sI21
F1.0
sI27
F1.0
ssbsg27
g0
(g28
g2
Ntp3734
Rp3735
(dp3736
g32
I1
sbsba(ics475_types
Instance
p3737
(dp3738
g22
(ics475_types
FeatureVector
p3739
(dp3740
g25
(dp3741
I1
F1.0
sI2
F23.58
sI3
F0.585
sI8
F0.125
sI9
F1.0
sI13
F1.0
sI14
F120.0
sI15
F87.0
sI17
F1.0
sI18
F1.0
sI20
F1.0
sI21
F1.0
sI23
F1.0
sI24
F1.0
ssbsg27
g0
(g28
g2
Ntp3742
Rp3743
(dp3744
g32
I0
sbsba(ics475_types
Instance
p3745
(dp3746
g22
(ics475_types
FeatureVector
p3747
(dp3748
g25
(dp3749
I33
F1.0
sI2
F36.67
sI3
F4.415
sI7
F1.0
sI8
F0.25
sI10
F1.0
sI11
F10.0
sI12
F1.0
sI13
F1.0
sI14
F320.0
sI16
F1.0
sI17
F1.0
sI18
F1.0
sI19
F1.0
ssbsg27
g0
(g28
g2
Ntp3750
Rp3751
(dp3752
g32
I1
sbsba(ics475_types
Instance
p3753
(dp3754
g22
(ics475_types
FeatureVector
p3755
(dp3756
g25
(dp3757
I2
F30.17
sI3
F1.085
sI6
F1.0
sI7
F1.0
sI8
F0.04
sI9
F1.0
sI13
F1.0
sI14
F170.0
sI15
F179.0
sI16
F1.0
sI17
F1.0
sI18
F1.0
sI20
F1.0
sI21
F1.0
ssbsg27
g0
(g28
g2
Ntp3758
Rp3759
(dp3760
g32
I0
sbsba(ics475_types
Instance
p3761
(dp3762
g22
(ics475_types
FeatureVector
p3763
(dp3764
g25
(dp3765
I2
F50.75
sI3
F0.585
sI4
F1.0
sI5
F1.0
sI9
F1.0
sI13
F1.0
sI14
F145.0
sI16
F1.0
sI20
F1.0
sI21
F1.0
sI23
F1.0
sI24
F1.0
ssbsg27
g0
(g28
g2
Ntp3766
Rp3767
(dp3768
g32
I0
sbsba(ics475_types
Instance
p3769
(dp3770
g22
(ics475_types
FeatureVector
p3771
(dp3772
g25
(dp3773
I1
F1.0
sI2
F20.75
sI3
F9.54
sI4
F1.0
sI5
F1.0
sI7
F1.0
sI8
F0.04
sI9
F1.0
sI13
F1.0
sI14
F200.0
sI15
F1000.0
sI20
F1.0
sI21
F1.0
sI25
F1.0
ssbsg27
g0
(g28
g2
Ntp3774
Rp3775
(dp3776
g32
I0
sbsba(ics475_types
Instance
p3777
(dp3778
g22
(ics475_types
FeatureVector
p3779
(dp3780
g25
(dp3781
I33
F1.0
sI2
F49.58
sI3
F19.0
sI4
F1.0
sI5
F1.0
sI10
F1.0
sI11
F1.0
sI13
F1.0
sI14
F94.0
sI16
F1.0
sI21
F1.0
sI23
F1.0
sI24
F1.0
ssbsg27
g0
(g28
g2
Ntp3782
Rp3783
(dp3784
g32
I0
sbsba(ics475_types
Instance
p3785
(dp3786
g22
(ics475_types
FeatureVector
p3787
(dp3788
g25
(dp3789
I2
F39.5
sI3
F1.625
sI4
F1.0
sI5
F1.0
sI6
F1.0
sI7
F1.0
sI8
F1.5
sI9
F1.0
sI13
F1.0
sI15
F316.0
sI16
F1.0
sI20
F1.0
sI21
F1.0
ssbsg27
g0
(g28
g2
Ntp3790
Rp3791
(dp3792
g32
I0
sbsba(ics475_types
Instance
p3793
(dp3794
g22
(ics475_types
FeatureVector
p3795
(dp3796
g25
(dp3797
I1
F1.0
sI2
F23.0
sI3
F11.75
sI4
F1.0
sI5
F1.0
sI33
F1.0
sI8
F0.5
sI10
F1.0
sI11
F2.0
sI12
F1.0
sI13
F1.0
sI14
F300.0
sI15
F551.0
sI39
F1.0
sI27
F1.0
ssbsg27
g0
(g28
g2
Ntp3798
Rp3799
(dp3800
g32
I1
sbsba(ics475_types
Instance
p3801
(dp3802
g22
(ics475_types
FeatureVector
p3803
(dp3804
g25
(dp3805
I1
F1.0
sI2
F36.75
sI3
F5.125
sI4
F1.0
sI5
F1.0
sI7
F1.0
sI8
F5.0
sI41
F1.0
sI12
F1.0
sI13
F1.0
sI15
F4000.0
sI20
F1.0
sI33
F1.0
ssbsg27
g0
(g28
g2
Ntp3806
Rp3807
(dp3808
g32
I1
sbsba(ics475_types
Instance
p3809
(dp3810
g22
(ics475_types
FeatureVector
p3811
(dp3812
g25
(dp3813
I2
F36.75
sI3
F0.125
sI6
F1.0
sI7
F1.0
sI8
F1.5
sI9
F1.0
sI12
F1.0
sI13
F1.0
sI14
F232.0
sI15
F113.0
sI16
F1.0
sI17
F1.0
sI18
F1.0
sI20
F1.0
ssbsg27
g0
(g28
g2
Ntp3814
Rp3815
(dp3816
g32
I1
sbsba(ics475_types
Instance
p3817
(dp3818
g22
(ics475_types
FeatureVector
p3819
(dp3820
g25
(dp3821
I2
F22.75
sI3
F11.5
sI4
F1.0
sI5
F1.0
sI7
F1.0
sI8
F0.415
sI9
F1.0
sI13
F1.0
sI16
F1.0
sI20
F1.0
sI21
F1.0
sI25
F1.0
ssbsg27
g0
(g28
g2
Ntp3822
Rp3823
(dp3824
g32
I0
sbsba(ics475_types
Instance
p3825
(dp3826
g22
(ics475_types
FeatureVector
p3827
(dp3828
g25
(dp3829
I33
F1.0
sI2
F37.33
sI3
F6.5
sI4
F1.0
sI5
F1.0
sI8
F4.25
sI10
F1.0
sI11
F12.0
sI12
F1.0
sI13
F1.0
sI14
F93.0
sI16
F1.0
sI35
F1.0
sI27
F1.0
ssbsg27
g0
(g28
g2
Ntp3830
Rp3831
(dp3832
g32
I1
sbsba(ics475_types
Instance
p3833
(dp3834
g22
(ics475_types
FeatureVector
p3835
(dp3836
g25
(dp3837
I33
F1.0
sI2
F23.58
sI3
F0.46
sI7
F1.0
sI8
F2.625
sI10
F1.0
sI11
F6.0
sI12
F1.0
sI13
F1.0
sI14
F208.0
sI15
F347.0
sI16
F1.0
sI17
F1.0
sI18
F1.0
sI31
F1.0
ssbsg27
g0
(g28
g2
Ntp3838
Rp3839
(dp3840
g32
I0
sbsba(ics475_types
Instance
p3841
(dp3842
g22
(ics475_types
FeatureVector
p3843
(dp3844
g25
(dp3845
I2
F22.5
sI3
F11.5
sI7
F1.0
sI8
F1.5
sI9
F1.0
sI12
F1.0
sI13
F1.0
sI15
F4000.0
sI16
F1.0
sI17
F1.0
sI18
F1.0
sI35
F1.0
sI20
F1.0
ssbsg27
g0
(g28
g2
Ntp3846
Rp3847
(dp3848
g32
I0
sbsba(ics475_types
Instance
p3849
(dp3850
g22
(ics475_types
FeatureVector
p3851
(dp3852
g25
(dp3853
I1
F1.0
sI2
F18.58
sI3
F10.0
sI4
F1.0
sI5
F1.0
sI7
F1.0
sI8
F0.415
sI9
F1.0
sI13
F1.0
sI14
F80.0
sI15
F42.0
sI34
F1.0
sI20
F1.0
sI21
F1.0
ssbsg27
g0
(g28
g2
Ntp3854
Rp3855
(dp3856
g32
I0
sbsba(ics475_types
Instance
p3857
(dp3858
g22
(ics475_types
FeatureVector
p3859
(dp3860
g25
(dp3861
I32
F1.0
sI1
F1.0
sI2
F33.75
sI3
F0.75
sI4
F1.0
sI5
F1.0
sI33
F1.0
sI8
F1.0
sI10
F1.0
sI11
F3.0
sI12
F1.0
sI13
F1.0
sI14
F212.0
sI19
F1.0
ssbsg27
g0
(g28
g2
Ntp3862
Rp3863
(dp3864
g32
I0
sbsba(ics475_types
Instance
p3865
(dp3866
g22
(ics475_types
FeatureVector
p3867
(dp3868
g25
(dp3869
I1
F1.0
sI2
F36.0
sI3
F1.0
sI4
F1.0
sI5
F1.0
sI6
F1.0
sI7
F1.0
sI8
F2.0
sI10
F1.0
sI11
F11.0
sI13
F1.0
sI15
F456.0
sI21
F1.0
sI33
F1.0
ssbsg27
g0
(g28
g2
Ntp3870
Rp3871
(dp3872
g32
I1
sbsba(ics475_types
Instance
p3873
(dp3874
g22
(ics475_types
FeatureVector
p3875
(dp3876
g25
(dp3877
I2
F31.83
sI3
F0.04
sI7
F1.0
sI8
F0.04
sI9
F1.0
sI13
F1.0
sI16
F1.0
sI17
F1.0
sI18
F1.0
sI35
F1.0
sI20
F1.0
sI21
F1.0
ssbsg27
g0
(g28
g2
Ntp3878
Rp3879
(dp3880
g32
I0
sbsba(ics475_types
Instance
p3881
(dp3882
g22
(ics475_types
FeatureVector
p3883
(dp3884
g25
(dp3885
I33
F1.0
sI2
F59.67
sI3
F1.54
sI4
F1.0
sI5
F1.0
sI7
F1.0
sI8
F0.125
sI12
F1.0
sI13
F1.0
sI14
F260.0
sI16
F1.0
sI20
F1.0
sI30
F1.0
ssbsg27
g0
(g28
g2
Ntp3886
Rp3887
(dp3888
g32
I1
sbsba(ics475_types
Instance
p3889
(dp3890
g22
(ics475_types
FeatureVector
p3891
(dp3892
g25
(dp3893
I2
F42.75
sI3
F4.085
sI4
F1.0
sI5
F1.0
sI7
F1.0
sI8
F0.04
sI9
F1.0
sI13
F1.0
sI14
F108.0
sI15
F100.0
sI16
F1.0
sI20
F1.0
sI21
F1.0
sI37
F1.0
ssbsg27
g0
(g28
g2
Ntp3894
Rp3895
(dp3896
g32
I0
sbsba(ics475_types
Instance
p3897
(dp3898
g22
(ics475_types
FeatureVector
p3899
(dp3900
g25
(dp3901
I33
F1.0
sI2
F76.75
sI3
F22.29
sI4
F1.0
sI5
F1.0
sI8
F12.75
sI41
F1.0
sI10
F1.0
sI11
F1.0
sI12
F1.0
sI13
F1.0
sI15
F109.0
sI16
F1.0
sI42
F1.0
ssbsg27
g0
(g28
g2
Ntp3902
Rp3903
(dp3904
g32
I1
sbsba(ics475_types
Instance
p3905
(dp3906
g22
(ics475_types
FeatureVector
p3907
(dp3908
g25
(dp3909
I33
F1.0
sI2
F21.33
sI3
F10.5
sI4
F1.0
sI5
F1.0
sI6
F1.0
sI7
F1.0
sI8
F3.0
sI12
F1.0
sI13
F1.0
sI16
F1.0
sI20
F1.0
ssbsg27
g0
(g28
g2
Ntp3910
Rp3911
(dp3912
g32
I1
sbsba(ics475_types
Instance
p3913
(dp3914
g22
(ics475_types
FeatureVector
p3915
(dp3916
g25
(dp3917
I33
F1.0
sI2
F30.17
sI3
F6.5
sI4
F1.0
sI5
F1.0
sI7
F1.0
sI8
F3.125
sI10
F1.0
sI11
F8.0
sI13
F1.0
sI14
F330.0
sI15
F1200.0
sI16
F1.0
sI21
F1.0
sI36
F1.0
ssbsg27
g0
(g28
g2
Ntp3918
Rp3919
(dp3920
g32
I1
sbsba(ics475_types
Instance
p3921
(dp3922
g22
(ics475_types
FeatureVector
p3923
(dp3924
g25
(dp3925
I1
F1.0
sI2
F26.92
sI3
F13.5
sI4
F1.0
sI5
F1.0
sI33
F1.0
sI8
F5.0
sI10
F1.0
sI11
F2.0
sI13
F1.0
sI15
F5000.0
sI21
F1.0
sI27
F1.0
sI30
F1.0
ssbsg27
g0
(g28
g2
Ntp3926
Rp3927
(dp3928
g32
I1
sbsba(ics475_types
Instance
p3929
(dp3930
g22
(ics475_types
FeatureVector
p3931
(dp3932
g25
(dp3933
I32
F1.0
sI33
F1.0
sI2
F49.5
sI3
F7.585
sI4
F1.0
sI5
F1.0
sI8
F7.585
sI10
F1.0
sI11
F15.0
sI12
F1.0
sI13
F1.0
sI15
F5000.0
sI16
F1.0
sI25
F1.0
ssbsg27
g0
(g28
g2
Ntp3934
Rp3935
(dp3936
g32
I1
sbsba(ics475_types
Instance
p3937
(dp3938
g22
(ics475_types
FeatureVector
p3939
(dp3940
g25
(dp3941
I1
F1.0
sI2
F38.58
sI3
F5.0
sI4
F1.0
sI5
F1.0
sI7
F1.0
sI8
F13.5
sI12
F1.0
sI13
F1.0
sI14
F980.0
sI20
F1.0
sI36
F1.0
sI33
F1.0
ssbsg27
g0
(g28
g2
Ntp3942
Rp3943
(dp3944
g32
I0
sbsba(ics475_types
Instance
p3945
(dp3946
g22
(ics475_types
FeatureVector
p3947
(dp3948
g25
(dp3949
I2
F33.67
sI3
F2.165
sI4
F1.0
sI5
F1.0
sI6
F1.0
sI7
F1.0
sI8
F1.5
sI9
F1.0
sI46
F1.0
sI14
F120.0
sI16
F1.0
sI20
F1.0
sI21
F1.0
ssbsg27
g0
(g28
g2
Ntp3950
Rp3951
(dp3952
g32
I0
sbsba(ics475_types
Instance
p3953
(dp3954
g22
(ics475_types
FeatureVector
p3955
(dp3956
g25
(dp3957
I2
F19.5
sI3
F0.29
sI4
F1.0
sI5
F1.0
sI7
F1.0
sI8
F0.29
sI9
F1.0
sI13
F1.0
sI14
F280.0
sI15
F364.0
sI16
F1.0
sI19
F1.0
sI20
F1.0
sI21
F1.0
ssbsg27
g0
(g28
g2
Ntp3958
Rp3959
(dp3960
g32
I0
sbsba(ics475_types
Instance
p3961
(dp3962
g22
(ics475_types
FeatureVector
p3963
(dp3964
g25
(dp3965
I32
F1.0
sI33
F1.0
sI2
F28.25
sI3
F5.04
sI6
F1.0
sI8
F1.5
sI10
F1.0
sI11
F8.0
sI12
F1.0
sI13
F1.0
sI14
F144.0
sI15
F7.0
sI16
F1.0
sI17
F1.0
sI18
F1.0
ssbsg27
g0
(g28
g2
Ntp3966
Rp3967
(dp3968
g32
I1
sbsba(ics475_types
Instance
p3969
(dp3970
g22
(ics475_types
FeatureVector
p3971
(dp3972
g25
(dp3973
I1
F1.0
sI2
F22.67
sI3
F7.0
sI4
F1.0
sI5
F1.0
sI6
F1.0
sI7
F1.0
sI8
F0.165
sI9
F1.0
sI13
F1.0
sI14
F160.0
sI20
F1.0
sI21
F1.0
ssbsg27
g0
(g28
g2
Ntp3974
Rp3975
(dp3976
g32
I0
sbsba(ics475_types
Instance
p3977
(dp3978
g22
(ics475_types
FeatureVector
p3979
(dp3980
g25
(dp3981
I2
F36.17
sI3
F18.125
sI4
F1.0
sI5
F1.0
sI7
F1.0
sI8
F0.085
sI9
F1.0
sI13
F1.0
sI14
F320.0
sI15
F3552.0
sI16
F1.0
sI20
F1.0
sI21
F1.0
sI31
F1.0
ssbsg27
g0
(g28
g2
Ntp3982
Rp3983
(dp3984
g32
I0
sbsba(ics475_types
Instance
p3985
(dp3986
g22
(ics475_types
FeatureVector
p3987
(dp3988
g25
(dp3989
I33
F1.0
sI2
F45.17
sI3
F1.5
sI4
F1.0
sI5
F1.0
sI6
F1.0
sI7
F1.0
sI8
F2.5
sI12
F1.0
sI13
F1.0
sI14
F140.0
sI16
F1.0
sI20
F1.0
ssbsg27
g0
(g28
g2
Ntp3990
Rp3991
(dp3992
g32
I0
sbsba(ics475_types
Instance
p3993
(dp3994
g22
(ics475_types
FeatureVector
p3995
(dp3996
g25
(dp3997
I2
F52.42
sI3
F1.5
sI4
F1.0
sI5
F1.0
sI7
F1.0
sI8
F3.75
sI9
F1.0
sI12
F1.0
sI13
F1.0
sI15
F350.0
sI16
F1.0
sI34
F1.0
sI20
F1.0
ssbsg27
g0
(g28
g2
Ntp3998
Rp3999
(dp4000
g32
I0
sbsba(ics475_types
Instance
p4001
(dp4002
g22
(ics475_types
FeatureVector
p4003
(dp4004
g25
(dp4005
I2
F29.67
sI3
F0.75
sI6
F1.0
sI7
F1.0
sI8
F0.04
sI9
F1.0
sI13
F1.0
sI14
F240.0
sI16
F1.0
sI17
F1.0
sI18
F1.0
sI20
F1.0
sI21
F1.0
ssbsg27
g0
(g28
g2
Ntp4006
Rp4007
(dp4008
g32
I0
sbsba(ics475_types
Instance
p4009
(dp4010
g22
(ics475_types
FeatureVector
p4011
(dp4012
g25
(dp4013
I33
F1.0
sI2
F56.75
sI3
F12.25
sI4
F1.0
sI5
F1.0
sI7
F1.0
sI8
F1.25
sI10
F1.0
sI11
F4.0
sI12
F1.0
sI13
F1.0
sI14
F200.0
sI16
F1.0
sI35
F1.0
ssbsg27
g0
(g28
g2
Ntp4014
Rp4015
(dp4016
g32
I1
sbsba(ics475_types
Instance
p4017
(dp4018
g22
(ics475_types
FeatureVector
p4019
(dp4020
g25
(dp4021
I33
F1.0
sI2
F26.67
sI3
F4.25
sI4
F1.0
sI5
F1.0
sI7
F1.0
sI8
F4.29
sI10
F1.0
sI11
F1.0
sI12
F1.0
sI13
F1.0
sI14
F120.0
sI16
F1.0
sI36
F1.0
ssbsg27
g0
(g28
g2
Ntp4022
Rp4023
(dp4024
g32
I1
sbsba(ics475_types
Instance
p4025
(dp4026
g22
(ics475_types
FeatureVector
p4027
(dp4028
g25
(dp4029
I1
F1.0
sI2
F35.75
sI3
F0.915
sI4
F1.0
sI5
F1.0
sI7
F1.0
sI8
F0.75
sI10
F1.0
sI11
F4.0
sI13
F1.0
sI15
F1583.0
sI21
F1.0
sI33
F1.0
sI37
F1.0
ssbsg27
g0
(g28
g2
Ntp4030
Rp4031
(dp4032
g32
I1
sbsba(ics475_types
Instance
p4033
(dp4034
g22
(ics475_types
FeatureVector
p4035
(dp4036
g25
(dp4037
I2
F41.17
sI3
F1.25
sI7
F1.0
sI8
F0.25
sI9
F1.0
sI13
F1.0
sI15
F195.0
sI16
F1.0
sI17
F1.0
sI18
F1.0
sI20
F1.0
sI21
F1.0
sI31
F1.0
ssbsg27
g0
(g28
g2
Ntp4038
Rp4039
(dp4040
g32
I0
sbsba(ics475_types
Instance
p4041
(dp4042
g22
(ics475_types
FeatureVector
p4043
(dp4044
g25
(dp4045
I1
F1.0
sI2
F23.25
sI3
F5.875
sI4
F1.0
sI5
F1.0
sI7
F1.0
sI8
F3.17
sI10
F1.0
sI11
F10.0
sI13
F1.0
sI14
F120.0
sI15
F245.0
sI21
F1.0
sI33
F1.0
sI30
F1.0
ssbsg27
g0
(g28
g2
Ntp4046
Rp4047
(dp4048
g32
I1
sbsba(ics475_types
Instance
p4049
(dp4050
g22
(ics475_types
FeatureVector
p4051
(dp4052
g25
(dp4053
I2
F28.0
sI3
F3.0
sI4
F1.0
sI5
F1.0
sI7
F1.0
sI8
F0.75
sI9
F1.0
sI12
F1.0
sI13
F1.0
sI14
F300.0
sI15
F67.0
sI16
F1.0
sI20
F1.0
sI31
F1.0
ssbsg27
g0
(g28
g2
Ntp4054
Rp4055
(dp4056
g32
I0
sbsba(ics475_types
Instance
p4057
(dp4058
g22
(ics475_types
FeatureVector
p4059
(dp4060
g25
(dp4061
I2
F16.25
sI37
F1.0
sI7
F1.0
sI8
F0.25
sI9
F1.0
sI13
F1.0
sI14
F60.0
sI16
F1.0
sI17
F1.0
sI18
F1.0
sI20
F1.0
sI21
F1.0
ssbsg27
g0
(g28
g2
Ntp4062
Rp4063
(dp4064
g32
I0
sbsba(ics475_types
Instance
p4065
(dp4066
g22
(ics475_types
FeatureVector
p4067
(dp4068
g25
(dp4069
I1
F1.0
sI2
F23.0
sI3
F1.835
sI4
F1.0
sI5
F1.0
sI9
F1.0
sI10
F1.0
sI11
F1.0
sI13
F1.0
sI14
F200.0
sI15
F53.0
sI21
F1.0
sI28
F1.0
sI29
F1.0
ssbsg27
g0
(g28
g2
Ntp4070
Rp4071
(dp4072
g32
I0
sbsba(ics475_types
Instance
p4073
(dp4074
g22
(ics475_types
FeatureVector
p4075
(dp4076
g25
(dp4077
I33
F1.0
sI2
F23.33
sI3
F1.5
sI4
F1.0
sI5
F1.0
sI6
F1.0
sI8
F1.415
sI13
F1.0
sI14
F422.0
sI15
F200.0
sI16
F1.0
sI20
F1.0
sI21
F1.0
sI27
F1.0
ssbsg27
g0
(g28
g2
Ntp4078
Rp4079
(dp4080
g32
I1
sbsba(ics475_types
Instance
p4081
(dp4082
g22
(ics475_types
FeatureVector
p4083
(dp4084
g25
(dp4085
I1
F1.0
sI2
F18.08
sI3
F0.375
sI36
F1.0
sI8
F10.0
sI9
F1.0
sI12
F1.0
sI45
F1.0
sI14
F300.0
sI44
F1.0
sI20
F1.0
sI22
F1.0
sI24
F1.0
ssbsg27
g0
(g28
g2
Ntp4086
Rp4087
(dp4088
g32
I1
sbsba(ics475_types
Instance
p4089
(dp4090
g22
(ics475_types
FeatureVector
p4091
(dp4092
g25
(dp4093
I33
F1.0
sI2
F35.25
sI3
F3.165
sI4
F1.0
sI5
F1.0
sI39
F1.0
sI8
F3.75
sI12
F1.0
sI13
F1.0
sI14
F680.0
sI16
F1.0
sI20
F1.0
sI27
F1.0
ssbsg27
g0
(g28
g2
Ntp4094
Rp4095
(dp4096
g32
I0
sbsba(ics475_types
Instance
p4097
(dp4098
g22
(ics475_types
FeatureVector
p4099
(dp4100
g25
(dp4101
I2
F34.83
sI3
F2.5
sI7
F1.0
sI8
F3.0
sI9
F1.0
sI14
F200.0
sI16
F1.0
sI17
F1.0
sI18
F1.0
sI20
F1.0
sI21
F1.0
sI22
F1.0
sI31
F1.0
ssbsg27
g0
(g28
g2
Ntp4102
Rp4103
(dp4104
g32
I0
sbsba(ics475_types
Instance
p4105
(dp4106
g22
(ics475_types
FeatureVector
p4107
(dp4108
g25
(dp4109
I33
F1.0
sI2
F73.42
sI3
F17.75
sI4
F1.0
sI5
F1.0
sI12
F1.0
sI13
F1.0
sI16
F1.0
sI20
F1.0
sI23
F1.0
sI24
F1.0
ssbsg27
g0
(g28
g2
Ntp4110
Rp4111
(dp4112
g32
I1
sbsba(ics475_types
Instance
p4113
(dp4114
g22
(ics475_types
FeatureVector
p4115
(dp4116
g25
(dp4117
I2
F23.0
sI3
F0.75
sI4
F1.0
sI5
F1.0
sI7
F1.0
sI8
F0.5
sI9
F1.0
sI12
F1.0
sI14
F320.0
sI16
F1.0
sI35
F1.0
sI20
F1.0
sI22
F1.0
ssbsg27
g0
(g28
g2
Ntp4118
Rp4119
(dp4120
g32
I0
sbsba(ics475_types
Instance
p4121
(dp4122
g22
(ics475_types
FeatureVector
p4123
(dp4124
g25
(dp4125
I1
F1.0
sI2
F28.17
sI3
F0.375
sI4
F1.0
sI5
F1.0
sI7
F1.0
sI8
F0.585
sI10
F1.0
sI11
F4.0
sI13
F1.0
sI14
F80.0
sI21
F1.0
sI33
F1.0
sI30
F1.0
ssbsg27
g0
(g28
g2
Ntp4126
Rp4127
(dp4128
g32
I1
sbsba(ics475_types
Instance
p4129
(dp4130
g22
(ics475_types
FeatureVector
p4131
(dp4132
g25
(dp4133
I2
F18.08
sI3
F6.75
sI7
F1.0
sI8
F0.04
sI9
F1.0
sI13
F1.0
sI14
F140.0
sI16
F1.0
sI17
F1.0
sI18
F1.0
sI35
F1.0
sI20
F1.0
sI21
F1.0
ssbsg27
g0
(g28
g2
Ntp4134
Rp4135
(dp4136
g32
I0
sbsba(ics475_types
Instance
p4137
(dp4138
g22
(ics475_types
FeatureVector
p4139
(dp4140
g25
(dp4141
I33
F1.0
sI2
F21.5
sI3
F9.75
sI4
F1.0
sI5
F1.0
sI6
F1.0
sI7
F1.0
sI8
F0.25
sI13
F1.0
sI14
F140.0
sI16
F1.0
sI20
F1.0
sI21
F1.0
ssbsg27
g0
(g28
g2
Ntp4142
Rp4143
(dp4144
g32
I0
sbsba(ics475_types
Instance
p4145
(dp4146
g22
(ics475_types
FeatureVector
p4147
(dp4148
g25
(dp4149
I2
F39.58
sI3
F5.0
sI4
F1.0
sI5
F1.0
sI9
F1.0
sI10
F1.0
sI11
F2.0
sI13
F1.0
sI14
F17.0
sI15
F1.0
sI16
F1.0
sI21
F1.0
sI23
F1.0
sI24
F1.0
ssbsg27
g0
(g28
g2
Ntp4150
Rp4151
(dp4152
g32
I0
sbsba(ics475_types
Instance
p4153
(dp4154
g22
(ics475_types
FeatureVector
p4155
(dp4156
g25
(dp4157
I1
F1.0
sI2
F28.75
sI3
F3.75
sI4
F1.0
sI5
F1.0
sI6
F1.0
sI7
F1.0
sI8
F1.085
sI10
F1.0
sI11
F1.0
sI12
F1.0
sI13
F1.0
sI14
F371.0
sI33
F1.0
ssbsg27
g0
(g28
g2
Ntp4158
Rp4159
(dp4160
g32
I1
sbsba(ics475_types
Instance
p4161
(dp4162
g22
(ics475_types
FeatureVector
p4163
(dp4164
g25
(dp4165
I1
F1.0
sI2
F20.08
sI3
F1.25
sI4
F1.0
sI5
F1.0
sI6
F1.0
sI7
F1.0
sI9
F1.0
sI13
F1.0
sI20
F1.0
sI21
F1.0
ssbsg27
g0
(g28
g2
Ntp4166
Rp4167
(dp4168
g32
I0
sbsba(ics475_types
Instance
p4169
(dp4170
g22
(ics475_types
FeatureVector
p4171
(dp4172
g25
(dp4173
I32
F1.0
sI2
F41.5
sI3
F1.54
sI4
F1.0
sI5
F1.0
sI8
F3.5
sI9
F1.0
sI13
F1.0
sI14
F216.0
sI16
F1.0
sI20
F1.0
sI21
F1.0
sI25
F1.0
ssbsg27
g0
(g28
g2
Ntp4174
Rp4175
(dp4176
g32
I1
sbsba(ics475_types
Instance
p4177
(dp4178
g22
(ics475_types
FeatureVector
p4179
(dp4180
g25
(dp4181
I2
F23.58
sI3
F0.835
sI4
F1.0
sI5
F1.0
sI8
F0.085
sI9
F1.0
sI12
F1.0
sI13
F1.0
sI14
F220.0
sI15
F5.0
sI16
F1.0
sI20
F1.0
sI25
F1.0
sI27
F1.0
ssbsg27
g0
(g28
g2
Ntp4182
Rp4183
(dp4184
g32
I0
sbsba(ics475_types
Instance
p4185
(dp4186
g22
(ics475_types
FeatureVector
p4187
(dp4188
g25
(dp4189
I2
F37.5
sI3
F0.835
sI4
F1.0
sI5
F1.0
sI7
F1.0
sI8
F0.04
sI9
F1.0
sI13
F1.0
sI14
F120.0
sI15
F5.0
sI16
F1.0
sI20
F1.0
sI21
F1.0
sI41
F1.0
ssbsg27
g0
(g28
g2
Ntp4190
Rp4191
(dp4192
g32
I0
sbsba(ics475_types
Instance
p4193
(dp4194
g22
(ics475_types
FeatureVector
p4195
(dp4196
g25
(dp4197
I33
F1.0
sI2
F48.33
sI3
F12.0
sI4
F1.0
sI5
F1.0
sI7
F1.0
sI8
F16.0
sI14
F110.0
sI16
F1.0
sI35
F1.0
sI20
F1.0
sI21
F1.0
sI22
F1.0
ssbsg27
g0
(g28
g2
Ntp4198
Rp4199
(dp4200
g32
I1
sbsba(ics475_types
Instance
p4201
(dp4202
g22
(ics475_types
FeatureVector
p4203
(dp4204
g25
(dp4205
I1
F1.0
sI2
F49.0
sI3
F1.5
sI4
F1.0
sI5
F1.0
sI33
F1.0
sI12
F1.0
sI13
F1.0
sI14
F100.0
sI15
F27.0
sI20
F1.0
sI28
F1.0
sI29
F1.0
ssbsg27
g0
(g28
g2
Ntp4206
Rp4207
(dp4208
g32
I0
sbsba(ics475_types
Instance
p4209
(dp4210
g22
(ics475_types
FeatureVector
p4211
(dp4212
g25
(dp4213
I1
F1.0
sI2
F28.67
sI3
F1.04
sI4
F1.0
sI5
F1.0
sI6
F1.0
sI7
F1.0
sI8
F2.5
sI10
F1.0
sI11
F5.0
sI12
F1.0
sI13
F1.0
sI14
F300.0
sI15
F1430.0
sI33
F1.0
ssbsg27
g0
(g28
g2
Ntp4214
Rp4215
(dp4216
g32
I1
sbsba(ics475_types
Instance
p4217
(dp4218
g22
(ics475_types
FeatureVector
p4219
(dp4220
g25
(dp4221
I1
F1.0
sI2
F22.75
sI3
F6.165
sI4
F1.0
sI5
F1.0
sI7
F1.0
sI8
F0.165
sI9
F1.0
sI13
F1.0
sI14
F220.0
sI15
F1000.0
sI20
F1.0
sI21
F1.0
sI37
F1.0
ssbsg27
g0
(g28
g2
Ntp4222
Rp4223
(dp4224
g32
I0
sbsba(ics475_types
Instance
p4225
(dp4226
g22
(ics475_types
FeatureVector
p4227
(dp4228
g25
(dp4229
I1
F1.0
sI2
F16.92
sI3
F0.5
sI4
F1.0
sI5
F1.0
sI7
F1.0
sI8
F0.165
sI9
F1.0
sI10
F1.0
sI11
F6.0
sI12
F1.0
sI13
F1.0
sI14
F240.0
sI15
F35.0
sI25
F1.0
ssbsg27
g0
(g28
g2
Ntp4230
Rp4231
(dp4232
g32
I0
sbsba(ics475_types
Instance
p4233
(dp4234
g22
(ics475_types
FeatureVector
p4235
(dp4236
g25
(dp4237
I1
F1.0
sI2
F20.42
sI3
F10.5
sI39
F1.0
sI9
F1.0
sI12
F1.0
sI13
F1.0
sI14
F154.0
sI15
F32.0
sI17
F1.0
sI18
F1.0
sI20
F1.0
sI27
F1.0
ssbsg27
g0
(g28
g2
Ntp4238
Rp4239
(dp4240
g32
I0
sbsba(ics475_types
Instance
p4241
(dp4242
g22
(ics475_types
FeatureVector
p4243
(dp4244
g25
(dp4245
I32
F1.0
sI2
F40.58
sI3
F1.5
sI4
F1.0
sI5
F1.0
sI9
F1.0
sI14
F300.0
sI16
F1.0
sI20
F1.0
sI21
F1.0
sI22
F1.0
sI25
F1.0
ssbsg27
g0
(g28
g2
Ntp4246
Rp4247
(dp4248
g32
I0
sbsba(ics475_types
Instance
p4249
(dp4250
g22
(ics475_types
FeatureVector
p4251
(dp4252
g25
(dp4253
I33
F1.0
sI2
F55.92
sI3
F11.5
sI4
F1.0
sI5
F1.0
sI8
F5.0
sI10
F1.0
sI11
F5.0
sI13
F1.0
sI15
F8851.0
sI16
F1.0
sI21
F1.0
sI23
F1.0
sI24
F1.0
ssbsg27
g0
(g28
g2
Ntp4254
Rp4255
(dp4256
g32
I1
sbsba(ics475_types
Instance
p4257
(dp4258
g22
(ics475_types
FeatureVector
p4259
(dp4260
g25
(dp4261
I32
F1.0
sI33
F1.0
sI2
F34.08
sI3
F0.08
sI8
F0.04
sI10
F1.0
sI11
F1.0
sI12
F1.0
sI13
F1.0
sI14
F280.0
sI15
F2000.0
sI16
F1.0
sI17
F1.0
sI18
F1.0
sI35
F1.0
ssbsg27
g0
(g28
g2
Ntp4262
Rp4263
(dp4264
g32
I1
sbsba(ics475_types
Instance
p4265
(dp4266
g22
(ics475_types
FeatureVector
p4267
(dp4268
g25
(dp4269
I32
F1.0
sI2
F43.17
sI3
F5.0
sI4
F1.0
sI5
F1.0
sI8
F2.25
sI9
F1.0
sI12
F1.0
sI13
F1.0
sI14
F141.0
sI16
F1.0
sI20
F1.0
sI25
F1.0
ssbsg27
g0
(g28
g2
Ntp4270
Rp4271
(dp4272
g32
I0
sbsba(ics475_types
Instance
p4273
(dp4274
g22
(ics475_types
FeatureVector
p4275
(dp4276
g25
(dp4277
I2
F29.58
sI3
F4.75
sI4
F1.0
sI5
F1.0
sI7
F1.0
sI8
F2.0
sI9
F1.0
sI10
F1.0
sI11
F1.0
sI12
F1.0
sI13
F1.0
sI14
F460.0
sI15
F68.0
sI16
F1.0
sI35
F1.0
ssbsg27
g0
(g28
g2
Ntp4278
Rp4279
(dp4280
g32
I0
sbsba(ics475_types
Instance
p4281
(dp4282
g22
(ics475_types
FeatureVector
p4283
(dp4284
g25
(dp4285
I1
F1.0
sI2
F41.58
sI3
F1.04
sI4
F1.0
sI5
F1.0
sI7
F1.0
sI8
F0.665
sI9
F1.0
sI13
F1.0
sI14
F240.0
sI15
F237.0
sI20
F1.0
sI21
F1.0
sI37
F1.0
ssbsg27
g0
(g28
g2
Ntp4286
Rp4287
(dp4288
g32
I0
sbsba(ics475_types
Instance
p4289
(dp4290
g22
(ics475_types
FeatureVector
p4291
(dp4292
g25
(dp4293
I2
F22.08
sI3
F2.335
sI4
F1.0
sI5
F1.0
sI7
F1.0
sI8
F0.75
sI9
F1.0
sI13
F1.0
sI14
F180.0
sI16
F1.0
sI19
F1.0
sI20
F1.0
sI21
F1.0
ssbsg27
g0
(g28
g2
Ntp4294
Rp4295
(dp4296
g32
I0
sbsba(ics475_types
Instance
p4297
(dp4298
g22
(ics475_types
FeatureVector
p4299
(dp4300
g25
(dp4301
I2
F26.33
sI3
F13.0
sI4
F1.0
sI5
F1.0
sI9
F1.0
sI43
F1.0
sI12
F1.0
sI13
F1.0
sI14
F140.0
sI15
F1110.0
sI16
F1.0
sI20
F1.0
sI41
F1.0
ssbsg27
g0
(g28
g2
Ntp4302
Rp4303
(dp4304
g32
I0
sbsba(ics475_types
Instance
p4305
(dp4306
g22
(ics475_types
FeatureVector
p4307
(dp4308
g25
(dp4309
I33
F1.0
sI2
F62.5
sI3
F12.75
sI6
F1.0
sI8
F5.0
sI13
F1.0
sI14
F112.0
sI16
F1.0
sI17
F1.0
sI18
F1.0
sI20
F1.0
sI21
F1.0
sI27
F1.0
ssbsg27
g0
(g28
g2
Ntp4310
Rp4311
(dp4312
g32
I0
sbsba(ics475_types
Instance
p4313
(dp4314
g22
(ics475_types
FeatureVector
p4315
(dp4316
g25
(dp4317
I33
F1.0
sI2
F40.25
sI3
F21.5
sI4
F1.0
sI5
F1.0
sI8
F20.0
sI41
F1.0
sI10
F1.0
sI11
F11.0
sI13
F1.0
sI15
F1200.0
sI16
F1.0
sI21
F1.0
sI42
F1.0
ssbsg27
g0
(g28
g2
Ntp4318
Rp4319
(dp4320
g32
I1
sbsba(ics475_types
Instance
p4321
(dp4322
g22
(ics475_types
FeatureVector
p4323
(dp4324
g25
(dp4325
I32
F1.0
sI1
F1.0
sI2
F47.0
sI3
F13.0
sI4
F1.0
sI5
F1.0
sI33
F1.0
sI8
F5.165
sI10
F1.0
sI11
F9.0
sI12
F1.0
sI13
F1.0
sI25
F1.0
ssbsg27
g0
(g28
g2
Ntp4326
Rp4327
(dp4328
g32
I1
sbsba(ics475_types
Instance
p4329
(dp4330
g22
(ics475_types
FeatureVector
p4331
(dp4332
g25
(dp4333
I1
F1.0
sI2
F25.75
sI3
F0.5
sI4
F1.0
sI5
F1.0
sI6
F1.0
sI33
F1.0
sI8
F0.875
sI12
F1.0
sI13
F1.0
sI14
F491.0
sI20
F1.0
sI27
F1.0
ssbsg27
g0
(g28
g2
Ntp4334
Rp4335
(dp4336
g32
I1
sbsba(ics475_types
Instance
p4337
(dp4338
g22
(ics475_types
FeatureVector
p4339
(dp4340
g25
(dp4341
I2
F16.33
sI3
F2.75
sI4
F1.0
sI5
F1.0
sI7
F1.0
sI8
F0.665
sI9
F1.0
sI10
F1.0
sI11
F1.0
sI13
F1.0
sI14
F80.0
sI15
F21.0
sI16
F1.0
sI21
F1.0
sI37
F1.0
ssbsg27
g0
(g28
g2
Ntp4342
Rp4343
(dp4344
g32
I0
sbsba(ics475_types
Instance
p4345
(dp4346
g22
(ics475_types
FeatureVector
p4347
(dp4348
g25
(dp4349
I33
F1.0
sI2
F25.75
sI3
F0.5
sI4
F1.0
sI5
F1.0
sI6
F1.0
sI7
F1.0
sI8
F1.46
sI10
F1.0
sI11
F5.0
sI12
F1.0
sI13
F1.0
sI14
F312.0
sI16
F1.0
ssbsg27
g0
(g28
g2
Ntp4350
Rp4351
(dp4352
g32
I1
sbsba(ics475_types
Instance
p4353
(dp4354
g22
(ics475_types
FeatureVector
p4355
(dp4356
g25
(dp4357
I2
F24.75
sI3
F0.54
sI4
F1.0
sI5
F1.0
sI7
F1.0
sI8
F1.0
sI9
F1.0
sI12
F1.0
sI13
F1.0
sI14
F120.0
sI15
F1.0
sI16
F1.0
sI35
F1.0
sI20
F1.0
ssbsg27
g0
(g28
g2
Ntp4358
Rp4359
(dp4360
g32
I0
sbsba(ics475_types
Instance
p4361
(dp4362
g22
(ics475_types
FeatureVector
p4363
(dp4364
g25
(dp4365
I33
F1.0
sI2
F21.0
sI3
F4.79
sI7
F1.0
sI8
F2.25
sI10
F1.0
sI11
F1.0
sI12
F1.0
sI13
F1.0
sI14
F80.0
sI15
F300.0
sI16
F1.0
sI17
F1.0
sI18
F1.0
sI31
F1.0
ssbsg27
g0
(g28
g2
Ntp4366
Rp4367
(dp4368
g32
I1
sbsba(ics475_types
Instance
p4369
(dp4370
g22
(ics475_types
FeatureVector
p4371
(dp4372
g25
(dp4373
I2
F21.08
sI3
F4.125
sI8
F0.04
sI9
F1.0
sI13
F1.0
sI14
F140.0
sI15
F100.0
sI16
F1.0
sI17
F1.0
sI18
F1.0
sI20
F1.0
sI21
F1.0
sI25
F1.0
sI27
F1.0
ssbsg27
g0
(g28
g2
Ntp4374
Rp4375
(dp4376
g32
I0
sbsba(ics475_types
Instance
p4377
(dp4378
g22
(ics475_types
FeatureVector
p4379
(dp4380
g25
(dp4381
I33
F1.0
sI2
F24.33
sI3
F6.625
sI7
F1.0
sI8
F5.5
sI12
F1.0
sI34
F1.0
sI14
F100.0
sI16
F1.0
sI17
F1.0
sI18
F1.0
sI20
F1.0
sI22
F1.0
ssbsg27
g0
(g28
g2
Ntp4382
Rp4383
(dp4384
g32
I1
sbsba(ics475_types
Instance
p4385
(dp4386
g22
(ics475_types
FeatureVector
p4387
(dp4388
g25
(dp4389
I2
F27.83
sI3
F1.5
sI4
F1.0
sI5
F1.0
sI7
F1.0
sI8
F2.25
sI9
F1.0
sI10
F1.0
sI11
F1.0
sI12
F1.0
sI13
F1.0
sI14
F100.0
sI15
F3.0
sI16
F1.0
sI31
F1.0
ssbsg27
g0
(g28
g2
Ntp4390
Rp4391
(dp4392
g32
I0
sbsba(ics475_types
Instance
p4393
(dp4394
g22
(ics475_types
FeatureVector
p4395
(dp4396
g25
(dp4397
I33
F1.0
sI2
F28.92
sI3
F15.0
sI4
F1.0
sI5
F1.0
sI6
F1.0
sI8
F5.335
sI10
F1.0
sI11
F11.0
sI13
F1.0
sI15
F2283.0
sI16
F1.0
sI21
F1.0
sI27
F1.0
ssbsg27
g0
(g28
g2
Ntp4398
Rp4399
(dp4400
g32
I1
sbsba(ics475_types
Instance
p4401
(dp4402
g22
(ics475_types
FeatureVector
p4403
(dp4404
g25
(dp4405
I1
F1.0
sI2
F33.08
sI3
F1.625
sI4
F1.0
sI5
F1.0
sI7
F1.0
sI8
F0.54
sI9
F1.0
sI12
F1.0
sI13
F1.0
sI34
F1.0
sI20
F1.0
ssbsg27
g0
(g28
g2
Ntp4406
Rp4407
(dp4408
g32
I0
sbsba(ics475_types
Instance
p4409
(dp4410
g22
(ics475_types
FeatureVector
p4411
(dp4412
g25
(dp4413
I32
F1.0
sI2
F26.75
sI3
F4.5
sI6
F1.0
sI8
F2.5
sI9
F1.0
sI13
F1.0
sI14
F200.0
sI15
F1210.0
sI16
F1.0
sI17
F1.0
sI18
F1.0
sI20
F1.0
sI21
F1.0
ssbsg27
g0
(g28
g2
Ntp4414
Rp4415
(dp4416
g32
I0
sbsba(ics475_types
Instance
p4417
(dp4418
g22
(ics475_types
FeatureVector
p4419
(dp4420
g25
(dp4421
I32
F1.0
sI33
F1.0
sI2
F56.58
sI3
F18.5
sI4
F1.0
sI5
F1.0
sI8
F15.0
sI10
F1.0
sI11
F17.0
sI12
F1.0
sI13
F1.0
sI16
F1.0
sI34
F1.0
ssbsg27
g0
(g28
g2
Ntp4422
Rp4423
(dp4424
g32
I1
sbsbasS'T'
p4425
I10
sS'all_features'
p4426
(lp4427
I1
aI2
aI3
aI8
aI9
aI13
aI14
aI17
aI18
aI20
aI21
aI23
aI24
aI33
aI4
aI5
aI7
aI16
aI35
aI22
aI10
aI11
aI12
aI15
aI19
aI27
aI6
aI30
aI37
aI34
aI39
aI32
aI36
aI31
aI25
aI41
aI28
aI29
aI42
aI26
aI40
aI38
aI45
aI46
aI44
aI43
asS'cluster_lambda'
p4428
F30391284.740692213
sb.