ccopy_reg
_reconstructor
p0
(cpredictor_subclasses
Pegasos
p1
c__builtin__
object
p2
Ntp3
Rp4
(dp5
S'w'
p6
(dp7
I1
F-90.90909090909092
sI2
F-173.45454545454314
sI3
F616.5454545454538
sI4
F87.27272727272722
sI5
F87.27272727272722
sI6
F-58.18181818181796
sI7
F-290.9090909090906
sI8
F3208.9636363636264
sI9
F-1509.0909090909101
sI10
F425.4545454545459
sI11
F3930.9090909090837
sI12
F101.81818181818186
sI13
F-309.0909090909082
sI14
F-2840.0
sI15
F21596.363636363607
sI16
F-112.72727272727302
sI17
F-309.09090909090884
sI18
F-309.09090909090884
sI19
F-36.363636363636324
sI20
F-629.0909090909088
sI21
F-305.45454545454544
sI22
F105.45454545454537
sI23
F-239.99999999999997
sI24
F-229.09090909090915
sI25
F-221.81818181818218
sI26
F-18.18181818181813
sI27
F309.0909090909082
sI28
F-29.090909090909076
sI29
F7.272727272727268
sI30
F145.4545454545453
sI31
F29.090909090909076
sI32
F-7.2727272727272565
sI33
F1305.454545454544
sI34
F-29.090909090909093
sI35
F25.454545454545418
sI36
F90.90909090909086
sI37
F-127.27272727272741
sI38
F18.181818181818183
sI39
F200.00000000000003
sI40
F3.636363636363632
sI41
F29.09090909090911
sI42
F54.5454545454546
sI43
F-32.72727272727276
sI44
F18.18181818181819
sI45
F18.18181818181819
sI46
F0.0
ssS'pegasos_lambda'
p8
F0.0001
sS'iterations'
p9
I5
sb.