ccopy_reg
_reconstructor
p0
(cpredictor_subclasses
KNN
p1
c__builtin__
object
p2
Ntp3
Rp4
(dp5
S'knn'
p6
I5
sS'instances'
p7
(lp8
(ics475_types
Instance
p9
(dp10
S'_feature_vector'
p11
(ics475_types
FeatureVector
p12
(dp13
S'feature_vector'
p14
(dp15
I1
F1.0
sI2
F22.25
sI3
F1.25
sI8
F3.25
sI9
F1.0
sI13
F1.0
sI14
F280.0
sI17
F1.0
sI18
F1.0
sI20
F1.0
sI21
F1.0
sI23
F1.0
sI24
F1.0
ssbsS'_label'
p16
g0
(ccs475_types
ClassificationLabel
p17
g2
Ntp18
Rp19
(dp20
S'label'
p21
I0
sbsba(ics475_types
Instance
p22
(dp23
g11
(ics475_types
FeatureVector
p24
(dp25
g14
(dp26
I33
F1.0
sI2
F16.25
sI3
F0.835
sI4
F1.0
sI5
F1.0
sI7
F1.0
sI8
F0.085
sI14
F200.0
sI16
F1.0
sI35
F1.0
sI20
F1.0
sI21
F1.0
sI22
F1.0
ssbsg16
g0
(g17
g2
Ntp27
Rp28
(dp29
g21
I0
sbsba(ics475_types
Instance
p30
(dp31
g11
(ics475_types
FeatureVector
p32
(dp33
g14
(dp34
I1
F1.0
sI2
F55.75
sI3
F7.08
sI4
F1.0
sI5
F1.0
sI33
F1.0
sI8
F6.75
sI10
F1.0
sI11
F3.0
sI12
F1.0
sI13
F1.0
sI14
F100.0
sI15
F50.0
sI19
F1.0
sI27
F1.0
ssbsg16
g0
(g17
g2
Ntp35
Rp36
(dp37
g21
I0
sbsba(ics475_types
Instance
p38
(dp39
g11
(ics475_types
FeatureVector
p40
(dp41
g14
(dp42
I2
F44.83
sI3
F7.0
sI6
F1.0
sI7
F1.0
sI8
F1.625
sI9
F1.0
sI13
F1.0
sI14
F160.0
sI15
F2.0
sI16
F1.0
sI17
F1.0
sI18
F1.0
sI20
F1.0
sI21
F1.0
ssbsg16
g0
(g17
g2
Ntp43
Rp44
(dp45
g21
I0
sbsba(ics475_types
Instance
p46
(dp47
g11
(ics475_types
FeatureVector
p48
(dp49
g14
(dp50
I1
F1.0
sI2
F24.08
sI3
F0.5
sI4
F1.0
sI5
F1.0
sI33
F1.0
sI8
F1.25
sI10
F1.0
sI11
F1.0
sI13
F1.0
sI15
F678.0
sI21
F1.0
sI27
F1.0
sI30
F1.0
ssbsg16
g0
(g17
g2
Ntp51
Rp52
(dp53
g21
I1
sbsba(ics475_types
Instance
p54
(dp55
g11
(ics475_types
FeatureVector
p56
(dp57
g14
(dp58
I33
F1.0
sI2
F40.58
sI3
F5.0
sI4
F1.0
sI5
F1.0
sI6
F1.0
sI7
F1.0
sI8
F5.0
sI10
F1.0
sI11
F7.0
sI13
F1.0
sI15
F3065.0
sI16
F1.0
sI21
F1.0
ssbsg16
g0
(g17
g2
Ntp59
Rp60
(dp61
g21
I1
sbsba(ics475_types
Instance
p62
(dp63
g11
(ics475_types
FeatureVector
p64
(dp65
g14
(dp66
I33
F1.0
sI2
F25.0
sI3
F12.5
sI4
F1.0
sI5
F1.0
sI7
F1.0
sI8
F3.0
sI12
F1.0
sI14
F20.0
sI16
F1.0
sI20
F1.0
sI22
F1.0
sI37
F1.0
ssbsg16
g0
(g17
g2
Ntp67
Rp68
(dp69
g21
I1
sbsba(ics475_types
Instance
p70
(dp71
g11
(ics475_types
FeatureVector
p72
(dp73
g14
(dp74
I2
F29.83
sI3
F1.25
sI7
F1.0
sI8
F0.25
sI9
F1.0
sI13
F1.0
sI14
F224.0
sI16
F1.0
sI17
F1.0
sI18
F1.0
sI19
F1.0
sI20
F1.0
sI21
F1.0
ssbsg16
g0
(g17
g2
Ntp75
Rp76
(dp77
g21
I0
sbsba(ics475_types
Instance
p78
(dp79
g11
(ics475_types
FeatureVector
p80
(dp81
g14
(dp82
I2
F23.58
sI3
F1.79
sI4
F1.0
sI5
F1.0
sI6
F1.0
sI7
F1.0
sI8
F0.54
sI9
F1.0
sI12
F1.0
sI13
F1.0
sI14
F136.0
sI15
F1.0
sI16
F1.0
sI20
F1.0
ssbsg16
g0
(g17
g2
Ntp83
Rp84
(dp85
g21
I0
sbsba(ics475_types
Instance
p86
(dp87
g11
(ics475_types
FeatureVector
p88
(dp89
g14
(dp90
I33
F1.0
sI2
F27.58
sI3
F2.04
sI37
F1.0
sI7
F1.0
sI8
F2.0
sI10
F1.0
sI11
F3.0
sI12
F1.0
sI13
F1.0
sI14
F370.0
sI15
F560.0
sI16
F1.0
sI17
F1.0
sI18
F1.0
ssbsg16
g0
(g17
g2
Ntp91
Rp92
(dp93
g21
I1
sbsba(ics475_types
Instance
p94
(dp95
g11
(ics475_types
FeatureVector
p96
(dp97
g14
(dp98
I33
F1.0
sI2
F18.42
sI3
F10.415
sI37
F1.0
sI7
F1.0
sI8
F0.125
sI13
F1.0
sI14
F120.0
sI15
F375.0
sI16
F1.0
sI17
F1.0
sI18
F1.0
sI20
F1.0
sI21
F1.0
ssbsg16
g0
(g17
g2
Ntp99
Rp100
(dp101
g21
I0
sbsba(ics475_types
Instance
p102
(dp103
g11
(ics475_types
FeatureVector
p104
(dp105
g14
(dp106
I33
F1.0
sI2
F32.08
sI3
F4.0
sI4
F1.0
sI5
F1.0
sI7
F1.0
sI8
F2.5
sI12
F1.0
sI13
F1.0
sI14
F360.0
sI16
F1.0
sI35
F1.0
sI20
F1.0
ssbsg16
g0
(g17
g2
Ntp107
Rp108
(dp109
g21
I1
sbsba(ics475_types
Instance
p110
(dp111
g11
(ics475_types
FeatureVector
p112
(dp113
g14
(dp114
I33
F1.0
sI2
F44.25
sI3
F11.0
sI7
F1.0
sI8
F1.5
sI34
F1.0
sI16
F1.0
sI17
F1.0
sI18
F1.0
sI20
F1.0
sI21
F1.0
sI22
F1.0
ssbsg16
g0
(g17
g2
Ntp115
Rp116
(dp117
g21
I0
sbsba(ics475_types
Instance
p118
(dp119
g11
(ics475_types
FeatureVector
p120
(dp121
g14
(dp122
I2
F24.5
sI3
F13.335
sI37
F1.0
sI7
F1.0
sI8
F0.04
sI9
F1.0
sI12
F1.0
sI13
F1.0
sI14
F120.0
sI15
F475.0
sI16
F1.0
sI17
F1.0
sI18
F1.0
sI20
F1.0
ssbsg16
g0
(g17
g2
Ntp123
Rp124
(dp125
g21
I0
sbsba(ics475_types
Instance
p126
(dp127
g11
(ics475_types
FeatureVector
p128
(dp129
g14
(dp130
I33
F1.0
sI2
F42.0
sI3
F9.79
sI4
F1.0
sI5
F1.0
sI39
F1.0
sI8
F7.96
sI10
F1.0
sI11
F8.0
sI13
F1.0
sI16
F1.0
sI21
F1.0
sI27
F1.0
ssbsg16
g0
(g17
g2
Ntp131
Rp132
(dp133
g21
I1
sbsba(ics475_types
Instance
p134
(dp135
g11
(ics475_types
FeatureVector
p136
(dp137
g14
(dp138
I32
F1.0
sI33
F1.0
sI2
F36.25
sI3
F5.0
sI4
F1.0
sI5
F1.0
sI6
F1.0
sI8
F2.5
sI10
F1.0
sI11
F6.0
sI13
F1.0
sI15
F367.0
sI16
F1.0
sI21
F1.0
ssbsg16
g0
(g17
g2
Ntp139
Rp140
(dp141
g21
I1
sbsba(ics475_types
Instance
p142
(dp143
g11
(ics475_types
FeatureVector
p144
(dp145
g14
(dp146
I33
F1.0
sI2
F23.17
sI4
F1.0
sI5
F1.0
sI7
F1.0
sI8
F0.085
sI13
F1.0
sI16
F1.0
sI20
F1.0
sI21
F1.0
sI36
F1.0
ssbsg16
g0
(g17
g2
Ntp147
Rp148
(dp149
g21
I1
sbsba(ics475_types
Instance
p150
(dp151
g11
(ics475_types
FeatureVector
p152
(dp153
g14
(dp154
I2
F34.17
sI3
F5.25
sI4
F1.0
sI5
F1.0
sI7
F1.0
sI8
F0.085
sI9
F1.0
sI12
F1.0
sI13
F1.0
sI14
F290.0
sI15
F6.0
sI16
F1.0
sI20
F1.0
sI31
F1.0
ssbsg16
g0
(g17
g2
Ntp155
Rp156
(dp157
g21
I1
sbsba(ics475_types
Instance
p158
(dp159
g11
(ics475_types
FeatureVector
p160
(dp161
g14
(dp162
I33
F1.0
sI2
F26.67
sI3
F2.71
sI36
F1.0
sI7
F1.0
sI8
F5.25
sI10
F1.0
sI11
F1.0
sI13
F1.0
sI14
F211.0
sI16
F1.0
sI17
F1.0
sI18
F1.0
sI21
F1.0
ssbsg16
g0
(g17
g2
Ntp163
Rp164
(dp165
g21
I1
sbsba(ics475_types
Instance
p166
(dp167
g11
(ics475_types
FeatureVector
p168
(dp169
g14
(dp170
I2
F25.42
sI3
F0.54
sI4
F1.0
sI5
F1.0
sI7
F1.0
sI8
F0.165
sI9
F1.0
sI10
F1.0
sI11
F1.0
sI13
F1.0
sI14
F272.0
sI15
F444.0
sI16
F1.0
sI21
F1.0
sI31
F1.0
ssbsg16
g0
(g17
g2
Ntp171
Rp172
(dp173
g21
I0
sbsba(ics475_types
Instance
p174
(dp175
g11
(ics475_types
FeatureVector
p176
(dp177
g14
(dp178
I1
F1.0
sI2
F19.58
sI3
F0.665
sI6
F1.0
sI7
F1.0
sI8
F1.0
sI9
F1.0
sI10
F1.0
sI11
F1.0
sI13
F1.0
sI14
F2000.0
sI15
F2.0
sI17
F1.0
sI18
F1.0
sI21
F1.0
ssbsg16
g0
(g17
g2
Ntp179
Rp180
(dp181
g21
I0
sbsba(ics475_types
Instance
p182
(dp183
g11
(ics475_types
FeatureVector
p184
(dp185
g14
(dp186
I33
F1.0
sI2
F39.0
sI3
F5.0
sI4
F1.0
sI5
F1.0
sI7
F1.0
sI8
F3.5
sI10
F1.0
sI11
F10.0
sI12
F1.0
sI13
F1.0
sI16
F1.0
sI36
F1.0
ssbsg16
g0
(g17
g2
Ntp187
Rp188
(dp189
g21
I1
sbsba(ics475_types
Instance
p190
(dp191
g11
(ics475_types
FeatureVector
p192
(dp193
g14
(dp194
I1
F1.0
sI2
F30.67
sI3
F12.0
sI4
F1.0
sI5
F1.0
sI6
F1.0
sI7
F1.0
sI8
F2.0
sI10
F1.0
sI11
F1.0
sI13
F1.0
sI14
F220.0
sI15
F19.0
sI21
F1.0
sI33
F1.0
ssbsg16
g0
(g17
g2
Ntp195
Rp196
(dp197
g21
I1
sbsba(ics475_types
Instance
p198
(dp199
g11
(ics475_types
FeatureVector
p200
(dp201
g14
(dp202
I1
F1.0
sI2
F19.17
sI3
F5.415
sI4
F1.0
sI5
F1.0
sI8
F0.29
sI9
F1.0
sI13
F1.0
sI14
F80.0
sI15
F484.0
sI20
F1.0
sI21
F1.0
sI25
F1.0
sI27
F1.0
ssbsg16
g0
(g17
g2
Ntp203
Rp204
(dp205
g21
I0
sbsba(ics475_types
Instance
p206
(dp207
g11
(ics475_types
FeatureVector
p208
(dp209
g14
(dp210
I1
F1.0
sI2
F49.83
sI3
F13.585
sI4
F1.0
sI5
F1.0
sI33
F1.0
sI8
F8.5
sI12
F1.0
sI13
F1.0
sI19
F1.0
sI20
F1.0
sI27
F1.0
ssbsg16
g0
(g17
g2
Ntp211
Rp212
(dp213
g21
I1
sbsba(ics475_types
Instance
p214
(dp215
g11
(ics475_types
FeatureVector
p216
(dp217
g14
(dp218
I1
F1.0
sI2
F18.83
sI3
F9.5
sI4
F1.0
sI5
F1.0
sI7
F1.0
sI8
F1.625
sI10
F1.0
sI11
F6.0
sI12
F1.0
sI13
F1.0
sI14
F40.0
sI15
F600.0
sI33
F1.0
sI31
F1.0
ssbsg16
g0
(g17
g2
Ntp219
Rp220
(dp221
g21
I1
sbsba(ics475_types
Instance
p222
(dp223
g11
(ics475_types
FeatureVector
p224
(dp225
g14
(dp226
I2
F38.42
sI3
F0.705
sI4
F1.0
sI5
F1.0
sI6
F1.0
sI7
F1.0
sI8
F0.375
sI9
F1.0
sI10
F1.0
sI11
F2.0
sI13
F1.0
sI14
F225.0
sI15
F500.0
sI16
F1.0
sI21
F1.0
ssbsg16
g0
(g17
g2
Ntp227
Rp228
(dp229
g21
I0
sbsba(ics475_types
Instance
p230
(dp231
g11
(ics475_types
FeatureVector
p232
(dp233
g14
(dp234
I33
F1.0
sI2
F31.92
sI3
F4.46
sI4
F1.0
sI5
F1.0
sI8
F6.04
sI10
F1.0
sI11
F3.0
sI13
F1.0
sI14
F311.0
sI15
F300.0
sI16
F1.0
sI21
F1.0
sI36
F1.0
sI27
F1.0
ssbsg16
g0
(g17
g2
Ntp235
Rp236
(dp237
g21
I1
sbsba(ics475_types
Instance
p238
(dp239
g11
(ics475_types
FeatureVector
p240
(dp241
g14
(dp242
I1
F1.0
sI2
F22.5
sI3
F8.46
sI7
F1.0
sI8
F2.46
sI9
F1.0
sI39
F1.0
sI13
F1.0
sI14
F164.0
sI17
F1.0
sI18
F1.0
sI20
F1.0
sI21
F1.0
ssbsg16
g0
(g17
g2
Ntp243
Rp244
(dp245
g21
I1
sbsba(ics475_types
Instance
p246
(dp247
g11
(ics475_types
FeatureVector
p248
(dp249
g14
(dp250
I1
F1.0
sI2
F17.58
sI3
F9.0
sI4
F1.0
sI5
F1.0
sI7
F1.0
sI8
F1.375
sI12
F1.0
sI13
F1.0
sI20
F1.0
sI33
F1.0
sI37
F1.0
ssbsg16
g0
(g17
g2
Ntp251
Rp252
(dp253
g21
I1
sbsba(ics475_types
Instance
p254
(dp255
g11
(ics475_types
FeatureVector
p256
(dp257
g14
(dp258
I33
F1.0
sI2
F57.83
sI3
F7.04
sI4
F1.0
sI5
F1.0
sI7
F1.0
sI8
F14.0
sI10
F1.0
sI11
F6.0
sI12
F1.0
sI13
F1.0
sI14
F360.0
sI15
F1332.0
sI16
F1.0
sI35
F1.0
ssbsg16
g0
(g17
g2
Ntp259
Rp260
(dp261
g21
I1
sbsba(ics475_types
Instance
p262
(dp263
g11
(ics475_types
FeatureVector
p264
(dp265
g14
(dp266
I1
F1.0
sI2
F25.17
sI3
F2.875
sI4
F1.0
sI5
F1.0
sI33
F1.0
sI8
F0.875
sI39
F1.0
sI13
F1.0
sI14
F360.0
sI20
F1.0
sI21
F1.0
sI27
F1.0
ssbsg16
g0
(g17
g2
Ntp267
Rp268
(dp269
g21
I1
sbsba(ics475_types
Instance
p270
(dp271
g11
(ics475_types
FeatureVector
p272
(dp273
g14
(dp274
I2
F36.08
sI3
F2.54
sI4
F1.0
sI5
F1.0
sI9
F1.0
sI13
F1.0
sI15
F1000.0
sI16
F1.0
sI20
F1.0
sI21
F1.0
sI23
F1.0
sI24
F1.0
ssbsg16
g0
(g17
g2
Ntp275
Rp276
(dp277
g21
I0
sbsba(ics475_types
Instance
p278
(dp279
g11
(ics475_types
FeatureVector
p280
(dp281
g14
(dp282
I2
F26.25
sI3
F1.54
sI4
F1.0
sI5
F1.0
sI7
F1.0
sI8
F0.125
sI9
F1.0
sI13
F1.0
sI14
F100.0
sI16
F1.0
sI20
F1.0
sI21
F1.0
sI31
F1.0
ssbsg16
g0
(g17
g2
Ntp283
Rp284
(dp285
g21
I0
sbsba(ics475_types
Instance
p286
(dp287
g11
(ics475_types
FeatureVector
p288
(dp289
g14
(dp290
I1
F1.0
sI2
F20.83
sI3
F3.0
sI4
F1.0
sI5
F1.0
sI7
F1.0
sI8
F0.04
sI13
F1.0
sI14
F100.0
sI20
F1.0
sI21
F1.0
sI33
F1.0
sI37
F1.0
ssbsg16
g0
(g17
g2
Ntp291
Rp292
(dp293
g21
I1
sbsba(ics475_types
Instance
p294
(dp295
g11
(ics475_types
FeatureVector
p296
(dp297
g14
(dp298
I33
F1.0
sI2
F48.5
sI3
F4.25
sI4
F1.0
sI5
F1.0
sI7
F1.0
sI8
F0.125
sI12
F1.0
sI13
F1.0
sI14
F225.0
sI16
F1.0
sI35
F1.0
sI20
F1.0
ssbsg16
g0
(g17
g2
Ntp299
Rp300
(dp301
g21
I1
sbsba(ics475_types
Instance
p302
(dp303
g11
(ics475_types
FeatureVector
p304
(dp305
g14
(dp306
I1
F1.0
sI2
F32.17
sI3
F1.46
sI4
F1.0
sI5
F1.0
sI7
F1.0
sI8
F1.085
sI10
F1.0
sI11
F16.0
sI13
F1.0
sI14
F120.0
sI15
F2079.0
sI21
F1.0
sI33
F1.0
sI31
F1.0
ssbsg16
g0
(g17
g2
Ntp307
Rp308
(dp309
g21
I1
sbsba(ics475_types
Instance
p310
(dp311
g11
(ics475_types
FeatureVector
p312
(dp313
g14
(dp314
I1
F1.0
sI2
F25.08
sI3
F2.54
sI33
F1.0
sI7
F1.0
sI8
F0.25
sI12
F1.0
sI13
F1.0
sI14
F370.0
sI17
F1.0
sI18
F1.0
sI20
F1.0
sI37
F1.0
ssbsg16
g0
(g17
g2
Ntp315
Rp316
(dp317
g21
I1
sbsba(ics475_types
Instance
p318
(dp319
g11
(ics475_types
FeatureVector
p320
(dp321
g14
(dp322
I33
F1.0
sI2
F33.5
sI3
F1.75
sI4
F1.0
sI5
F1.0
sI39
F1.0
sI8
F4.5
sI10
F1.0
sI11
F4.0
sI12
F1.0
sI13
F1.0
sI14
F253.0
sI15
F857.0
sI16
F1.0
sI27
F1.0
ssbsg16
g0
(g17
g2
Ntp323
Rp324
(dp325
g21
I1
sbsba(ics475_types
Instance
p326
(dp327
g11
(ics475_types
FeatureVector
p328
(dp329
g14
(dp330
I33
F1.0
sI2
F19.17
sI3
F9.5
sI4
F1.0
sI5
F1.0
sI7
F1.0
sI8
F1.5
sI13
F1.0
sI14
F120.0
sI15
F2206.0
sI16
F1.0
sI20
F1.0
sI21
F1.0
sI31
F1.0
ssbsg16
g0
(g17
g2
Ntp331
Rp332
(dp333
g21
I1
sbsba(ics475_types
Instance
p334
(dp335
g11
(ics475_types
FeatureVector
p336
(dp337
g14
(dp338
I33
F1.0
sI2
F26.67
sI3
F1.75
sI6
F1.0
sI7
F1.0
sI8
F1.0
sI10
F1.0
sI11
F5.0
sI12
F1.0
sI13
F1.0
sI14
F160.0
sI15
F5777.0
sI16
F1.0
sI17
F1.0
sI18
F1.0
ssbsg16
g0
(g17
g2
Ntp339
Rp340
(dp341
g21
I1
sbsba(ics475_types
Instance
p342
(dp343
g11
(ics475_types
FeatureVector
p344
(dp345
g14
(dp346
I33
F1.0
sI2
F23.0
sI3
F0.75
sI4
F1.0
sI5
F1.0
sI7
F1.0
sI8
F0.5
sI12
F1.0
sI14
F320.0
sI16
F1.0
sI35
F1.0
sI20
F1.0
sI22
F1.0
ssbsg16
g0
(g17
g2
Ntp347
Rp348
(dp349
g21
I0
sbsba(ics475_types
Instance
p350
(dp351
g11
(ics475_types
FeatureVector
p352
(dp353
g14
(dp354
I33
F1.0
sI2
F57.42
sI3
F8.5
sI4
F1.0
sI5
F1.0
sI8
F7.0
sI41
F1.0
sI10
F1.0
sI11
F3.0
sI13
F1.0
sI16
F1.0
sI21
F1.0
sI27
F1.0
ssbsg16
g0
(g17
g2
Ntp355
Rp356
(dp357
g21
I1
sbsba(ics475_types
Instance
p358
(dp359
g11
(ics475_types
FeatureVector
p360
(dp361
g14
(dp362
I33
F1.0
sI2
F20.67
sI3
F5.29
sI4
F1.0
sI5
F1.0
sI7
F1.0
sI8
F0.375
sI10
F1.0
sI11
F1.0
sI13
F1.0
sI14
F160.0
sI16
F1.0
sI21
F1.0
sI30
F1.0
ssbsg16
g0
(g17
g2
Ntp363
Rp364
(dp365
g21
I0
sbsba(ics475_types
Instance
p366
(dp367
g11
(ics475_types
FeatureVector
p368
(dp369
g14
(dp370
I33
F1.0
sI2
F21.83
sI3
F11.0
sI4
F1.0
sI5
F1.0
sI7
F1.0
sI8
F0.29
sI10
F1.0
sI11
F6.0
sI13
F1.0
sI14
F121.0
sI16
F1.0
sI21
F1.0
sI39
F1.0
ssbsg16
g0
(g17
g2
Ntp371
Rp372
(dp373
g21
I1
sbsba(ics475_types
Instance
p374
(dp375
g11
(ics475_types
FeatureVector
p376
(dp377
g14
(dp378
I2
F15.17
sI3
F7.0
sI4
F1.0
sI5
F1.0
sI7
F1.0
sI8
F1.0
sI9
F1.0
sI13
F1.0
sI14
F600.0
sI16
F1.0
sI20
F1.0
sI21
F1.0
sI41
F1.0
ssbsg16
g0
(g17
g2
Ntp379
Rp380
(dp381
g21
I0
sbsba(ics475_types
Instance
p382
(dp383
g11
(ics475_types
FeatureVector
p384
(dp385
g14
(dp386
I2
F22.25
sI3
F9.0
sI4
F1.0
sI5
F1.0
sI7
F1.0
sI8
F0.085
sI9
F1.0
sI13
F1.0
sI16
F1.0
sI20
F1.0
sI21
F1.0
sI37
F1.0
ssbsg16
g0
(g17
g2
Ntp387
Rp388
(dp389
g21
I0
sbsba(ics475_types
Instance
p390
(dp391
g11
(ics475_types
FeatureVector
p392
(dp393
g14
(dp394
I33
F1.0
sI2
F25.17
sI3
F6.0
sI4
F1.0
sI5
F1.0
sI6
F1.0
sI7
F1.0
sI8
F1.0
sI10
F1.0
sI11
F3.0
sI13
F1.0
sI16
F1.0
sI21
F1.0
ssbsg16
g0
(g17
g2
Ntp395
Rp396
(dp397
g21
I1
sbsba(ics475_types
Instance
p398
(dp399
g11
(ics475_types
FeatureVector
p400
(dp401
g14
(dp402
I2
F38.92
sI3
F1.75
sI4
F1.0
sI5
F1.0
sI7
F1.0
sI8
F0.5
sI9
F1.0
sI12
F1.0
sI13
F1.0
sI14
F300.0
sI15
F2.0
sI16
F1.0
sI19
F1.0
sI20
F1.0
ssbsg16
g0
(g17
g2
Ntp403
Rp404
(dp405
g21
I0
sbsba(ics475_types
Instance
p406
(dp407
g11
(ics475_types
FeatureVector
p408
(dp409
g14
(dp410
I2
F20.08
sI3
F0.25
sI4
F1.0
sI5
F1.0
sI7
F1.0
sI8
F0.125
sI9
F1.0
sI13
F1.0
sI14
F200.0
sI16
F1.0
sI20
F1.0
sI21
F1.0
sI30
F1.0
ssbsg16
g0
(g17
g2
Ntp411
Rp412
(dp413
g21
I0
sbsba(ics475_types
Instance
p414
(dp415
g11
(ics475_types
FeatureVector
p416
(dp417
g14
(dp418
I2
F22.08
sI3
F11.46
sI4
F1.0
sI5
F1.0
sI7
F1.0
sI8
F1.585
sI9
F1.0
sI12
F1.0
sI13
F1.0
sI14
F100.0
sI15
F1212.0
sI16
F1.0
sI19
F1.0
sI20
F1.0
ssbsg16
g0
(g17
g2
Ntp419
Rp420
(dp421
g21
I0
sbsba(ics475_types
Instance
p422
(dp423
g11
(ics475_types
FeatureVector
p424
(dp425
g14
(dp426
I33
F1.0
sI2
F42.0
sI3
F0.205
sI4
F1.0
sI5
F1.0
sI8
F5.125
sI13
F1.0
sI14
F400.0
sI16
F1.0
sI20
F1.0
sI21
F1.0
sI25
F1.0
sI27
F1.0
ssbsg16
g0
(g17
g2
Ntp427
Rp428
(dp429
g21
I1
sbsba(ics475_types
Instance
p430
(dp431
g11
(ics475_types
FeatureVector
p432
(dp433
g14
(dp434
I2
F26.83
sI3
F0.54
sI4
F1.0
sI5
F1.0
sI9
F1.0
sI13
F1.0
sI14
F100.0
sI16
F1.0
sI19
F1.0
sI20
F1.0
sI21
F1.0
sI24
F1.0
ssbsg16
g0
(g17
g2
Ntp435
Rp436
(dp437
g21
I0
sbsba(ics475_types
Instance
p438
(dp439
g11
(ics475_types
FeatureVector
p440
(dp441
g14
(dp442
I32
F1.0
sI2
F27.42
sI3
F12.5
sI4
F1.0
sI5
F1.0
sI8
F0.25
sI9
F1.0
sI12
F1.0
sI13
F1.0
sI14
F720.0
sI16
F1.0
sI20
F1.0
sI37
F1.0
ssbsg16
g0
(g17
g2
Ntp443
Rp444
(dp445
g21
I0
sbsba(ics475_types
Instance
p446
(dp447
g11
(ics475_types
FeatureVector
p448
(dp449
g14
(dp450
I33
F1.0
sI2
F41.58
sI3
F1.75
sI4
F1.0
sI5
F1.0
sI7
F1.0
sI8
F0.21
sI13
F1.0
sI14
F160.0
sI16
F1.0
sI19
F1.0
sI20
F1.0
sI21
F1.0
ssbsg16
g0
(g17
g2
Ntp451
Rp452
(dp453
g21
I0
sbsba(ics475_types
Instance
p454
(dp455
g11
(ics475_types
FeatureVector
p456
(dp457
g14
(dp458
I1
F1.0
sI2
F39.08
sI3
F4.0
sI4
F1.0
sI5
F1.0
sI6
F1.0
sI7
F1.0
sI8
F3.0
sI9
F1.0
sI13
F1.0
sI14
F480.0
sI20
F1.0
sI21
F1.0
ssbsg16
g0
(g17
g2
Ntp459
Rp460
(dp461
g21
I0
sbsba(ics475_types
Instance
p462
(dp463
g11
(ics475_types
FeatureVector
p464
(dp465
g14
(dp466
I1
F1.0
sI2
F33.25
sI3
F2.5
sI6
F1.0
sI7
F1.0
sI8
F2.5
sI9
F1.0
sI12
F1.0
sI13
F1.0
sI15
F2.0
sI17
F1.0
sI18
F1.0
sI20
F1.0
ssbsg16
g0
(g17
g2
Ntp467
Rp468
(dp469
g21
I0
sbsba(ics475_types
Instance
p470
(dp471
g11
(ics475_types
FeatureVector
p472
(dp473
g14
(dp474
I33
F1.0
sI2
F32.0
sI3
F1.75
sI8
F0.04
sI41
F1.0
sI12
F1.0
sI13
F1.0
sI14
F393.0
sI16
F1.0
sI17
F1.0
sI18
F1.0
sI20
F1.0
sI27
F1.0
ssbsg16
g0
(g17
g2
Ntp475
Rp476
(dp477
g21
I1
sbsba(ics475_types
Instance
p478
(dp479
g11
(ics475_types
FeatureVector
p480
(dp481
g14
(dp482
I1
F1.0
sI2
F36.75
sI3
F4.71
sI4
F1.0
sI5
F1.0
sI9
F1.0
sI13
F1.0
sI14
F160.0
sI20
F1.0
sI21
F1.0
sI23
F1.0
sI24
F1.0
ssbsg16
g0
(g17
g2
Ntp483
Rp484
(dp485
g21
I0
sbsba(ics475_types
Instance
p486
(dp487
g11
(ics475_types
FeatureVector
p488
(dp489
g14
(dp490
I1
F1.0
sI2
F35.42
sI3
F12.0
sI4
F1.0
sI5
F1.0
sI33
F1.0
sI8
F14.0
sI10
F1.0
sI11
F8.0
sI13
F1.0
sI15
F6590.0
sI21
F1.0
sI27
F1.0
sI30
F1.0
ssbsg16
g0
(g17
g2
Ntp491
Rp492
(dp493
g21
I1
sbsba(ics475_types
Instance
p494
(dp495
g11
(ics475_types
FeatureVector
p496
(dp497
g14
(dp498
I1
F1.0
sI2
F26.17
sI3
F2.0
sI4
F1.0
sI5
F1.0
sI9
F1.0
sI12
F1.0
sI13
F1.0
sI14
F276.0
sI15
F1.0
sI20
F1.0
sI28
F1.0
sI29
F1.0
ssbsg16
g0
(g17
g2
Ntp499
Rp500
(dp501
g21
I0
sbsba(ics475_types
Instance
p502
(dp503
g11
(ics475_types
FeatureVector
p504
(dp505
g14
(dp506
I2
F25.83
sI3
F12.835
sI4
F1.0
sI5
F1.0
sI7
F1.0
sI8
F0.5
sI9
F1.0
sI13
F1.0
sI15
F2.0
sI16
F1.0
sI20
F1.0
sI21
F1.0
sI36
F1.0
ssbsg16
g0
(g17
g2
Ntp507
Rp508
(dp509
g21
I0
sbsba(ics475_types
Instance
p510
(dp511
g11
(ics475_types
FeatureVector
p512
(dp513
g14
(dp514
I2
F22.58
sI3
F1.5
sI37
F1.0
sI7
F1.0
sI8
F0.54
sI9
F1.0
sI12
F1.0
sI13
F1.0
sI14
F120.0
sI15
F67.0
sI16
F1.0
sI17
F1.0
sI18
F1.0
sI20
F1.0
ssbsg16
g0
(g17
g2
Ntp515
Rp516
(dp517
g21
I0
sbsba(ics475_types
Instance
p518
(dp519
g11
(ics475_types
FeatureVector
p520
(dp521
g14
(dp522
I33
F1.0
sI2
F22.67
sI3
F10.5
sI4
F1.0
sI5
F1.0
sI8
F1.335
sI13
F1.0
sI14
F100.0
sI16
F1.0
sI20
F1.0
sI21
F1.0
sI27
F1.0
sI30
F1.0
ssbsg16
g0
(g17
g2
Ntp523
Rp524
(dp525
g21
I1
sbsba(ics475_types
Instance
p526
(dp527
g11
(ics475_types
FeatureVector
p528
(dp529
g14
(dp530
I32
F1.0
sI2
F34.17
sI3
F2.75
sI4
F1.0
sI5
F1.0
sI8
F2.5
sI9
F1.0
sI12
F1.0
sI13
F1.0
sI14
F232.0
sI15
F200.0
sI16
F1.0
sI20
F1.0
sI25
F1.0
ssbsg16
g0
(g17
g2
Ntp531
Rp532
(dp533
g21
I0
sbsba(ics475_types
Instance
p534
(dp535
g11
(ics475_types
FeatureVector
p536
(dp537
g14
(dp538
I1
F1.0
sI2
F28.08
sI3
F15.0
sI33
F1.0
sI41
F1.0
sI42
F1.0
sI13
F1.0
sI15
F13212.0
sI17
F1.0
sI18
F1.0
sI20
F1.0
sI21
F1.0
ssbsg16
g0
(g17
g2
Ntp539
Rp540
(dp541
g21
I1
sbsba(ics475_types
Instance
p542
(dp543
g11
(ics475_types
FeatureVector
p544
(dp545
g14
(dp546
I33
F1.0
sI2
F25.5
sI3
F0.375
sI4
F1.0
sI5
F1.0
sI7
F1.0
sI8
F0.25
sI10
F1.0
sI11
F3.0
sI13
F1.0
sI14
F260.0
sI15
F15108.0
sI16
F1.0
sI35
F1.0
sI21
F1.0
ssbsg16
g0
(g17
g2
Ntp547
Rp548
(dp549
g21
I1
sbsba(ics475_types
Instance
p550
(dp551
g11
(ics475_types
FeatureVector
p552
(dp553
g14
(dp554
I2
F17.08
sI3
F0.085
sI6
F1.0
sI7
F1.0
sI8
F0.04
sI9
F1.0
sI13
F1.0
sI14
F140.0
sI15
F722.0
sI16
F1.0
sI17
F1.0
sI18
F1.0
sI20
F1.0
sI21
F1.0
ssbsg16
g0
(g17
g2
Ntp555
Rp556
(dp557
g21
I0
sbsba(ics475_types
Instance
p558
(dp559
g11
(ics475_types
FeatureVector
p560
(dp561
g14
(dp562
I32
F1.0
sI33
F1.0
sI2
F41.33
sI4
F1.0
sI5
F1.0
sI6
F1.0
sI8
F15.0
sI13
F1.0
sI16
F1.0
sI20
F1.0
sI21
F1.0
ssbsg16
g0
(g17
g2
Ntp563
Rp564
(dp565
g21
I1
sbsba(ics475_types
Instance
p566
(dp567
g11
(ics475_types
FeatureVector
p568
(dp569
g14
(dp570
I2
F31.25
sI3
F2.835
sI4
F1.0
sI5
F1.0
sI9
F1.0
sI10
F1.0
sI11
F5.0
sI13
F1.0
sI14
F176.0
sI15
F146.0
sI16
F1.0
sI21
F1.0
sI23
F1.0
sI24
F1.0
ssbsg16
g0
(g17
g2
Ntp571
Rp572
(dp573
g21
I0
sbsba(ics475_types
Instance
p574
(dp575
g11
(ics475_types
FeatureVector
p576
(dp577
g14
(dp578
I33
F1.0
sI2
F31.42
sI3
F15.5
sI4
F1.0
sI5
F1.0
sI6
F1.0
sI7
F1.0
sI8
F0.5
sI13
F1.0
sI14
F120.0
sI16
F1.0
sI20
F1.0
sI21
F1.0
ssbsg16
g0
(g17
g2
Ntp579
Rp580
(dp581
g21
I0
sbsba(ics475_types
Instance
p582
(dp583
g11
(ics475_types
FeatureVector
p584
(dp585
g14
(dp586
I1
F1.0
sI2
F32.0
sI3
F6.0
sI4
F1.0
sI5
F1.0
sI7
F1.0
sI8
F1.25
sI9
F1.0
sI13
F1.0
sI14
F272.0
sI34
F1.0
sI20
F1.0
sI21
F1.0
ssbsg16
g0
(g17
g2
Ntp587
Rp588
(dp589
g21
I0
sbsba(ics475_types
Instance
p590
(dp591
g11
(ics475_types
FeatureVector
p592
(dp593
g14
(dp594
I33
F1.0
sI2
F22.83
sI3
F3.0
sI4
F1.0
sI5
F1.0
sI7
F1.0
sI8
F1.29
sI10
F1.0
sI11
F1.0
sI13
F1.0
sI14
F260.0
sI15
F800.0
sI16
F1.0
sI35
F1.0
sI21
F1.0
ssbsg16
g0
(g17
g2
Ntp595
Rp596
(dp597
g21
I1
sbsba(ics475_types
Instance
p598
(dp599
g11
(ics475_types
FeatureVector
p600
(dp601
g14
(dp602
I33
F1.0
sI2
F23.25
sI3
F1.0
sI4
F1.0
sI5
F1.0
sI6
F1.0
sI7
F1.0
sI8
F0.835
sI14
F300.0
sI16
F1.0
sI20
F1.0
sI21
F1.0
sI22
F1.0
ssbsg16
g0
(g17
g2
Ntp603
Rp604
(dp605
g21
I1
sbsba(ics475_types
Instance
p606
(dp607
g11
(ics475_types
FeatureVector
p608
(dp609
g14
(dp610
I1
F1.0
sI2
F31.25
sI3
F3.75
sI4
F1.0
sI5
F1.0
sI33
F1.0
sI8
F0.625
sI10
F1.0
sI11
F9.0
sI12
F1.0
sI13
F1.0
sI14
F181.0
sI36
F1.0
sI27
F1.0
ssbsg16
g0
(g17
g2
Ntp611
Rp612
(dp613
g21
I1
sbsba(ics475_types
Instance
p614
(dp615
g11
(ics475_types
FeatureVector
p616
(dp617
g14
(dp618
I33
F1.0
sI2
F37.42
sI3
F2.04
sI4
F1.0
sI5
F1.0
sI7
F1.0
sI8
F0.04
sI12
F1.0
sI13
F1.0
sI14
F400.0
sI15
F5800.0
sI16
F1.0
sI20
F1.0
sI31
F1.0
ssbsg16
g0
(g17
g2
Ntp619
Rp620
(dp621
g21
I1
sbsba(ics475_types
Instance
p622
(dp623
g11
(ics475_types
FeatureVector
p624
(dp625
g14
(dp626
I33
F1.0
sI2
F36.67
sI3
F3.25
sI4
F1.0
sI5
F1.0
sI8
F9.0
sI12
F1.0
sI13
F1.0
sI14
F102.0
sI15
F639.0
sI16
F1.0
sI20
F1.0
sI27
F1.0
sI30
F1.0
ssbsg16
g0
(g17
g2
Ntp627
Rp628
(dp629
g21
I1
sbsba(ics475_types
Instance
p630
(dp631
g11
(ics475_types
FeatureVector
p632
(dp633
g14
(dp634
I2
F34.67
sI3
F1.08
sI4
F1.0
sI5
F1.0
sI7
F1.0
sI8
F1.165
sI9
F1.0
sI14
F28.0
sI16
F1.0
sI35
F1.0
sI20
F1.0
sI21
F1.0
sI22
F1.0
ssbsg16
g0
(g17
g2
Ntp635
Rp636
(dp637
g21
I0
sbsba(ics475_types
Instance
p638
(dp639
g11
(ics475_types
FeatureVector
p640
(dp641
g14
(dp642
I1
F1.0
sI2
F33.08
sI3
F4.625
sI4
F1.0
sI5
F1.0
sI33
F1.0
sI8
F1.625
sI10
F1.0
sI11
F2.0
sI13
F1.0
sI21
F1.0
sI27
F1.0
sI30
F1.0
ssbsg16
g0
(g17
g2
Ntp643
Rp644
(dp645
g21
I1
sbsba(ics475_types
Instance
p646
(dp647
g11
(ics475_types
FeatureVector
p648
(dp649
g14
(dp650
I1
F1.0
sI2
F53.33
sI3
F0.165
sI4
F1.0
sI5
F1.0
sI9
F1.0
sI12
F1.0
sI14
F62.0
sI15
F27.0
sI20
F1.0
sI22
F1.0
sI23
F1.0
sI24
F1.0
ssbsg16
g0
(g17
g2
Ntp651
Rp652
(dp653
g21
I0
sbsba(ics475_types
Instance
p654
(dp655
g11
(ics475_types
FeatureVector
p656
(dp657
g14
(dp658
I2
F25.67
sI3
F0.29
sI6
F1.0
sI7
F1.0
sI8
F1.5
sI9
F1.0
sI12
F1.0
sI13
F1.0
sI14
F160.0
sI16
F1.0
sI17
F1.0
sI18
F1.0
sI20
F1.0
ssbsg16
g0
(g17
g2
Ntp659
Rp660
(dp661
g21
I0
sbsba(ics475_types
Instance
p662
(dp663
g11
(ics475_types
FeatureVector
p664
(dp665
g14
(dp666
I33
F1.0
sI2
F22.67
sI3
F1.585
sI7
F1.0
sI8
F3.085
sI10
F1.0
sI11
F6.0
sI13
F1.0
sI14
F80.0
sI16
F1.0
sI17
F1.0
sI18
F1.0
sI21
F1.0
sI31
F1.0
ssbsg16
g0
(g17
g2
Ntp667
Rp668
(dp669
g21
I1
sbsba(ics475_types
Instance
p670
(dp671
g11
(ics475_types
FeatureVector
p672
(dp673
g14
(dp674
I33
F1.0
sI2
F28.25
sI3
F0.875
sI4
F1.0
sI5
F1.0
sI7
F1.0
sI8
F0.96
sI10
F1.0
sI11
F3.0
sI12
F1.0
sI13
F1.0
sI14
F396.0
sI16
F1.0
sI35
F1.0
ssbsg16
g0
(g17
g2
Ntp675
Rp676
(dp677
g21
I1
sbsba(ics475_types
Instance
p678
(dp679
g11
(ics475_types
FeatureVector
p680
(dp681
g14
(dp682
I33
F1.0
sI2
F35.25
sI3
F16.5
sI6
F1.0
sI7
F1.0
sI8
F4.0
sI13
F1.0
sI14
F80.0
sI16
F1.0
sI17
F1.0
sI18
F1.0
sI20
F1.0
sI21
F1.0
ssbsg16
g0
(g17
g2
Ntp683
Rp684
(dp685
g21
I0
sbsba(ics475_types
Instance
p686
(dp687
g11
(ics475_types
FeatureVector
p688
(dp689
g14
(dp690
I2
F51.83
sI3
F2.04
sI8
F1.5
sI9
F1.0
sI13
F1.0
sI14
F120.0
sI15
F1.0
sI16
F1.0
sI17
F1.0
sI18
F1.0
sI20
F1.0
sI21
F1.0
sI23
F1.0
sI24
F1.0
ssbsg16
g0
(g17
g2
Ntp691
Rp692
(dp693
g21
I0
sbsba(ics475_types
Instance
p694
(dp695
g11
(ics475_types
FeatureVector
p696
(dp697
g14
(dp698
I1
F1.0
sI2
F22.83
sI3
F2.29
sI4
F1.0
sI5
F1.0
sI33
F1.0
sI8
F2.29
sI10
F1.0
sI11
F7.0
sI12
F1.0
sI13
F1.0
sI14
F140.0
sI15
F2384.0
sI27
F1.0
sI30
F1.0
ssbsg16
g0
(g17
g2
Ntp699
Rp700
(dp701
g21
I1
sbsba(ics475_types
Instance
p702
(dp703
g11
(ics475_types
FeatureVector
p704
(dp705
g14
(dp706
I2
F36.67
sI3
F2.0
sI4
F1.0
sI5
F1.0
sI7
F1.0
sI8
F0.25
sI9
F1.0
sI12
F1.0
sI13
F1.0
sI14
F221.0
sI16
F1.0
sI20
F1.0
sI25
F1.0
ssbsg16
g0
(g17
g2
Ntp707
Rp708
(dp709
g21
I0
sbsba(ics475_types
Instance
p710
(dp711
g11
(ics475_types
FeatureVector
p712
(dp713
g14
(dp714
I33
F1.0
sI2
F18.08
sI3
F5.5
sI4
F1.0
sI5
F1.0
sI7
F1.0
sI8
F0.5
sI13
F1.0
sI14
F80.0
sI16
F1.0
sI19
F1.0
sI20
F1.0
sI21
F1.0
ssbsg16
g0
(g17
g2
Ntp715
Rp716
(dp717
g21
I1
sbsba(ics475_types
Instance
p718
(dp719
g11
(ics475_types
FeatureVector
p720
(dp721
g14
(dp722
I33
F1.0
sI2
F54.42
sI3
F0.5
sI8
F3.96
sI13
F1.0
sI14
F180.0
sI15
F314.0
sI16
F1.0
sI17
F1.0
sI18
F1.0
sI19
F1.0
sI20
F1.0
sI21
F1.0
sI27
F1.0
ssbsg16
g0
(g17
g2
Ntp723
Rp724
(dp725
g21
I1
sbsba(ics475_types
Instance
p726
(dp727
g11
(ics475_types
FeatureVector
p728
(dp729
g14
(dp730
I2
F35.58
sI3
F0.75
sI4
F1.0
sI5
F1.0
sI7
F1.0
sI8
F1.5
sI9
F1.0
sI12
F1.0
sI13
F1.0
sI14
F231.0
sI16
F1.0
sI19
F1.0
sI20
F1.0
ssbsg16
g0
(g17
g2
Ntp731
Rp732
(dp733
g21
I0
sbsba(ics475_types
Instance
p734
(dp735
g11
(ics475_types
FeatureVector
p736
(dp737
g14
(dp738
I1
F1.0
sI2
F20.42
sI3
F0.835
sI4
F1.0
sI5
F1.0
sI7
F1.0
sI8
F1.585
sI10
F1.0
sI11
F1.0
sI13
F1.0
sI21
F1.0
sI33
F1.0
sI30
F1.0
ssbsg16
g0
(g17
g2
Ntp739
Rp740
(dp741
g21
I1
sbsba(ics475_types
Instance
p742
(dp743
g11
(ics475_types
FeatureVector
p744
(dp745
g14
(dp746
I1
F1.0
sI2
F38.75
sI3
F1.5
sI4
F1.0
sI5
F1.0
sI9
F1.0
sI13
F1.0
sI14
F76.0
sI20
F1.0
sI21
F1.0
sI23
F1.0
sI24
F1.0
ssbsg16
g0
(g17
g2
Ntp747
Rp748
(dp749
g21
I0
sbsba(ics475_types
Instance
p750
(dp751
g11
(ics475_types
FeatureVector
p752
(dp753
g14
(dp754
I1
F1.0
sI2
F25.42
sI3
F1.125
sI4
F1.0
sI5
F1.0
sI7
F1.0
sI8
F1.29
sI10
F1.0
sI11
F2.0
sI13
F1.0
sI14
F200.0
sI21
F1.0
sI33
F1.0
sI30
F1.0
ssbsg16
g0
(g17
g2
Ntp755
Rp756
(dp757
g21
I0
sbsba(ics475_types
Instance
p758
(dp759
g11
(ics475_types
FeatureVector
p760
(dp761
g14
(dp762
I32
F1.0
sI1
F1.0
sI2
F47.42
sI3
F8.0
sI4
F1.0
sI5
F1.0
sI33
F1.0
sI8
F6.5
sI41
F1.0
sI10
F1.0
sI11
F6.0
sI13
F1.0
sI14
F375.0
sI15
F51100.0
sI21
F1.0
ssbsg16
g0
(g17
g2
Ntp763
Rp764
(dp765
g21
I1
sbsba(ics475_types
Instance
p766
(dp767
g11
(ics475_types
FeatureVector
p768
(dp769
g14
(dp770
I33
F1.0
sI2
F36.33
sI3
F3.79
sI4
F1.0
sI5
F1.0
sI7
F1.0
sI8
F1.165
sI12
F1.0
sI13
F1.0
sI14
F200.0
sI16
F1.0
sI20
F1.0
sI31
F1.0
ssbsg16
g0
(g17
g2
Ntp771
Rp772
(dp773
g21
I0
sbsba(ics475_types
Instance
p774
(dp775
g11
(ics475_types
FeatureVector
p776
(dp777
g14
(dp778
I2
F20.42
sI3
F1.085
sI4
F1.0
sI5
F1.0
sI7
F1.0
sI8
F1.5
sI9
F1.0
sI13
F1.0
sI14
F108.0
sI15
F7.0
sI16
F1.0
sI20
F1.0
sI21
F1.0
sI30
F1.0
ssbsg16
g0
(g17
g2
Ntp779
Rp780
(dp781
g21
I0
sbsba(ics475_types
Instance
p782
(dp783
g11
(ics475_types
FeatureVector
p784
(dp785
g14
(dp786
I2
F17.92
sI3
F0.205
sI4
F1.0
sI5
F1.0
sI7
F1.0
sI8
F0.04
sI9
F1.0
sI13
F1.0
sI14
F280.0
sI15
F750.0
sI16
F1.0
sI20
F1.0
sI21
F1.0
sI37
F1.0
ssbsg16
g0
(g17
g2
Ntp787
Rp788
(dp789
g21
I0
sbsba(ics475_types
Instance
p790
(dp791
g11
(ics475_types
FeatureVector
p792
(dp793
g14
(dp794
I2
F35.0
sI3
F2.5
sI4
F1.0
sI5
F1.0
sI7
F1.0
sI8
F1.0
sI9
F1.0
sI12
F1.0
sI13
F1.0
sI14
F210.0
sI16
F1.0
sI20
F1.0
sI25
F1.0
ssbsg16
g0
(g17
g2
Ntp795
Rp796
(dp797
g21
I0
sbsba(ics475_types
Instance
p798
(dp799
g11
(ics475_types
FeatureVector
p800
(dp801
g14
(dp802
I33
F1.0
sI2
F34.92
sI3
F5.0
sI4
F1.0
sI5
F1.0
sI39
F1.0
sI8
F7.5
sI10
F1.0
sI11
F6.0
sI12
F1.0
sI13
F1.0
sI15
F1000.0
sI16
F1.0
sI27
F1.0
ssbsg16
g0
(g17
g2
Ntp803
Rp804
(dp805
g21
I1
sbsba(ics475_types
Instance
p806
(dp807
g11
(ics475_types
FeatureVector
p808
(dp809
g14
(dp810
I1
F1.0
sI2
F18.83
sI3
F9.54
sI4
F1.0
sI5
F1.0
sI7
F1.0
sI8
F0.085
sI13
F1.0
sI14
F100.0
sI20
F1.0
sI21
F1.0
sI33
F1.0
sI37
F1.0
ssbsg16
g0
(g17
g2
Ntp811
Rp812
(dp813
g21
I1
sbsba(ics475_types
Instance
p814
(dp815
g11
(ics475_types
FeatureVector
p816
(dp817
g14
(dp818
I2
F22.67
sI3
F0.75
sI4
F1.0
sI5
F1.0
sI7
F1.0
sI8
F1.585
sI9
F1.0
sI10
F1.0
sI11
F1.0
sI12
F1.0
sI13
F1.0
sI14
F400.0
sI15
F9.0
sI16
F1.0
sI25
F1.0
ssbsg16
g0
(g17
g2
Ntp819
Rp820
(dp821
g21
I0
sbsba(ics475_types
Instance
p822
(dp823
g11
(ics475_types
FeatureVector
p824
(dp825
g14
(dp826
I33
F1.0
sI2
F31.83
sI3
F2.5
sI4
F1.0
sI5
F1.0
sI7
F1.0
sI8
F7.5
sI12
F1.0
sI13
F1.0
sI14
F523.0
sI16
F1.0
sI20
F1.0
sI37
F1.0
ssbsg16
g0
(g17
g2
Ntp827
Rp828
(dp829
g21
I0
sbsba(ics475_types
Instance
p830
(dp831
g11
(ics475_types
FeatureVector
p832
(dp833
g14
(dp834
I33
F1.0
sI2
F23.17
sI3
F11.125
sI4
F1.0
sI5
F1.0
sI39
F1.0
sI8
F0.46
sI10
F1.0
sI11
F1.0
sI13
F1.0
sI14
F100.0
sI16
F1.0
sI21
F1.0
sI27
F1.0
ssbsg16
g0
(g17
g2
Ntp835
Rp836
(dp837
g21
I1
sbsba(ics475_types
Instance
p838
(dp839
g11
(ics475_types
FeatureVector
p840
(dp841
g14
(dp842
I33
F1.0
sI2
F41.92
sI3
F0.42
sI4
F1.0
sI5
F1.0
sI6
F1.0
sI8
F0.21
sI10
F1.0
sI11
F6.0
sI13
F1.0
sI14
F220.0
sI15
F948.0
sI16
F1.0
sI21
F1.0
sI27
F1.0
ssbsg16
g0
(g17
g2
Ntp843
Rp844
(dp845
g21
I1
sbsba(ics475_types
Instance
p846
(dp847
g11
(ics475_types
FeatureVector
p848
(dp849
g14
(dp850
I33
F1.0
sI2
F48.75
sI3
F8.5
sI4
F1.0
sI5
F1.0
sI6
F1.0
sI8
F12.5
sI10
F1.0
sI11
F9.0
sI13
F1.0
sI14
F181.0
sI15
F1655.0
sI16
F1.0
sI21
F1.0
sI27
F1.0
ssbsg16
g0
(g17
g2
Ntp851
Rp852
(dp853
g21
I1
sbsba(ics475_types
Instance
p854
(dp855
g11
(ics475_types
FeatureVector
p856
(dp857
g14
(dp858
I1
F1.0
sI2
F47.25
sI3
F0.75
sI4
F1.0
sI5
F1.0
sI33
F1.0
sI8
F2.75
sI10
F1.0
sI11
F1.0
sI13
F1.0
sI14
F333.0
sI15
F892.0
sI21
F1.0
sI27
F1.0
sI30
F1.0
ssbsg16
g0
(g17
g2
Ntp859
Rp860
(dp861
g21
I1
sbsba(ics475_types
Instance
p862
(dp863
g11
(ics475_types
FeatureVector
p864
(dp865
g14
(dp866
I33
F1.0
sI2
F18.67
sI3
F5.0
sI4
F1.0
sI5
F1.0
sI7
F1.0
sI8
F0.375
sI10
F1.0
sI11
F2.0
sI13
F1.0
sI15
F38.0
sI16
F1.0
sI21
F1.0
sI30
F1.0
ssbsg16
g0
(g17
g2
Ntp867
Rp868
(dp869
g21
I0
sbsba(ics475_types
Instance
p870
(dp871
g11
(ics475_types
FeatureVector
p872
(dp873
g14
(dp874
I1
F1.0
sI2
F29.58
sI3
F1.75
sI7
F1.0
sI8
F1.25
sI9
F1.0
sI12
F1.0
sI13
F1.0
sI14
F280.0
sI17
F1.0
sI18
F1.0
sI19
F1.0
sI20
F1.0
ssbsg16
g0
(g17
g2
Ntp875
Rp876
(dp877
g21
I0
sbsba(ics475_types
Instance
p878
(dp879
g11
(ics475_types
FeatureVector
p880
(dp881
g14
(dp882
I33
F1.0
sI2
F35.17
sI3
F25.125
sI4
F1.0
sI5
F1.0
sI39
F1.0
sI8
F1.625
sI10
F1.0
sI11
F1.0
sI12
F1.0
sI13
F1.0
sI14
F515.0
sI15
F500.0
sI16
F1.0
sI27
F1.0
ssbsg16
g0
(g17
g2
Ntp883
Rp884
(dp885
g21
I1
sbsba(ics475_types
Instance
p886
(dp887
g11
(ics475_types
FeatureVector
p888
(dp889
g14
(dp890
I2
F26.17
sI3
F12.5
sI8
F1.25
sI9
F1.0
sI12
F1.0
sI13
F1.0
sI15
F17.0
sI16
F1.0
sI17
F1.0
sI18
F1.0
sI19
F1.0
sI20
F1.0
sI27
F1.0
ssbsg16
g0
(g17
g2
Ntp891
Rp892
(dp893
g21
I0
sbsba(ics475_types
Instance
p894
(dp895
g11
(ics475_types
FeatureVector
p896
(dp897
g14
(dp898
I1
F1.0
sI2
F32.33
sI3
F0.54
sI4
F1.0
sI5
F1.0
sI7
F1.0
sI8
F0.04
sI13
F1.0
sI14
F440.0
sI15
F11177.0
sI20
F1.0
sI21
F1.0
sI36
F1.0
sI33
F1.0
ssbsg16
g0
(g17
g2
Ntp899
Rp900
(dp901
g21
I1
sbsba(ics475_types
Instance
p902
(dp903
g11
(ics475_types
FeatureVector
p904
(dp905
g14
(dp906
I33
F1.0
sI2
F40.92
sI3
F0.835
sI4
F1.0
sI5
F1.0
sI13
F1.0
sI14
F130.0
sI15
F1.0
sI16
F1.0
sI20
F1.0
sI21
F1.0
sI23
F1.0
sI24
F1.0
ssbsg16
g0
(g17
g2
Ntp907
Rp908
(dp909
g21
I0
sbsba(ics475_types
Instance
p910
(dp911
g11
(ics475_types
FeatureVector
p912
(dp913
g14
(dp914
I33
F1.0
sI2
F21.5
sI3
F11.5
sI4
F1.0
sI5
F1.0
sI7
F1.0
sI8
F0.5
sI12
F1.0
sI13
F1.0
sI14
F100.0
sI15
F68.0
sI16
F1.0
sI20
F1.0
sI25
F1.0
ssbsg16
g0
(g17
g2
Ntp915
Rp916
(dp917
g21
I0
sbsba(ics475_types
Instance
p918
(dp919
g11
(ics475_types
FeatureVector
p920
(dp921
g14
(dp922
I32
F1.0
sI33
F1.0
sI2
F34.5
sI3
F4.04
sI8
F8.5
sI10
F1.0
sI11
F7.0
sI12
F1.0
sI13
F1.0
sI14
F195.0
sI16
F1.0
sI17
F1.0
sI18
F1.0
sI25
F1.0
ssbsg16
g0
(g17
g2
Ntp923
Rp924
(dp925
g21
I1
sbsba(ics475_types
Instance
p926
(dp927
g11
(ics475_types
FeatureVector
p928
(dp929
g14
(dp930
I1
F1.0
sI2
F60.92
sI3
F5.0
sI4
F1.0
sI5
F1.0
sI7
F1.0
sI8
F4.0
sI10
F1.0
sI11
F4.0
sI13
F1.0
sI15
F99.0
sI21
F1.0
sI33
F1.0
sI37
F1.0
ssbsg16
g0
(g17
g2
Ntp931
Rp932
(dp933
g21
I1
sbsba(ics475_types
Instance
p934
(dp935
g11
(ics475_types
FeatureVector
p936
(dp937
g14
(dp938
I33
F1.0
sI2
F67.75
sI3
F5.5
sI4
F1.0
sI5
F1.0
sI8
F13.0
sI41
F1.0
sI10
F1.0
sI11
F1.0
sI12
F1.0
sI13
F1.0
sI16
F1.0
sI42
F1.0
ssbsg16
g0
(g17
g2
Ntp939
Rp940
(dp941
g21
I1
sbsba(ics475_types
Instance
p942
(dp943
g11
(ics475_types
FeatureVector
p944
(dp945
g14
(dp946
I1
F1.0
sI2
F41.17
sI3
F6.5
sI4
F1.0
sI5
F1.0
sI7
F1.0
sI8
F0.5
sI10
F1.0
sI11
F3.0
sI12
F1.0
sI13
F1.0
sI14
F145.0
sI33
F1.0
sI30
F1.0
ssbsg16
g0
(g17
g2
Ntp947
Rp948
(dp949
g21
I1
sbsba(ics475_types
Instance
p950
(dp951
g11
(ics475_types
FeatureVector
p952
(dp953
g14
(dp954
I33
F1.0
sI2
F39.92
sI3
F0.54
sI37
F1.0
sI7
F1.0
sI8
F0.5
sI10
F1.0
sI11
F3.0
sI13
F1.0
sI14
F200.0
sI15
F1000.0
sI16
F1.0
sI17
F1.0
sI18
F1.0
sI21
F1.0
ssbsg16
g0
(g17
g2
Ntp955
Rp956
(dp957
g21
I1
sbsba(ics475_types
Instance
p958
(dp959
g11
(ics475_types
FeatureVector
p960
(dp961
g14
(dp962
I33
F1.0
sI2
F48.25
sI3
F25.085
sI4
F1.0
sI5
F1.0
sI7
F1.0
sI8
F1.75
sI10
F1.0
sI11
F3.0
sI13
F1.0
sI14
F120.0
sI15
F14.0
sI16
F1.0
sI21
F1.0
sI31
F1.0
ssbsg16
g0
(g17
g2
Ntp963
Rp964
(dp965
g21
I1
sbsba(ics475_types
Instance
p966
(dp967
g11
(ics475_types
FeatureVector
p968
(dp969
g14
(dp970
I33
F1.0
sI2
F27.0
sI3
F1.5
sI7
F1.0
sI8
F0.375
sI12
F1.0
sI13
F1.0
sI14
F260.0
sI15
F1065.0
sI16
F1.0
sI17
F1.0
sI18
F1.0
sI20
F1.0
sI31
F1.0
ssbsg16
g0
(g17
g2
Ntp971
Rp972
(dp973
g21
I1
sbsba(ics475_types
Instance
p974
(dp975
g11
(ics475_types
FeatureVector
p976
(dp977
g14
(dp978
I2
F31.08
sI3
F1.5
sI7
F1.0
sI8
F0.04
sI9
F1.0
sI14
F160.0
sI16
F1.0
sI17
F1.0
sI18
F1.0
sI20
F1.0
sI21
F1.0
sI22
F1.0
sI31
F1.0
ssbsg16
g0
(g17
g2
Ntp979
Rp980
(dp981
g21
I0
sbsba(ics475_types
Instance
p982
(dp983
g11
(ics475_types
FeatureVector
p984
(dp985
g14
(dp986
I1
F1.0
sI2
F22.58
sI3
F10.75
sI4
F1.0
sI5
F1.0
sI7
F1.0
sI8
F0.415
sI10
F1.0
sI11
F5.0
sI12
F1.0
sI13
F1.0
sI15
F560.0
sI33
F1.0
sI30
F1.0
ssbsg16
g0
(g17
g2
Ntp987
Rp988
(dp989
g21
I1
sbsba(ics475_types
Instance
p990
(dp991
g11
(ics475_types
FeatureVector
p992
(dp993
g14
(dp994
I2
F17.08
sI3
F3.29
sI4
F1.0
sI5
F1.0
sI7
F1.0
sI8
F0.335
sI9
F1.0
sI12
F1.0
sI13
F1.0
sI14
F140.0
sI15
F2.0
sI16
F1.0
sI20
F1.0
sI25
F1.0
ssbsg16
g0
(g17
g2
Ntp995
Rp996
(dp997
g21
I0
sbsba(ics475_types
Instance
p998
(dp999
g11
(ics475_types
FeatureVector
p1000
(dp1001
g14
(dp1002
I1
F1.0
sI2
F69.5
sI3
F6.0
sI4
F1.0
sI5
F1.0
sI9
F1.0
sI20
F1.0
sI21
F1.0
sI22
F1.0
sI23
F1.0
sI24
F1.0
ssbsg16
g0
(g17
g2
Ntp1003
Rp1004
(dp1005
g21
I0
sbsba(ics475_types
Instance
p1006
(dp1007
g11
(ics475_types
FeatureVector
p1008
(dp1009
g14
(dp1010
I1
F1.0
sI2
F47.42
sI3
F3.0
sI4
F1.0
sI5
F1.0
sI7
F1.0
sI8
F13.875
sI10
F1.0
sI11
F2.0
sI12
F1.0
sI13
F1.0
sI14
F519.0
sI15
F1704.0
sI39
F1.0
sI33
F1.0
ssbsg16
g0
(g17
g2
Ntp1011
Rp1012
(dp1013
g21
I1
sbsba(ics475_types
Instance
p1014
(dp1015
g11
(ics475_types
FeatureVector
p1016
(dp1017
g14
(dp1018
I2
F22.17
sI3
F0.585
sI9
F1.0
sI13
F1.0
sI14
F100.0
sI16
F1.0
sI17
F1.0
sI18
F1.0
sI20
F1.0
sI21
F1.0
sI23
F1.0
sI24
F1.0
ssbsg16
g0
(g17
g2
Ntp1019
Rp1020
(dp1021
g21
I0
sbsba(ics475_types
Instance
p1022
(dp1023
g11
(ics475_types
FeatureVector
p1024
(dp1025
g14
(dp1026
I32
F1.0
sI2
F26.67
sI3
F14.585
sI4
F1.0
sI5
F1.0
sI9
F1.0
sI12
F1.0
sI13
F1.0
sI14
F178.0
sI16
F1.0
sI20
F1.0
sI25
F1.0
ssbsg16
g0
(g17
g2
Ntp1027
Rp1028
(dp1029
g21
I0
sbsba(ics475_types
Instance
p1030
(dp1031
g11
(ics475_types
FeatureVector
p1032
(dp1033
g14
(dp1034
I33
F1.0
sI2
F25.33
sI3
F0.58
sI4
F1.0
sI5
F1.0
sI6
F1.0
sI7
F1.0
sI8
F0.29
sI10
F1.0
sI11
F7.0
sI12
F1.0
sI13
F1.0
sI14
F96.0
sI15
F5124.0
sI16
F1.0
ssbsg16
g0
(g17
g2
Ntp1035
Rp1036
(dp1037
g21
I1
sbsba(ics475_types
Instance
p1038
(dp1039
g11
(ics475_types
FeatureVector
p1040
(dp1041
g14
(dp1042
I33
F1.0
sI2
F18.5
sI3
F2.0
sI4
F1.0
sI5
F1.0
sI7
F1.0
sI8
F1.5
sI10
F1.0
sI11
F2.0
sI13
F1.0
sI14
F120.0
sI15
F300.0
sI16
F1.0
sI21
F1.0
sI25
F1.0
ssbsg16
g0
(g17
g2
Ntp1043
Rp1044
(dp1045
g21
I1
sbsba(ics475_types
Instance
p1046
(dp1047
g11
(ics475_types
FeatureVector
p1048
(dp1049
g14
(dp1050
I2
F17.42
sI3
F6.5
sI4
F1.0
sI5
F1.0
sI7
F1.0
sI8
F0.125
sI9
F1.0
sI13
F1.0
sI14
F60.0
sI15
F100.0
sI16
F1.0
sI20
F1.0
sI21
F1.0
sI25
F1.0
ssbsg16
g0
(g17
g2
Ntp1051
Rp1052
(dp1053
g21
I0
sbsba(ics475_types
Instance
p1054
(dp1055
g11
(ics475_types
FeatureVector
p1056
(dp1057
g14
(dp1058
I1
F1.0
sI2
F20.83
sI3
F8.5
sI4
F1.0
sI5
F1.0
sI6
F1.0
sI7
F1.0
sI8
F0.165
sI9
F1.0
sI13
F1.0
sI15
F351.0
sI20
F1.0
sI21
F1.0
ssbsg16
g0
(g17
g2
Ntp1059
Rp1060
(dp1061
g21
I0
sbsba(ics475_types
Instance
p1062
(dp1063
g11
(ics475_types
FeatureVector
p1064
(dp1065
g14
(dp1066
I1
F1.0
sI2
F27.42
sI3
F14.5
sI4
F1.0
sI5
F1.0
sI33
F1.0
sI8
F3.085
sI10
F1.0
sI11
F1.0
sI13
F1.0
sI14
F120.0
sI15
F11.0
sI21
F1.0
sI39
F1.0
sI27
F1.0
ssbsg16
g0
(g17
g2
Ntp1067
Rp1068
(dp1069
g21
I1
sbsba(ics475_types
Instance
p1070
(dp1071
g11
(ics475_types
FeatureVector
p1072
(dp1073
g14
(dp1074
I1
F1.0
sI2
F17.83
sI3
F11.0
sI4
F1.0
sI5
F1.0
sI33
F1.0
sI8
F1.0
sI10
F1.0
sI11
F11.0
sI13
F1.0
sI15
F3000.0
sI21
F1.0
sI39
F1.0
sI27
F1.0
ssbsg16
g0
(g17
g2
Ntp1075
Rp1076
(dp1077
g21
I1
sbsba(ics475_types
Instance
p1078
(dp1079
g11
(ics475_types
FeatureVector
p1080
(dp1081
g14
(dp1082
I1
F1.0
sI2
F24.58
sI3
F0.67
sI4
F1.0
sI5
F1.0
sI33
F1.0
sI8
F1.75
sI13
F1.0
sI14
F400.0
sI20
F1.0
sI21
F1.0
sI27
F1.0
sI37
F1.0
ssbsg16
g0
(g17
g2
Ntp1083
Rp1084
(dp1085
g21
I0
sbsba(ics475_types
Instance
p1086
(dp1087
g11
(ics475_types
FeatureVector
p1088
(dp1089
g14
(dp1090
I33
F1.0
sI2
F29.58
sI3
F4.5
sI4
F1.0
sI5
F1.0
sI7
F1.0
sI8
F7.5
sI10
F1.0
sI11
F2.0
sI12
F1.0
sI13
F1.0
sI14
F330.0
sI16
F1.0
sI31
F1.0
ssbsg16
g0
(g17
g2
Ntp1091
Rp1092
(dp1093
g21
I1
sbsba(ics475_types
Instance
p1094
(dp1095
g11
(ics475_types
FeatureVector
p1096
(dp1097
g14
(dp1098
I1
F1.0
sI2
F24.92
sI3
F1.25
sI4
F1.0
sI5
F1.0
sI33
F1.0
sI13
F1.0
sI14
F80.0
sI20
F1.0
sI21
F1.0
sI23
F1.0
sI24
F1.0
ssbsg16
g0
(g17
g2
Ntp1099
Rp1100
(dp1101
g21
I0
sbsba(ics475_types
Instance
p1102
(dp1103
g11
(ics475_types
FeatureVector
p1104
(dp1105
g14
(dp1106
I1
F1.0
sI2
F57.08
sI3
F19.5
sI4
F1.0
sI5
F1.0
sI6
F1.0
sI7
F1.0
sI8
F5.5
sI10
F1.0
sI11
F7.0
sI13
F1.0
sI15
F3000.0
sI21
F1.0
sI33
F1.0
ssbsg16
g0
(g17
g2
Ntp1107
Rp1108
(dp1109
g21
I1
sbsba(ics475_types
Instance
p1110
(dp1111
g11
(ics475_types
FeatureVector
p1112
(dp1113
g14
(dp1114
I33
F1.0
sI2
F34.17
sI3
F1.54
sI4
F1.0
sI5
F1.0
sI7
F1.0
sI8
F1.54
sI10
F1.0
sI11
F1.0
sI12
F1.0
sI13
F1.0
sI14
F520.0
sI15
F50000.0
sI16
F1.0
sI36
F1.0
ssbsg16
g0
(g17
g2
Ntp1115
Rp1116
(dp1117
g21
I1
sbsba(ics475_types
Instance
p1118
(dp1119
g11
(ics475_types
FeatureVector
p1120
(dp1121
g14
(dp1122
I1
F1.0
sI2
F24.5
sI3
F1.04
sI33
F1.0
sI8
F0.5
sI10
F1.0
sI11
F3.0
sI13
F1.0
sI14
F180.0
sI15
F147.0
sI17
F1.0
sI18
F1.0
sI21
F1.0
sI23
F1.0
sI24
F1.0
ssbsg16
g0
(g17
g2
Ntp1123
Rp1124
(dp1125
g21
I0
sbsba(ics475_types
Instance
p1126
(dp1127
g11
(ics475_types
FeatureVector
p1128
(dp1129
g14
(dp1130
I2
F32.08
sI3
F4.0
sI36
F1.0
sI7
F1.0
sI8
F1.5
sI9
F1.0
sI12
F1.0
sI13
F1.0
sI14
F120.0
sI16
F1.0
sI17
F1.0
sI18
F1.0
sI20
F1.0
ssbsg16
g0
(g17
g2
Ntp1131
Rp1132
(dp1133
g21
I0
sbsba(ics475_types
Instance
p1134
(dp1135
g11
(ics475_types
FeatureVector
p1136
(dp1137
g14
(dp1138
I33
F1.0
sI2
F28.0
sI3
F2.0
sI4
F1.0
sI5
F1.0
sI8
F4.165
sI10
F1.0
sI11
F2.0
sI12
F1.0
sI13
F1.0
sI14
F181.0
sI16
F1.0
sI19
F1.0
sI27
F1.0
ssbsg16
g0
(g17
g2
Ntp1139
Rp1140
(dp1141
g21
I1
sbsba(ics475_types
Instance
p1142
(dp1143
g11
(ics475_types
FeatureVector
p1144
(dp1145
g14
(dp1146
I33
F1.0
sI2
F32.67
sI3
F9.0
sI8
F5.25
sI12
F1.0
sI13
F1.0
sI14
F154.0
sI16
F1.0
sI17
F1.0
sI18
F1.0
sI20
F1.0
sI27
F1.0
sI31
F1.0
ssbsg16
g0
(g17
g2
Ntp1147
Rp1148
(dp1149
g21
I1
sbsba(ics475_types
Instance
p1150
(dp1151
g11
(ics475_types
FeatureVector
p1152
(dp1153
g14
(dp1154
I32
F1.0
sI33
F1.0
sI2
F37.5
sI3
F1.75
sI6
F1.0
sI8
F0.25
sI12
F1.0
sI13
F1.0
sI14
F164.0
sI15
F400.0
sI16
F1.0
sI17
F1.0
sI18
F1.0
sI20
F1.0
ssbsg16
g0
(g17
g2
Ntp1155
Rp1156
(dp1157
g21
I0
sbsba(ics475_types
Instance
p1158
(dp1159
g11
(ics475_types
FeatureVector
p1160
(dp1161
g14
(dp1162
I33
F1.0
sI2
F33.58
sI3
F2.75
sI4
F1.0
sI5
F1.0
sI7
F1.0
sI8
F4.25
sI10
F1.0
sI11
F6.0
sI13
F1.0
sI14
F204.0
sI16
F1.0
sI35
F1.0
sI21
F1.0
ssbsg16
g0
(g17
g2
Ntp1163
Rp1164
(dp1165
g21
I1
sbsba(ics475_types
Instance
p1166
(dp1167
g11
(ics475_types
FeatureVector
p1168
(dp1169
g14
(dp1170
I1
F1.0
sI2
F25.0
sI3
F0.875
sI4
F1.0
sI5
F1.0
sI33
F1.0
sI8
F1.04
sI39
F1.0
sI12
F1.0
sI13
F1.0
sI14
F160.0
sI15
F5860.0
sI20
F1.0
sI27
F1.0
ssbsg16
g0
(g17
g2
Ntp1171
Rp1172
(dp1173
g21
I1
sbsba(ics475_types
Instance
p1174
(dp1175
g11
(ics475_types
FeatureVector
p1176
(dp1177
g14
(dp1178
I1
F1.0
sI2
F23.58
sI3
F0.83
sI4
F1.0
sI5
F1.0
sI7
F1.0
sI8
F0.415
sI9
F1.0
sI10
F1.0
sI11
F1.0
sI12
F1.0
sI13
F1.0
sI14
F200.0
sI15
F11.0
sI30
F1.0
ssbsg16
g0
(g17
g2
Ntp1179
Rp1180
(dp1181
g21
I0
sbsba(ics475_types
Instance
p1182
(dp1183
g11
(ics475_types
FeatureVector
p1184
(dp1185
g14
(dp1186
I33
F1.0
sI2
F27.25
sI3
F1.665
sI4
F1.0
sI5
F1.0
sI8
F5.085
sI10
F1.0
sI11
F9.0
sI13
F1.0
sI14
F399.0
sI15
F827.0
sI16
F1.0
sI21
F1.0
sI36
F1.0
sI27
F1.0
ssbsg16
g0
(g17
g2
Ntp1187
Rp1188
(dp1189
g21
I1
sbsba(ics475_types
Instance
p1190
(dp1191
g11
(ics475_types
FeatureVector
p1192
(dp1193
g14
(dp1194
I33
F1.0
sI2
F23.33
sI3
F11.625
sI7
F1.0
sI8
F0.835
sI12
F1.0
sI13
F1.0
sI14
F160.0
sI15
F300.0
sI16
F1.0
sI17
F1.0
sI18
F1.0
sI20
F1.0
sI31
F1.0
ssbsg16
g0
(g17
g2
Ntp1195
Rp1196
(dp1197
g21
I1
sbsba(ics475_types
Instance
p1198
(dp1199
g11
(ics475_types
FeatureVector
p1200
(dp1201
g14
(dp1202
I33
F1.0
sI2
F27.67
sI3
F13.75
sI4
F1.0
sI5
F1.0
sI7
F1.0
sI8
F5.75
sI12
F1.0
sI13
F1.0
sI14
F487.0
sI15
F500.0
sI16
F1.0
sI20
F1.0
sI31
F1.0
ssbsg16
g0
(g17
g2
Ntp1203
Rp1204
(dp1205
g21
I1
sbsba(ics475_types
Instance
p1206
(dp1207
g11
(ics475_types
FeatureVector
p1208
(dp1209
g14
(dp1210
I33
F1.0
sI2
F34.92
sI3
F2.5
sI4
F1.0
sI5
F1.0
sI7
F1.0
sI12
F1.0
sI13
F1.0
sI14
F239.0
sI15
F200.0
sI16
F1.0
sI20
F1.0
sI31
F1.0
ssbsg16
g0
(g17
g2
Ntp1211
Rp1212
(dp1213
g21
I1
sbsba(ics475_types
Instance
p1214
(dp1215
g11
(ics475_types
FeatureVector
p1216
(dp1217
g14
(dp1218
I2
F18.83
sI3
F0.415
sI6
F1.0
sI7
F1.0
sI8
F0.165
sI9
F1.0
sI10
F1.0
sI11
F1.0
sI13
F1.0
sI14
F200.0
sI15
F1.0
sI16
F1.0
sI17
F1.0
sI18
F1.0
sI21
F1.0
ssbsg16
g0
(g17
g2
Ntp1219
Rp1220
(dp1221
g21
I0
sbsba(ics475_types
Instance
p1222
(dp1223
g11
(ics475_types
FeatureVector
p1224
(dp1225
g14
(dp1226
I1
F1.0
sI2
F20.67
sI3
F3.0
sI4
F1.0
sI5
F1.0
sI7
F1.0
sI8
F0.165
sI10
F1.0
sI11
F3.0
sI13
F1.0
sI14
F100.0
sI15
F6.0
sI21
F1.0
sI33
F1.0
sI30
F1.0
ssbsg16
g0
(g17
g2
Ntp1227
Rp1228
(dp1229
g21
I1
sbsba(ics475_types
Instance
p1230
(dp1231
g11
(ics475_types
FeatureVector
p1232
(dp1233
g14
(dp1234
I33
F1.0
sI2
F39.92
sI3
F6.21
sI4
F1.0
sI5
F1.0
sI7
F1.0
sI8
F0.04
sI10
F1.0
sI11
F1.0
sI13
F1.0
sI14
F200.0
sI15
F300.0
sI16
F1.0
sI21
F1.0
sI30
F1.0
ssbsg16
g0
(g17
g2
Ntp1235
Rp1236
(dp1237
g21
I1
sbsba(ics475_types
Instance
p1238
(dp1239
g11
(ics475_types
FeatureVector
p1240
(dp1241
g14
(dp1242
I32
F1.0
sI2
F33.75
sI3
F2.75
sI4
F1.0
sI5
F1.0
sI9
F1.0
sI13
F1.0
sI14
F180.0
sI16
F1.0
sI20
F1.0
sI21
F1.0
sI25
F1.0
ssbsg16
g0
(g17
g2
Ntp1243
Rp1244
(dp1245
g21
I0
sbsba(ics475_types
Instance
p1246
(dp1247
g11
(ics475_types
FeatureVector
p1248
(dp1249
g14
(dp1250
I2
F16.0
sI3
F3.125
sI4
F1.0
sI5
F1.0
sI7
F1.0
sI8
F0.085
sI9
F1.0
sI10
F1.0
sI11
F1.0
sI13
F1.0
sI15
F6.0
sI16
F1.0
sI21
F1.0
sI31
F1.0
ssbsg16
g0
(g17
g2
Ntp1251
Rp1252
(dp1253
g21
I0
sbsba(ics475_types
Instance
p1254
(dp1255
g11
(ics475_types
FeatureVector
p1256
(dp1257
g14
(dp1258
I2
F23.92
sI3
F0.665
sI4
F1.0
sI5
F1.0
sI6
F1.0
sI7
F1.0
sI8
F0.165
sI9
F1.0
sI13
F1.0
sI14
F100.0
sI16
F1.0
sI20
F1.0
sI21
F1.0
ssbsg16
g0
(g17
g2
Ntp1259
Rp1260
(dp1261
g21
I1
sbsba(ics475_types
Instance
p1262
(dp1263
g11
(ics475_types
FeatureVector
p1264
(dp1265
g14
(dp1266
I1
F1.0
sI2
F58.33
sI3
F10.0
sI4
F1.0
sI5
F1.0
sI7
F1.0
sI8
F4.0
sI10
F1.0
sI11
F14.0
sI13
F1.0
sI15
F1602.0
sI21
F1.0
sI33
F1.0
sI30
F1.0
ssbsg16
g0
(g17
g2
Ntp1267
Rp1268
(dp1269
g21
I1
sbsba(ics475_types
Instance
p1270
(dp1271
g11
(ics475_types
FeatureVector
p1272
(dp1273
g14
(dp1274
I33
F1.0
sI2
F28.75
sI3
F1.5
sI6
F1.0
sI7
F1.0
sI8
F1.5
sI12
F1.0
sI13
F1.0
sI15
F225.0
sI16
F1.0
sI17
F1.0
sI18
F1.0
sI20
F1.0
ssbsg16
g0
(g17
g2
Ntp1275
Rp1276
(dp1277
g21
I0
sbsba(ics475_types
Instance
p1278
(dp1279
g11
(ics475_types
FeatureVector
p1280
(dp1281
g14
(dp1282
I33
F1.0
sI2
F40.92
sI3
F2.25
sI39
F1.0
sI8
F10.0
sI12
F1.0
sI13
F1.0
sI14
F176.0
sI16
F1.0
sI17
F1.0
sI18
F1.0
sI20
F1.0
sI27
F1.0
ssbsg16
g0
(g17
g2
Ntp1283
Rp1284
(dp1285
g21
I0
sbsba(ics475_types
Instance
p1286
(dp1287
g11
(ics475_types
FeatureVector
p1288
(dp1289
g14
(dp1290
I1
F1.0
sI2
F22.67
sI3
F0.335
sI4
F1.0
sI5
F1.0
sI7
F1.0
sI8
F0.75
sI9
F1.0
sI14
F160.0
sI20
F1.0
sI21
F1.0
sI22
F1.0
sI30
F1.0
ssbsg16
g0
(g17
g2
Ntp1291
Rp1292
(dp1293
g21
I0
sbsba(ics475_types
Instance
p1294
(dp1295
g11
(ics475_types
FeatureVector
p1296
(dp1297
g14
(dp1298
I33
F1.0
sI2
F43.0
sI3
F0.29
sI36
F1.0
sI8
F1.75
sI10
F1.0
sI11
F8.0
sI13
F1.0
sI14
F100.0
sI15
F375.0
sI16
F1.0
sI17
F1.0
sI18
F1.0
sI21
F1.0
sI27
F1.0
ssbsg16
g0
(g17
g2
Ntp1299
Rp1300
(dp1301
g21
I1
sbsba(ics475_types
Instance
p1302
(dp1303
g11
(ics475_types
FeatureVector
p1304
(dp1305
g14
(dp1306
I33
F1.0
sI2
F22.75
sI3
F11.0
sI4
F1.0
sI5
F1.0
sI7
F1.0
sI8
F2.5
sI10
F1.0
sI11
F7.0
sI12
F1.0
sI13
F1.0
sI14
F100.0
sI15
F809.0
sI16
F1.0
sI30
F1.0
ssbsg16
g0
(g17
g2
Ntp1307
Rp1308
(dp1309
g21
I1
sbsba(ics475_types
Instance
p1310
(dp1311
g11
(ics475_types
FeatureVector
p1312
(dp1313
g14
(dp1314
I1
F1.0
sI2
F18.42
sI3
F9.25
sI4
F1.0
sI5
F1.0
sI7
F1.0
sI8
F1.21
sI10
F1.0
sI11
F4.0
sI13
F1.0
sI14
F60.0
sI15
F540.0
sI21
F1.0
sI33
F1.0
sI30
F1.0
ssbsg16
g0
(g17
g2
Ntp1315
Rp1316
(dp1317
g21
I1
sbsba(ics475_types
Instance
p1318
(dp1319
g11
(ics475_types
FeatureVector
p1320
(dp1321
g14
(dp1322
I1
F1.0
sI2
F15.83
sI3
F0.585
sI4
F1.0
sI5
F1.0
sI6
F1.0
sI33
F1.0
sI8
F1.5
sI10
F1.0
sI11
F2.0
sI13
F1.0
sI14
F100.0
sI21
F1.0
sI27
F1.0
ssbsg16
g0
(g17
g2
Ntp1323
Rp1324
(dp1325
g21
I1
sbsba(ics475_types
Instance
p1326
(dp1327
g11
(ics475_types
FeatureVector
p1328
(dp1329
g14
(dp1330
I33
F1.0
sI2
F54.33
sI3
F6.75
sI4
F1.0
sI5
F1.0
sI6
F1.0
sI8
F2.625
sI10
F1.0
sI11
F11.0
sI12
F1.0
sI13
F1.0
sI15
F284.0
sI16
F1.0
sI27
F1.0
ssbsg16
g0
(g17
g2
Ntp1331
Rp1332
(dp1333
g21
I1
sbsba(ics475_types
Instance
p1334
(dp1335
g11
(ics475_types
FeatureVector
p1336
(dp1337
g14
(dp1338
I33
F1.0
sI2
F22.58
sI3
F10.04
sI4
F1.0
sI5
F1.0
sI7
F1.0
sI8
F0.04
sI10
F1.0
sI11
F9.0
sI13
F1.0
sI14
F60.0
sI15
F396.0
sI16
F1.0
sI21
F1.0
sI39
F1.0
ssbsg16
g0
(g17
g2
Ntp1339
Rp1340
(dp1341
g21
I1
sbsba(ics475_types
Instance
p1342
(dp1343
g11
(ics475_types
FeatureVector
p1344
(dp1345
g14
(dp1346
I1
F1.0
sI2
F52.83
sI3
F15.0
sI4
F1.0
sI5
F1.0
sI6
F1.0
sI7
F1.0
sI8
F5.5
sI10
F1.0
sI11
F14.0
sI13
F1.0
sI15
F2200.0
sI21
F1.0
sI33
F1.0
ssbsg16
g0
(g17
g2
Ntp1347
Rp1348
(dp1349
g21
I1
sbsba(ics475_types
Instance
p1350
(dp1351
g11
(ics475_types
FeatureVector
p1352
(dp1353
g14
(dp1354
I1
F1.0
sI2
F20.75
sI3
F10.335
sI4
F1.0
sI5
F1.0
sI33
F1.0
sI8
F0.335
sI10
F1.0
sI11
F1.0
sI12
F1.0
sI13
F1.0
sI14
F80.0
sI15
F50.0
sI36
F1.0
sI27
F1.0
ssbsg16
g0
(g17
g2
Ntp1355
Rp1356
(dp1357
g21
I1
sbsba(ics475_types
Instance
p1358
(dp1359
g11
(ics475_types
FeatureVector
p1360
(dp1361
g14
(dp1362
I1
F1.0
sI2
F26.08
sI3
F8.665
sI4
F1.0
sI5
F1.0
sI7
F1.0
sI8
F1.415
sI13
F1.0
sI14
F160.0
sI15
F150.0
sI20
F1.0
sI21
F1.0
sI33
F1.0
sI37
F1.0
ssbsg16
g0
(g17
g2
Ntp1363
Rp1364
(dp1365
g21
I1
sbsba(ics475_types
Instance
p1366
(dp1367
g11
(ics475_types
FeatureVector
p1368
(dp1369
g14
(dp1370
I1
F1.0
sI2
F17.33
sI3
F9.5
sI4
F1.0
sI5
F1.0
sI7
F1.0
sI8
F1.75
sI9
F1.0
sI10
F1.0
sI11
F10.0
sI12
F1.0
sI13
F1.0
sI15
F10.0
sI37
F1.0
ssbsg16
g0
(g17
g2
Ntp1371
Rp1372
(dp1373
g21
I0
sbsba(ics475_types
Instance
p1374
(dp1375
g11
(ics475_types
FeatureVector
p1376
(dp1377
g14
(dp1378
I1
F1.0
sI2
F24.5
sI3
F2.415
sI6
F1.0
sI7
F1.0
sI9
F1.0
sI13
F1.0
sI14
F120.0
sI17
F1.0
sI18
F1.0
sI20
F1.0
sI21
F1.0
ssbsg16
g0
(g17
g2
Ntp1379
Rp1380
(dp1381
g21
I0
sbsba(ics475_types
Instance
p1382
(dp1383
g11
(ics475_types
FeatureVector
p1384
(dp1385
g14
(dp1386
I1
F1.0
sI2
F27.25
sI3
F0.29
sI4
F1.0
sI5
F1.0
sI8
F0.125
sI9
F1.0
sI10
F1.0
sI11
F1.0
sI12
F1.0
sI13
F1.0
sI14
F272.0
sI15
F108.0
sI35
F1.0
sI27
F1.0
ssbsg16
g0
(g17
g2
Ntp1387
Rp1388
(dp1389
g21
I0
sbsba(ics475_types
Instance
p1390
(dp1391
g11
(ics475_types
FeatureVector
p1392
(dp1393
g14
(dp1394
I2
F28.58
sI3
F3.625
sI4
F1.0
sI5
F1.0
sI7
F1.0
sI8
F0.25
sI9
F1.0
sI12
F1.0
sI13
F1.0
sI14
F100.0
sI16
F1.0
sI20
F1.0
sI37
F1.0
ssbsg16
g0
(g17
g2
Ntp1395
Rp1396
(dp1397
g21
I0
sbsba(ics475_types
Instance
p1398
(dp1399
g11
(ics475_types
FeatureVector
p1400
(dp1401
g14
(dp1402
I32
F1.0
sI1
F1.0
sI2
F41.33
sI3
F1.0
sI4
F1.0
sI5
F1.0
sI33
F1.0
sI8
F2.25
sI12
F1.0
sI13
F1.0
sI15
F300.0
sI20
F1.0
sI25
F1.0
ssbsg16
g0
(g17
g2
Ntp1403
Rp1404
(dp1405
g21
I1
sbsba(ics475_types
Instance
p1406
(dp1407
g11
(ics475_types
FeatureVector
p1408
(dp1409
g14
(dp1410
I32
F1.0
sI2
F19.33
sI3
F10.915
sI4
F1.0
sI5
F1.0
sI6
F1.0
sI8
F0.585
sI9
F1.0
sI10
F1.0
sI11
F2.0
sI12
F1.0
sI13
F1.0
sI14
F200.0
sI15
F7.0
sI16
F1.0
ssbsg16
g0
(g17
g2
Ntp1411
Rp1412
(dp1413
g21
I0
sbsba(ics475_types
Instance
p1414
(dp1415
g11
(ics475_types
FeatureVector
p1416
(dp1417
g14
(dp1418
I1
F1.0
sI2
F24.83
sI3
F4.5
sI4
F1.0
sI5
F1.0
sI7
F1.0
sI8
F1.0
sI9
F1.0
sI12
F1.0
sI13
F1.0
sI14
F360.0
sI15
F6.0
sI20
F1.0
sI31
F1.0
ssbsg16
g0
(g17
g2
Ntp1419
Rp1420
(dp1421
g21
I0
sbsba(ics475_types
Instance
p1422
(dp1423
g11
(ics475_types
FeatureVector
p1424
(dp1425
g14
(dp1426
I32
F1.0
sI2
F26.92
sI3
F2.25
sI4
F1.0
sI5
F1.0
sI8
F0.5
sI9
F1.0
sI12
F1.0
sI13
F1.0
sI14
F640.0
sI15
F4000.0
sI16
F1.0
sI20
F1.0
sI25
F1.0
ssbsg16
g0
(g17
g2
Ntp1427
Rp1428
(dp1429
g21
I0
sbsba(ics475_types
Instance
p1430
(dp1431
g11
(ics475_types
FeatureVector
p1432
(dp1433
g14
(dp1434
I33
F1.0
sI2
F27.83
sI3
F4.0
sI8
F5.75
sI10
F1.0
sI11
F2.0
sI12
F1.0
sI13
F1.0
sI14
F75.0
sI16
F1.0
sI17
F1.0
sI18
F1.0
sI25
F1.0
sI27
F1.0
ssbsg16
g0
(g17
g2
Ntp1435
Rp1436
(dp1437
g21
I0
sbsba(ics475_types
Instance
p1438
(dp1439
g11
(ics475_types
FeatureVector
p1440
(dp1441
g14
(dp1442
I2
F29.42
sI3
F1.25
sI4
F1.0
sI5
F1.0
sI7
F1.0
sI8
F1.75
sI9
F1.0
sI13
F1.0
sI14
F200.0
sI16
F1.0
sI20
F1.0
sI21
F1.0
sI31
F1.0
ssbsg16
g0
(g17
g2
Ntp1443
Rp1444
(dp1445
g21
I0
sbsba(ics475_types
Instance
p1446
(dp1447
g11
(ics475_types
FeatureVector
p1448
(dp1449
g14
(dp1450
I2
F41.17
sI3
F1.335
sI4
F1.0
sI5
F1.0
sI7
F1.0
sI8
F0.165
sI9
F1.0
sI13
F1.0
sI14
F168.0
sI16
F1.0
sI34
F1.0
sI20
F1.0
sI21
F1.0
ssbsg16
g0
(g17
g2
Ntp1451
Rp1452
(dp1453
g21
I0
sbsba(ics475_types
Instance
p1454
(dp1455
g11
(ics475_types
FeatureVector
p1456
(dp1457
g14
(dp1458
I2
F20.0
sI34
F1.0
sI4
F1.0
sI5
F1.0
sI7
F1.0
sI8
F0.5
sI9
F1.0
sI13
F1.0
sI14
F144.0
sI16
F1.0
sI20
F1.0
sI21
F1.0
ssbsg16
g0
(g17
g2
Ntp1459
Rp1460
(dp1461
g21
I0
sbsba(ics475_types
Instance
p1462
(dp1463
g11
(ics475_types
FeatureVector
p1464
(dp1465
g14
(dp1466
I1
F1.0
sI2
F28.5
sI3
F1.0
sI4
F1.0
sI5
F1.0
sI7
F1.0
sI8
F1.0
sI10
F1.0
sI11
F2.0
sI12
F1.0
sI13
F1.0
sI14
F167.0
sI15
F500.0
sI33
F1.0
sI30
F1.0
ssbsg16
g0
(g17
g2
Ntp1467
Rp1468
(dp1469
g21
I0
sbsba(ics475_types
Instance
p1470
(dp1471
g11
(ics475_types
FeatureVector
p1472
(dp1473
g14
(dp1474
I1
F1.0
sI2
F22.92
sI3
F1.25
sI4
F1.0
sI5
F1.0
sI7
F1.0
sI8
F0.25
sI9
F1.0
sI12
F1.0
sI13
F1.0
sI14
F120.0
sI15
F809.0
sI20
F1.0
sI30
F1.0
ssbsg16
g0
(g17
g2
Ntp1475
Rp1476
(dp1477
g21
I0
sbsba(ics475_types
Instance
p1478
(dp1479
g11
(ics475_types
FeatureVector
p1480
(dp1481
g14
(dp1482
I1
F1.0
sI2
F58.67
sI3
F4.46
sI4
F1.0
sI5
F1.0
sI33
F1.0
sI8
F3.04
sI10
F1.0
sI11
F6.0
sI13
F1.0
sI14
F43.0
sI15
F560.0
sI21
F1.0
sI27
F1.0
sI30
F1.0
ssbsg16
g0
(g17
g2
Ntp1483
Rp1484
(dp1485
g21
I1
sbsba(ics475_types
Instance
p1486
(dp1487
g11
(ics475_types
FeatureVector
p1488
(dp1489
g14
(dp1490
I33
F1.0
sI2
F23.42
sI3
F0.585
sI4
F1.0
sI5
F1.0
sI6
F1.0
sI8
F0.085
sI13
F1.0
sI14
F180.0
sI16
F1.0
sI20
F1.0
sI21
F1.0
sI27
F1.0
ssbsg16
g0
(g17
g2
Ntp1491
Rp1492
(dp1493
g21
I0
sbsba(ics475_types
Instance
p1494
(dp1495
g11
(ics475_types
FeatureVector
p1496
(dp1497
g14
(dp1498
I1
F1.0
sI2
F16.5
sI3
F1.25
sI4
F1.0
sI5
F1.0
sI7
F1.0
sI8
F0.25
sI9
F1.0
sI10
F1.0
sI11
F1.0
sI13
F1.0
sI14
F108.0
sI15
F98.0
sI21
F1.0
sI30
F1.0
ssbsg16
g0
(g17
g2
Ntp1499
Rp1500
(dp1501
g21
I0
sbsba(ics475_types
Instance
p1502
(dp1503
g11
(ics475_types
FeatureVector
p1504
(dp1505
g14
(dp1506
I1
F1.0
sI2
F21.67
sI3
F11.5
sI33
F1.0
sI10
F1.0
sI11
F11.0
sI12
F1.0
sI13
F1.0
sI17
F1.0
sI18
F1.0
sI28
F1.0
sI29
F1.0
ssbsg16
g0
(g17
g2
Ntp1507
Rp1508
(dp1509
g21
I1
sbsba(ics475_types
Instance
p1510
(dp1511
g11
(ics475_types
FeatureVector
p1512
(dp1513
g14
(dp1514
I1
F1.0
sI2
F22.92
sI3
F11.585
sI4
F1.0
sI5
F1.0
sI7
F1.0
sI8
F0.04
sI13
F1.0
sI14
F80.0
sI15
F1349.0
sI20
F1.0
sI21
F1.0
sI36
F1.0
sI33
F1.0
ssbsg16
g0
(g17
g2
Ntp1515
Rp1516
(dp1517
g21
I1
sbsba(ics475_types
Instance
p1518
(dp1519
g11
(ics475_types
FeatureVector
p1520
(dp1521
g14
(dp1522
I33
F1.0
sI2
F42.5
sI3
F4.915
sI7
F1.0
sI8
F3.165
sI12
F1.0
sI13
F1.0
sI14
F52.0
sI15
F1442.0
sI16
F1.0
sI17
F1.0
sI18
F1.0
sI20
F1.0
sI31
F1.0
ssbsg16
g0
(g17
g2
Ntp1523
Rp1524
(dp1525
g21
I1
sbsba(ics475_types
Instance
p1526
(dp1527
g11
(ics475_types
FeatureVector
p1528
(dp1529
g14
(dp1530
I2
F30.58
sI3
F2.71
sI7
F1.0
sI8
F0.125
sI9
F1.0
sI12
F1.0
sI14
F80.0
sI16
F1.0
sI17
F1.0
sI18
F1.0
sI35
F1.0
sI20
F1.0
sI22
F1.0
ssbsg16
g0
(g17
g2
Ntp1531
Rp1532
(dp1533
g21
I0
sbsba(ics475_types
Instance
p1534
(dp1535
g11
(ics475_types
FeatureVector
p1536
(dp1537
g14
(dp1538
I33
F1.0
sI2
F39.83
sI3
F0.5
sI4
F1.0
sI5
F1.0
sI7
F1.0
sI8
F0.25
sI14
F288.0
sI16
F1.0
sI35
F1.0
sI20
F1.0
sI21
F1.0
sI22
F1.0
ssbsg16
g0
(g17
g2
Ntp1539
Rp1540
(dp1541
g21
I0
sbsba(ics475_types
Instance
p1542
(dp1543
g11
(ics475_types
FeatureVector
p1544
(dp1545
g14
(dp1546
I32
F1.0
sI1
F1.0
sI2
F24.33
sI3
F2.5
sI8
F4.5
sI9
F1.0
sI13
F1.0
sI14
F200.0
sI15
F456.0
sI17
F1.0
sI18
F1.0
sI20
F1.0
sI21
F1.0
sI25
F1.0
ssbsg16
g0
(g17
g2
Ntp1547
Rp1548
(dp1549
g21
I0
sbsba(ics475_types
Instance
p1550
(dp1551
g11
(ics475_types
FeatureVector
p1552
(dp1553
g14
(dp1554
I2
F28.17
sI3
F0.125
sI7
F1.0
sI8
F0.085
sI9
F1.0
sI13
F1.0
sI14
F216.0
sI15
F2100.0
sI16
F1.0
sI17
F1.0
sI18
F1.0
sI19
F1.0
sI20
F1.0
sI21
F1.0
ssbsg16
g0
(g17
g2
Ntp1555
Rp1556
(dp1557
g21
I0
sbsba(ics475_types
Instance
p1558
(dp1559
g11
(ics475_types
FeatureVector
p1560
(dp1561
g14
(dp1562
I2
F23.08
sI3
F2.5
sI4
F1.0
sI5
F1.0
sI8
F0.085
sI9
F1.0
sI12
F1.0
sI13
F1.0
sI14
F100.0
sI15
F4208.0
sI16
F1.0
sI20
F1.0
sI23
F1.0
sI24
F1.0
ssbsg16
g0
(g17
g2
Ntp1563
Rp1564
(dp1565
g21
I0
sbsba(ics475_types
Instance
p1566
(dp1567
g11
(ics475_types
FeatureVector
p1568
(dp1569
g14
(dp1570
I1
F1.0
sI2
F19.5
sI3
F0.165
sI4
F1.0
sI5
F1.0
sI7
F1.0
sI8
F0.04
sI9
F1.0
sI12
F1.0
sI13
F1.0
sI14
F380.0
sI20
F1.0
sI30
F1.0
ssbsg16
g0
(g17
g2
Ntp1571
Rp1572
(dp1573
g21
I0
sbsba(ics475_types
Instance
p1574
(dp1575
g11
(ics475_types
FeatureVector
p1576
(dp1577
g14
(dp1578
I1
F1.0
sI2
F52.5
sI3
F7.0
sI4
F1.0
sI5
F1.0
sI8
F3.0
sI9
F1.0
sI13
F1.0
sI20
F1.0
sI21
F1.0
sI27
F1.0
sI37
F1.0
ssbsg16
g0
(g17
g2
Ntp1579
Rp1580
(dp1581
g21
I0
sbsba(ics475_types
Instance
p1582
(dp1583
g11
(ics475_types
FeatureVector
p1584
(dp1585
g14
(dp1586
I33
F1.0
sI2
F29.25
sI3
F14.79
sI4
F1.0
sI5
F1.0
sI7
F1.0
sI8
F5.04
sI10
F1.0
sI11
F5.0
sI12
F1.0
sI13
F1.0
sI14
F168.0
sI16
F1.0
sI37
F1.0
ssbsg16
g0
(g17
g2
Ntp1587
Rp1588
(dp1589
g21
I1
sbsba(ics475_types
Instance
p1590
(dp1591
g11
(ics475_types
FeatureVector
p1592
(dp1593
g14
(dp1594
I2
F26.17
sI3
F0.835
sI4
F1.0
sI5
F1.0
sI7
F1.0
sI8
F1.165
sI9
F1.0
sI13
F1.0
sI14
F100.0
sI16
F1.0
sI20
F1.0
sI21
F1.0
sI36
F1.0
ssbsg16
g0
(g17
g2
Ntp1595
Rp1596
(dp1597
g21
I0
sbsba(ics475_types
Instance
p1598
(dp1599
g11
(ics475_types
FeatureVector
p1600
(dp1601
g14
(dp1602
I33
F1.0
sI2
F38.58
sI3
F3.335
sI4
F1.0
sI5
F1.0
sI7
F1.0
sI8
F4.0
sI10
F1.0
sI11
F14.0
sI13
F1.0
sI14
F383.0
sI15
F1344.0
sI16
F1.0
sI21
F1.0
sI31
F1.0
ssbsg16
g0
(g17
g2
Ntp1603
Rp1604
(dp1605
g21
I1
sbsba(ics475_types
Instance
p1606
(dp1607
g11
(ics475_types
FeatureVector
p1608
(dp1609
g14
(dp1610
I33
F1.0
sI2
F32.25
sI3
F0.165
sI6
F1.0
sI8
F3.25
sI10
F1.0
sI11
F1.0
sI12
F1.0
sI13
F1.0
sI14
F432.0
sI15
F8000.0
sI16
F1.0
sI17
F1.0
sI18
F1.0
sI27
F1.0
ssbsg16
g0
(g17
g2
Ntp1611
Rp1612
(dp1613
g21
I1
sbsba(ics475_types
Instance
p1614
(dp1615
g11
(ics475_types
FeatureVector
p1616
(dp1617
g14
(dp1618
I2
F32.42
sI3
F2.165
sI9
F1.0
sI13
F1.0
sI14
F120.0
sI16
F1.0
sI17
F1.0
sI18
F1.0
sI19
F1.0
sI20
F1.0
sI21
F1.0
sI24
F1.0
ssbsg16
g0
(g17
g2
Ntp1619
Rp1620
(dp1621
g21
I0
sbsba(ics475_types
Instance
p1622
(dp1623
g11
(ics475_types
FeatureVector
p1624
(dp1625
g14
(dp1626
I33
F1.0
sI2
F20.67
sI3
F1.25
sI6
F1.0
sI8
F1.375
sI10
F1.0
sI11
F3.0
sI12
F1.0
sI13
F1.0
sI14
F140.0
sI15
F210.0
sI16
F1.0
sI17
F1.0
sI18
F1.0
sI27
F1.0
ssbsg16
g0
(g17
g2
Ntp1627
Rp1628
(dp1629
g21
I0
sbsba(ics475_types
Instance
p1630
(dp1631
g11
(ics475_types
FeatureVector
p1632
(dp1633
g14
(dp1634
I33
F1.0
sI2
F39.17
sI3
F1.625
sI4
F1.0
sI5
F1.0
sI6
F1.0
sI7
F1.0
sI8
F1.5
sI10
F1.0
sI11
F10.0
sI13
F1.0
sI14
F186.0
sI15
F4700.0
sI16
F1.0
sI21
F1.0
ssbsg16
g0
(g17
g2
Ntp1635
Rp1636
(dp1637
g21
I1
sbsba(ics475_types
Instance
p1638
(dp1639
g11
(ics475_types
FeatureVector
p1640
(dp1641
g14
(dp1642
I2
F21.17
sI3
F0.25
sI6
F1.0
sI8
F0.25
sI9
F1.0
sI13
F1.0
sI14
F280.0
sI15
F204.0
sI16
F1.0
sI17
F1.0
sI18
F1.0
sI20
F1.0
sI21
F1.0
sI27
F1.0
ssbsg16
g0
(g17
g2
Ntp1643
Rp1644
(dp1645
g21
I0
sbsba(ics475_types
Instance
p1646
(dp1647
g11
(ics475_types
FeatureVector
p1648
(dp1649
g14
(dp1650
I2
F17.08
sI3
F0.25
sI4
F1.0
sI5
F1.0
sI7
F1.0
sI8
F0.335
sI9
F1.0
sI10
F1.0
sI11
F4.0
sI13
F1.0
sI14
F160.0
sI15
F8.0
sI16
F1.0
sI21
F1.0
sI30
F1.0
ssbsg16
g0
(g17
g2
Ntp1651
Rp1652
(dp1653
g21
I0
sbsba(ics475_types
Instance
p1654
(dp1655
g11
(ics475_types
FeatureVector
p1656
(dp1657
g14
(dp1658
I33
F1.0
sI2
F33.17
sI3
F3.04
sI6
F1.0
sI8
F2.04
sI10
F1.0
sI11
F1.0
sI12
F1.0
sI13
F1.0
sI14
F180.0
sI15
F18027.0
sI16
F1.0
sI17
F1.0
sI18
F1.0
sI27
F1.0
ssbsg16
g0
(g17
g2
Ntp1659
Rp1660
(dp1661
g21
I1
sbsba(ics475_types
Instance
p1662
(dp1663
g11
(ics475_types
FeatureVector
p1664
(dp1665
g14
(dp1666
I1
F1.0
sI2
F38.33
sI3
F4.415
sI4
F1.0
sI5
F1.0
sI6
F1.0
sI7
F1.0
sI8
F0.125
sI9
F1.0
sI13
F1.0
sI14
F160.0
sI20
F1.0
sI21
F1.0
ssbsg16
g0
(g17
g2
Ntp1667
Rp1668
(dp1669
g21
I0
sbsba(ics475_types
Instance
p1670
(dp1671
g11
(ics475_types
FeatureVector
p1672
(dp1673
g14
(dp1674
I1
F1.0
sI2
F33.25
sI3
F3.0
sI37
F1.0
sI7
F1.0
sI8
F2.0
sI9
F1.0
sI13
F1.0
sI14
F180.0
sI17
F1.0
sI18
F1.0
sI20
F1.0
sI21
F1.0
ssbsg16
g0
(g17
g2
Ntp1675
Rp1676
(dp1677
g21
I0
sbsba(ics475_types
Instance
p1678
(dp1679
g11
(ics475_types
FeatureVector
p1680
(dp1681
g14
(dp1682
I2
F19.5
sI3
F9.585
sI4
F1.0
sI5
F1.0
sI7
F1.0
sI8
F0.79
sI9
F1.0
sI13
F1.0
sI14
F80.0
sI15
F350.0
sI16
F1.0
sI20
F1.0
sI21
F1.0
sI37
F1.0
ssbsg16
g0
(g17
g2
Ntp1683
Rp1684
(dp1685
g21
I0
sbsba(ics475_types
Instance
p1686
(dp1687
g11
(ics475_types
FeatureVector
p1688
(dp1689
g14
(dp1690
I1
F1.0
sI2
F37.75
sI3
F5.5
sI4
F1.0
sI5
F1.0
sI7
F1.0
sI8
F0.125
sI12
F1.0
sI13
F1.0
sI14
F228.0
sI20
F1.0
sI33
F1.0
sI30
F1.0
ssbsg16
g0
(g17
g2
Ntp1691
Rp1692
(dp1693
g21
I1
sbsba(ics475_types
Instance
p1694
(dp1695
g11
(ics475_types
FeatureVector
p1696
(dp1697
g14
(dp1698
I2
F29.25
sI3
F13.0
sI4
F1.0
sI5
F1.0
sI8
F0.5
sI9
F1.0
sI13
F1.0
sI14
F228.0
sI16
F1.0
sI34
F1.0
sI20
F1.0
sI21
F1.0
sI27
F1.0
ssbsg16
g0
(g17
g2
Ntp1699
Rp1700
(dp1701
g21
I0
sbsba(ics475_types
Instance
p1702
(dp1703
g11
(ics475_types
FeatureVector
p1704
(dp1705
g14
(dp1706
I1
F1.0
sI2
F19.17
sI3
F8.585
sI4
F1.0
sI5
F1.0
sI33
F1.0
sI8
F0.75
sI10
F1.0
sI11
F7.0
sI13
F1.0
sI14
F96.0
sI21
F1.0
sI36
F1.0
sI27
F1.0
ssbsg16
g0
(g17
g2
Ntp1707
Rp1708
(dp1709
g21
I1
sbsba(ics475_types
Instance
p1710
(dp1711
g11
(ics475_types
FeatureVector
p1712
(dp1713
g14
(dp1714
I2
F20.75
sI3
F5.085
sI7
F1.0
sI8
F0.29
sI9
F1.0
sI13
F1.0
sI14
F140.0
sI15
F184.0
sI16
F1.0
sI17
F1.0
sI18
F1.0
sI20
F1.0
sI21
F1.0
sI28
F1.0
ssbsg16
g0
(g17
g2
Ntp1715
Rp1716
(dp1717
g21
I0
sbsba(ics475_types
Instance
p1718
(dp1719
g11
(ics475_types
FeatureVector
p1720
(dp1721
g14
(dp1722
I1
F1.0
sI2
F27.67
sI3
F1.5
sI4
F1.0
sI5
F1.0
sI7
F1.0
sI8
F2.0
sI14
F368.0
sI35
F1.0
sI20
F1.0
sI21
F1.0
sI22
F1.0
sI33
F1.0
ssbsg16
g0
(g17
g2
Ntp1723
Rp1724
(dp1725
g21
I0
sbsba(ics475_types
Instance
p1726
(dp1727
g11
(ics475_types
FeatureVector
p1728
(dp1729
g14
(dp1730
I33
F1.0
sI2
F39.08
sI3
F6.0
sI4
F1.0
sI5
F1.0
sI7
F1.0
sI8
F1.29
sI10
F1.0
sI11
F5.0
sI12
F1.0
sI13
F1.0
sI14
F108.0
sI15
F1097.0
sI16
F1.0
sI35
F1.0
ssbsg16
g0
(g17
g2
Ntp1731
Rp1732
(dp1733
g21
I1
sbsba(ics475_types
Instance
p1734
(dp1735
g11
(ics475_types
FeatureVector
p1736
(dp1737
g14
(dp1738
I33
F1.0
sI2
F52.5
sI3
F6.5
sI4
F1.0
sI5
F1.0
sI7
F1.0
sI8
F6.29
sI10
F1.0
sI11
F15.0
sI13
F1.0
sI15
F11202.0
sI16
F1.0
sI19
F1.0
sI21
F1.0
ssbsg16
g0
(g17
g2
Ntp1739
Rp1740
(dp1741
g21
I1
sbsba(ics475_types
Instance
p1742
(dp1743
g11
(ics475_types
FeatureVector
p1744
(dp1745
g14
(dp1746
I1
F1.0
sI2
F46.67
sI3
F0.46
sI4
F1.0
sI5
F1.0
sI33
F1.0
sI8
F0.415
sI10
F1.0
sI11
F11.0
sI12
F1.0
sI13
F1.0
sI14
F440.0
sI15
F6.0
sI36
F1.0
sI27
F1.0
ssbsg16
g0
(g17
g2
Ntp1747
Rp1748
(dp1749
g21
I1
sbsba(ics475_types
Instance
p1750
(dp1751
g11
(ics475_types
FeatureVector
p1752
(dp1753
g14
(dp1754
I2
F29.83
sI3
F2.04
sI39
F1.0
sI8
F0.04
sI9
F1.0
sI13
F1.0
sI14
F128.0
sI15
F1.0
sI16
F1.0
sI17
F1.0
sI18
F1.0
sI20
F1.0
sI21
F1.0
sI27
F1.0
ssbsg16
g0
(g17
g2
Ntp1755
Rp1756
(dp1757
g21
I0
sbsba(ics475_types
Instance
p1758
(dp1759
g11
(ics475_types
FeatureVector
p1760
(dp1761
g14
(dp1762
I1
F1.0
sI2
F38.25
sI3
F6.0
sI4
F1.0
sI5
F1.0
sI7
F1.0
sI8
F1.0
sI12
F1.0
sI13
F1.0
sI19
F1.0
sI20
F1.0
sI33
F1.0
ssbsg16
g0
(g17
g2
Ntp1763
Rp1764
(dp1765
g21
I1
sbsba(ics475_types
Instance
p1766
(dp1767
g11
(ics475_types
FeatureVector
p1768
(dp1769
g14
(dp1770
I1
F1.0
sI2
F34.83
sI3
F1.25
sI8
F0.5
sI9
F1.0
sI12
F1.0
sI13
F1.0
sI14
F160.0
sI17
F1.0
sI18
F1.0
sI20
F1.0
sI25
F1.0
sI27
F1.0
ssbsg16
g0
(g17
g2
Ntp1771
Rp1772
(dp1773
g21
I0
sbsba(ics475_types
Instance
p1774
(dp1775
g11
(ics475_types
FeatureVector
p1776
(dp1777
g14
(dp1778
I1
F1.0
sI2
F44.33
sI4
F1.0
sI5
F1.0
sI6
F1.0
sI7
F1.0
sI8
F2.5
sI13
F1.0
sI20
F1.0
sI21
F1.0
sI33
F1.0
ssbsg16
g0
(g17
g2
Ntp1779
Rp1780
(dp1781
g21
I1
sbsba(ics475_types
Instance
p1782
(dp1783
g11
(ics475_types
FeatureVector
p1784
(dp1785
g14
(dp1786
I33
F1.0
sI2
F26.75
sI3
F1.125
sI4
F1.0
sI5
F1.0
sI39
F1.0
sI8
F1.25
sI13
F1.0
sI15
F5298.0
sI16
F1.0
sI20
F1.0
sI21
F1.0
sI27
F1.0
ssbsg16
g0
(g17
g2
Ntp1787
Rp1788
(dp1789
g21
I1
sbsba(ics475_types
Instance
p1790
(dp1791
g11
(ics475_types
FeatureVector
p1792
(dp1793
g14
(dp1794
I33
F1.0
sI2
F23.0
sI3
F0.625
sI37
F1.0
sI7
F1.0
sI8
F0.125
sI13
F1.0
sI14
F180.0
sI15
F1.0
sI16
F1.0
sI17
F1.0
sI18
F1.0
sI20
F1.0
sI21
F1.0
ssbsg16
g0
(g17
g2
Ntp1795
Rp1796
(dp1797
g21
I0
sbsba(ics475_types
Instance
p1798
(dp1799
g11
(ics475_types
FeatureVector
p1800
(dp1801
g14
(dp1802
I32
F1.0
sI1
F1.0
sI2
F58.42
sI3
F21.0
sI4
F1.0
sI5
F1.0
sI33
F1.0
sI8
F10.0
sI10
F1.0
sI11
F13.0
sI13
F1.0
sI15
F6700.0
sI21
F1.0
sI25
F1.0
ssbsg16
g0
(g17
g2
Ntp1803
Rp1804
(dp1805
g21
I1
sbsba(ics475_types
Instance
p1806
(dp1807
g11
(ics475_types
FeatureVector
p1808
(dp1809
g14
(dp1810
I1
F1.0
sI2
F28.58
sI3
F1.665
sI4
F1.0
sI5
F1.0
sI7
F1.0
sI8
F2.415
sI12
F1.0
sI13
F1.0
sI14
F440.0
sI20
F1.0
sI33
F1.0
sI30
F1.0
ssbsg16
g0
(g17
g2
Ntp1811
Rp1812
(dp1813
g21
I0
sbsba(ics475_types
Instance
p1814
(dp1815
g11
(ics475_types
FeatureVector
p1816
(dp1817
g14
(dp1818
I2
F20.0
sI3
F7.0
sI4
F1.0
sI5
F1.0
sI6
F1.0
sI7
F1.0
sI8
F0.5
sI9
F1.0
sI13
F1.0
sI16
F1.0
sI20
F1.0
sI21
F1.0
ssbsg16
g0
(g17
g2
Ntp1819
Rp1820
(dp1821
g21
I0
sbsba(ics475_types
Instance
p1822
(dp1823
g11
(ics475_types
FeatureVector
p1824
(dp1825
g14
(dp1826
I1
F1.0
sI2
F48.17
sI3
F1.335
sI4
F1.0
sI5
F1.0
sI8
F0.335
sI9
F1.0
sI13
F1.0
sI15
F120.0
sI20
F1.0
sI21
F1.0
sI25
F1.0
sI26
F1.0
ssbsg16
g0
(g17
g2
Ntp1827
Rp1828
(dp1829
g21
I0
sbsba(ics475_types
Instance
p1830
(dp1831
g11
(ics475_types
FeatureVector
p1832
(dp1833
g14
(dp1834
I33
F1.0
sI2
F22.33
sI3
F11.0
sI4
F1.0
sI5
F1.0
sI7
F1.0
sI8
F2.0
sI10
F1.0
sI11
F1.0
sI13
F1.0
sI14
F80.0
sI15
F278.0
sI16
F1.0
sI21
F1.0
sI31
F1.0
ssbsg16
g0
(g17
g2
Ntp1835
Rp1836
(dp1837
g21
I1
sbsba(ics475_types
Instance
p1838
(dp1839
g11
(ics475_types
FeatureVector
p1840
(dp1841
g14
(dp1842
I2
F21.92
sI3
F0.5
sI4
F1.0
sI5
F1.0
sI6
F1.0
sI7
F1.0
sI8
F0.125
sI9
F1.0
sI13
F1.0
sI14
F360.0
sI16
F1.0
sI20
F1.0
sI21
F1.0
ssbsg16
g0
(g17
g2
Ntp1843
Rp1844
(dp1845
g21
I0
sbsba(ics475_types
Instance
p1846
(dp1847
g11
(ics475_types
FeatureVector
p1848
(dp1849
g14
(dp1850
I1
F1.0
sI2
F23.75
sI3
F0.71
sI4
F1.0
sI5
F1.0
sI7
F1.0
sI8
F0.25
sI9
F1.0
sI10
F1.0
sI11
F1.0
sI12
F1.0
sI13
F1.0
sI14
F240.0
sI15
F4.0
sI31
F1.0
ssbsg16
g0
(g17
g2
Ntp1851
Rp1852
(dp1853
g21
I0
sbsba(ics475_types
Instance
p1854
(dp1855
g11
(ics475_types
FeatureVector
p1856
(dp1857
g14
(dp1858
I33
F1.0
sI2
F33.17
sI3
F1.0
sI4
F1.0
sI5
F1.0
sI7
F1.0
sI8
F0.75
sI10
F1.0
sI11
F7.0
sI12
F1.0
sI13
F1.0
sI14
F340.0
sI15
F4071.0
sI16
F1.0
sI39
F1.0
ssbsg16
g0
(g17
g2
Ntp1859
Rp1860
(dp1861
g21
I1
sbsba(ics475_types
Instance
p1862
(dp1863
g11
(ics475_types
FeatureVector
p1864
(dp1865
g14
(dp1866
I1
F1.0
sI2
F27.33
sI3
F1.665
sI4
F1.0
sI5
F1.0
sI9
F1.0
sI13
F1.0
sI14
F340.0
sI15
F1.0
sI20
F1.0
sI21
F1.0
sI23
F1.0
sI24
F1.0
ssbsg16
g0
(g17
g2
Ntp1867
Rp1868
(dp1869
g21
I0
sbsba(ics475_types
Instance
p1870
(dp1871
g11
(ics475_types
FeatureVector
p1872
(dp1873
g14
(dp1874
I1
F1.0
sI2
F25.25
sI3
F13.5
sI8
F2.0
sI9
F1.0
sI10
F1.0
sI11
F1.0
sI12
F1.0
sI13
F1.0
sI14
F200.0
sI15
F1.0
sI17
F1.0
sI18
F1.0
sI23
F1.0
sI24
F1.0
ssbsg16
g0
(g17
g2
Ntp1875
Rp1876
(dp1877
g21
I0
sbsba(ics475_types
Instance
p1878
(dp1879
g11
(ics475_types
FeatureVector
p1880
(dp1881
g14
(dp1882
I2
F21.83
sI3
F1.54
sI4
F1.0
sI5
F1.0
sI7
F1.0
sI8
F0.085
sI9
F1.0
sI12
F1.0
sI13
F1.0
sI14
F356.0
sI16
F1.0
sI19
F1.0
sI20
F1.0
ssbsg16
g0
(g17
g2
Ntp1883
Rp1884
(dp1885
g21
I0
sbsba(ics475_types
Instance
p1886
(dp1887
g11
(ics475_types
FeatureVector
p1888
(dp1889
g14
(dp1890
I2
F22.08
sI3
F0.83
sI4
F1.0
sI5
F1.0
sI6
F1.0
sI8
F2.165
sI9
F1.0
sI12
F1.0
sI13
F1.0
sI14
F128.0
sI16
F1.0
sI20
F1.0
sI27
F1.0
ssbsg16
g0
(g17
g2
Ntp1891
Rp1892
(dp1893
g21
I1
sbsba(ics475_types
Instance
p1894
(dp1895
g11
(ics475_types
FeatureVector
p1896
(dp1897
g14
(dp1898
I33
F1.0
sI2
F19.33
sI3
F9.5
sI4
F1.0
sI5
F1.0
sI7
F1.0
sI8
F1.0
sI12
F1.0
sI13
F1.0
sI14
F60.0
sI15
F400.0
sI16
F1.0
sI20
F1.0
sI30
F1.0
ssbsg16
g0
(g17
g2
Ntp1899
Rp1900
(dp1901
g21
I1
sbsba(ics475_types
Instance
p1902
(dp1903
g11
(ics475_types
FeatureVector
p1904
(dp1905
g14
(dp1906
I2
F49.17
sI3
F2.29
sI4
F1.0
sI5
F1.0
sI8
F0.29
sI9
F1.0
sI13
F1.0
sI14
F200.0
sI15
F3.0
sI16
F1.0
sI20
F1.0
sI21
F1.0
sI23
F1.0
sI24
F1.0
ssbsg16
g0
(g17
g2
Ntp1907
Rp1908
(dp1909
g21
I0
sbsba(ics475_types
Instance
p1910
(dp1911
g11
(ics475_types
FeatureVector
p1912
(dp1913
g14
(dp1914
I33
F1.0
sI2
F23.08
sI3
F11.5
sI4
F1.0
sI5
F1.0
sI7
F1.0
sI8
F3.5
sI10
F1.0
sI11
F9.0
sI13
F1.0
sI14
F56.0
sI15
F742.0
sI16
F1.0
sI21
F1.0
sI25
F1.0
ssbsg16
g0
(g17
g2
Ntp1915
Rp1916
(dp1917
g21
I1
sbsba(ics475_types
Instance
p1918
(dp1919
g11
(ics475_types
FeatureVector
p1920
(dp1921
g14
(dp1922
I1
F1.0
sI2
F60.58
sI3
F16.5
sI4
F1.0
sI5
F1.0
sI7
F1.0
sI8
F11.0
sI12
F1.0
sI13
F1.0
sI14
F21.0
sI15
F10561.0
sI20
F1.0
sI33
F1.0
sI30
F1.0
ssbsg16
g0
(g17
g2
Ntp1923
Rp1924
(dp1925
g21
I1
sbsba(ics475_types
Instance
p1926
(dp1927
g11
(ics475_types
FeatureVector
p1928
(dp1929
g14
(dp1930
I33
F1.0
sI2
F19.67
sI3
F0.375
sI4
F1.0
sI5
F1.0
sI7
F1.0
sI8
F2.0
sI10
F1.0
sI11
F2.0
sI12
F1.0
sI13
F1.0
sI14
F80.0
sI16
F1.0
sI30
F1.0
ssbsg16
g0
(g17
g2
Ntp1931
Rp1932
(dp1933
g21
I1
sbsba(ics475_types
Instance
p1934
(dp1935
g11
(ics475_types
FeatureVector
p1936
(dp1937
g14
(dp1938
I33
F1.0
sI2
F20.17
sI3
F8.17
sI4
F1.0
sI5
F1.0
sI7
F1.0
sI8
F1.96
sI10
F1.0
sI11
F14.0
sI13
F1.0
sI14
F60.0
sI15
F158.0
sI16
F1.0
sI21
F1.0
sI37
F1.0
ssbsg16
g0
(g17
g2
Ntp1939
Rp1940
(dp1941
g21
I1
sbsba(ics475_types
Instance
p1942
(dp1943
g11
(ics475_types
FeatureVector
p1944
(dp1945
g14
(dp1946
I33
F1.0
sI2
F34.25
sI3
F3.0
sI4
F1.0
sI5
F1.0
sI8
F7.415
sI12
F1.0
sI13
F1.0
sI16
F1.0
sI20
F1.0
sI36
F1.0
sI27
F1.0
ssbsg16
g0
(g17
g2
Ntp1947
Rp1948
(dp1949
g21
I1
sbsba(ics475_types
Instance
p1950
(dp1951
g11
(ics475_types
FeatureVector
p1952
(dp1953
g14
(dp1954
I2
F18.17
sI3
F2.46
sI4
F1.0
sI5
F1.0
sI6
F1.0
sI8
F0.96
sI9
F1.0
sI10
F1.0
sI11
F2.0
sI12
F1.0
sI13
F1.0
sI14
F160.0
sI15
F587.0
sI16
F1.0
sI40
F1.0
ssbsg16
g0
(g17
g2
Ntp1955
Rp1956
(dp1957
g21
I0
sbsba(ics475_types
Instance
p1958
(dp1959
g11
(ics475_types
FeatureVector
p1960
(dp1961
g14
(dp1962
I33
F1.0
sI2
F27.67
sI3
F2.0
sI4
F1.0
sI5
F1.0
sI39
F1.0
sI8
F1.0
sI10
F1.0
sI11
F4.0
sI13
F1.0
sI14
F140.0
sI15
F7544.0
sI16
F1.0
sI21
F1.0
sI27
F1.0
ssbsg16
g0
(g17
g2
Ntp1963
Rp1964
(dp1965
g21
I1
sbsba(ics475_types
Instance
p1966
(dp1967
g11
(ics475_types
FeatureVector
p1968
(dp1969
g14
(dp1970
I33
F1.0
sI2
F36.33
sI3
F2.125
sI7
F1.0
sI8
F0.085
sI10
F1.0
sI11
F1.0
sI13
F1.0
sI14
F50.0
sI15
F1187.0
sI16
F1.0
sI17
F1.0
sI18
F1.0
sI21
F1.0
sI31
F1.0
ssbsg16
g0
(g17
g2
Ntp1971
Rp1972
(dp1973
g21
I1
sbsba(ics475_types
Instance
p1974
(dp1975
g11
(ics475_types
FeatureVector
p1976
(dp1977
g14
(dp1978
I2
F20.0
sI3
F1.25
sI7
F1.0
sI8
F0.125
sI9
F1.0
sI13
F1.0
sI14
F140.0
sI15
F4.0
sI16
F1.0
sI17
F1.0
sI18
F1.0
sI19
F1.0
sI20
F1.0
sI21
F1.0
ssbsg16
g0
(g17
g2
Ntp1979
Rp1980
(dp1981
g21
I0
sbsba(ics475_types
Instance
p1982
(dp1983
g11
(ics475_types
FeatureVector
p1984
(dp1985
g14
(dp1986
I1
F1.0
sI2
F22.67
sI3
F0.75
sI4
F1.0
sI5
F1.0
sI6
F1.0
sI7
F1.0
sI8
F2.0
sI9
F1.0
sI10
F1.0
sI11
F2.0
sI12
F1.0
sI13
F1.0
sI14
F200.0
sI15
F394.0
ssbsg16
g0
(g17
g2
Ntp1987
Rp1988
(dp1989
g21
I0
sbsba(ics475_types
Instance
p1990
(dp1991
g11
(ics475_types
FeatureVector
p1992
(dp1993
g14
(dp1994
I2
F21.42
sI3
F0.75
sI38
F1.0
sI8
F0.75
sI9
F1.0
sI12
F1.0
sI13
F1.0
sI14
F132.0
sI15
F2.0
sI16
F1.0
sI17
F1.0
sI18
F1.0
sI20
F1.0
sI40
F1.0
ssbsg16
g0
(g17
g2
Ntp1995
Rp1996
(dp1997
g21
I0
sbsba(ics475_types
Instance
p1998
(dp1999
g11
(ics475_types
FeatureVector
p2000
(dp2001
g14
(dp2002
I2
F18.0
sI3
F0.165
sI4
F1.0
sI5
F1.0
sI8
F0.21
sI9
F1.0
sI13
F1.0
sI14
F200.0
sI15
F40.0
sI16
F1.0
sI40
F1.0
sI20
F1.0
sI21
F1.0
sI30
F1.0
ssbsg16
g0
(g17
g2
Ntp2003
Rp2004
(dp2005
g21
I1
sbsba(ics475_types
Instance
p2006
(dp2007
g11
(ics475_types
FeatureVector
p2008
(dp2009
g14
(dp2010
I2
F23.5
sI3
F3.165
sI7
F1.0
sI8
F0.415
sI9
F1.0
sI10
F1.0
sI11
F1.0
sI12
F1.0
sI13
F1.0
sI14
F280.0
sI15
F80.0
sI16
F1.0
sI17
F1.0
sI18
F1.0
sI19
F1.0
ssbsg16
g0
(g17
g2
Ntp2011
Rp2012
(dp2013
g21
I0
sbsba(ics475_types
Instance
p2014
(dp2015
g11
(ics475_types
FeatureVector
p2016
(dp2017
g14
(dp2018
I1
F1.0
sI2
F24.75
sI3
F12.5
sI4
F1.0
sI5
F1.0
sI7
F1.0
sI8
F1.5
sI10
F1.0
sI11
F12.0
sI12
F1.0
sI13
F1.0
sI14
F120.0
sI15
F567.0
sI33
F1.0
sI37
F1.0
ssbsg16
g0
(g17
g2
Ntp2019
Rp2020
(dp2021
g21
I1
sbsba(ics475_types
Instance
p2022
(dp2023
g11
(ics475_types
FeatureVector
p2024
(dp2025
g14
(dp2026
I2
F24.08
sI3
F9.0
sI4
F1.0
sI5
F1.0
sI7
F1.0
sI8
F0.25
sI9
F1.0
sI12
F1.0
sI13
F1.0
sI16
F1.0
sI20
F1.0
sI37
F1.0
ssbsg16
g0
(g17
g2
Ntp2027
Rp2028
(dp2029
g21
I0
sbsba(ics475_types
Instance
p2030
(dp2031
g11
(ics475_types
FeatureVector
p2032
(dp2033
g14
(dp2034
I33
F1.0
sI2
F48.58
sI3
F0.205
sI7
F1.0
sI8
F0.25
sI10
F1.0
sI11
F11.0
sI13
F1.0
sI14
F380.0
sI15
F2732.0
sI16
F1.0
sI17
F1.0
sI18
F1.0
sI19
F1.0
sI21
F1.0
ssbsg16
g0
(g17
g2
Ntp2035
Rp2036
(dp2037
g21
I1
sbsba(ics475_types
Instance
p2038
(dp2039
g11
(ics475_types
FeatureVector
p2040
(dp2041
g14
(dp2042
I33
F1.0
sI2
F52.33
sI3
F1.375
sI6
F1.0
sI8
F9.46
sI12
F1.0
sI13
F1.0
sI14
F200.0
sI15
F100.0
sI16
F1.0
sI17
F1.0
sI18
F1.0
sI20
F1.0
sI27
F1.0
ssbsg16
g0
(g17
g2
Ntp2043
Rp2044
(dp2045
g21
I0
sbsba(ics475_types
Instance
p2046
(dp2047
g11
(ics475_types
FeatureVector
p2048
(dp2049
g14
(dp2050
I2
F25.67
sI3
F3.25
sI4
F1.0
sI5
F1.0
sI6
F1.0
sI8
F2.29
sI9
F1.0
sI10
F1.0
sI11
F1.0
sI12
F1.0
sI13
F1.0
sI14
F416.0
sI15
F21.0
sI16
F1.0
sI27
F1.0
ssbsg16
g0
(g17
g2
Ntp2051
Rp2052
(dp2053
g21
I0
sbsba(ics475_types
Instance
p2054
(dp2055
g11
(ics475_types
FeatureVector
p2056
(dp2057
g14
(dp2058
I1
F1.0
sI2
F21.08
sI3
F5.0
sI9
F1.0
sI13
F1.0
sI17
F1.0
sI18
F1.0
sI20
F1.0
sI21
F1.0
sI23
F1.0
sI24
F1.0
ssbsg16
g0
(g17
g2
Ntp2059
Rp2060
(dp2061
g21
I0
sbsba(ics475_types
Instance
p2062
(dp2063
g11
(ics475_types
FeatureVector
p2064
(dp2065
g14
(dp2066
I33
F1.0
sI2
F26.0
sI3
F1.0
sI4
F1.0
sI5
F1.0
sI7
F1.0
sI8
F1.75
sI12
F1.0
sI13
F1.0
sI14
F280.0
sI16
F1.0
sI20
F1.0
sI30
F1.0
ssbsg16
g0
(g17
g2
Ntp2067
Rp2068
(dp2069
g21
I1
sbsba(ics475_types
Instance
p2070
(dp2071
g11
(ics475_types
FeatureVector
p2072
(dp2073
g14
(dp2074
I2
F69.17
sI3
F9.0
sI4
F1.0
sI5
F1.0
sI8
F4.0
sI9
F1.0
sI10
F1.0
sI11
F1.0
sI13
F1.0
sI14
F70.0
sI15
F6.0
sI16
F1.0
sI21
F1.0
sI23
F1.0
sI24
F1.0
ssbsg16
g0
(g17
g2
Ntp2075
Rp2076
(dp2077
g21
I0
sbsba(ics475_types
Instance
p2078
(dp2079
g11
(ics475_types
FeatureVector
p2080
(dp2081
g14
(dp2082
I33
F1.0
sI2
F20.17
sI3
F5.625
sI4
F1.0
sI5
F1.0
sI7
F1.0
sI8
F1.71
sI14
F120.0
sI16
F1.0
sI20
F1.0
sI21
F1.0
sI22
F1.0
sI31
F1.0
ssbsg16
g0
(g17
g2
Ntp2083
Rp2084
(dp2085
g21
I1
sbsba(ics475_types
Instance
p2086
(dp2087
g11
(ics475_types
FeatureVector
p2088
(dp2089
g14
(dp2090
I33
F1.0
sI2
F25.67
sI3
F12.5
sI4
F1.0
sI5
F1.0
sI7
F1.0
sI8
F1.21
sI10
F1.0
sI11
F67.0
sI12
F1.0
sI13
F1.0
sI14
F140.0
sI15
F258.0
sI16
F1.0
sI36
F1.0
ssbsg16
g0
(g17
g2
Ntp2091
Rp2092
(dp2093
g21
I1
sbsba(ics475_types
Instance
p2094
(dp2095
g11
(ics475_types
FeatureVector
p2096
(dp2097
g14
(dp2098
I1
F1.0
sI2
F20.33
sI3
F10.0
sI4
F1.0
sI5
F1.0
sI6
F1.0
sI33
F1.0
sI8
F1.0
sI10
F1.0
sI11
F4.0
sI13
F1.0
sI14
F50.0
sI15
F1465.0
sI21
F1.0
sI27
F1.0
ssbsg16
g0
(g17
g2
Ntp2099
Rp2100
(dp2101
g21
I1
sbsba(ics475_types
Instance
p2102
(dp2103
g11
(ics475_types
FeatureVector
p2104
(dp2105
g14
(dp2106
I2
F74.83
sI3
F19.0
sI8
F0.04
sI9
F1.0
sI10
F1.0
sI11
F2.0
sI13
F1.0
sI15
F351.0
sI16
F1.0
sI17
F1.0
sI18
F1.0
sI21
F1.0
sI23
F1.0
sI24
F1.0
ssbsg16
g0
(g17
g2
Ntp2107
Rp2108
(dp2109
g21
I0
sbsba(ics475_types
Instance
p2110
(dp2111
g11
(ics475_types
FeatureVector
p2112
(dp2113
g14
(dp2114
I32
F1.0
sI33
F1.0
sI2
F32.33
sI3
F7.5
sI4
F1.0
sI5
F1.0
sI8
F1.585
sI41
F1.0
sI12
F1.0
sI14
F420.0
sI16
F1.0
sI20
F1.0
sI22
F1.0
ssbsg16
g0
(g17
g2
Ntp2115
Rp2116
(dp2117
g21
I0
sbsba(ics475_types
Instance
p2118
(dp2119
g11
(ics475_types
FeatureVector
p2120
(dp2121
g14
(dp2122
I2
F35.17
sI3
F4.5
sI4
F1.0
sI5
F1.0
sI39
F1.0
sI8
F5.75
sI9
F1.0
sI12
F1.0
sI14
F711.0
sI16
F1.0
sI20
F1.0
sI22
F1.0
sI27
F1.0
ssbsg16
g0
(g17
g2
Ntp2123
Rp2124
(dp2125
g21
I1
sbsba(ics475_types
Instance
p2126
(dp2127
g11
(ics475_types
FeatureVector
p2128
(dp2129
g14
(dp2130
I33
F1.0
sI2
F27.83
sI3
F1.5
sI4
F1.0
sI5
F1.0
sI7
F1.0
sI8
F2.0
sI10
F1.0
sI11
F11.0
sI12
F1.0
sI13
F1.0
sI14
F434.0
sI15
F35.0
sI16
F1.0
sI31
F1.0
ssbsg16
g0
(g17
g2
Ntp2131
Rp2132
(dp2133
g21
I1
sbsba(ics475_types
Instance
p2134
(dp2135
g11
(ics475_types
FeatureVector
p2136
(dp2137
g14
(dp2138
I2
F42.83
sI3
F1.25
sI4
F1.0
sI5
F1.0
sI7
F1.0
sI8
F13.875
sI9
F1.0
sI10
F1.0
sI11
F1.0
sI12
F1.0
sI13
F1.0
sI14
F352.0
sI15
F112.0
sI16
F1.0
sI35
F1.0
ssbsg16
g0
(g17
g2
Ntp2139
Rp2140
(dp2141
g21
I0
sbsba(ics475_types
Instance
p2142
(dp2143
g11
(ics475_types
FeatureVector
p2144
(dp2145
g14
(dp2146
I1
F1.0
sI2
F56.5
sI3
F16.0
sI4
F1.0
sI5
F1.0
sI33
F1.0
sI10
F1.0
sI11
F15.0
sI13
F1.0
sI15
F247.0
sI21
F1.0
sI24
F1.0
sI28
F1.0
ssbsg16
g0
(g17
g2
Ntp2147
Rp2148
(dp2149
g21
I1
sbsba(ics475_types
Instance
p2150
(dp2151
g11
(ics475_types
FeatureVector
p2152
(dp2153
g14
(dp2154
I2
F26.75
sI3
F2.0
sI4
F1.0
sI5
F1.0
sI7
F1.0
sI8
F0.75
sI9
F1.0
sI12
F1.0
sI13
F1.0
sI14
F80.0
sI16
F1.0
sI34
F1.0
sI20
F1.0
ssbsg16
g0
(g17
g2
Ntp2155
Rp2156
(dp2157
g21
I0
sbsba(ics475_types
Instance
p2158
(dp2159
g11
(ics475_types
FeatureVector
p2160
(dp2161
g14
(dp2162
I2
F33.67
sI3
F1.25
sI4
F1.0
sI5
F1.0
sI7
F1.0
sI8
F1.165
sI9
F1.0
sI13
F1.0
sI14
F120.0
sI16
F1.0
sI20
F1.0
sI21
F1.0
sI31
F1.0
ssbsg16
g0
(g17
g2
Ntp2163
Rp2164
(dp2165
g21
I0
sbsba(ics475_types
Instance
p2166
(dp2167
g11
(ics475_types
FeatureVector
p2168
(dp2169
g14
(dp2170
I1
F1.0
sI2
F57.58
sI3
F2.0
sI4
F1.0
sI5
F1.0
sI8
F6.5
sI9
F1.0
sI10
F1.0
sI11
F1.0
sI13
F1.0
sI15
F10.0
sI21
F1.0
sI23
F1.0
sI24
F1.0
ssbsg16
g0
(g17
g2
Ntp2171
Rp2172
(dp2173
g21
I0
sbsba(ics475_types
Instance
p2174
(dp2175
g11
(ics475_types
FeatureVector
p2176
(dp2177
g14
(dp2178
I1
F1.0
sI2
F16.0
sI3
F0.165
sI4
F1.0
sI5
F1.0
sI7
F1.0
sI8
F1.0
sI9
F1.0
sI10
F1.0
sI11
F2.0
sI12
F1.0
sI13
F1.0
sI14
F320.0
sI15
F1.0
sI37
F1.0
ssbsg16
g0
(g17
g2
Ntp2179
Rp2180
(dp2181
g21
I0
sbsba(ics475_types
Instance
p2182
(dp2183
g11
(ics475_types
FeatureVector
p2184
(dp2185
g14
(dp2186
I32
F1.0
sI2
F48.08
sI3
F3.75
sI4
F1.0
sI5
F1.0
sI8
F1.0
sI9
F1.0
sI13
F1.0
sI14
F100.0
sI15
F2.0
sI16
F1.0
sI20
F1.0
sI21
F1.0
sI25
F1.0
ssbsg16
g0
(g17
g2
Ntp2187
Rp2188
(dp2189
g21
I0
sbsba(ics475_types
Instance
p2190
(dp2191
g11
(ics475_types
FeatureVector
p2192
(dp2193
g14
(dp2194
I33
F1.0
sI2
F25.08
sI3
F1.71
sI4
F1.0
sI5
F1.0
sI7
F1.0
sI8
F1.665
sI10
F1.0
sI11
F1.0
sI12
F1.0
sI13
F1.0
sI14
F395.0
sI15
F20.0
sI16
F1.0
sI39
F1.0
ssbsg16
g0
(g17
g2
Ntp2195
Rp2196
(dp2197
g21
I1
sbsba(ics475_types
Instance
p2198
(dp2199
g11
(ics475_types
FeatureVector
p2200
(dp2201
g14
(dp2202
I1
F1.0
sI2
F19.17
sI3
F0.585
sI33
F1.0
sI7
F1.0
sI8
F0.585
sI12
F1.0
sI13
F1.0
sI14
F160.0
sI17
F1.0
sI18
F1.0
sI20
F1.0
sI37
F1.0
ssbsg16
g0
(g17
g2
Ntp2203
Rp2204
(dp2205
g21
I0
sbsba(ics475_types
Instance
p2206
(dp2207
g11
(ics475_types
FeatureVector
p2208
(dp2209
g14
(dp2210
I1
F1.0
sI2
F19.67
sI3
F0.21
sI4
F1.0
sI5
F1.0
sI33
F1.0
sI8
F0.29
sI10
F1.0
sI11
F11.0
sI13
F1.0
sI14
F80.0
sI15
F99.0
sI21
F1.0
sI27
F1.0
sI30
F1.0
ssbsg16
g0
(g17
g2
Ntp2211
Rp2212
(dp2213
g21
I1
sbsba(ics475_types
Instance
p2214
(dp2215
g11
(ics475_types
FeatureVector
p2216
(dp2217
g14
(dp2218
I33
F1.0
sI2
F56.42
sI3
F28.0
sI6
F1.0
sI7
F1.0
sI8
F28.5
sI10
F1.0
sI11
F40.0
sI13
F1.0
sI15
F15.0
sI16
F1.0
sI17
F1.0
sI18
F1.0
sI21
F1.0
ssbsg16
g0
(g17
g2
Ntp2219
Rp2220
(dp2221
g21
I1
sbsba(ics475_types
Instance
p2222
(dp2223
g11
(ics475_types
FeatureVector
p2224
(dp2225
g14
(dp2226
I33
F1.0
sI2
F28.75
sI3
F1.165
sI4
F1.0
sI5
F1.0
sI7
F1.0
sI8
F0.5
sI14
F280.0
sI16
F1.0
sI19
F1.0
sI20
F1.0
sI21
F1.0
sI22
F1.0
ssbsg16
g0
(g17
g2
Ntp2227
Rp2228
(dp2229
g21
I0
sbsba(ics475_types
Instance
p2230
(dp2231
g11
(ics475_types
FeatureVector
p2232
(dp2233
g14
(dp2234
I2
F36.5
sI3
F4.25
sI4
F1.0
sI5
F1.0
sI7
F1.0
sI8
F3.5
sI9
F1.0
sI13
F1.0
sI14
F454.0
sI15
F50.0
sI16
F1.0
sI20
F1.0
sI21
F1.0
sI30
F1.0
ssbsg16
g0
(g17
g2
Ntp2235
Rp2236
(dp2237
g21
I0
sbsba(ics475_types
Instance
p2238
(dp2239
g11
(ics475_types
FeatureVector
p2240
(dp2241
g14
(dp2242
I33
F1.0
sI2
F24.42
sI3
F12.335
sI4
F1.0
sI5
F1.0
sI8
F1.585
sI12
F1.0
sI13
F1.0
sI14
F120.0
sI16
F1.0
sI20
F1.0
sI27
F1.0
sI30
F1.0
ssbsg16
g0
(g17
g2
Ntp2243
Rp2244
(dp2245
g21
I1
sbsba(ics475_types
Instance
p2246
(dp2247
g11
(ics475_types
FeatureVector
p2248
(dp2249
g14
(dp2250
I2
F62.75
sI3
F7.0
sI4
F1.0
sI5
F1.0
sI9
F1.0
sI42
F1.0
sI13
F1.0
sI15
F12.0
sI16
F1.0
sI20
F1.0
sI21
F1.0
sI41
F1.0
ssbsg16
g0
(g17
g2
Ntp2251
Rp2252
(dp2253
g21
I0
sbsba(ics475_types
Instance
p2254
(dp2255
g11
(ics475_types
FeatureVector
p2256
(dp2257
g14
(dp2258
I1
F1.0
sI2
F15.83
sI3
F7.625
sI4
F1.0
sI5
F1.0
sI7
F1.0
sI8
F0.125
sI9
F1.0
sI10
F1.0
sI11
F1.0
sI12
F1.0
sI13
F1.0
sI15
F160.0
sI30
F1.0
ssbsg16
g0
(g17
g2
Ntp2259
Rp2260
(dp2261
g21
I0
sbsba(ics475_types
Instance
p2262
(dp2263
g11
(ics475_types
FeatureVector
p2264
(dp2265
g14
(dp2266
I32
F1.0
sI1
F1.0
sI2
F51.92
sI3
F6.5
sI4
F1.0
sI5
F1.0
sI8
F3.085
sI9
F1.0
sI12
F1.0
sI13
F1.0
sI14
F73.0
sI20
F1.0
sI25
F1.0
ssbsg16
g0
(g17
g2
Ntp2267
Rp2268
(dp2269
g21
I0
sbsba(ics475_types
Instance
p2270
(dp2271
g11
(ics475_types
FeatureVector
p2272
(dp2273
g14
(dp2274
I1
F1.0
sI2
F26.58
sI3
F2.54
sI9
F1.0
sI12
F1.0
sI13
F1.0
sI14
F180.0
sI15
F60.0
sI17
F1.0
sI18
F1.0
sI20
F1.0
sI23
F1.0
sI24
F1.0
ssbsg16
g0
(g17
g2
Ntp2275
Rp2276
(dp2277
g21
I0
sbsba(ics475_types
Instance
p2278
(dp2279
g11
(ics475_types
FeatureVector
p2280
(dp2281
g14
(dp2282
I33
F1.0
sI2
F44.33
sI3
F0.5
sI4
F1.0
sI5
F1.0
sI8
F5.0
sI12
F1.0
sI13
F1.0
sI14
F320.0
sI16
F1.0
sI20
F1.0
sI25
F1.0
sI27
F1.0
ssbsg16
g0
(g17
g2
Ntp2283
Rp2284
(dp2285
g21
I1
sbsba(ics475_types
Instance
p2286
(dp2287
g11
(ics475_types
FeatureVector
p2288
(dp2289
g14
(dp2290
I1
F1.0
sI2
F29.5
sI3
F1.085
sI7
F1.0
sI8
F1.0
sI9
F1.0
sI39
F1.0
sI13
F1.0
sI14
F280.0
sI15
F13.0
sI17
F1.0
sI18
F1.0
sI20
F1.0
sI21
F1.0
ssbsg16
g0
(g17
g2
Ntp2291
Rp2292
(dp2293
g21
I0
sbsba(ics475_types
Instance
p2294
(dp2295
g11
(ics475_types
FeatureVector
p2296
(dp2297
g14
(dp2298
I2
F20.67
sI3
F0.835
sI6
F1.0
sI7
F1.0
sI8
F2.0
sI9
F1.0
sI12
F1.0
sI14
F240.0
sI16
F1.0
sI17
F1.0
sI18
F1.0
sI20
F1.0
sI22
F1.0
ssbsg16
g0
(g17
g2
Ntp2299
Rp2300
(dp2301
g21
I0
sbsba(ics475_types
Instance
p2302
(dp2303
g11
(ics475_types
FeatureVector
p2304
(dp2305
g14
(dp2306
I32
F1.0
sI33
F1.0
sI2
F42.75
sI3
F3.0
sI4
F1.0
sI5
F1.0
sI8
F1.0
sI13
F1.0
sI15
F200.0
sI16
F1.0
sI20
F1.0
sI21
F1.0
sI25
F1.0
ssbsg16
g0
(g17
g2
Ntp2307
Rp2308
(dp2309
g21
I0
sbsba(ics475_types
Instance
p2310
(dp2311
g11
(ics475_types
FeatureVector
p2312
(dp2313
g14
(dp2314
I33
F1.0
sI2
F24.17
sI3
F0.875
sI4
F1.0
sI5
F1.0
sI7
F1.0
sI8
F4.625
sI10
F1.0
sI11
F2.0
sI12
F1.0
sI13
F1.0
sI14
F520.0
sI15
F2000.0
sI16
F1.0
sI30
F1.0
ssbsg16
g0
(g17
g2
Ntp2315
Rp2316
(dp2317
g21
I1
sbsba(ics475_types
Instance
p2318
(dp2319
g11
(ics475_types
FeatureVector
p2320
(dp2321
g14
(dp2322
I33
F1.0
sI2
F60.08
sI3
F14.5
sI4
F1.0
sI5
F1.0
sI8
F18.0
sI10
F1.0
sI11
F15.0
sI12
F1.0
sI13
F1.0
sI15
F1000.0
sI16
F1.0
sI23
F1.0
sI24
F1.0
ssbsg16
g0
(g17
g2
Ntp2323
Rp2324
(dp2325
g21
I1
sbsba(ics475_types
Instance
p2326
(dp2327
g11
(ics475_types
FeatureVector
p2328
(dp2329
g14
(dp2330
I33
F1.0
sI2
F34.08
sI3
F6.5
sI4
F1.0
sI5
F1.0
sI7
F1.0
sI8
F0.125
sI12
F1.0
sI13
F1.0
sI14
F443.0
sI16
F1.0
sI20
F1.0
sI37
F1.0
ssbsg16
g0
(g17
g2
Ntp2331
Rp2332
(dp2333
g21
I0
sbsba(ics475_types
Instance
p2334
(dp2335
g11
(ics475_types
FeatureVector
p2336
(dp2337
g14
(dp2338
I32
F1.0
sI2
F34.0
sI3
F5.085
sI8
F1.085
sI9
F1.0
sI12
F1.0
sI13
F1.0
sI14
F480.0
sI16
F1.0
sI17
F1.0
sI18
F1.0
sI20
F1.0
sI25
F1.0
ssbsg16
g0
(g17
g2
Ntp2339
Rp2340
(dp2341
g21
I0
sbsba(ics475_types
Instance
p2342
(dp2343
g11
(ics475_types
FeatureVector
p2344
(dp2345
g14
(dp2346
I33
F1.0
sI2
F41.75
sI3
F0.96
sI4
F1.0
sI5
F1.0
sI7
F1.0
sI8
F2.5
sI39
F1.0
sI13
F1.0
sI14
F510.0
sI15
F600.0
sI16
F1.0
sI20
F1.0
sI21
F1.0
ssbsg16
g0
(g17
g2
Ntp2347
Rp2348
(dp2349
g21
I1
sbsba(ics475_types
Instance
p2350
(dp2351
g11
(ics475_types
FeatureVector
p2352
(dp2353
g14
(dp2354
I33
F1.0
sI2
F19.42
sI3
F6.5
sI4
F1.0
sI5
F1.0
sI8
F1.46
sI10
F1.0
sI11
F7.0
sI13
F1.0
sI14
F80.0
sI15
F2954.0
sI16
F1.0
sI21
F1.0
sI27
F1.0
sI31
F1.0
ssbsg16
g0
(g17
g2
Ntp2355
Rp2356
(dp2357
g21
I1
sbsba(ics475_types
Instance
p2358
(dp2359
g11
(ics475_types
FeatureVector
p2360
(dp2361
g14
(dp2362
I1
F1.0
sI2
F25.33
sI3
F2.085
sI4
F1.0
sI5
F1.0
sI6
F1.0
sI33
F1.0
sI8
F2.75
sI12
F1.0
sI13
F1.0
sI14
F360.0
sI15
F1.0
sI20
F1.0
sI27
F1.0
ssbsg16
g0
(g17
g2
Ntp2363
Rp2364
(dp2365
g21
I0
sbsba(ics475_types
Instance
p2366
(dp2367
g11
(ics475_types
FeatureVector
p2368
(dp2369
g14
(dp2370
I33
F1.0
sI2
F30.17
sI3
F0.5
sI4
F1.0
sI5
F1.0
sI6
F1.0
sI7
F1.0
sI8
F1.75
sI10
F1.0
sI11
F11.0
sI13
F1.0
sI14
F32.0
sI15
F540.0
sI16
F1.0
sI21
F1.0
ssbsg16
g0
(g17
g2
Ntp2371
Rp2372
(dp2373
g21
I1
sbsba(ics475_types
Instance
p2374
(dp2375
g11
(ics475_types
FeatureVector
p2376
(dp2377
g14
(dp2378
I2
F32.92
sI3
F2.5
sI4
F1.0
sI5
F1.0
sI7
F1.0
sI8
F1.75
sI9
F1.0
sI10
F1.0
sI11
F2.0
sI12
F1.0
sI13
F1.0
sI14
F720.0
sI16
F1.0
sI37
F1.0
ssbsg16
g0
(g17
g2
Ntp2379
Rp2380
(dp2381
g21
I0
sbsba(ics475_types
Instance
p2382
(dp2383
g11
(ics475_types
FeatureVector
p2384
(dp2385
g14
(dp2386
I2
F34.0
sI3
F5.5
sI6
F1.0
sI7
F1.0
sI8
F1.5
sI9
F1.0
sI12
F1.0
sI13
F1.0
sI14
F60.0
sI16
F1.0
sI17
F1.0
sI18
F1.0
sI20
F1.0
ssbsg16
g0
(g17
g2
Ntp2387
Rp2388
(dp2389
g21
I0
sbsba(ics475_types
Instance
p2390
(dp2391
g11
(ics475_types
FeatureVector
p2392
(dp2393
g14
(dp2394
I33
F1.0
sI2
F45.0
sI3
F8.5
sI4
F1.0
sI5
F1.0
sI8
F14.0
sI10
F1.0
sI11
F1.0
sI12
F1.0
sI13
F1.0
sI14
F88.0
sI15
F2000.0
sI16
F1.0
sI36
F1.0
sI27
F1.0
ssbsg16
g0
(g17
g2
Ntp2395
Rp2396
(dp2397
g21
I1
sbsba(ics475_types
Instance
p2398
(dp2399
g11
(ics475_types
FeatureVector
p2400
(dp2401
g14
(dp2402
I2
F17.5
sI3
F22.0
sI9
F1.0
sI12
F1.0
sI45
F1.0
sI14
F450.0
sI15
F100000.0
sI16
F1.0
sI20
F1.0
sI46
F1.0
sI23
F1.0
sI26
F1.0
sI44
F1.0
ssbsg16
g0
(g17
g2
Ntp2403
Rp2404
(dp2405
g21
I1
sbsba(ics475_types
Instance
p2406
(dp2407
g11
(ics475_types
FeatureVector
p2408
(dp2409
g14
(dp2410
I1
F1.0
sI2
F23.5
sI3
F9.0
sI4
F1.0
sI5
F1.0
sI7
F1.0
sI8
F8.5
sI10
F1.0
sI11
F5.0
sI12
F1.0
sI13
F1.0
sI14
F120.0
sI33
F1.0
sI30
F1.0
ssbsg16
g0
(g17
g2
Ntp2411
Rp2412
(dp2413
g21
I1
sbsba(ics475_types
Instance
p2414
(dp2415
g11
(ics475_types
FeatureVector
p2416
(dp2417
g14
(dp2418
I1
F1.0
sI2
F22.42
sI3
F5.665
sI4
F1.0
sI5
F1.0
sI7
F1.0
sI8
F2.585
sI10
F1.0
sI11
F7.0
sI13
F1.0
sI14
F129.0
sI15
F3257.0
sI21
F1.0
sI33
F1.0
sI30
F1.0
ssbsg16
g0
(g17
g2
Ntp2419
Rp2420
(dp2421
g21
I1
sbsba(ics475_types
Instance
p2422
(dp2423
g11
(ics475_types
FeatureVector
p2424
(dp2425
g14
(dp2426
I2
F41.0
sI3
F0.04
sI4
F1.0
sI5
F1.0
sI7
F1.0
sI8
F0.04
sI9
F1.0
sI10
F1.0
sI11
F1.0
sI14
F560.0
sI16
F1.0
sI21
F1.0
sI22
F1.0
sI41
F1.0
ssbsg16
g0
(g17
g2
Ntp2427
Rp2428
(dp2429
g21
I1
sbsba(ics475_types
Instance
p2430
(dp2431
g11
(ics475_types
FeatureVector
p2432
(dp2433
g14
(dp2434
I33
F1.0
sI2
F41.17
sI3
F4.04
sI4
F1.0
sI5
F1.0
sI8
F7.0
sI10
F1.0
sI11
F8.0
sI13
F1.0
sI14
F320.0
sI16
F1.0
sI21
F1.0
sI36
F1.0
sI27
F1.0
ssbsg16
g0
(g17
g2
Ntp2435
Rp2436
(dp2437
g21
I1
sbsba(ics475_types
Instance
p2438
(dp2439
g11
(ics475_types
FeatureVector
p2440
(dp2441
g14
(dp2442
I1
F1.0
sI2
F24.75
sI3
F13.665
sI4
F1.0
sI5
F1.0
sI8
F1.5
sI9
F1.0
sI13
F1.0
sI14
F280.0
sI15
F1.0
sI20
F1.0
sI21
F1.0
sI27
F1.0
sI30
F1.0
ssbsg16
g0
(g17
g2
Ntp2443
Rp2444
(dp2445
g21
I0
sbsba(ics475_types
Instance
p2446
(dp2447
g11
(ics475_types
FeatureVector
p2448
(dp2449
g14
(dp2450
I33
F1.0
sI2
F41.42
sI3
F5.0
sI4
F1.0
sI5
F1.0
sI8
F5.0
sI10
F1.0
sI11
F6.0
sI12
F1.0
sI13
F1.0
sI14
F470.0
sI16
F1.0
sI27
F1.0
sI30
F1.0
ssbsg16
g0
(g17
g2
Ntp2451
Rp2452
(dp2453
g21
I1
sbsba(ics475_types
Instance
p2454
(dp2455
g11
(ics475_types
FeatureVector
p2456
(dp2457
g14
(dp2458
I33
F1.0
sI2
F48.17
sI3
F3.5
sI4
F1.0
sI5
F1.0
sI7
F1.0
sI8
F3.5
sI14
F230.0
sI16
F1.0
sI20
F1.0
sI21
F1.0
sI22
F1.0
sI37
F1.0
ssbsg16
g0
(g17
g2
Ntp2459
Rp2460
(dp2461
g21
I1
sbsba(ics475_types
Instance
p2462
(dp2463
g11
(ics475_types
FeatureVector
p2464
(dp2465
g14
(dp2466
I32
F1.0
sI2
F36.17
sI3
F5.5
sI4
F1.0
sI5
F1.0
sI8
F5.0
sI9
F1.0
sI13
F1.0
sI14
F210.0
sI15
F687.0
sI16
F1.0
sI20
F1.0
sI21
F1.0
sI25
F1.0
ssbsg16
g0
(g17
g2
Ntp2467
Rp2468
(dp2469
g21
I0
sbsba(ics475_types
Instance
p2470
(dp2471
g11
(ics475_types
FeatureVector
p2472
(dp2473
g14
(dp2474
I2
F24.58
sI3
F1.25
sI4
F1.0
sI5
F1.0
sI6
F1.0
sI7
F1.0
sI8
F0.25
sI9
F1.0
sI13
F1.0
sI14
F110.0
sI16
F1.0
sI20
F1.0
sI21
F1.0
ssbsg16
g0
(g17
g2
Ntp2475
Rp2476
(dp2477
g21
I0
sbsba(ics475_types
Instance
p2478
(dp2479
g11
(ics475_types
FeatureVector
p2480
(dp2481
g14
(dp2482
I1
F1.0
sI2
F52.17
sI9
F1.0
sI13
F1.0
sI17
F1.0
sI18
F1.0
sI20
F1.0
sI21
F1.0
sI23
F1.0
sI24
F1.0
ssbsg16
g0
(g17
g2
Ntp2483
Rp2484
(dp2485
g21
I0
sbsba(ics475_types
Instance
p2486
(dp2487
g11
(ics475_types
FeatureVector
p2488
(dp2489
g14
(dp2490
I1
F1.0
sI2
F18.25
sI3
F10.0
sI4
F1.0
sI5
F1.0
sI7
F1.0
sI8
F1.0
sI9
F1.0
sI10
F1.0
sI11
F1.0
sI13
F1.0
sI14
F120.0
sI15
F1.0
sI21
F1.0
sI31
F1.0
ssbsg16
g0
(g17
g2
Ntp2491
Rp2492
(dp2493
g21
I0
sbsba(ics475_types
Instance
p2494
(dp2495
g11
(ics475_types
FeatureVector
p2496
(dp2497
g14
(dp2498
I33
F1.0
sI2
F54.58
sI3
F9.415
sI4
F1.0
sI5
F1.0
sI8
F14.415
sI10
F1.0
sI11
F11.0
sI12
F1.0
sI13
F1.0
sI14
F30.0
sI15
F300.0
sI16
F1.0
sI23
F1.0
sI24
F1.0
ssbsg16
g0
(g17
g2
Ntp2499
Rp2500
(dp2501
g21
I1
sbsba(ics475_types
Instance
p2502
(dp2503
g11
(ics475_types
FeatureVector
p2504
(dp2505
g14
(dp2506
I2
F17.67
sI3
F4.46
sI4
F1.0
sI5
F1.0
sI6
F1.0
sI7
F1.0
sI8
F0.25
sI9
F1.0
sI14
F80.0
sI16
F1.0
sI20
F1.0
sI21
F1.0
sI22
F1.0
ssbsg16
g0
(g17
g2
Ntp2507
Rp2508
(dp2509
g21
I0
sbsba(ics475_types
Instance
p2510
(dp2511
g11
(ics475_types
FeatureVector
p2512
(dp2513
g14
(dp2514
I33
F1.0
sI2
F27.0
sI3
F0.75
sI4
F1.0
sI5
F1.0
sI6
F1.0
sI8
F4.25
sI10
F1.0
sI11
F3.0
sI12
F1.0
sI13
F1.0
sI14
F312.0
sI15
F150.0
sI16
F1.0
sI27
F1.0
ssbsg16
g0
(g17
g2
Ntp2515
Rp2516
(dp2517
g21
I1
sbsba(ics475_types
Instance
p2518
(dp2519
g11
(ics475_types
FeatureVector
p2520
(dp2521
g14
(dp2522
I33
F1.0
sI2
F59.5
sI3
F2.75
sI4
F1.0
sI5
F1.0
sI7
F1.0
sI8
F1.75
sI10
F1.0
sI11
F5.0
sI12
F1.0
sI13
F1.0
sI14
F60.0
sI15
F58.0
sI16
F1.0
sI31
F1.0
ssbsg16
g0
(g17
g2
Ntp2523
Rp2524
(dp2525
g21
I1
sbsba(ics475_types
Instance
p2526
(dp2527
g11
(ics475_types
FeatureVector
p2528
(dp2529
g14
(dp2530
I33
F1.0
sI2
F48.17
sI3
F7.625
sI4
F1.0
sI5
F1.0
sI8
F15.5
sI10
F1.0
sI11
F12.0
sI13
F1.0
sI15
F790.0
sI16
F1.0
sI21
F1.0
sI27
F1.0
sI31
F1.0
ssbsg16
g0
(g17
g2
Ntp2531
Rp2532
(dp2533
g21
I1
sbsba(ics475_types
Instance
p2534
(dp2535
g11
(ics475_types
FeatureVector
p2536
(dp2537
g14
(dp2538
I1
F1.0
sI2
F15.75
sI3
F0.375
sI4
F1.0
sI5
F1.0
sI6
F1.0
sI7
F1.0
sI8
F1.0
sI9
F1.0
sI13
F1.0
sI14
F120.0
sI15
F18.0
sI20
F1.0
sI21
F1.0
ssbsg16
g0
(g17
g2
Ntp2539
Rp2540
(dp2541
g21
I0
sbsba(ics475_types
Instance
p2542
(dp2543
g11
(ics475_types
FeatureVector
p2544
(dp2545
g14
(dp2546
I33
F1.0
sI2
F30.83
sI4
F1.0
sI5
F1.0
sI7
F1.0
sI8
F1.25
sI10
F1.0
sI11
F1.0
sI13
F1.0
sI14
F202.0
sI16
F1.0
sI21
F1.0
sI31
F1.0
ssbsg16
g0
(g17
g2
Ntp2547
Rp2548
(dp2549
g21
I1
sbsba(ics475_types
Instance
p2550
(dp2551
g11
(ics475_types
FeatureVector
p2552
(dp2553
g14
(dp2554
I2
F21.17
sI4
F1.0
sI5
F1.0
sI6
F1.0
sI7
F1.0
sI8
F0.5
sI9
F1.0
sI12
F1.0
sI16
F1.0
sI20
F1.0
sI22
F1.0
ssbsg16
g0
(g17
g2
Ntp2555
Rp2556
(dp2557
g21
I0
sbsba(ics475_types
Instance
p2558
(dp2559
g11
(ics475_types
FeatureVector
p2560
(dp2561
g14
(dp2562
I33
F1.0
sI2
F28.67
sI3
F9.335
sI4
F1.0
sI5
F1.0
sI8
F5.665
sI10
F1.0
sI11
F6.0
sI13
F1.0
sI14
F381.0
sI15
F168.0
sI16
F1.0
sI21
F1.0
sI27
F1.0
sI30
F1.0
ssbsg16
g0
(g17
g2
Ntp2563
Rp2564
(dp2565
g21
I1
sbsba(ics475_types
Instance
p2566
(dp2567
g11
(ics475_types
FeatureVector
p2568
(dp2569
g14
(dp2570
I2
F22.17
sI3
F2.25
sI4
F1.0
sI5
F1.0
sI7
F1.0
sI8
F0.125
sI9
F1.0
sI13
F1.0
sI14
F160.0
sI15
F10.0
sI16
F1.0
sI20
F1.0
sI21
F1.0
sI25
F1.0
ssbsg16
g0
(g17
g2
Ntp2571
Rp2572
(dp2573
g21
I0
sbsba(ics475_types
Instance
p2574
(dp2575
g11
(ics475_types
FeatureVector
p2576
(dp2577
g14
(dp2578
I33
F1.0
sI2
F44.0
sI3
F2.0
sI4
F1.0
sI5
F1.0
sI7
F1.0
sI8
F1.75
sI10
F1.0
sI11
F2.0
sI12
F1.0
sI13
F1.0
sI15
F15.0
sI16
F1.0
sI35
F1.0
ssbsg16
g0
(g17
g2
Ntp2579
Rp2580
(dp2581
g21
I1
sbsba(ics475_types
Instance
p2582
(dp2583
g11
(ics475_types
FeatureVector
p2584
(dp2585
g14
(dp2586
I1
F1.0
sI2
F33.67
sI3
F0.375
sI4
F1.0
sI5
F1.0
sI7
F1.0
sI8
F0.375
sI9
F1.0
sI13
F1.0
sI14
F300.0
sI15
F44.0
sI20
F1.0
sI21
F1.0
sI36
F1.0
ssbsg16
g0
(g17
g2
Ntp2587
Rp2588
(dp2589
g21
I1
sbsba(ics475_types
Instance
p2590
(dp2591
g11
(ics475_types
FeatureVector
p2592
(dp2593
g14
(dp2594
I1
F1.0
sI2
F56.83
sI3
F4.25
sI8
F5.0
sI9
F1.0
sI12
F1.0
sI13
F1.0
sI15
F4.0
sI17
F1.0
sI18
F1.0
sI20
F1.0
sI23
F1.0
sI24
F1.0
ssbsg16
g0
(g17
g2
Ntp2595
Rp2596
(dp2597
g21
I0
sbsba(ics475_types
Instance
p2598
(dp2599
g11
(ics475_types
FeatureVector
p2600
(dp2601
g14
(dp2602
I33
F1.0
sI2
F31.67
sI3
F0.83
sI4
F1.0
sI5
F1.0
sI7
F1.0
sI8
F1.335
sI10
F1.0
sI11
F8.0
sI12
F1.0
sI13
F1.0
sI14
F303.0
sI15
F3290.0
sI16
F1.0
sI39
F1.0
ssbsg16
g0
(g17
g2
Ntp2603
Rp2604
(dp2605
g21
I1
sbsba(ics475_types
Instance
p2606
(dp2607
g11
(ics475_types
FeatureVector
p2608
(dp2609
g14
(dp2610
I33
F1.0
sI2
F20.42
sI3
F7.0
sI4
F1.0
sI5
F1.0
sI6
F1.0
sI7
F1.0
sI8
F1.625
sI10
F1.0
sI11
F3.0
sI13
F1.0
sI14
F200.0
sI15
F1391.0
sI16
F1.0
sI21
F1.0
ssbsg16
g0
(g17
g2
Ntp2611
Rp2612
(dp2613
g21
I1
sbsba(ics475_types
Instance
p2614
(dp2615
g11
(ics475_types
FeatureVector
p2616
(dp2617
g14
(dp2618
I33
F1.0
sI2
F21.0
sI3
F3.0
sI7
F1.0
sI8
F1.085
sI10
F1.0
sI11
F8.0
sI12
F1.0
sI13
F1.0
sI14
F160.0
sI15
F1.0
sI16
F1.0
sI17
F1.0
sI18
F1.0
sI34
F1.0
ssbsg16
g0
(g17
g2
Ntp2619
Rp2620
(dp2621
g21
I1
sbsba(ics475_types
Instance
p2622
(dp2623
g11
(ics475_types
FeatureVector
p2624
(dp2625
g14
(dp2626
I32
F1.0
sI2
F39.92
sI3
F5.0
sI4
F1.0
sI5
F1.0
sI8
F0.21
sI9
F1.0
sI13
F1.0
sI14
F550.0
sI16
F1.0
sI20
F1.0
sI21
F1.0
sI25
F1.0
ssbsg16
g0
(g17
g2
Ntp2627
Rp2628
(dp2629
g21
I0
sbsba(ics475_types
Instance
p2630
(dp2631
g11
(ics475_types
FeatureVector
p2632
(dp2633
g14
(dp2634
I33
F1.0
sI2
F65.42
sI3
F11.0
sI4
F1.0
sI5
F1.0
sI8
F20.0
sI41
F1.0
sI10
F1.0
sI11
F7.0
sI12
F1.0
sI13
F1.0
sI14
F22.0
sI16
F1.0
sI42
F1.0
ssbsg16
g0
(g17
g2
Ntp2635
Rp2636
(dp2637
g21
I1
sbsba(ics475_types
Instance
p2638
(dp2639
g11
(ics475_types
FeatureVector
p2640
(dp2641
g14
(dp2642
I33
F1.0
sI2
F43.08
sI3
F0.375
sI6
F1.0
sI7
F1.0
sI8
F0.375
sI10
F1.0
sI11
F8.0
sI12
F1.0
sI13
F1.0
sI14
F300.0
sI15
F162.0
sI16
F1.0
sI17
F1.0
sI18
F1.0
ssbsg16
g0
(g17
g2
Ntp2643
Rp2644
(dp2645
g21
I1
sbsba(ics475_types
Instance
p2646
(dp2647
g11
(ics475_types
FeatureVector
p2648
(dp2649
g14
(dp2650
I2
F31.0
sI3
F2.085
sI4
F1.0
sI5
F1.0
sI6
F1.0
sI7
F1.0
sI8
F0.085
sI9
F1.0
sI13
F1.0
sI14
F300.0
sI16
F1.0
sI20
F1.0
sI21
F1.0
ssbsg16
g0
(g17
g2
Ntp2651
Rp2652
(dp2653
g21
I0
sbsba(ics475_types
Instance
p2654
(dp2655
g11
(ics475_types
FeatureVector
p2656
(dp2657
g14
(dp2658
I1
F1.0
sI2
F22.42
sI3
F11.25
sI33
F1.0
sI8
F0.75
sI10
F1.0
sI11
F4.0
sI13
F1.0
sI15
F321.0
sI17
F1.0
sI18
F1.0
sI21
F1.0
sI39
F1.0
sI27
F1.0
ssbsg16
g0
(g17
g2
Ntp2659
Rp2660
(dp2661
g21
I1
sbsba(ics475_types
Instance
p2662
(dp2663
g11
(ics475_types
FeatureVector
p2664
(dp2665
g14
(dp2666
I2
F22.17
sI3
F12.125
sI4
F1.0
sI5
F1.0
sI6
F1.0
sI7
F1.0
sI8
F3.335
sI9
F1.0
sI10
F1.0
sI11
F2.0
sI12
F1.0
sI13
F1.0
sI14
F180.0
sI15
F173.0
sI16
F1.0
ssbsg16
g0
(g17
g2
Ntp2667
Rp2668
(dp2669
g21
I0
sbsba(ics475_types
Instance
p2670
(dp2671
g11
(ics475_types
FeatureVector
p2672
(dp2673
g14
(dp2674
I1
F1.0
sI2
F20.83
sI3
F0.5
sI8
F1.0
sI9
F1.0
sI43
F1.0
sI13
F1.0
sI14
F260.0
sI17
F1.0
sI18
F1.0
sI20
F1.0
sI21
F1.0
sI41
F1.0
ssbsg16
g0
(g17
g2
Ntp2675
Rp2676
(dp2677
g21
I0
sbsba(ics475_types
Instance
p2678
(dp2679
g11
(ics475_types
FeatureVector
p2680
(dp2681
g14
(dp2682
I1
F1.0
sI2
F40.33
sI3
F7.54
sI33
F1.0
sI8
F8.0
sI10
F1.0
sI11
F14.0
sI13
F1.0
sI15
F2300.0
sI17
F1.0
sI18
F1.0
sI21
F1.0
sI27
F1.0
sI30
F1.0
ssbsg16
g0
(g17
g2
Ntp2683
Rp2684
(dp2685
g21
I1
sbsba(ics475_types
Instance
p2686
(dp2687
g11
(ics475_types
FeatureVector
p2688
(dp2689
g14
(dp2690
I32
F1.0
sI33
F1.0
sI2
F23.25
sI3
F4.0
sI4
F1.0
sI5
F1.0
sI6
F1.0
sI8
F0.25
sI12
F1.0
sI13
F1.0
sI14
F160.0
sI16
F1.0
sI20
F1.0
ssbsg16
g0
(g17
g2
Ntp2691
Rp2692
(dp2693
g21
I1
sbsba(ics475_types
Instance
p2694
(dp2695
g11
(ics475_types
FeatureVector
p2696
(dp2697
g14
(dp2698
I2
F16.17
sI3
F0.04
sI4
F1.0
sI5
F1.0
sI6
F1.0
sI7
F1.0
sI8
F0.04
sI9
F1.0
sI13
F1.0
sI16
F1.0
sI20
F1.0
sI21
F1.0
ssbsg16
g0
(g17
g2
Ntp2699
Rp2700
(dp2701
g21
I1
sbsba(ics475_types
Instance
p2702
(dp2703
g11
(ics475_types
FeatureVector
p2704
(dp2705
g14
(dp2706
I1
F1.0
sI2
F19.75
sI3
F0.75
sI4
F1.0
sI5
F1.0
sI6
F1.0
sI7
F1.0
sI8
F0.795
sI10
F1.0
sI11
F5.0
sI12
F1.0
sI13
F1.0
sI14
F140.0
sI15
F5.0
sI33
F1.0
ssbsg16
g0
(g17
g2
Ntp2707
Rp2708
(dp2709
g21
I0
sbsba(ics475_types
Instance
p2710
(dp2711
g11
(ics475_types
FeatureVector
p2712
(dp2713
g14
(dp2714
I33
F1.0
sI2
F39.58
sI3
F13.915
sI4
F1.0
sI5
F1.0
sI7
F1.0
sI8
F8.625
sI10
F1.0
sI11
F6.0
sI12
F1.0
sI13
F1.0
sI14
F70.0
sI16
F1.0
sI31
F1.0
ssbsg16
g0
(g17
g2
Ntp2715
Rp2716
(dp2717
g21
I1
sbsba(ics475_types
Instance
p2718
(dp2719
g11
(ics475_types
FeatureVector
p2720
(dp2721
g14
(dp2722
I33
F1.0
sI2
F21.92
sI3
F0.54
sI7
F1.0
sI8
F0.04
sI10
F1.0
sI11
F1.0
sI12
F1.0
sI13
F1.0
sI14
F840.0
sI15
F59.0
sI16
F1.0
sI17
F1.0
sI18
F1.0
sI39
F1.0
ssbsg16
g0
(g17
g2
Ntp2723
Rp2724
(dp2725
g21
I1
sbsba(ics475_types
Instance
p2726
(dp2727
g11
(ics475_types
FeatureVector
p2728
(dp2729
g14
(dp2730
I2
F23.42
sI3
F1.0
sI4
F1.0
sI5
F1.0
sI6
F1.0
sI7
F1.0
sI8
F0.5
sI9
F1.0
sI12
F1.0
sI14
F280.0
sI16
F1.0
sI20
F1.0
sI22
F1.0
ssbsg16
g0
(g17
g2
Ntp2731
Rp2732
(dp2733
g21
I0
sbsba(ics475_types
Instance
p2734
(dp2735
g11
(ics475_types
FeatureVector
p2736
(dp2737
g14
(dp2738
I33
F1.0
sI2
F27.25
sI3
F1.585
sI4
F1.0
sI5
F1.0
sI8
F1.835
sI10
F1.0
sI11
F12.0
sI12
F1.0
sI13
F1.0
sI14
F583.0
sI15
F713.0
sI16
F1.0
sI36
F1.0
sI27
F1.0
ssbsg16
g0
(g17
g2
Ntp2739
Rp2740
(dp2741
g21
I1
sbsba(ics475_types
Instance
p2742
(dp2743
g11
(ics475_types
FeatureVector
p2744
(dp2745
g14
(dp2746
I33
F1.0
sI2
F64.08
sI3
F20.0
sI4
F1.0
sI5
F1.0
sI39
F1.0
sI8
F17.5
sI10
F1.0
sI11
F9.0
sI12
F1.0
sI13
F1.0
sI15
F1000.0
sI16
F1.0
sI27
F1.0
ssbsg16
g0
(g17
g2
Ntp2747
Rp2748
(dp2749
g21
I1
sbsba(ics475_types
Instance
p2750
(dp2751
g11
(ics475_types
FeatureVector
p2752
(dp2753
g14
(dp2754
I33
F1.0
sI2
F16.08
sI3
F0.75
sI4
F1.0
sI5
F1.0
sI6
F1.0
sI7
F1.0
sI8
F1.75
sI10
F1.0
sI11
F5.0
sI12
F1.0
sI13
F1.0
sI14
F352.0
sI15
F690.0
sI16
F1.0
ssbsg16
g0
(g17
g2
Ntp2755
Rp2756
(dp2757
g21
I1
sbsba(ics475_types
Instance
p2758
(dp2759
g11
(ics475_types
FeatureVector
p2760
(dp2761
g14
(dp2762
I2
F31.58
sI3
F0.75
sI37
F1.0
sI7
F1.0
sI8
F3.5
sI9
F1.0
sI12
F1.0
sI13
F1.0
sI14
F320.0
sI16
F1.0
sI17
F1.0
sI18
F1.0
sI20
F1.0
ssbsg16
g0
(g17
g2
Ntp2763
Rp2764
(dp2765
g21
I0
sbsba(ics475_types
Instance
p2766
(dp2767
g11
(ics475_types
FeatureVector
p2768
(dp2769
g14
(dp2770
I33
F1.0
sI2
F25.17
sI3
F3.5
sI4
F1.0
sI5
F1.0
sI7
F1.0
sI8
F0.625
sI10
F1.0
sI11
F7.0
sI13
F1.0
sI15
F7059.0
sI16
F1.0
sI21
F1.0
sI36
F1.0
ssbsg16
g0
(g17
g2
Ntp2771
Rp2772
(dp2773
g21
I1
sbsba(ics475_types
Instance
p2774
(dp2775
g11
(ics475_types
FeatureVector
p2776
(dp2777
g14
(dp2778
I33
F1.0
sI2
F20.5
sI3
F2.415
sI4
F1.0
sI5
F1.0
sI6
F1.0
sI7
F1.0
sI8
F2.0
sI10
F1.0
sI11
F11.0
sI12
F1.0
sI13
F1.0
sI14
F200.0
sI15
F3000.0
sI16
F1.0
ssbsg16
g0
(g17
g2
Ntp2779
Rp2780
(dp2781
g21
I1
sbsba(ics475_types
Instance
p2782
(dp2783
g11
(ics475_types
FeatureVector
p2784
(dp2785
g14
(dp2786
I32
F1.0
sI1
F1.0
sI2
F28.58
sI3
F3.54
sI4
F1.0
sI5
F1.0
sI33
F1.0
sI8
F0.5
sI12
F1.0
sI13
F1.0
sI14
F171.0
sI20
F1.0
sI25
F1.0
ssbsg16
g0
(g17
g2
Ntp2787
Rp2788
(dp2789
g21
I0
sbsba(ics475_types
Instance
p2790
(dp2791
g11
(ics475_types
FeatureVector
p2792
(dp2793
g14
(dp2794
I2
F16.33
sI3
F4.085
sI4
F1.0
sI5
F1.0
sI8
F0.415
sI9
F1.0
sI12
F1.0
sI13
F1.0
sI14
F120.0
sI16
F1.0
sI20
F1.0
sI25
F1.0
sI27
F1.0
ssbsg16
g0
(g17
g2
Ntp2795
Rp2796
(dp2797
g21
I0
sbsba(ics475_types
Instance
p2798
(dp2799
g11
(ics475_types
FeatureVector
p2800
(dp2801
g14
(dp2802
I2
F22.67
sI3
F0.165
sI4
F1.0
sI5
F1.0
sI6
F1.0
sI8
F2.25
sI9
F1.0
sI12
F1.0
sI16
F1.0
sI20
F1.0
sI22
F1.0
sI29
F1.0
ssbsg16
g0
(g17
g2
Ntp2803
Rp2804
(dp2805
g21
I1
sbsba(ics475_types
Instance
p2806
(dp2807
g11
(ics475_types
FeatureVector
p2808
(dp2809
g14
(dp2810
I2
F18.83
sI4
F1.0
sI5
F1.0
sI7
F1.0
sI8
F0.665
sI9
F1.0
sI13
F1.0
sI14
F160.0
sI15
F1.0
sI16
F1.0
sI20
F1.0
sI21
F1.0
sI30
F1.0
ssbsg16
g0
(g17
g2
Ntp2811
Rp2812
(dp2813
g21
I0
sbsba(ics475_types
Instance
p2814
(dp2815
g11
(ics475_types
FeatureVector
p2816
(dp2817
g14
(dp2818
I1
F1.0
sI2
F16.33
sI3
F0.21
sI4
F1.0
sI5
F1.0
sI7
F1.0
sI8
F0.125
sI9
F1.0
sI13
F1.0
sI14
F200.0
sI15
F1.0
sI20
F1.0
sI21
F1.0
sI37
F1.0
ssbsg16
g0
(g17
g2
Ntp2819
Rp2820
(dp2821
g21
I0
sbsba(ics475_types
Instance
p2822
(dp2823
g11
(ics475_types
FeatureVector
p2824
(dp2825
g14
(dp2826
I1
F1.0
sI2
F64.08
sI3
F0.165
sI4
F1.0
sI5
F1.0
sI33
F1.0
sI10
F1.0
sI11
F1.0
sI13
F1.0
sI14
F232.0
sI15
F100.0
sI21
F1.0
sI23
F1.0
sI24
F1.0
ssbsg16
g0
(g17
g2
Ntp2827
Rp2828
(dp2829
g21
I1
sbsba(ics475_types
Instance
p2830
(dp2831
g11
(ics475_types
FeatureVector
p2832
(dp2833
g14
(dp2834
I1
F1.0
sI2
F37.33
sI3
F2.5
sI4
F1.0
sI5
F1.0
sI8
F0.21
sI9
F1.0
sI13
F1.0
sI14
F260.0
sI15
F246.0
sI20
F1.0
sI21
F1.0
sI25
F1.0
sI27
F1.0
ssbsg16
g0
(g17
g2
Ntp2835
Rp2836
(dp2837
g21
I0
sbsba(ics475_types
Instance
p2838
(dp2839
g11
(ics475_types
FeatureVector
p2840
(dp2841
g14
(dp2842
I33
F1.0
sI2
F32.83
sI3
F2.5
sI4
F1.0
sI5
F1.0
sI8
F2.75
sI10
F1.0
sI11
F6.0
sI13
F1.0
sI14
F160.0
sI15
F2072.0
sI16
F1.0
sI21
F1.0
sI36
F1.0
sI27
F1.0
ssbsg16
g0
(g17
g2
Ntp2843
Rp2844
(dp2845
g21
I1
sbsba(ics475_types
Instance
p2846
(dp2847
g11
(ics475_types
FeatureVector
p2848
(dp2849
g14
(dp2850
I32
F1.0
sI33
F1.0
sI2
F47.67
sI3
F2.5
sI4
F1.0
sI5
F1.0
sI8
F2.5
sI10
F1.0
sI11
F12.0
sI12
F1.0
sI13
F1.0
sI14
F410.0
sI15
F2510.0
sI16
F1.0
sI35
F1.0
ssbsg16
g0
(g17
g2
Ntp2851
Rp2852
(dp2853
g21
I1
sbsba(ics475_types
Instance
p2854
(dp2855
g11
(ics475_types
FeatureVector
p2856
(dp2857
g14
(dp2858
I1
F1.0
sI2
F50.08
sI3
F12.54
sI4
F1.0
sI5
F1.0
sI7
F1.0
sI8
F2.29
sI10
F1.0
sI11
F3.0
sI12
F1.0
sI13
F1.0
sI14
F156.0
sI33
F1.0
sI37
F1.0
ssbsg16
g0
(g17
g2
Ntp2859
Rp2860
(dp2861
g21
I1
sbsba(ics475_types
Instance
p2862
(dp2863
g11
(ics475_types
FeatureVector
p2864
(dp2865
g14
(dp2866
I33
F1.0
sI2
F28.33
sI3
F5.0
sI4
F1.0
sI5
F1.0
sI7
F1.0
sI8
F11.0
sI12
F1.0
sI13
F1.0
sI14
F70.0
sI16
F1.0
sI20
F1.0
sI31
F1.0
ssbsg16
g0
(g17
g2
Ntp2867
Rp2868
(dp2869
g21
I1
sbsba(ics475_types
Instance
p2870
(dp2871
g11
(ics475_types
FeatureVector
p2872
(dp2873
g14
(dp2874
I33
F1.0
sI2
F29.67
sI3
F1.415
sI4
F1.0
sI5
F1.0
sI8
F0.75
sI10
F1.0
sI11
F1.0
sI13
F1.0
sI14
F240.0
sI15
F100.0
sI16
F1.0
sI21
F1.0
sI27
F1.0
sI31
F1.0
ssbsg16
g0
(g17
g2
Ntp2875
Rp2876
(dp2877
g21
I1
sbsba(ics475_types
Instance
p2878
(dp2879
g11
(ics475_types
FeatureVector
p2880
(dp2881
g14
(dp2882
I33
F1.0
sI2
F42.83
sI3
F4.625
sI4
F1.0
sI5
F1.0
sI7
F1.0
sI8
F4.58
sI16
F1.0
sI20
F1.0
sI21
F1.0
sI22
F1.0
sI30
F1.0
ssbsg16
g0
(g17
g2
Ntp2883
Rp2884
(dp2885
g21
I1
sbsba(ics475_types
Instance
p2886
(dp2887
g11
(ics475_types
FeatureVector
p2888
(dp2889
g14
(dp2890
I1
F1.0
sI2
F28.5
sI3
F3.04
sI33
F1.0
sI8
F2.54
sI10
F1.0
sI11
F1.0
sI13
F1.0
sI14
F70.0
sI17
F1.0
sI18
F1.0
sI21
F1.0
sI39
F1.0
sI27
F1.0
ssbsg16
g0
(g17
g2
Ntp2891
Rp2892
(dp2893
g21
I1
sbsba(ics475_types
Instance
p2894
(dp2895
g11
(ics475_types
FeatureVector
p2896
(dp2897
g14
(dp2898
I2
F23.25
sI3
F12.625
sI4
F1.0
sI5
F1.0
sI6
F1.0
sI7
F1.0
sI8
F0.125
sI9
F1.0
sI10
F1.0
sI11
F2.0
sI13
F1.0
sI15
F5552.0
sI16
F1.0
sI21
F1.0
ssbsg16
g0
(g17
g2
Ntp2899
Rp2900
(dp2901
g21
I0
sbsba(ics475_types
Instance
p2902
(dp2903
g11
(ics475_types
FeatureVector
p2904
(dp2905
g14
(dp2906
I2
F47.33
sI3
F6.5
sI4
F1.0
sI5
F1.0
sI6
F1.0
sI7
F1.0
sI8
F1.0
sI9
F1.0
sI12
F1.0
sI13
F1.0
sI15
F228.0
sI16
F1.0
sI20
F1.0
ssbsg16
g0
(g17
g2
Ntp2907
Rp2908
(dp2909
g21
I0
sbsba(ics475_types
Instance
p2910
(dp2911
g11
(ics475_types
FeatureVector
p2912
(dp2913
g14
(dp2914
I2
F16.5
sI3
F0.125
sI4
F1.0
sI5
F1.0
sI6
F1.0
sI7
F1.0
sI8
F0.165
sI9
F1.0
sI13
F1.0
sI14
F132.0
sI16
F1.0
sI20
F1.0
sI21
F1.0
ssbsg16
g0
(g17
g2
Ntp2915
Rp2916
(dp2917
g21
I0
sbsba(ics475_types
Instance
p2918
(dp2919
g11
(ics475_types
FeatureVector
p2920
(dp2921
g14
(dp2922
I2
F33.0
sI3
F2.5
sI7
F1.0
sI8
F7.0
sI9
F1.0
sI12
F1.0
sI13
F1.0
sI14
F280.0
sI16
F1.0
sI17
F1.0
sI18
F1.0
sI20
F1.0
sI31
F1.0
ssbsg16
g0
(g17
g2
Ntp2923
Rp2924
(dp2925
g21
I0
sbsba(ics475_types
Instance
p2926
(dp2927
g11
(ics475_types
FeatureVector
p2928
(dp2929
g14
(dp2930
I33
F1.0
sI2
F27.83
sI3
F1.54
sI4
F1.0
sI5
F1.0
sI7
F1.0
sI8
F3.75
sI10
F1.0
sI11
F5.0
sI12
F1.0
sI13
F1.0
sI14
F100.0
sI15
F3.0
sI16
F1.0
sI31
F1.0
ssbsg16
g0
(g17
g2
Ntp2931
Rp2932
(dp2933
g21
I1
sbsba(ics475_types
Instance
p2934
(dp2935
g11
(ics475_types
FeatureVector
p2936
(dp2937
g14
(dp2938
I2
F21.17
sI3
F0.875
sI6
F1.0
sI8
F0.25
sI9
F1.0
sI13
F1.0
sI14
F280.0
sI15
F204.0
sI16
F1.0
sI17
F1.0
sI18
F1.0
sI20
F1.0
sI21
F1.0
sI27
F1.0
ssbsg16
g0
(g17
g2
Ntp2939
Rp2940
(dp2941
g21
I0
sbsba(ics475_types
Instance
p2942
(dp2943
g11
(ics475_types
FeatureVector
p2944
(dp2945
g14
(dp2946
I33
F1.0
sI2
F22.67
sI3
F2.54
sI6
F1.0
sI8
F2.585
sI13
F1.0
sI16
F1.0
sI17
F1.0
sI18
F1.0
sI20
F1.0
sI21
F1.0
sI27
F1.0
ssbsg16
g0
(g17
g2
Ntp2947
Rp2948
(dp2949
g21
I1
sbsba(ics475_types
Instance
p2950
(dp2951
g11
(ics475_types
FeatureVector
p2952
(dp2953
g14
(dp2954
I2
F19.0
sI9
F1.0
sI10
F1.0
sI11
F4.0
sI13
F1.0
sI14
F45.0
sI15
F1.0
sI16
F1.0
sI17
F1.0
sI18
F1.0
sI21
F1.0
sI23
F1.0
sI24
F1.0
ssbsg16
g0
(g17
g2
Ntp2955
Rp2956
(dp2957
g21
I0
sbsba(ics475_types
Instance
p2958
(dp2959
g11
(ics475_types
FeatureVector
p2960
(dp2961
g14
(dp2962
I33
F1.0
sI2
F39.17
sI3
F1.71
sI4
F1.0
sI5
F1.0
sI7
F1.0
sI8
F0.125
sI10
F1.0
sI11
F5.0
sI12
F1.0
sI13
F1.0
sI14
F480.0
sI16
F1.0
sI39
F1.0
ssbsg16
g0
(g17
g2
Ntp2963
Rp2964
(dp2965
g21
I1
sbsba(ics475_types
Instance
p2966
(dp2967
g11
(ics475_types
FeatureVector
p2968
(dp2969
g14
(dp2970
I2
F19.58
sI3
F0.585
sI4
F1.0
sI5
F1.0
sI9
F1.0
sI10
F1.0
sI11
F3.0
sI13
F1.0
sI14
F350.0
sI15
F769.0
sI16
F1.0
sI21
F1.0
sI23
F1.0
sI24
F1.0
ssbsg16
g0
(g17
g2
Ntp2971
Rp2972
(dp2973
g21
I0
sbsba(ics475_types
Instance
p2974
(dp2975
g11
(ics475_types
FeatureVector
p2976
(dp2977
g14
(dp2978
I33
F1.0
sI2
F42.17
sI3
F5.04
sI4
F1.0
sI5
F1.0
sI8
F12.75
sI12
F1.0
sI13
F1.0
sI14
F92.0
sI16
F1.0
sI20
F1.0
sI27
F1.0
sI30
F1.0
ssbsg16
g0
(g17
g2
Ntp2979
Rp2980
(dp2981
g21
I1
sbsba(ics475_types
Instance
p2982
(dp2983
g11
(ics475_types
FeatureVector
p2984
(dp2985
g14
(dp2986
I33
F1.0
sI2
F54.83
sI3
F15.5
sI4
F1.0
sI5
F1.0
sI41
F1.0
sI10
F1.0
sI11
F20.0
sI13
F1.0
sI14
F152.0
sI15
F130.0
sI16
F1.0
sI21
F1.0
sI42
F1.0
ssbsg16
g0
(g17
g2
Ntp2987
Rp2988
(dp2989
g21
I0
sbsba(ics475_types
Instance
p2990
(dp2991
g11
(ics475_types
FeatureVector
p2992
(dp2993
g14
(dp2994
I1
F1.0
sI2
F36.58
sI3
F0.29
sI4
F1.0
sI5
F1.0
sI9
F1.0
sI10
F1.0
sI11
F10.0
sI13
F1.0
sI14
F200.0
sI15
F18.0
sI21
F1.0
sI23
F1.0
sI24
F1.0
ssbsg16
g0
(g17
g2
Ntp2995
Rp2996
(dp2997
g21
I0
sbsba(ics475_types
Instance
p2998
(dp2999
g11
(ics475_types
FeatureVector
p3000
(dp3001
g14
(dp3002
I2
F18.33
sI3
F1.21
sI9
F1.0
sI43
F1.0
sI13
F1.0
sI14
F100.0
sI16
F1.0
sI17
F1.0
sI18
F1.0
sI20
F1.0
sI21
F1.0
sI41
F1.0
ssbsg16
g0
(g17
g2
Ntp3003
Rp3004
(dp3005
g21
I0
sbsba(ics475_types
Instance
p3006
(dp3007
g11
(ics475_types
FeatureVector
p3008
(dp3009
g14
(dp3010
I2
F34.08
sI3
F2.5
sI4
F1.0
sI5
F1.0
sI6
F1.0
sI7
F1.0
sI8
F1.0
sI9
F1.0
sI13
F1.0
sI14
F460.0
sI15
F16.0
sI16
F1.0
sI20
F1.0
sI21
F1.0
ssbsg16
g0
(g17
g2
Ntp3011
Rp3012
(dp3013
g21
I0
sbsba(ics475_types
Instance
p3014
(dp3015
g11
(ics475_types
FeatureVector
p3016
(dp3017
g14
(dp3018
I2
F25.25
sI3
F1.0
sI4
F1.0
sI5
F1.0
sI7
F1.0
sI8
F0.5
sI9
F1.0
sI13
F1.0
sI14
F200.0
sI16
F1.0
sI20
F1.0
sI21
F1.0
sI37
F1.0
ssbsg16
g0
(g17
g2
Ntp3019
Rp3020
(dp3021
g21
I0
sbsba(ics475_types
Instance
p3022
(dp3023
g11
(ics475_types
FeatureVector
p3024
(dp3025
g14
(dp3026
I33
F1.0
sI2
F39.25
sI3
F9.5
sI4
F1.0
sI5
F1.0
sI7
F1.0
sI8
F6.5
sI10
F1.0
sI11
F14.0
sI13
F1.0
sI14
F240.0
sI15
F4607.0
sI16
F1.0
sI35
F1.0
sI21
F1.0
ssbsg16
g0
(g17
g2
Ntp3027
Rp3028
(dp3029
g21
I1
sbsba(ics475_types
Instance
p3030
(dp3031
g11
(ics475_types
FeatureVector
p3032
(dp3033
g14
(dp3034
I2
F20.0
sI3
F11.045
sI4
F1.0
sI5
F1.0
sI6
F1.0
sI7
F1.0
sI8
F2.0
sI9
F1.0
sI12
F1.0
sI13
F1.0
sI14
F136.0
sI16
F1.0
sI20
F1.0
ssbsg16
g0
(g17
g2
Ntp3035
Rp3036
(dp3037
g21
I0
sbsba(ics475_types
Instance
p3038
(dp3039
g11
(ics475_types
FeatureVector
p3040
(dp3041
g14
(dp3042
I1
F1.0
sI2
F24.5
sI3
F0.5
sI4
F1.0
sI5
F1.0
sI33
F1.0
sI8
F1.5
sI13
F1.0
sI14
F280.0
sI15
F824.0
sI20
F1.0
sI21
F1.0
sI27
F1.0
sI30
F1.0
ssbsg16
g0
(g17
g2
Ntp3043
Rp3044
(dp3045
g21
I1
sbsba(ics475_types
Instance
p3046
(dp3047
g11
(ics475_types
FeatureVector
p3048
(dp3049
g14
(dp3050
I2
F23.75
sI3
F0.415
sI6
F1.0
sI7
F1.0
sI8
F0.04
sI9
F1.0
sI10
F1.0
sI11
F2.0
sI13
F1.0
sI14
F128.0
sI15
F6.0
sI16
F1.0
sI17
F1.0
sI18
F1.0
sI21
F1.0
ssbsg16
g0
(g17
g2
Ntp3051
Rp3052
(dp3053
g21
I0
sbsba(ics475_types
Instance
p3054
(dp3055
g11
(ics475_types
FeatureVector
p3056
(dp3057
g14
(dp3058
I33
F1.0
sI2
F21.33
sI3
F7.5
sI4
F1.0
sI5
F1.0
sI7
F1.0
sI8
F1.415
sI10
F1.0
sI11
F1.0
sI13
F1.0
sI14
F80.0
sI15
F9800.0
sI16
F1.0
sI21
F1.0
sI37
F1.0
ssbsg16
g0
(g17
g2
Ntp3059
Rp3060
(dp3061
g21
I1
sbsba(ics475_types
Instance
p3062
(dp3063
g11
(ics475_types
FeatureVector
p3064
(dp3065
g14
(dp3066
I1
F1.0
sI2
F30.58
sI3
F10.665
sI4
F1.0
sI5
F1.0
sI8
F0.085
sI9
F1.0
sI10
F1.0
sI11
F12.0
sI12
F1.0
sI13
F1.0
sI14
F129.0
sI15
F3.0
sI27
F1.0
sI30
F1.0
ssbsg16
g0
(g17
g2
Ntp3067
Rp3068
(dp3069
g21
I0
sbsba(ics475_types
Instance
p3070
(dp3071
g11
(ics475_types
FeatureVector
p3072
(dp3073
g14
(dp3074
I2
F40.58
sI3
F3.29
sI4
F1.0
sI5
F1.0
sI7
F1.0
sI8
F3.5
sI9
F1.0
sI12
F1.0
sI14
F400.0
sI16
F1.0
sI35
F1.0
sI20
F1.0
sI22
F1.0
ssbsg16
g0
(g17
g2
Ntp3075
Rp3076
(dp3077
g21
I0
sbsba(ics475_types
Instance
p3078
(dp3079
g11
(ics475_types
FeatureVector
p3080
(dp3081
g14
(dp3082
I2
F31.08
sI3
F3.085
sI4
F1.0
sI5
F1.0
sI6
F1.0
sI7
F1.0
sI8
F2.5
sI9
F1.0
sI10
F1.0
sI11
F2.0
sI12
F1.0
sI13
F1.0
sI14
F160.0
sI15
F41.0
sI16
F1.0
ssbsg16
g0
(g17
g2
Ntp3083
Rp3084
(dp3085
g21
I0
sbsba(ics475_types
Instance
p3086
(dp3087
g11
(ics475_types
FeatureVector
p3088
(dp3089
g14
(dp3090
I1
F1.0
sI2
F17.67
sI9
F1.0
sI13
F1.0
sI14
F86.0
sI17
F1.0
sI18
F1.0
sI20
F1.0
sI21
F1.0
sI24
F1.0
sI28
F1.0
ssbsg16
g0
(g17
g2
Ntp3091
Rp3092
(dp3093
g21
I0
sbsba(ics475_types
Instance
p3094
(dp3095
g11
(ics475_types
FeatureVector
p3096
(dp3097
g14
(dp3098
I32
F1.0
sI33
F1.0
sI2
F40.0
sI3
F6.5
sI4
F1.0
sI5
F1.0
sI8
F3.5
sI10
F1.0
sI11
F1.0
sI13
F1.0
sI15
F500.0
sI16
F1.0
sI21
F1.0
sI37
F1.0
ssbsg16
g0
(g17
g2
Ntp3099
Rp3100
(dp3101
g21
I1
sbsba(ics475_types
Instance
p3102
(dp3103
g11
(ics475_types
FeatureVector
p3104
(dp3105
g14
(dp3106
I1
F1.0
sI2
F16.08
sI3
F0.335
sI4
F1.0
sI5
F1.0
sI9
F1.0
sI10
F1.0
sI11
F1.0
sI13
F1.0
sI14
F160.0
sI15
F126.0
sI21
F1.0
sI23
F1.0
sI24
F1.0
ssbsg16
g0
(g17
g2
Ntp3107
Rp3108
(dp3109
g21
I0
sbsba(ics475_types
Instance
p3110
(dp3111
g11
(ics475_types
FeatureVector
p3112
(dp3113
g14
(dp3114
I33
F1.0
sI2
F44.25
sI3
F0.5
sI4
F1.0
sI5
F1.0
sI7
F1.0
sI8
F10.75
sI14
F400.0
sI16
F1.0
sI35
F1.0
sI20
F1.0
sI21
F1.0
sI22
F1.0
ssbsg16
g0
(g17
g2
Ntp3115
Rp3116
(dp3117
g21
I0
sbsba(ics475_types
Instance
p3118
(dp3119
g11
(ics475_types
FeatureVector
p3120
(dp3121
g14
(dp3122
I32
F1.0
sI33
F1.0
sI2
F34.25
sI3
F1.75
sI4
F1.0
sI5
F1.0
sI8
F0.25
sI12
F1.0
sI13
F1.0
sI14
F163.0
sI16
F1.0
sI20
F1.0
sI31
F1.0
ssbsg16
g0
(g17
g2
Ntp3123
Rp3124
(dp3125
g21
I0
sbsba(ics475_types
Instance
p3126
(dp3127
g11
(ics475_types
FeatureVector
p3128
(dp3129
g14
(dp3130
I2
F22.0
sI3
F0.79
sI4
F1.0
sI5
F1.0
sI7
F1.0
sI8
F0.29
sI9
F1.0
sI10
F1.0
sI11
F1.0
sI13
F1.0
sI14
F420.0
sI15
F283.0
sI16
F1.0
sI21
F1.0
sI31
F1.0
ssbsg16
g0
(g17
g2
Ntp3131
Rp3132
(dp3133
g21
I0
sbsba(ics475_types
Instance
p3134
(dp3135
g11
(ics475_types
FeatureVector
p3136
(dp3137
g14
(dp3138
I33
F1.0
sI2
F13.75
sI3
F4.0
sI7
F1.0
sI8
F1.75
sI10
F1.0
sI11
F2.0
sI12
F1.0
sI13
F1.0
sI14
F120.0
sI15
F1000.0
sI16
F1.0
sI17
F1.0
sI18
F1.0
sI31
F1.0
ssbsg16
g0
(g17
g2
Ntp3139
Rp3140
(dp3141
g21
I1
sbsba(ics475_types
Instance
p3142
(dp3143
g11
(ics475_types
FeatureVector
p3144
(dp3145
g14
(dp3146
I2
F19.17
sI3
F4.0
sI7
F1.0
sI8
F1.0
sI9
F1.0
sI12
F1.0
sI13
F1.0
sI14
F360.0
sI15
F1000.0
sI16
F1.0
sI17
F1.0
sI18
F1.0
sI20
F1.0
sI25
F1.0
ssbsg16
g0
(g17
g2
Ntp3147
Rp3148
(dp3149
g21
I0
sbsba(ics475_types
Instance
p3150
(dp3151
g11
(ics475_types
FeatureVector
p3152
(dp3153
g14
(dp3154
I1
F1.0
sI2
F28.58
sI3
F3.75
sI4
F1.0
sI5
F1.0
sI6
F1.0
sI7
F1.0
sI8
F0.25
sI9
F1.0
sI10
F1.0
sI11
F1.0
sI12
F1.0
sI13
F1.0
sI14
F40.0
sI15
F154.0
ssbsg16
g0
(g17
g2
Ntp3155
Rp3156
(dp3157
g21
I0
sbsba(ics475_types
Instance
p3158
(dp3159
g11
(ics475_types
FeatureVector
p3160
(dp3161
g14
(dp3162
I33
F1.0
sI2
F43.25
sI3
F3.0
sI4
F1.0
sI5
F1.0
sI8
F6.0
sI10
F1.0
sI11
F11.0
sI13
F1.0
sI14
F80.0
sI16
F1.0
sI21
F1.0
sI27
F1.0
sI30
F1.0
ssbsg16
g0
(g17
g2
Ntp3163
Rp3164
(dp3165
g21
I1
sbsba(ics475_types
Instance
p3166
(dp3167
g11
(ics475_types
FeatureVector
p3168
(dp3169
g14
(dp3170
I33
F1.0
sI2
F63.33
sI3
F0.54
sI4
F1.0
sI5
F1.0
sI6
F1.0
sI7
F1.0
sI8
F0.585
sI10
F1.0
sI11
F3.0
sI12
F1.0
sI13
F1.0
sI14
F180.0
sI16
F1.0
ssbsg16
g0
(g17
g2
Ntp3171
Rp3172
(dp3173
g21
I0
sbsba(ics475_types
Instance
p3174
(dp3175
g11
(ics475_types
FeatureVector
p3176
(dp3177
g14
(dp3178
I1
F1.0
sI2
F18.92
sI3
F9.0
sI4
F1.0
sI5
F1.0
sI7
F1.0
sI8
F0.75
sI10
F1.0
sI11
F2.0
sI13
F1.0
sI14
F88.0
sI15
F591.0
sI21
F1.0
sI33
F1.0
sI37
F1.0
ssbsg16
g0
(g17
g2
Ntp3179
Rp3180
(dp3181
g21
I1
sbsba(ics475_types
Instance
p3182
(dp3183
g11
(ics475_types
FeatureVector
p3184
(dp3185
g14
(dp3186
I33
F1.0
sI2
F31.67
sI3
F16.165
sI4
F1.0
sI5
F1.0
sI7
F1.0
sI8
F3.0
sI10
F1.0
sI11
F9.0
sI13
F1.0
sI14
F250.0
sI15
F730.0
sI16
F1.0
sI34
F1.0
sI21
F1.0
ssbsg16
g0
(g17
g2
Ntp3187
Rp3188
(dp3189
g21
I1
sbsba(ics475_types
Instance
p3190
(dp3191
g11
(ics475_types
FeatureVector
p3192
(dp3193
g14
(dp3194
I1
F1.0
sI2
F35.17
sI3
F3.75
sI4
F1.0
sI5
F1.0
sI9
F1.0
sI10
F1.0
sI11
F6.0
sI13
F1.0
sI15
F200.0
sI21
F1.0
sI23
F1.0
sI24
F1.0
ssbsg16
g0
(g17
g2
Ntp3195
Rp3196
(dp3197
g21
I0
sbsba(ics475_types
Instance
p3198
(dp3199
g11
(ics475_types
FeatureVector
p3200
(dp3201
g14
(dp3202
I2
F30.75
sI3
F1.585
sI4
F1.0
sI5
F1.0
sI7
F1.0
sI8
F0.585
sI9
F1.0
sI12
F1.0
sI34
F1.0
sI16
F1.0
sI20
F1.0
sI22
F1.0
ssbsg16
g0
(g17
g2
Ntp3203
Rp3204
(dp3205
g21
I0
sbsba(ics475_types
Instance
p3206
(dp3207
g11
(ics475_types
FeatureVector
p3208
(dp3209
g14
(dp3210
I1
F1.0
sI2
F25.25
sI3
F12.5
sI4
F1.0
sI5
F1.0
sI7
F1.0
sI8
F1.0
sI9
F1.0
sI12
F1.0
sI13
F1.0
sI14
F180.0
sI15
F1062.0
sI34
F1.0
sI20
F1.0
ssbsg16
g0
(g17
g2
Ntp3211
Rp3212
(dp3213
g21
I0
sbsba(ics475_types
Instance
p3214
(dp3215
g11
(ics475_types
FeatureVector
p3216
(dp3217
g14
(dp3218
I2
F36.17
sI3
F0.42
sI7
F1.0
sI8
F0.29
sI9
F1.0
sI12
F1.0
sI13
F1.0
sI14
F309.0
sI15
F2.0
sI16
F1.0
sI17
F1.0
sI18
F1.0
sI20
F1.0
sI31
F1.0
ssbsg16
g0
(g17
g2
Ntp3219
Rp3220
(dp3221
g21
I0
sbsba(ics475_types
Instance
p3222
(dp3223
g11
(ics475_types
FeatureVector
p3224
(dp3225
g14
(dp3226
I33
F1.0
sI2
F20.5
sI3
F10.0
sI6
F1.0
sI7
F1.0
sI8
F2.5
sI14
F40.0
sI16
F1.0
sI17
F1.0
sI18
F1.0
sI20
F1.0
sI21
F1.0
sI22
F1.0
ssbsg16
g0
(g17
g2
Ntp3227
Rp3228
(dp3229
g21
I1
sbsba(ics475_types
Instance
p3230
(dp3231
g11
(ics475_types
FeatureVector
p3232
(dp3233
g14
(dp3234
I33
F1.0
sI2
F37.75
sI3
F7.0
sI4
F1.0
sI5
F1.0
sI8
F11.5
sI10
F1.0
sI11
F7.0
sI12
F1.0
sI13
F1.0
sI14
F300.0
sI15
F5.0
sI16
F1.0
sI27
F1.0
sI30
F1.0
ssbsg16
g0
(g17
g2
Ntp3235
Rp3236
(dp3237
g21
I0
sbsba(ics475_types
Instance
p3238
(dp3239
g11
(ics475_types
FeatureVector
p3240
(dp3241
g14
(dp3242
I1
F1.0
sI2
F27.67
sI3
F2.04
sI4
F1.0
sI5
F1.0
sI7
F1.0
sI8
F0.25
sI9
F1.0
sI12
F1.0
sI13
F1.0
sI14
F180.0
sI15
F50.0
sI20
F1.0
sI31
F1.0
ssbsg16
g0
(g17
g2
Ntp3243
Rp3244
(dp3245
g21
I0
sbsba(ics475_types
Instance
p3246
(dp3247
g11
(ics475_types
FeatureVector
p3248
(dp3249
g14
(dp3250
I2
F20.67
sI3
F0.415
sI4
F1.0
sI5
F1.0
sI6
F1.0
sI7
F1.0
sI8
F0.125
sI9
F1.0
sI13
F1.0
sI15
F44.0
sI16
F1.0
sI20
F1.0
sI21
F1.0
ssbsg16
g0
(g17
g2
Ntp3251
Rp3252
(dp3253
g21
I0
sbsba(ics475_types
Instance
p3254
(dp3255
g11
(ics475_types
FeatureVector
p3256
(dp3257
g14
(dp3258
I2
F32.33
sI3
F3.5
sI4
F1.0
sI5
F1.0
sI7
F1.0
sI8
F0.5
sI9
F1.0
sI12
F1.0
sI13
F1.0
sI14
F232.0
sI16
F1.0
sI19
F1.0
sI20
F1.0
ssbsg16
g0
(g17
g2
Ntp3259
Rp3260
(dp3261
g21
I0
sbsba(ics475_types
Instance
p3262
(dp3263
g11
(ics475_types
FeatureVector
p3264
(dp3265
g14
(dp3266
I2
F22.25
sI3
F0.46
sI4
F1.0
sI5
F1.0
sI7
F1.0
sI8
F0.125
sI9
F1.0
sI12
F1.0
sI13
F1.0
sI14
F280.0
sI15
F55.0
sI16
F1.0
sI19
F1.0
sI20
F1.0
ssbsg16
g0
(g17
g2
Ntp3267
Rp3268
(dp3269
g21
I0
sbsba(ics475_types
Instance
p3270
(dp3271
g11
(ics475_types
FeatureVector
p3272
(dp3273
g14
(dp3274
I32
F1.0
sI1
F1.0
sI2
F21.25
sI3
F2.335
sI4
F1.0
sI5
F1.0
sI33
F1.0
sI8
F0.5
sI10
F1.0
sI11
F4.0
sI14
F80.0
sI21
F1.0
sI22
F1.0
sI25
F1.0
ssbsg16
g0
(g17
g2
Ntp3275
Rp3276
(dp3277
g21
I1
sbsba(ics475_types
Instance
p3278
(dp3279
g11
(ics475_types
FeatureVector
p3280
(dp3281
g14
(dp3282
I33
F1.0
sI2
F25.0
sI3
F12.0
sI4
F1.0
sI5
F1.0
sI7
F1.0
sI8
F2.25
sI10
F1.0
sI11
F2.0
sI12
F1.0
sI13
F1.0
sI14
F120.0
sI15
F5.0
sI16
F1.0
sI19
F1.0
ssbsg16
g0
(g17
g2
Ntp3283
Rp3284
(dp3285
g21
I0
sbsba(ics475_types
Instance
p3286
(dp3287
g11
(ics475_types
FeatureVector
p3288
(dp3289
g14
(dp3290
I33
F1.0
sI2
F38.67
sI3
F0.21
sI4
F1.0
sI5
F1.0
sI7
F1.0
sI8
F0.085
sI12
F1.0
sI13
F1.0
sI14
F280.0
sI16
F1.0
sI19
F1.0
sI20
F1.0
ssbsg16
g0
(g17
g2
Ntp3291
Rp3292
(dp3293
g21
I1
sbsba(ics475_types
Instance
p3294
(dp3295
g11
(ics475_types
FeatureVector
p3296
(dp3297
g14
(dp3298
I33
F1.0
sI2
F56.0
sI3
F12.5
sI4
F1.0
sI5
F1.0
sI8
F8.0
sI12
F1.0
sI13
F1.0
sI14
F24.0
sI15
F2028.0
sI16
F1.0
sI19
F1.0
sI20
F1.0
sI27
F1.0
ssbsg16
g0
(g17
g2
Ntp3299
Rp3300
(dp3301
g21
I1
sbsba(ics475_types
Instance
p3302
(dp3303
g11
(ics475_types
FeatureVector
p3304
(dp3305
g14
(dp3306
I1
F1.0
sI2
F19.58
sI3
F0.665
sI4
F1.0
sI5
F1.0
sI7
F1.0
sI8
F1.665
sI9
F1.0
sI13
F1.0
sI14
F220.0
sI15
F5.0
sI20
F1.0
sI21
F1.0
sI31
F1.0
ssbsg16
g0
(g17
g2
Ntp3307
Rp3308
(dp3309
g21
I0
sbsba(ics475_types
Instance
p3310
(dp3311
g11
(ics475_types
FeatureVector
p3312
(dp3313
g14
(dp3314
I2
F29.83
sI3
F3.5
sI4
F1.0
sI5
F1.0
sI6
F1.0
sI7
F1.0
sI8
F0.165
sI9
F1.0
sI13
F1.0
sI14
F216.0
sI16
F1.0
sI20
F1.0
sI21
F1.0
ssbsg16
g0
(g17
g2
Ntp3315
Rp3316
(dp3317
g21
I0
sbsba(ics475_types
Instance
p3318
(dp3319
g11
(ics475_types
FeatureVector
p3320
(dp3321
g14
(dp3322
I33
F1.0
sI2
F23.08
sI3
F2.5
sI4
F1.0
sI5
F1.0
sI6
F1.0
sI7
F1.0
sI8
F1.085
sI10
F1.0
sI11
F11.0
sI12
F1.0
sI13
F1.0
sI14
F60.0
sI15
F2184.0
sI16
F1.0
ssbsg16
g0
(g17
g2
Ntp3323
Rp3324
(dp3325
g21
I1
sbsba(ics475_types
Instance
p3326
(dp3327
g11
(ics475_types
FeatureVector
p3328
(dp3329
g14
(dp3330
I1
F1.0
sI2
F38.92
sI3
F1.665
sI4
F1.0
sI5
F1.0
sI7
F1.0
sI8
F0.25
sI9
F1.0
sI13
F1.0
sI15
F390.0
sI20
F1.0
sI21
F1.0
sI37
F1.0
ssbsg16
g0
(g17
g2
Ntp3331
Rp3332
(dp3333
g21
I0
sbsba(ics475_types
Instance
p3334
(dp3335
g11
(ics475_types
FeatureVector
p3336
(dp3337
g14
(dp3338
I2
F39.17
sI3
F2.5
sI8
F10.0
sI9
F1.0
sI12
F1.0
sI14
F200.0
sI16
F1.0
sI17
F1.0
sI18
F1.0
sI20
F1.0
sI22
F1.0
sI25
F1.0
sI27
F1.0
ssbsg16
g0
(g17
g2
Ntp3339
Rp3340
(dp3341
g21
I0
sbsba(ics475_types
Instance
p3342
(dp3343
g11
(ics475_types
FeatureVector
p3344
(dp3345
g14
(dp3346
I2
F29.42
sI3
F1.25
sI4
F1.0
sI5
F1.0
sI6
F1.0
sI8
F0.25
sI9
F1.0
sI10
F1.0
sI11
F2.0
sI12
F1.0
sI13
F1.0
sI14
F400.0
sI15
F108.0
sI16
F1.0
sI27
F1.0
ssbsg16
g0
(g17
g2
Ntp3347
Rp3348
(dp3349
g21
I0
sbsba(ics475_types
Instance
p3350
(dp3351
g11
(ics475_types
FeatureVector
p3352
(dp3353
g14
(dp3354
I2
F23.08
sI4
F1.0
sI5
F1.0
sI7
F1.0
sI8
F1.0
sI9
F1.0
sI10
F1.0
sI11
F11.0
sI16
F1.0
sI19
F1.0
sI21
F1.0
sI22
F1.0
ssbsg16
g0
(g17
g2
Ntp3355
Rp3356
(dp3357
g21
I0
sbsba(ics475_types
Instance
p3358
(dp3359
g11
(ics475_types
FeatureVector
p3360
(dp3361
g14
(dp3362
I33
F1.0
sI2
F22.08
sI3
F11.0
sI4
F1.0
sI5
F1.0
sI7
F1.0
sI8
F0.665
sI13
F1.0
sI14
F100.0
sI16
F1.0
sI20
F1.0
sI21
F1.0
sI36
F1.0
ssbsg16
g0
(g17
g2
Ntp3363
Rp3364
(dp3365
g21
I1
sbsba(ics475_types
Instance
p3366
(dp3367
g11
(ics475_types
FeatureVector
p3368
(dp3369
g14
(dp3370
I33
F1.0
sI2
F21.67
sI3
F1.165
sI7
F1.0
sI8
F2.5
sI10
F1.0
sI11
F1.0
sI13
F1.0
sI14
F180.0
sI15
F20.0
sI16
F1.0
sI17
F1.0
sI18
F1.0
sI19
F1.0
sI21
F1.0
ssbsg16
g0
(g17
g2
Ntp3371
Rp3372
(dp3373
g21
I0
sbsba(ics475_types
Instance
p3374
(dp3375
g11
(ics475_types
FeatureVector
p3376
(dp3377
g14
(dp3378
I33
F1.0
sI2
F23.25
sI3
F1.5
sI4
F1.0
sI5
F1.0
sI7
F1.0
sI8
F2.375
sI10
F1.0
sI11
F3.0
sI12
F1.0
sI13
F1.0
sI15
F582.0
sI16
F1.0
sI30
F1.0
ssbsg16
g0
(g17
g2
Ntp3379
Rp3380
(dp3381
g21
I1
sbsba(ics475_types
Instance
p3382
(dp3383
g11
(ics475_types
FeatureVector
p3384
(dp3385
g14
(dp3386
I1
F1.0
sI2
F40.83
sI3
F10.0
sI4
F1.0
sI5
F1.0
sI33
F1.0
sI8
F1.75
sI13
F1.0
sI14
F29.0
sI15
F837.0
sI20
F1.0
sI21
F1.0
sI27
F1.0
sI30
F1.0
ssbsg16
g0
(g17
g2
Ntp3387
Rp3388
(dp3389
g21
I1
sbsba(ics475_types
Instance
p3390
(dp3391
g11
(ics475_types
FeatureVector
p3392
(dp3393
g14
(dp3394
I33
F1.0
sI2
F27.25
sI3
F0.625
sI4
F1.0
sI5
F1.0
sI7
F1.0
sI8
F0.455
sI12
F1.0
sI13
F1.0
sI14
F200.0
sI16
F1.0
sI20
F1.0
sI37
F1.0
ssbsg16
g0
(g17
g2
Ntp3395
Rp3396
(dp3397
g21
I0
sbsba(ics475_types
Instance
p3398
(dp3399
g11
(ics475_types
FeatureVector
p3400
(dp3401
g14
(dp3402
I1
F1.0
sI2
F21.75
sI3
F11.75
sI4
F1.0
sI5
F1.0
sI6
F1.0
sI7
F1.0
sI8
F0.25
sI9
F1.0
sI12
F1.0
sI13
F1.0
sI14
F180.0
sI20
F1.0
ssbsg16
g0
(g17
g2
Ntp3403
Rp3404
(dp3405
g21
I0
sbsba(ics475_types
Instance
p3406
(dp3407
g11
(ics475_types
FeatureVector
p3408
(dp3409
g14
(dp3410
I1
F1.0
sI2
F21.92
sI3
F11.665
sI4
F1.0
sI5
F1.0
sI8
F0.085
sI9
F1.0
sI13
F1.0
sI14
F320.0
sI15
F5.0
sI19
F1.0
sI20
F1.0
sI21
F1.0
sI27
F1.0
ssbsg16
g0
(g17
g2
Ntp3411
Rp3412
(dp3413
g21
I0
sbsba(ics475_types
Instance
p3414
(dp3415
g11
(ics475_types
FeatureVector
p3416
(dp3417
g14
(dp3418
I1
F1.0
sI2
F31.92
sI3
F3.125
sI4
F1.0
sI5
F1.0
sI8
F3.04
sI9
F1.0
sI10
F1.0
sI11
F2.0
sI12
F1.0
sI13
F1.0
sI14
F200.0
sI15
F4.0
sI23
F1.0
sI24
F1.0
ssbsg16
g0
(g17
g2
Ntp3419
Rp3420
(dp3421
g21
I0
sbsba(ics475_types
Instance
p3422
(dp3423
g11
(ics475_types
FeatureVector
p3424
(dp3425
g14
(dp3426
I33
F1.0
sI2
F29.92
sI3
F1.835
sI4
F1.0
sI5
F1.0
sI6
F1.0
sI8
F4.335
sI13
F1.0
sI14
F260.0
sI15
F200.0
sI16
F1.0
sI20
F1.0
sI21
F1.0
sI27
F1.0
ssbsg16
g0
(g17
g2
Ntp3427
Rp3428
(dp3429
g21
I1
sbsba(ics475_types
Instance
p3430
(dp3431
g11
(ics475_types
FeatureVector
p3432
(dp3433
g14
(dp3434
I1
F1.0
sI2
F21.75
sI3
F1.75
sI9
F1.0
sI13
F1.0
sI14
F160.0
sI17
F1.0
sI18
F1.0
sI20
F1.0
sI21
F1.0
sI28
F1.0
sI29
F1.0
ssbsg16
g0
(g17
g2
Ntp3435
Rp3436
(dp3437
g21
I0
sbsba(ics475_types
Instance
p3438
(dp3439
g11
(ics475_types
FeatureVector
p3440
(dp3441
g14
(dp3442
I2
F37.33
sI3
F2.665
sI4
F1.0
sI5
F1.0
sI7
F1.0
sI8
F0.165
sI9
F1.0
sI12
F1.0
sI13
F1.0
sI15
F501.0
sI16
F1.0
sI20
F1.0
sI36
F1.0
ssbsg16
g0
(g17
g2
Ntp3443
Rp3444
(dp3445
g21
I0
sbsba(ics475_types
Instance
p3446
(dp3447
g11
(ics475_types
FeatureVector
p3448
(dp3449
g14
(dp3450
I1
F1.0
sI2
F47.75
sI3
F8.0
sI4
F1.0
sI5
F1.0
sI6
F1.0
sI7
F1.0
sI8
F7.875
sI10
F1.0
sI11
F6.0
sI12
F1.0
sI13
F1.0
sI15
F1260.0
sI33
F1.0
ssbsg16
g0
(g17
g2
Ntp3451
Rp3452
(dp3453
g21
I1
sbsba(ics475_types
Instance
p3454
(dp3455
g11
(ics475_types
FeatureVector
p3456
(dp3457
g14
(dp3458
I1
F1.0
sI2
F22.5
sI3
F11.0
sI33
F1.0
sI7
F1.0
sI8
F3.0
sI12
F1.0
sI13
F1.0
sI14
F268.0
sI17
F1.0
sI18
F1.0
sI20
F1.0
sI30
F1.0
ssbsg16
g0
(g17
g2
Ntp3459
Rp3460
(dp3461
g21
I0
sbsba(ics475_types
Instance
p3462
(dp3463
g11
(ics475_types
FeatureVector
p3464
(dp3465
g14
(dp3466
I2
F29.5
sI3
F0.58
sI4
F1.0
sI5
F1.0
sI7
F1.0
sI8
F0.29
sI9
F1.0
sI10
F1.0
sI11
F1.0
sI13
F1.0
sI14
F340.0
sI15
F2803.0
sI16
F1.0
sI21
F1.0
sI31
F1.0
ssbsg16
g0
(g17
g2
Ntp3467
Rp3468
(dp3469
g21
I0
sbsba(ics475_types
Instance
p3470
(dp3471
g11
(ics475_types
FeatureVector
p3472
(dp3473
g14
(dp3474
I32
F1.0
sI33
F1.0
sI2
F51.33
sI3
F10.0
sI4
F1.0
sI5
F1.0
sI10
F1.0
sI11
F11.0
sI13
F1.0
sI15
F1249.0
sI16
F1.0
sI21
F1.0
sI25
F1.0
ssbsg16
g0
(g17
g2
Ntp3475
Rp3476
(dp3477
g21
I1
sbsba(ics475_types
Instance
p3478
(dp3479
g11
(ics475_types
FeatureVector
p3480
(dp3481
g14
(dp3482
I2
F24.08
sI3
F0.875
sI4
F1.0
sI5
F1.0
sI7
F1.0
sI8
F0.085
sI9
F1.0
sI10
F1.0
sI11
F4.0
sI13
F1.0
sI14
F254.0
sI15
F1950.0
sI16
F1.0
sI35
F1.0
sI21
F1.0
ssbsg16
g0
(g17
g2
Ntp3483
Rp3484
(dp3485
g21
I0
sbsba(ics475_types
Instance
p3486
(dp3487
g11
(ics475_types
FeatureVector
p3488
(dp3489
g14
(dp3490
I32
F1.0
sI2
F47.83
sI3
F4.165
sI4
F1.0
sI5
F1.0
sI39
F1.0
sI8
F0.085
sI9
F1.0
sI12
F1.0
sI13
F1.0
sI14
F520.0
sI16
F1.0
sI20
F1.0
ssbsg16
g0
(g17
g2
Ntp3491
Rp3492
(dp3493
g21
I0
sbsba(ics475_types
Instance
p3494
(dp3495
g11
(ics475_types
FeatureVector
p3496
(dp3497
g14
(dp3498
I2
F18.25
sI3
F0.165
sI4
F1.0
sI5
F1.0
sI7
F1.0
sI8
F0.25
sI9
F1.0
sI12
F1.0
sI34
F1.0
sI14
F280.0
sI16
F1.0
sI20
F1.0
sI22
F1.0
ssbsg16
g0
(g17
g2
Ntp3499
Rp3500
(dp3501
g21
I0
sbsba(ics475_types
Instance
p3502
(dp3503
g11
(ics475_types
FeatureVector
p3504
(dp3505
g14
(dp3506
I33
F1.0
sI2
F48.75
sI3
F26.335
sI12
F1.0
sI13
F1.0
sI16
F1.0
sI17
F1.0
sI18
F1.0
sI20
F1.0
sI23
F1.0
sI24
F1.0
ssbsg16
g0
(g17
g2
Ntp3507
Rp3508
(dp3509
g21
I0
sbsba(ics475_types
Instance
p3510
(dp3511
g11
(ics475_types
FeatureVector
p3512
(dp3513
g14
(dp3514
I33
F1.0
sI2
F34.75
sI3
F15.0
sI4
F1.0
sI5
F1.0
sI38
F1.0
sI8
F5.375
sI10
F1.0
sI11
F9.0
sI12
F1.0
sI13
F1.0
sI15
F134.0
sI16
F1.0
sI40
F1.0
ssbsg16
g0
(g17
g2
Ntp3515
Rp3516
(dp3517
g21
I1
sbsba(ics475_types
Instance
p3518
(dp3519
g11
(ics475_types
FeatureVector
p3520
(dp3521
g14
(dp3522
I1
F1.0
sI2
F18.83
sI3
F4.415
sI6
F1.0
sI33
F1.0
sI8
F3.0
sI13
F1.0
sI14
F240.0
sI17
F1.0
sI18
F1.0
sI20
F1.0
sI21
F1.0
sI27
F1.0
ssbsg16
g0
(g17
g2
Ntp3523
Rp3524
(dp3525
g21
I1
sbsba(ics475_types
Instance
p3526
(dp3527
g11
(ics475_types
FeatureVector
p3528
(dp3529
g14
(dp3530
I2
F21.25
sI3
F1.5
sI4
F1.0
sI5
F1.0
sI7
F1.0
sI8
F1.5
sI9
F1.0
sI13
F1.0
sI14
F150.0
sI15
F8.0
sI16
F1.0
sI20
F1.0
sI21
F1.0
sI31
F1.0
ssbsg16
g0
(g17
g2
Ntp3531
Rp3532
(dp3533
g21
I1
sbsba(ics475_types
Instance
p3534
(dp3535
g11
(ics475_types
FeatureVector
p3536
(dp3537
g14
(dp3538
I33
F1.0
sI2
F48.58
sI3
F6.5
sI4
F1.0
sI5
F1.0
sI8
F6.0
sI12
F1.0
sI13
F1.0
sI14
F350.0
sI16
F1.0
sI20
F1.0
sI27
F1.0
sI30
F1.0
ssbsg16
g0
(g17
g2
Ntp3539
Rp3540
(dp3541
g21
I1
sbsba(ics475_types
Instance
p3542
(dp3543
g11
(ics475_types
FeatureVector
p3544
(dp3545
g14
(dp3546
I32
F1.0
sI33
F1.0
sI2
F25.75
sI3
F0.75
sI4
F1.0
sI5
F1.0
sI6
F1.0
sI8
F0.25
sI13
F1.0
sI14
F349.0
sI15
F23.0
sI16
F1.0
sI20
F1.0
sI21
F1.0
ssbsg16
g0
(g17
g2
Ntp3547
Rp3548
(dp3549
g21
I1
sbsba(ics475_types
Instance
p3550
(dp3551
g11
(ics475_types
FeatureVector
p3552
(dp3553
g14
(dp3554
I1
F1.0
sI2
F46.08
sI3
F3.0
sI4
F1.0
sI5
F1.0
sI6
F1.0
sI7
F1.0
sI8
F2.375
sI10
F1.0
sI11
F8.0
sI12
F1.0
sI13
F1.0
sI14
F396.0
sI15
F4159.0
sI33
F1.0
ssbsg16
g0
(g17
g2
Ntp3555
Rp3556
(dp3557
g21
I1
sbsba(ics475_types
Instance
p3558
(dp3559
g11
(ics475_types
FeatureVector
p3560
(dp3561
g14
(dp3562
I2
F30.33
sI3
F0.5
sI4
F1.0
sI5
F1.0
sI8
F0.085
sI9
F1.0
sI12
F1.0
sI34
F1.0
sI14
F252.0
sI16
F1.0
sI20
F1.0
sI22
F1.0
sI27
F1.0
ssbsg16
g0
(g17
g2
Ntp3563
Rp3564
(dp3565
g21
I0
sbsba(ics475_types
Instance
p3566
(dp3567
g11
(ics475_types
FeatureVector
p3568
(dp3569
g14
(dp3570
I33
F1.0
sI2
F34.0
sI3
F4.5
sI4
F1.0
sI5
F1.0
sI7
F1.0
sI8
F1.0
sI12
F1.0
sI13
F1.0
sI14
F240.0
sI16
F1.0
sI20
F1.0
sI37
F1.0
ssbsg16
g0
(g17
g2
Ntp3571
Rp3572
(dp3573
g21
I0
sbsba(ics475_types
Instance
p3574
(dp3575
g11
(ics475_types
FeatureVector
p3576
(dp3577
g14
(dp3578
I33
F1.0
sI2
F24.58
sI3
F12.5
sI4
F1.0
sI5
F1.0
sI7
F1.0
sI8
F0.875
sI12
F1.0
sI13
F1.0
sI14
F260.0
sI16
F1.0
sI20
F1.0
sI31
F1.0
ssbsg16
g0
(g17
g2
Ntp3579
Rp3580
(dp3581
g21
I0
sbsba(ics475_types
Instance
p3582
(dp3583
g11
(ics475_types
FeatureVector
p3584
(dp3585
g14
(dp3586
I2
F32.33
sI3
F2.5
sI4
F1.0
sI5
F1.0
sI6
F1.0
sI7
F1.0
sI8
F1.25
sI9
F1.0
sI12
F1.0
sI13
F1.0
sI14
F280.0
sI16
F1.0
sI20
F1.0
ssbsg16
g0
(g17
g2
Ntp3587
Rp3588
(dp3589
g21
I0
sbsba(ics475_types
Instance
p3590
(dp3591
g11
(ics475_types
FeatureVector
p3592
(dp3593
g14
(dp3594
I33
F1.0
sI2
F20.42
sI3
F1.835
sI4
F1.0
sI5
F1.0
sI6
F1.0
sI7
F1.0
sI8
F2.25
sI10
F1.0
sI11
F1.0
sI13
F1.0
sI14
F100.0
sI15
F150.0
sI16
F1.0
sI21
F1.0
ssbsg16
g0
(g17
g2
Ntp3595
Rp3596
(dp3597
g21
I1
sbsba(ics475_types
Instance
p3598
(dp3599
g11
(ics475_types
FeatureVector
p3600
(dp3601
g14
(dp3602
I33
F1.0
sI2
F29.17
sI3
F3.5
sI4
F1.0
sI5
F1.0
sI7
F1.0
sI8
F3.5
sI10
F1.0
sI11
F3.0
sI12
F1.0
sI13
F1.0
sI14
F329.0
sI16
F1.0
sI31
F1.0
ssbsg16
g0
(g17
g2
Ntp3603
Rp3604
(dp3605
g21
I0
sbsba(ics475_types
Instance
p3606
(dp3607
g11
(ics475_types
FeatureVector
p3608
(dp3609
g14
(dp3610
I2
F51.83
sI3
F3.0
sI8
F1.5
sI9
F1.0
sI13
F1.0
sI14
F180.0
sI15
F4.0
sI16
F1.0
sI17
F1.0
sI18
F1.0
sI20
F1.0
sI21
F1.0
sI23
F1.0
sI24
F1.0
ssbsg16
g0
(g17
g2
Ntp3611
Rp3612
(dp3613
g21
I0
sbsba(ics475_types
Instance
p3614
(dp3615
g11
(ics475_types
FeatureVector
p3616
(dp3617
g14
(dp3618
I1
F1.0
sI2
F29.5
sI3
F0.46
sI4
F1.0
sI5
F1.0
sI7
F1.0
sI8
F0.54
sI10
F1.0
sI11
F4.0
sI13
F1.0
sI14
F380.0
sI15
F500.0
sI19
F1.0
sI21
F1.0
sI33
F1.0
ssbsg16
g0
(g17
g2
Ntp3619
Rp3620
(dp3621
g21
I1
sbsba(ics475_types
Instance
p3622
(dp3623
g11
(ics475_types
FeatureVector
p3624
(dp3625
g14
(dp3626
I2
F33.58
sI3
F0.335
sI36
F1.0
sI7
F1.0
sI8
F0.085
sI9
F1.0
sI13
F1.0
sI14
F180.0
sI16
F1.0
sI17
F1.0
sI18
F1.0
sI20
F1.0
sI21
F1.0
ssbsg16
g0
(g17
g2
Ntp3627
Rp3628
(dp3629
g21
I0
sbsba(ics475_types
Instance
p3630
(dp3631
g11
(ics475_types
FeatureVector
p3632
(dp3633
g14
(dp3634
I1
F1.0
sI2
F45.83
sI3
F10.5
sI4
F1.0
sI5
F1.0
sI7
F1.0
sI8
F5.0
sI10
F1.0
sI11
F7.0
sI12
F1.0
sI13
F1.0
sI33
F1.0
sI30
F1.0
ssbsg16
g0
(g17
g2
Ntp3635
Rp3636
(dp3637
g21
I1
sbsba(ics475_types
Instance
p3638
(dp3639
g11
(ics475_types
FeatureVector
p3640
(dp3641
g14
(dp3642
I2
F48.08
sI3
F6.04
sI4
F1.0
sI5
F1.0
sI7
F1.0
sI8
F0.04
sI9
F1.0
sI13
F1.0
sI15
F2690.0
sI16
F1.0
sI19
F1.0
sI20
F1.0
sI21
F1.0
ssbsg16
g0
(g17
g2
Ntp3643
Rp3644
(dp3645
g21
I1
sbsba(ics475_types
Instance
p3646
(dp3647
g11
(ics475_types
FeatureVector
p3648
(dp3649
g14
(dp3650
I32
F1.0
sI2
F33.58
sI3
F0.25
sI4
F1.0
sI5
F1.0
sI8
F4.0
sI9
F1.0
sI12
F1.0
sI14
F420.0
sI16
F1.0
sI20
F1.0
sI22
F1.0
sI25
F1.0
ssbsg16
g0
(g17
g2
Ntp3651
Rp3652
(dp3653
g21
I0
sbsba(ics475_types
Instance
p3654
(dp3655
g11
(ics475_types
FeatureVector
p3656
(dp3657
g14
(dp3658
I32
F1.0
sI2
F34.42
sI3
F1.335
sI4
F1.0
sI5
F1.0
sI8
F0.125
sI9
F1.0
sI12
F1.0
sI13
F1.0
sI14
F440.0
sI15
F4500.0
sI16
F1.0
sI20
F1.0
sI25
F1.0
ssbsg16
g0
(g17
g2
Ntp3659
Rp3660
(dp3661
g21
I0
sbsba(ics475_types
Instance
p3662
(dp3663
g11
(ics475_types
FeatureVector
p3664
(dp3665
g14
(dp3666
I2
F22.5
sI3
F0.125
sI7
F1.0
sI8
F0.125
sI9
F1.0
sI13
F1.0
sI14
F200.0
sI15
F70.0
sI16
F1.0
sI17
F1.0
sI18
F1.0
sI19
F1.0
sI20
F1.0
sI21
F1.0
ssbsg16
g0
(g17
g2
Ntp3667
Rp3668
(dp3669
g21
I0
sbsba(ics475_types
Instance
p3670
(dp3671
g11
(ics475_types
FeatureVector
p3672
(dp3673
g14
(dp3674
I1
F1.0
sI2
F68.67
sI3
F15.0
sI4
F1.0
sI5
F1.0
sI33
F1.0
sI41
F1.0
sI10
F1.0
sI11
F14.0
sI13
F1.0
sI15
F3376.0
sI21
F1.0
sI42
F1.0
ssbsg16
g0
(g17
g2
Ntp3675
Rp3676
(dp3677
g21
I1
sbsba(ics475_types
Instance
p3678
(dp3679
g11
(ics475_types
FeatureVector
p3680
(dp3681
g14
(dp3682
I1
F1.0
sI2
F30.25
sI3
F5.5
sI4
F1.0
sI5
F1.0
sI7
F1.0
sI8
F5.5
sI9
F1.0
sI12
F1.0
sI14
F100.0
sI19
F1.0
sI20
F1.0
sI22
F1.0
ssbsg16
g0
(g17
g2
Ntp3683
Rp3684
(dp3685
g21
I0
sbsba(ics475_types
Instance
p3686
(dp3687
g11
(ics475_types
FeatureVector
p3688
(dp3689
g14
(dp3690
I32
F1.0
sI2
F19.17
sI35
F1.0
sI9
F1.0
sI12
F1.0
sI14
F500.0
sI15
F1.0
sI16
F1.0
sI17
F1.0
sI18
F1.0
sI20
F1.0
sI22
F1.0
ssbsg16
g0
(g17
g2
Ntp3691
Rp3692
(dp3693
g21
I1
sbsba(ics475_types
Instance
p3694
(dp3695
g11
(ics475_types
FeatureVector
p3696
(dp3697
g14
(dp3698
I33
F1.0
sI2
F28.25
sI3
F5.125
sI4
F1.0
sI5
F1.0
sI7
F1.0
sI8
F4.75
sI10
F1.0
sI11
F2.0
sI13
F1.0
sI14
F420.0
sI15
F7.0
sI16
F1.0
sI21
F1.0
sI39
F1.0
ssbsg16
g0
(g17
g2
Ntp3699
Rp3700
(dp3701
g21
I1
sbsba(ics475_types
Instance
p3702
(dp3703
g11
(ics475_types
FeatureVector
p3704
(dp3705
g14
(dp3706
I33
F1.0
sI2
F23.92
sI3
F1.5
sI4
F1.0
sI5
F1.0
sI8
F1.875
sI10
F1.0
sI11
F6.0
sI13
F1.0
sI14
F200.0
sI15
F327.0
sI16
F1.0
sI34
F1.0
sI21
F1.0
sI27
F1.0
ssbsg16
g0
(g17
g2
Ntp3707
Rp3708
(dp3709
g21
I1
sbsba(ics475_types
Instance
p3710
(dp3711
g11
(ics475_types
FeatureVector
p3712
(dp3713
g14
(dp3714
I2
F25.58
sI3
F0.335
sI4
F1.0
sI5
F1.0
sI8
F3.5
sI9
F1.0
sI12
F1.0
sI13
F1.0
sI14
F340.0
sI16
F1.0
sI19
F1.0
sI20
F1.0
sI27
F1.0
ssbsg16
g0
(g17
g2
Ntp3715
Rp3716
(dp3717
g21
I0
sbsba(ics475_types
Instance
p3718
(dp3719
g11
(ics475_types
FeatureVector
p3720
(dp3721
g14
(dp3722
I33
F1.0
sI2
F51.42
sI3
F0.04
sI4
F1.0
sI5
F1.0
sI39
F1.0
sI8
F0.04
sI13
F1.0
sI15
F3000.0
sI16
F1.0
sI20
F1.0
sI21
F1.0
sI27
F1.0
ssbsg16
g0
(g17
g2
Ntp3723
Rp3724
(dp3725
g21
I1
sbsba(ics475_types
Instance
p3726
(dp3727
g11
(ics475_types
FeatureVector
p3728
(dp3729
g14
(dp3730
I1
F1.0
sI2
F23.58
sI3
F0.585
sI8
F0.125
sI9
F1.0
sI13
F1.0
sI14
F120.0
sI15
F87.0
sI17
F1.0
sI18
F1.0
sI20
F1.0
sI21
F1.0
sI23
F1.0
sI24
F1.0
ssbsg16
g0
(g17
g2
Ntp3731
Rp3732
(dp3733
g21
I0
sbsba(ics475_types
Instance
p3734
(dp3735
g11
(ics475_types
FeatureVector
p3736
(dp3737
g14
(dp3738
I33
F1.0
sI2
F36.67
sI3
F4.415
sI7
F1.0
sI8
F0.25
sI10
F1.0
sI11
F10.0
sI12
F1.0
sI13
F1.0
sI14
F320.0
sI16
F1.0
sI17
F1.0
sI18
F1.0
sI19
F1.0
ssbsg16
g0
(g17
g2
Ntp3739
Rp3740
(dp3741
g21
I1
sbsba(ics475_types
Instance
p3742
(dp3743
g11
(ics475_types
FeatureVector
p3744
(dp3745
g14
(dp3746
I2
F30.17
sI3
F1.085
sI6
F1.0
sI7
F1.0
sI8
F0.04
sI9
F1.0
sI13
F1.0
sI14
F170.0
sI15
F179.0
sI16
F1.0
sI17
F1.0
sI18
F1.0
sI20
F1.0
sI21
F1.0
ssbsg16
g0
(g17
g2
Ntp3747
Rp3748
(dp3749
g21
I0
sbsba(ics475_types
Instance
p3750
(dp3751
g11
(ics475_types
FeatureVector
p3752
(dp3753
g14
(dp3754
I2
F50.75
sI3
F0.585
sI4
F1.0
sI5
F1.0
sI9
F1.0
sI13
F1.0
sI14
F145.0
sI16
F1.0
sI20
F1.0
sI21
F1.0
sI23
F1.0
sI24
F1.0
ssbsg16
g0
(g17
g2
Ntp3755
Rp3756
(dp3757
g21
I0
sbsba(ics475_types
Instance
p3758
(dp3759
g11
(ics475_types
FeatureVector
p3760
(dp3761
g14
(dp3762
I1
F1.0
sI2
F20.75
sI3
F9.54
sI4
F1.0
sI5
F1.0
sI7
F1.0
sI8
F0.04
sI9
F1.0
sI13
F1.0
sI14
F200.0
sI15
F1000.0
sI20
F1.0
sI21
F1.0
sI25
F1.0
ssbsg16
g0
(g17
g2
Ntp3763
Rp3764
(dp3765
g21
I0
sbsba(ics475_types
Instance
p3766
(dp3767
g11
(ics475_types
FeatureVector
p3768
(dp3769
g14
(dp3770
I33
F1.0
sI2
F49.58
sI3
F19.0
sI4
F1.0
sI5
F1.0
sI10
F1.0
sI11
F1.0
sI13
F1.0
sI14
F94.0
sI16
F1.0
sI21
F1.0
sI23
F1.0
sI24
F1.0
ssbsg16
g0
(g17
g2
Ntp3771
Rp3772
(dp3773
g21
I0
sbsba(ics475_types
Instance
p3774
(dp3775
g11
(ics475_types
FeatureVector
p3776
(dp3777
g14
(dp3778
I2
F39.5
sI3
F1.625
sI4
F1.0
sI5
F1.0
sI6
F1.0
sI7
F1.0
sI8
F1.5
sI9
F1.0
sI13
F1.0
sI15
F316.0
sI16
F1.0
sI20
F1.0
sI21
F1.0
ssbsg16
g0
(g17
g2
Ntp3779
Rp3780
(dp3781
g21
I0
sbsba(ics475_types
Instance
p3782
(dp3783
g11
(ics475_types
FeatureVector
p3784
(dp3785
g14
(dp3786
I1
F1.0
sI2
F23.0
sI3
F11.75
sI4
F1.0
sI5
F1.0
sI33
F1.0
sI8
F0.5
sI10
F1.0
sI11
F2.0
sI12
F1.0
sI13
F1.0
sI14
F300.0
sI15
F551.0
sI39
F1.0
sI27
F1.0
ssbsg16
g0
(g17
g2
Ntp3787
Rp3788
(dp3789
g21
I1
sbsba(ics475_types
Instance
p3790
(dp3791
g11
(ics475_types
FeatureVector
p3792
(dp3793
g14
(dp3794
I1
F1.0
sI2
F36.75
sI3
F5.125
sI4
F1.0
sI5
F1.0
sI7
F1.0
sI8
F5.0
sI41
F1.0
sI12
F1.0
sI13
F1.0
sI15
F4000.0
sI20
F1.0
sI33
F1.0
ssbsg16
g0
(g17
g2
Ntp3795
Rp3796
(dp3797
g21
I1
sbsba(ics475_types
Instance
p3798
(dp3799
g11
(ics475_types
FeatureVector
p3800
(dp3801
g14
(dp3802
I2
F36.75
sI3
F0.125
sI6
F1.0
sI7
F1.0
sI8
F1.5
sI9
F1.0
sI12
F1.0
sI13
F1.0
sI14
F232.0
sI15
F113.0
sI16
F1.0
sI17
F1.0
sI18
F1.0
sI20
F1.0
ssbsg16
g0
(g17
g2
Ntp3803
Rp3804
(dp3805
g21
I1
sbsba(ics475_types
Instance
p3806
(dp3807
g11
(ics475_types
FeatureVector
p3808
(dp3809
g14
(dp3810
I2
F22.75
sI3
F11.5
sI4
F1.0
sI5
F1.0
sI7
F1.0
sI8
F0.415
sI9
F1.0
sI13
F1.0
sI16
F1.0
sI20
F1.0
sI21
F1.0
sI25
F1.0
ssbsg16
g0
(g17
g2
Ntp3811
Rp3812
(dp3813
g21
I0
sbsba(ics475_types
Instance
p3814
(dp3815
g11
(ics475_types
FeatureVector
p3816
(dp3817
g14
(dp3818
I33
F1.0
sI2
F37.33
sI3
F6.5
sI4
F1.0
sI5
F1.0
sI8
F4.25
sI10
F1.0
sI11
F12.0
sI12
F1.0
sI13
F1.0
sI14
F93.0
sI16
F1.0
sI35
F1.0
sI27
F1.0
ssbsg16
g0
(g17
g2
Ntp3819
Rp3820
(dp3821
g21
I1
sbsba(ics475_types
Instance
p3822
(dp3823
g11
(ics475_types
FeatureVector
p3824
(dp3825
g14
(dp3826
I33
F1.0
sI2
F23.58
sI3
F0.46
sI7
F1.0
sI8
F2.625
sI10
F1.0
sI11
F6.0
sI12
F1.0
sI13
F1.0
sI14
F208.0
sI15
F347.0
sI16
F1.0
sI17
F1.0
sI18
F1.0
sI31
F1.0
ssbsg16
g0
(g17
g2
Ntp3827
Rp3828
(dp3829
g21
I0
sbsba(ics475_types
Instance
p3830
(dp3831
g11
(ics475_types
FeatureVector
p3832
(dp3833
g14
(dp3834
I2
F22.5
sI3
F11.5
sI7
F1.0
sI8
F1.5
sI9
F1.0
sI12
F1.0
sI13
F1.0
sI15
F4000.0
sI16
F1.0
sI17
F1.0
sI18
F1.0
sI35
F1.0
sI20
F1.0
ssbsg16
g0
(g17
g2
Ntp3835
Rp3836
(dp3837
g21
I0
sbsba(ics475_types
Instance
p3838
(dp3839
g11
(ics475_types
FeatureVector
p3840
(dp3841
g14
(dp3842
I1
F1.0
sI2
F18.58
sI3
F10.0
sI4
F1.0
sI5
F1.0
sI7
F1.0
sI8
F0.415
sI9
F1.0
sI13
F1.0
sI14
F80.0
sI15
F42.0
sI34
F1.0
sI20
F1.0
sI21
F1.0
ssbsg16
g0
(g17
g2
Ntp3843
Rp3844
(dp3845
g21
I0
sbsba(ics475_types
Instance
p3846
(dp3847
g11
(ics475_types
FeatureVector
p3848
(dp3849
g14
(dp3850
I32
F1.0
sI1
F1.0
sI2
F33.75
sI3
F0.75
sI4
F1.0
sI5
F1.0
sI33
F1.0
sI8
F1.0
sI10
F1.0
sI11
F3.0
sI12
F1.0
sI13
F1.0
sI14
F212.0
sI19
F1.0
ssbsg16
g0
(g17
g2
Ntp3851
Rp3852
(dp3853
g21
I0
sbsba(ics475_types
Instance
p3854
(dp3855
g11
(ics475_types
FeatureVector
p3856
(dp3857
g14
(dp3858
I1
F1.0
sI2
F36.0
sI3
F1.0
sI4
F1.0
sI5
F1.0
sI6
F1.0
sI7
F1.0
sI8
F2.0
sI10
F1.0
sI11
F11.0
sI13
F1.0
sI15
F456.0
sI21
F1.0
sI33
F1.0
ssbsg16
g0
(g17
g2
Ntp3859
Rp3860
(dp3861
g21
I1
sbsba(ics475_types
Instance
p3862
(dp3863
g11
(ics475_types
FeatureVector
p3864
(dp3865
g14
(dp3866
I2
F31.83
sI3
F0.04
sI7
F1.0
sI8
F0.04
sI9
F1.0
sI13
F1.0
sI16
F1.0
sI17
F1.0
sI18
F1.0
sI35
F1.0
sI20
F1.0
sI21
F1.0
ssbsg16
g0
(g17
g2
Ntp3867
Rp3868
(dp3869
g21
I0
sbsba(ics475_types
Instance
p3870
(dp3871
g11
(ics475_types
FeatureVector
p3872
(dp3873
g14
(dp3874
I33
F1.0
sI2
F59.67
sI3
F1.54
sI4
F1.0
sI5
F1.0
sI7
F1.0
sI8
F0.125
sI12
F1.0
sI13
F1.0
sI14
F260.0
sI16
F1.0
sI20
F1.0
sI30
F1.0
ssbsg16
g0
(g17
g2
Ntp3875
Rp3876
(dp3877
g21
I1
sbsba(ics475_types
Instance
p3878
(dp3879
g11
(ics475_types
FeatureVector
p3880
(dp3881
g14
(dp3882
I2
F42.75
sI3
F4.085
sI4
F1.0
sI5
F1.0
sI7
F1.0
sI8
F0.04
sI9
F1.0
sI13
F1.0
sI14
F108.0
sI15
F100.0
sI16
F1.0
sI20
F1.0
sI21
F1.0
sI37
F1.0
ssbsg16
g0
(g17
g2
Ntp3883
Rp3884
(dp3885
g21
I0
sbsba(ics475_types
Instance
p3886
(dp3887
g11
(ics475_types
FeatureVector
p3888
(dp3889
g14
(dp3890
I33
F1.0
sI2
F76.75
sI3
F22.29
sI4
F1.0
sI5
F1.0
sI8
F12.75
sI41
F1.0
sI10
F1.0
sI11
F1.0
sI12
F1.0
sI13
F1.0
sI15
F109.0
sI16
F1.0
sI42
F1.0
ssbsg16
g0
(g17
g2
Ntp3891
Rp3892
(dp3893
g21
I1
sbsba(ics475_types
Instance
p3894
(dp3895
g11
(ics475_types
FeatureVector
p3896
(dp3897
g14
(dp3898
I33
F1.0
sI2
F21.33
sI3
F10.5
sI4
F1.0
sI5
F1.0
sI6
F1.0
sI7
F1.0
sI8
F3.0
sI12
F1.0
sI13
F1.0
sI16
F1.0
sI20
F1.0
ssbsg16
g0
(g17
g2
Ntp3899
Rp3900
(dp3901
g21
I1
sbsba(ics475_types
Instance
p3902
(dp3903
g11
(ics475_types
FeatureVector
p3904
(dp3905
g14
(dp3906
I33
F1.0
sI2
F30.17
sI3
F6.5
sI4
F1.0
sI5
F1.0
sI7
F1.0
sI8
F3.125
sI10
F1.0
sI11
F8.0
sI13
F1.0
sI14
F330.0
sI15
F1200.0
sI16
F1.0
sI21
F1.0
sI36
F1.0
ssbsg16
g0
(g17
g2
Ntp3907
Rp3908
(dp3909
g21
I1
sbsba(ics475_types
Instance
p3910
(dp3911
g11
(ics475_types
FeatureVector
p3912
(dp3913
g14
(dp3914
I1
F1.0
sI2
F26.92
sI3
F13.5
sI4
F1.0
sI5
F1.0
sI33
F1.0
sI8
F5.0
sI10
F1.0
sI11
F2.0
sI13
F1.0
sI15
F5000.0
sI21
F1.0
sI27
F1.0
sI30
F1.0
ssbsg16
g0
(g17
g2
Ntp3915
Rp3916
(dp3917
g21
I1
sbsba(ics475_types
Instance
p3918
(dp3919
g11
(ics475_types
FeatureVector
p3920
(dp3921
g14
(dp3922
I32
F1.0
sI33
F1.0
sI2
F49.5
sI3
F7.585
sI4
F1.0
sI5
F1.0
sI8
F7.585
sI10
F1.0
sI11
F15.0
sI12
F1.0
sI13
F1.0
sI15
F5000.0
sI16
F1.0
sI25
F1.0
ssbsg16
g0
(g17
g2
Ntp3923
Rp3924
(dp3925
g21
I1
sbsba(ics475_types
Instance
p3926
(dp3927
g11
(ics475_types
FeatureVector
p3928
(dp3929
g14
(dp3930
I1
F1.0
sI2
F38.58
sI3
F5.0
sI4
F1.0
sI5
F1.0
sI7
F1.0
sI8
F13.5
sI12
F1.0
sI13
F1.0
sI14
F980.0
sI20
F1.0
sI36
F1.0
sI33
F1.0
ssbsg16
g0
(g17
g2
Ntp3931
Rp3932
(dp3933
g21
I0
sbsba(ics475_types
Instance
p3934
(dp3935
g11
(ics475_types
FeatureVector
p3936
(dp3937
g14
(dp3938
I2
F33.67
sI3
F2.165
sI4
F1.0
sI5
F1.0
sI6
F1.0
sI7
F1.0
sI8
F1.5
sI9
F1.0
sI46
F1.0
sI14
F120.0
sI16
F1.0
sI20
F1.0
sI21
F1.0
ssbsg16
g0
(g17
g2
Ntp3939
Rp3940
(dp3941
g21
I0
sbsba(ics475_types
Instance
p3942
(dp3943
g11
(ics475_types
FeatureVector
p3944
(dp3945
g14
(dp3946
I2
F19.5
sI3
F0.29
sI4
F1.0
sI5
F1.0
sI7
F1.0
sI8
F0.29
sI9
F1.0
sI13
F1.0
sI14
F280.0
sI15
F364.0
sI16
F1.0
sI19
F1.0
sI20
F1.0
sI21
F1.0
ssbsg16
g0
(g17
g2
Ntp3947
Rp3948
(dp3949
g21
I0
sbsba(ics475_types
Instance
p3950
(dp3951
g11
(ics475_types
FeatureVector
p3952
(dp3953
g14
(dp3954
I32
F1.0
sI33
F1.0
sI2
F28.25
sI3
F5.04
sI6
F1.0
sI8
F1.5
sI10
F1.0
sI11
F8.0
sI12
F1.0
sI13
F1.0
sI14
F144.0
sI15
F7.0
sI16
F1.0
sI17
F1.0
sI18
F1.0
ssbsg16
g0
(g17
g2
Ntp3955
Rp3956
(dp3957
g21
I1
sbsba(ics475_types
Instance
p3958
(dp3959
g11
(ics475_types
FeatureVector
p3960
(dp3961
g14
(dp3962
I1
F1.0
sI2
F22.67
sI3
F7.0
sI4
F1.0
sI5
F1.0
sI6
F1.0
sI7
F1.0
sI8
F0.165
sI9
F1.0
sI13
F1.0
sI14
F160.0
sI20
F1.0
sI21
F1.0
ssbsg16
g0
(g17
g2
Ntp3963
Rp3964
(dp3965
g21
I0
sbsba(ics475_types
Instance
p3966
(dp3967
g11
(ics475_types
FeatureVector
p3968
(dp3969
g14
(dp3970
I2
F36.17
sI3
F18.125
sI4
F1.0
sI5
F1.0
sI7
F1.0
sI8
F0.085
sI9
F1.0
sI13
F1.0
sI14
F320.0
sI15
F3552.0
sI16
F1.0
sI20
F1.0
sI21
F1.0
sI31
F1.0
ssbsg16
g0
(g17
g2
Ntp3971
Rp3972
(dp3973
g21
I0
sbsba(ics475_types
Instance
p3974
(dp3975
g11
(ics475_types
FeatureVector
p3976
(dp3977
g14
(dp3978
I33
F1.0
sI2
F45.17
sI3
F1.5
sI4
F1.0
sI5
F1.0
sI6
F1.0
sI7
F1.0
sI8
F2.5
sI12
F1.0
sI13
F1.0
sI14
F140.0
sI16
F1.0
sI20
F1.0
ssbsg16
g0
(g17
g2
Ntp3979
Rp3980
(dp3981
g21
I0
sbsba(ics475_types
Instance
p3982
(dp3983
g11
(ics475_types
FeatureVector
p3984
(dp3985
g14
(dp3986
I2
F52.42
sI3
F1.5
sI4
F1.0
sI5
F1.0
sI7
F1.0
sI8
F3.75
sI9
F1.0
sI12
F1.0
sI13
F1.0
sI15
F350.0
sI16
F1.0
sI34
F1.0
sI20
F1.0
ssbsg16
g0
(g17
g2
Ntp3987
Rp3988
(dp3989
g21
I0
sbsba(ics475_types
Instance
p3990
(dp3991
g11
(ics475_types
FeatureVector
p3992
(dp3993
g14
(dp3994
I2
F29.67
sI3
F0.75
sI6
F1.0
sI7
F1.0
sI8
F0.04
sI9
F1.0
sI13
F1.0
sI14
F240.0
sI16
F1.0
sI17
F1.0
sI18
F1.0
sI20
F1.0
sI21
F1.0
ssbsg16
g0
(g17
g2
Ntp3995
Rp3996
(dp3997
g21
I0
sbsba(ics475_types
Instance
p3998
(dp3999
g11
(ics475_types
FeatureVector
p4000
(dp4001
g14
(dp4002
I33
F1.0
sI2
F56.75
sI3
F12.25
sI4
F1.0
sI5
F1.0
sI7
F1.0
sI8
F1.25
sI10
F1.0
sI11
F4.0
sI12
F1.0
sI13
F1.0
sI14
F200.0
sI16
F1.0
sI35
F1.0
ssbsg16
g0
(g17
g2
Ntp4003
Rp4004
(dp4005
g21
I1
sbsba(ics475_types
Instance
p4006
(dp4007
g11
(ics475_types
FeatureVector
p4008
(dp4009
g14
(dp4010
I33
F1.0
sI2
F26.67
sI3
F4.25
sI4
F1.0
sI5
F1.0
sI7
F1.0
sI8
F4.29
sI10
F1.0
sI11
F1.0
sI12
F1.0
sI13
F1.0
sI14
F120.0
sI16
F1.0
sI36
F1.0
ssbsg16
g0
(g17
g2
Ntp4011
Rp4012
(dp4013
g21
I1
sbsba(ics475_types
Instance
p4014
(dp4015
g11
(ics475_types
FeatureVector
p4016
(dp4017
g14
(dp4018
I1
F1.0
sI2
F35.75
sI3
F0.915
sI4
F1.0
sI5
F1.0
sI7
F1.0
sI8
F0.75
sI10
F1.0
sI11
F4.0
sI13
F1.0
sI15
F1583.0
sI21
F1.0
sI33
F1.0
sI37
F1.0
ssbsg16
g0
(g17
g2
Ntp4019
Rp4020
(dp4021
g21
I1
sbsba(ics475_types
Instance
p4022
(dp4023
g11
(ics475_types
FeatureVector
p4024
(dp4025
g14
(dp4026
I2
F41.17
sI3
F1.25
sI7
F1.0
sI8
F0.25
sI9
F1.0
sI13
F1.0
sI15
F195.0
sI16
F1.0
sI17
F1.0
sI18
F1.0
sI20
F1.0
sI21
F1.0
sI31
F1.0
ssbsg16
g0
(g17
g2
Ntp4027
Rp4028
(dp4029
g21
I0
sbsba(ics475_types
Instance
p4030
(dp4031
g11
(ics475_types
FeatureVector
p4032
(dp4033
g14
(dp4034
I1
F1.0
sI2
F23.25
sI3
F5.875
sI4
F1.0
sI5
F1.0
sI7
F1.0
sI8
F3.17
sI10
F1.0
sI11
F10.0
sI13
F1.0
sI14
F120.0
sI15
F245.0
sI21
F1.0
sI33
F1.0
sI30
F1.0
ssbsg16
g0
(g17
g2
Ntp4035
Rp4036
(dp4037
g21
I1
sbsba(ics475_types
Instance
p4038
(dp4039
g11
(ics475_types
FeatureVector
p4040
(dp4041
g14
(dp4042
I2
F28.0
sI3
F3.0
sI4
F1.0
sI5
F1.0
sI7
F1.0
sI8
F0.75
sI9
F1.0
sI12
F1.0
sI13
F1.0
sI14
F300.0
sI15
F67.0
sI16
F1.0
sI20
F1.0
sI31
F1.0
ssbsg16
g0
(g17
g2
Ntp4043
Rp4044
(dp4045
g21
I0
sbsba(ics475_types
Instance
p4046
(dp4047
g11
(ics475_types
FeatureVector
p4048
(dp4049
g14
(dp4050
I2
F16.25
sI37
F1.0
sI7
F1.0
sI8
F0.25
sI9
F1.0
sI13
F1.0
sI14
F60.0
sI16
F1.0
sI17
F1.0
sI18
F1.0
sI20
F1.0
sI21
F1.0
ssbsg16
g0
(g17
g2
Ntp4051
Rp4052
(dp4053
g21
I0
sbsba(ics475_types
Instance
p4054
(dp4055
g11
(ics475_types
FeatureVector
p4056
(dp4057
g14
(dp4058
I1
F1.0
sI2
F23.0
sI3
F1.835
sI4
F1.0
sI5
F1.0
sI9
F1.0
sI10
F1.0
sI11
F1.0
sI13
F1.0
sI14
F200.0
sI15
F53.0
sI21
F1.0
sI28
F1.0
sI29
F1.0
ssbsg16
g0
(g17
g2
Ntp4059
Rp4060
(dp4061
g21
I0
sbsba(ics475_types
Instance
p4062
(dp4063
g11
(ics475_types
FeatureVector
p4064
(dp4065
g14
(dp4066
I33
F1.0
sI2
F23.33
sI3
F1.5
sI4
F1.0
sI5
F1.0
sI6
F1.0
sI8
F1.415
sI13
F1.0
sI14
F422.0
sI15
F200.0
sI16
F1.0
sI20
F1.0
sI21
F1.0
sI27
F1.0
ssbsg16
g0
(g17
g2
Ntp4067
Rp4068
(dp4069
g21
I1
sbsba(ics475_types
Instance
p4070
(dp4071
g11
(ics475_types
FeatureVector
p4072
(dp4073
g14
(dp4074
I1
F1.0
sI2
F18.08
sI3
F0.375
sI36
F1.0
sI8
F10.0
sI9
F1.0
sI12
F1.0
sI45
F1.0
sI14
F300.0
sI44
F1.0
sI20
F1.0
sI22
F1.0
sI24
F1.0
ssbsg16
g0
(g17
g2
Ntp4075
Rp4076
(dp4077
g21
I1
sbsba(ics475_types
Instance
p4078
(dp4079
g11
(ics475_types
FeatureVector
p4080
(dp4081
g14
(dp4082
I33
F1.0
sI2
F35.25
sI3
F3.165
sI4
F1.0
sI5
F1.0
sI39
F1.0
sI8
F3.75
sI12
F1.0
sI13
F1.0
sI14
F680.0
sI16
F1.0
sI20
F1.0
sI27
F1.0
ssbsg16
g0
(g17
g2
Ntp4083
Rp4084
(dp4085
g21
I0
sbsba(ics475_types
Instance
p4086
(dp4087
g11
(ics475_types
FeatureVector
p4088
(dp4089
g14
(dp4090
I2
F34.83
sI3
F2.5
sI7
F1.0
sI8
F3.0
sI9
F1.0
sI14
F200.0
sI16
F1.0
sI17
F1.0
sI18
F1.0
sI20
F1.0
sI21
F1.0
sI22
F1.0
sI31
F1.0
ssbsg16
g0
(g17
g2
Ntp4091
Rp4092
(dp4093
g21
I0
sbsba(ics475_types
Instance
p4094
(dp4095
g11
(ics475_types
FeatureVector
p4096
(dp4097
g14
(dp4098
I33
F1.0
sI2
F73.42
sI3
F17.75
sI4
F1.0
sI5
F1.0
sI12
F1.0
sI13
F1.0
sI16
F1.0
sI20
F1.0
sI23
F1.0
sI24
F1.0
ssbsg16
g0
(g17
g2
Ntp4099
Rp4100
(dp4101
g21
I1
sbsba(ics475_types
Instance
p4102
(dp4103
g11
(ics475_types
FeatureVector
p4104
(dp4105
g14
(dp4106
I2
F23.0
sI3
F0.75
sI4
F1.0
sI5
F1.0
sI7
F1.0
sI8
F0.5
sI9
F1.0
sI12
F1.0
sI14
F320.0
sI16
F1.0
sI35
F1.0
sI20
F1.0
sI22
F1.0
ssbsg16
g0
(g17
g2
Ntp4107
Rp4108
(dp4109
g21
I0
sbsba(ics475_types
Instance
p4110
(dp4111
g11
(ics475_types
FeatureVector
p4112
(dp4113
g14
(dp4114
I1
F1.0
sI2
F28.17
sI3
F0.375
sI4
F1.0
sI5
F1.0
sI7
F1.0
sI8
F0.585
sI10
F1.0
sI11
F4.0
sI13
F1.0
sI14
F80.0
sI21
F1.0
sI33
F1.0
sI30
F1.0
ssbsg16
g0
(g17
g2
Ntp4115
Rp4116
(dp4117
g21
I1
sbsba(ics475_types
Instance
p4118
(dp4119
g11
(ics475_types
FeatureVector
p4120
(dp4121
g14
(dp4122
I2
F18.08
sI3
F6.75
sI7
F1.0
sI8
F0.04
sI9
F1.0
sI13
F1.0
sI14
F140.0
sI16
F1.0
sI17
F1.0
sI18
F1.0
sI35
F1.0
sI20
F1.0
sI21
F1.0
ssbsg16
g0
(g17
g2
Ntp4123
Rp4124
(dp4125
g21
I0
sbsba(ics475_types
Instance
p4126
(dp4127
g11
(ics475_types
FeatureVector
p4128
(dp4129
g14
(dp4130
I33
F1.0
sI2
F21.5
sI3
F9.75
sI4
F1.0
sI5
F1.0
sI6
F1.0
sI7
F1.0
sI8
F0.25
sI13
F1.0
sI14
F140.0
sI16
F1.0
sI20
F1.0
sI21
F1.0
ssbsg16
g0
(g17
g2
Ntp4131
Rp4132
(dp4133
g21
I0
sbsba(ics475_types
Instance
p4134
(dp4135
g11
(ics475_types
FeatureVector
p4136
(dp4137
g14
(dp4138
I2
F39.58
sI3
F5.0
sI4
F1.0
sI5
F1.0
sI9
F1.0
sI10
F1.0
sI11
F2.0
sI13
F1.0
sI14
F17.0
sI15
F1.0
sI16
F1.0
sI21
F1.0
sI23
F1.0
sI24
F1.0
ssbsg16
g0
(g17
g2
Ntp4139
Rp4140
(dp4141
g21
I0
sbsba(ics475_types
Instance
p4142
(dp4143
g11
(ics475_types
FeatureVector
p4144
(dp4145
g14
(dp4146
I1
F1.0
sI2
F28.75
sI3
F3.75
sI4
F1.0
sI5
F1.0
sI6
F1.0
sI7
F1.0
sI8
F1.085
sI10
F1.0
sI11
F1.0
sI12
F1.0
sI13
F1.0
sI14
F371.0
sI33
F1.0
ssbsg16
g0
(g17
g2
Ntp4147
Rp4148
(dp4149
g21
I1
sbsba(ics475_types
Instance
p4150
(dp4151
g11
(ics475_types
FeatureVector
p4152
(dp4153
g14
(dp4154
I1
F1.0
sI2
F20.08
sI3
F1.25
sI4
F1.0
sI5
F1.0
sI6
F1.0
sI7
F1.0
sI9
F1.0
sI13
F1.0
sI20
F1.0
sI21
F1.0
ssbsg16
g0
(g17
g2
Ntp4155
Rp4156
(dp4157
g21
I0
sbsba(ics475_types
Instance
p4158
(dp4159
g11
(ics475_types
FeatureVector
p4160
(dp4161
g14
(dp4162
I32
F1.0
sI2
F41.5
sI3
F1.54
sI4
F1.0
sI5
F1.0
sI8
F3.5
sI9
F1.0
sI13
F1.0
sI14
F216.0
sI16
F1.0
sI20
F1.0
sI21
F1.0
sI25
F1.0
ssbsg16
g0
(g17
g2
Ntp4163
Rp4164
(dp4165
g21
I1
sbsba(ics475_types
Instance
p4166
(dp4167
g11
(ics475_types
FeatureVector
p4168
(dp4169
g14
(dp4170
I2
F23.58
sI3
F0.835
sI4
F1.0
sI5
F1.0
sI8
F0.085
sI9
F1.0
sI12
F1.0
sI13
F1.0
sI14
F220.0
sI15
F5.0
sI16
F1.0
sI20
F1.0
sI25
F1.0
sI27
F1.0
ssbsg16
g0
(g17
g2
Ntp4171
Rp4172
(dp4173
g21
I0
sbsba(ics475_types
Instance
p4174
(dp4175
g11
(ics475_types
FeatureVector
p4176
(dp4177
g14
(dp4178
I2
F37.5
sI3
F0.835
sI4
F1.0
sI5
F1.0
sI7
F1.0
sI8
F0.04
sI9
F1.0
sI13
F1.0
sI14
F120.0
sI15
F5.0
sI16
F1.0
sI20
F1.0
sI21
F1.0
sI41
F1.0
ssbsg16
g0
(g17
g2
Ntp4179
Rp4180
(dp4181
g21
I0
sbsba(ics475_types
Instance
p4182
(dp4183
g11
(ics475_types
FeatureVector
p4184
(dp4185
g14
(dp4186
I33
F1.0
sI2
F48.33
sI3
F12.0
sI4
F1.0
sI5
F1.0
sI7
F1.0
sI8
F16.0
sI14
F110.0
sI16
F1.0
sI35
F1.0
sI20
F1.0
sI21
F1.0
sI22
F1.0
ssbsg16
g0
(g17
g2
Ntp4187
Rp4188
(dp4189
g21
I1
sbsba(ics475_types
Instance
p4190
(dp4191
g11
(ics475_types
FeatureVector
p4192
(dp4193
g14
(dp4194
I1
F1.0
sI2
F49.0
sI3
F1.5
sI4
F1.0
sI5
F1.0
sI33
F1.0
sI12
F1.0
sI13
F1.0
sI14
F100.0
sI15
F27.0
sI20
F1.0
sI28
F1.0
sI29
F1.0
ssbsg16
g0
(g17
g2
Ntp4195
Rp4196
(dp4197
g21
I0
sbsba(ics475_types
Instance
p4198
(dp4199
g11
(ics475_types
FeatureVector
p4200
(dp4201
g14
(dp4202
I1
F1.0
sI2
F28.67
sI3
F1.04
sI4
F1.0
sI5
F1.0
sI6
F1.0
sI7
F1.0
sI8
F2.5
sI10
F1.0
sI11
F5.0
sI12
F1.0
sI13
F1.0
sI14
F300.0
sI15
F1430.0
sI33
F1.0
ssbsg16
g0
(g17
g2
Ntp4203
Rp4204
(dp4205
g21
I1
sbsba(ics475_types
Instance
p4206
(dp4207
g11
(ics475_types
FeatureVector
p4208
(dp4209
g14
(dp4210
I1
F1.0
sI2
F22.75
sI3
F6.165
sI4
F1.0
sI5
F1.0
sI7
F1.0
sI8
F0.165
sI9
F1.0
sI13
F1.0
sI14
F220.0
sI15
F1000.0
sI20
F1.0
sI21
F1.0
sI37
F1.0
ssbsg16
g0
(g17
g2
Ntp4211
Rp4212
(dp4213
g21
I0
sbsba(ics475_types
Instance
p4214
(dp4215
g11
(ics475_types
FeatureVector
p4216
(dp4217
g14
(dp4218
I1
F1.0
sI2
F16.92
sI3
F0.5
sI4
F1.0
sI5
F1.0
sI7
F1.0
sI8
F0.165
sI9
F1.0
sI10
F1.0
sI11
F6.0
sI12
F1.0
sI13
F1.0
sI14
F240.0
sI15
F35.0
sI25
F1.0
ssbsg16
g0
(g17
g2
Ntp4219
Rp4220
(dp4221
g21
I0
sbsba(ics475_types
Instance
p4222
(dp4223
g11
(ics475_types
FeatureVector
p4224
(dp4225
g14
(dp4226
I1
F1.0
sI2
F20.42
sI3
F10.5
sI39
F1.0
sI9
F1.0
sI12
F1.0
sI13
F1.0
sI14
F154.0
sI15
F32.0
sI17
F1.0
sI18
F1.0
sI20
F1.0
sI27
F1.0
ssbsg16
g0
(g17
g2
Ntp4227
Rp4228
(dp4229
g21
I0
sbsba(ics475_types
Instance
p4230
(dp4231
g11
(ics475_types
FeatureVector
p4232
(dp4233
g14
(dp4234
I32
F1.0
sI2
F40.58
sI3
F1.5
sI4
F1.0
sI5
F1.0
sI9
F1.0
sI14
F300.0
sI16
F1.0
sI20
F1.0
sI21
F1.0
sI22
F1.0
sI25
F1.0
ssbsg16
g0
(g17
g2
Ntp4235
Rp4236
(dp4237
g21
I0
sbsba(ics475_types
Instance
p4238
(dp4239
g11
(ics475_types
FeatureVector
p4240
(dp4241
g14
(dp4242
I33
F1.0
sI2
F55.92
sI3
F11.5
sI4
F1.0
sI5
F1.0
sI8
F5.0
sI10
F1.0
sI11
F5.0
sI13
F1.0
sI15
F8851.0
sI16
F1.0
sI21
F1.0
sI23
F1.0
sI24
F1.0
ssbsg16
g0
(g17
g2
Ntp4243
Rp4244
(dp4245
g21
I1
sbsba(ics475_types
Instance
p4246
(dp4247
g11
(ics475_types
FeatureVector
p4248
(dp4249
g14
(dp4250
I32
F1.0
sI33
F1.0
sI2
F34.08
sI3
F0.08
sI8
F0.04
sI10
F1.0
sI11
F1.0
sI12
F1.0
sI13
F1.0
sI14
F280.0
sI15
F2000.0
sI16
F1.0
sI17
F1.0
sI18
F1.0
sI35
F1.0
ssbsg16
g0
(g17
g2
Ntp4251
Rp4252
(dp4253
g21
I1
sbsba(ics475_types
Instance
p4254
(dp4255
g11
(ics475_types
FeatureVector
p4256
(dp4257
g14
(dp4258
I32
F1.0
sI2
F43.17
sI3
F5.0
sI4
F1.0
sI5
F1.0
sI8
F2.25
sI9
F1.0
sI12
F1.0
sI13
F1.0
sI14
F141.0
sI16
F1.0
sI20
F1.0
sI25
F1.0
ssbsg16
g0
(g17
g2
Ntp4259
Rp4260
(dp4261
g21
I0
sbsba(ics475_types
Instance
p4262
(dp4263
g11
(ics475_types
FeatureVector
p4264
(dp4265
g14
(dp4266
I2
F29.58
sI3
F4.75
sI4
F1.0
sI5
F1.0
sI7
F1.0
sI8
F2.0
sI9
F1.0
sI10
F1.0
sI11
F1.0
sI12
F1.0
sI13
F1.0
sI14
F460.0
sI15
F68.0
sI16
F1.0
sI35
F1.0
ssbsg16
g0
(g17
g2
Ntp4267
Rp4268
(dp4269
g21
I0
sbsba(ics475_types
Instance
p4270
(dp4271
g11
(ics475_types
FeatureVector
p4272
(dp4273
g14
(dp4274
I1
F1.0
sI2
F41.58
sI3
F1.04
sI4
F1.0
sI5
F1.0
sI7
F1.0
sI8
F0.665
sI9
F1.0
sI13
F1.0
sI14
F240.0
sI15
F237.0
sI20
F1.0
sI21
F1.0
sI37
F1.0
ssbsg16
g0
(g17
g2
Ntp4275
Rp4276
(dp4277
g21
I0
sbsba(ics475_types
Instance
p4278
(dp4279
g11
(ics475_types
FeatureVector
p4280
(dp4281
g14
(dp4282
I2
F22.08
sI3
F2.335
sI4
F1.0
sI5
F1.0
sI7
F1.0
sI8
F0.75
sI9
F1.0
sI13
F1.0
sI14
F180.0
sI16
F1.0
sI19
F1.0
sI20
F1.0
sI21
F1.0
ssbsg16
g0
(g17
g2
Ntp4283
Rp4284
(dp4285
g21
I0
sbsba(ics475_types
Instance
p4286
(dp4287
g11
(ics475_types
FeatureVector
p4288
(dp4289
g14
(dp4290
I2
F26.33
sI3
F13.0
sI4
F1.0
sI5
F1.0
sI9
F1.0
sI43
F1.0
sI12
F1.0
sI13
F1.0
sI14
F140.0
sI15
F1110.0
sI16
F1.0
sI20
F1.0
sI41
F1.0
ssbsg16
g0
(g17
g2
Ntp4291
Rp4292
(dp4293
g21
I0
sbsba(ics475_types
Instance
p4294
(dp4295
g11
(ics475_types
FeatureVector
p4296
(dp4297
g14
(dp4298
I33
F1.0
sI2
F62.5
sI3
F12.75
sI6
F1.0
sI8
F5.0
sI13
F1.0
sI14
F112.0
sI16
F1.0
sI17
F1.0
sI18
F1.0
sI20
F1.0
sI21
F1.0
sI27
F1.0
ssbsg16
g0
(g17
g2
Ntp4299
Rp4300
(dp4301
g21
I0
sbsba(ics475_types
Instance
p4302
(dp4303
g11
(ics475_types
FeatureVector
p4304
(dp4305
g14
(dp4306
I33
F1.0
sI2
F40.25
sI3
F21.5
sI4
F1.0
sI5
F1.0
sI8
F20.0
sI41
F1.0
sI10
F1.0
sI11
F11.0
sI13
F1.0
sI15
F1200.0
sI16
F1.0
sI21
F1.0
sI42
F1.0
ssbsg16
g0
(g17
g2
Ntp4307
Rp4308
(dp4309
g21
I1
sbsba(ics475_types
Instance
p4310
(dp4311
g11
(ics475_types
FeatureVector
p4312
(dp4313
g14
(dp4314
I32
F1.0
sI1
F1.0
sI2
F47.0
sI3
F13.0
sI4
F1.0
sI5
F1.0
sI33
F1.0
sI8
F5.165
sI10
F1.0
sI11
F9.0
sI12
F1.0
sI13
F1.0
sI25
F1.0
ssbsg16
g0
(g17
g2
Ntp4315
Rp4316
(dp4317
g21
I1
sbsba(ics475_types
Instance
p4318
(dp4319
g11
(ics475_types
FeatureVector
p4320
(dp4321
g14
(dp4322
I1
F1.0
sI2
F25.75
sI3
F0.5
sI4
F1.0
sI5
F1.0
sI6
F1.0
sI33
F1.0
sI8
F0.875
sI12
F1.0
sI13
F1.0
sI14
F491.0
sI20
F1.0
sI27
F1.0
ssbsg16
g0
(g17
g2
Ntp4323
Rp4324
(dp4325
g21
I1
sbsba(ics475_types
Instance
p4326
(dp4327
g11
(ics475_types
FeatureVector
p4328
(dp4329
g14
(dp4330
I2
F16.33
sI3
F2.75
sI4
F1.0
sI5
F1.0
sI7
F1.0
sI8
F0.665
sI9
F1.0
sI10
F1.0
sI11
F1.0
sI13
F1.0
sI14
F80.0
sI15
F21.0
sI16
F1.0
sI21
F1.0
sI37
F1.0
ssbsg16
g0
(g17
g2
Ntp4331
Rp4332
(dp4333
g21
I0
sbsba(ics475_types
Instance
p4334
(dp4335
g11
(ics475_types
FeatureVector
p4336
(dp4337
g14
(dp4338
I33
F1.0
sI2
F25.75
sI3
F0.5
sI4
F1.0
sI5
F1.0
sI6
F1.0
sI7
F1.0
sI8
F1.46
sI10
F1.0
sI11
F5.0
sI12
F1.0
sI13
F1.0
sI14
F312.0
sI16
F1.0
ssbsg16
g0
(g17
g2
Ntp4339
Rp4340
(dp4341
g21
I1
sbsba(ics475_types
Instance
p4342
(dp4343
g11
(ics475_types
FeatureVector
p4344
(dp4345
g14
(dp4346
I2
F24.75
sI3
F0.54
sI4
F1.0
sI5
F1.0
sI7
F1.0
sI8
F1.0
sI9
F1.0
sI12
F1.0
sI13
F1.0
sI14
F120.0
sI15
F1.0
sI16
F1.0
sI35
F1.0
sI20
F1.0
ssbsg16
g0
(g17
g2
Ntp4347
Rp4348
(dp4349
g21
I0
sbsba(ics475_types
Instance
p4350
(dp4351
g11
(ics475_types
FeatureVector
p4352
(dp4353
g14
(dp4354
I33
F1.0
sI2
F21.0
sI3
F4.79
sI7
F1.0
sI8
F2.25
sI10
F1.0
sI11
F1.0
sI12
F1.0
sI13
F1.0
sI14
F80.0
sI15
F300.0
sI16
F1.0
sI17
F1.0
sI18
F1.0
sI31
F1.0
ssbsg16
g0
(g17
g2
Ntp4355
Rp4356
(dp4357
g21
I1
sbsba(ics475_types
Instance
p4358
(dp4359
g11
(ics475_types
FeatureVector
p4360
(dp4361
g14
(dp4362
I2
F21.08
sI3
F4.125
sI8
F0.04
sI9
F1.0
sI13
F1.0
sI14
F140.0
sI15
F100.0
sI16
F1.0
sI17
F1.0
sI18
F1.0
sI20
F1.0
sI21
F1.0
sI25
F1.0
sI27
F1.0
ssbsg16
g0
(g17
g2
Ntp4363
Rp4364
(dp4365
g21
I0
sbsba(ics475_types
Instance
p4366
(dp4367
g11
(ics475_types
FeatureVector
p4368
(dp4369
g14
(dp4370
I33
F1.0
sI2
F24.33
sI3
F6.625
sI7
F1.0
sI8
F5.5
sI12
F1.0
sI34
F1.0
sI14
F100.0
sI16
F1.0
sI17
F1.0
sI18
F1.0
sI20
F1.0
sI22
F1.0
ssbsg16
g0
(g17
g2
Ntp4371
Rp4372
(dp4373
g21
I1
sbsba(ics475_types
Instance
p4374
(dp4375
g11
(ics475_types
FeatureVector
p4376
(dp4377
g14
(dp4378
I2
F27.83
sI3
F1.5
sI4
F1.0
sI5
F1.0
sI7
F1.0
sI8
F2.25
sI9
F1.0
sI10
F1.0
sI11
F1.0
sI12
F1.0
sI13
F1.0
sI14
F100.0
sI15
F3.0
sI16
F1.0
sI31
F1.0
ssbsg16
g0
(g17
g2
Ntp4379
Rp4380
(dp4381
g21
I0
sbsba(ics475_types
Instance
p4382
(dp4383
g11
(ics475_types
FeatureVector
p4384
(dp4385
g14
(dp4386
I33
F1.0
sI2
F28.92
sI3
F15.0
sI4
F1.0
sI5
F1.0
sI6
F1.0
sI8
F5.335
sI10
F1.0
sI11
F11.0
sI13
F1.0
sI15
F2283.0
sI16
F1.0
sI21
F1.0
sI27
F1.0
ssbsg16
g0
(g17
g2
Ntp4387
Rp4388
(dp4389
g21
I1
sbsba(ics475_types
Instance
p4390
(dp4391
g11
(ics475_types
FeatureVector
p4392
(dp4393
g14
(dp4394
I1
F1.0
sI2
F33.08
sI3
F1.625
sI4
F1.0
sI5
F1.0
sI7
F1.0
sI8
F0.54
sI9
F1.0
sI12
F1.0
sI13
F1.0
sI34
F1.0
sI20
F1.0
ssbsg16
g0
(g17
g2
Ntp4395
Rp4396
(dp4397
g21
I0
sbsba(ics475_types
Instance
p4398
(dp4399
g11
(ics475_types
FeatureVector
p4400
(dp4401
g14
(dp4402
I32
F1.0
sI2
F26.75
sI3
F4.5
sI6
F1.0
sI8
F2.5
sI9
F1.0
sI13
F1.0
sI14
F200.0
sI15
F1210.0
sI16
F1.0
sI17
F1.0
sI18
F1.0
sI20
F1.0
sI21
F1.0
ssbsg16
g0
(g17
g2
Ntp4403
Rp4404
(dp4405
g21
I0
sbsba(ics475_types
Instance
p4406
(dp4407
g11
(ics475_types
FeatureVector
p4408
(dp4409
g14
(dp4410
I32
F1.0
sI33
F1.0
sI2
F56.58
sI3
F18.5
sI4
F1.0
sI5
F1.0
sI8
F15.0
sI10
F1.0
sI11
F17.0
sI12
F1.0
sI13
F1.0
sI16
F1.0
sI34
F1.0
ssbsg16
g0
(g17
g2
Ntp4411
Rp4412
(dp4413
g21
I1
sbsbasS'is_weighted'
p4414
I01
sS'all_features'
p4415
(lp4416
I1
aI2
aI3
aI8
aI9
aI13
aI14
aI17
aI18
aI20
aI21
aI23
aI24
aI33
aI4
aI5
aI7
aI16
aI35
aI22
aI10
aI11
aI12
aI15
aI19
aI27
aI6
aI30
aI37
aI34
aI39
aI32
aI36
aI31
aI25
aI41
aI28
aI29
aI42
aI26
aI40
aI38
aI45
aI46
aI44
aI43
asb.