ccopy_reg
_reconstructor
p0
(cpredictor_subclasses
AveragedPerceptron
p1
c__builtin__
object
p2
Ntp3
Rp4
(dp5
S'learning_rate'
p6
F1.0
sS'w_avg'
p7
(dp8
I1
F-34054.0
sI2
F-315190.5900000015
sI3
F178933.13999999966
sI4
F31511.0
sI5
F31511.0
sI6
F-29124.0
sI7
F-115605.0
sI8
F1239272.3300000106
sI9
F-570278.0
sI10
F162612.0
sI11
F1509594.0
sI12
F30557.0
sI13
F-115735.0
sI14
F-1090041.0
sI15
F7912257.0
sI16
F-48354.0
sI17
F-119634.0
sI18
F-119634.0
sI19
F-11113.0
sI20
F-245020.0
sI21
F-112965.0
sI22
F33327.0
sI23
F-101202.0
sI24
F-97583.0
sI25
F-81736.0
sI26
F-7120.0
sI27
F122962.0
sI28
F-8252.0
sI29
F5448.0
sI30
F52498.0
sI31
F18135.0
sI32
F-3379.0
sI33
F487870.0
sI34
F-11483.0
sI35
F8234.0
sI36
F33517.0
sI37
F-45558.0
sI38
F6065.0
sI39
F73124.0
sI40
F1527.0
sI41
F14487.0
sI42
F21480.0
sI43
F-10138.0
sI44
F5715.0
sI45
F5715.0
sI46
I0
ssS'w'
p9
g8
sS'iterations'
p10
I5
sb.