ccopy_reg
_reconstructor
p0
(cpredictor_subclasses
NaiveBayes
p1
c__builtin__
object
p2
Ntp3
Rp4
(dp5
S'mu_vector'
p6
(dp7
I0
(dp8
I1
F0.30727272727272836
sI2
F31.783745454545482
sI3
F4.7937363636363655
sI4
F0.7745454545454586
sI5
F0.7745454545454586
sI6
F0.20363636363636406
sI7
F0.5981818181818211
sI8
F2.2633272727272717
sI9
F0.45272727272727475
sI10
F0.4381818181818201
sI11
F2.434545454545453
sI12
F0.4672727272727294
sI13
F0.9181818181818232
sI14
F180.0236363636363
sI15
F1043.632727272727
sI16
F0.6927272727272763
sI17
F0.22181818181818236
sI18
F0.22181818181818236
sI19
F0.07090909090909088
sI20
F0.5618181818181845
sI21
F0.5327272727272753
sI22
F0.07818181818181814
sI23
F0.07454545454545451
sI24
F0.08181818181818178
sI25
F0.08727272727272722
sI26
F0.0036363636363636364
sI27
F0.2000000000000004
sI28
F0.014545454545454544
sI29
F0.010909090909090908
sI30
F0.11272727272727265
sI31
F0.09999999999999994
sI32
F0.07818181818181814
sI33
F0.5472727272727299
sI34
F0.03272727272727274
sI35
F0.05999999999999998
sI36
F0.056363636363636345
sI37
F0.08727272727272722
sI38
F0.0036363636363636364
sI39
F0.06181818181818179
sI40
F0.007272727272727273
sI41
F0.03454545454545455
sI42
F0.014545454545454544
sI43
F0.005454545454545455
sI44
F0.0036363636363636364
sI45
F0.0036363636363636364
sI46
F0.0036363636363636364
ssI1
(dp9
I1
F0.0
sI2
F0.0
sI3
F0.0
sI4
F0.0
sI5
F0.0
sI6
F0.0
sI7
F0.0
sI8
F0.0
sI9
F0.0
sI10
F0.0
sI11
F0.0
sI12
F0.0
sI13
F0.0
sI14
F0.0
sI15
F0.0
sI16
F0.0
sI17
F0.0
sI18
F0.0
sI19
F0.0
sI20
F0.0
sI21
F0.0
sI22
F0.0
sI23
F0.0
sI24
F0.0
sI25
F0.0
sI26
F0.0
sI27
F0.0
sI28
F0.0
sI29
F0.0
sI30
F0.0
sI31
F0.0
sI32
F0.0
sI33
F0.0
sI34
F0.0
sI35
F0.0
sI36
F0.0
sI37
F0.0
sI38
F0.0
sI39
F0.0
sI40
F0.0
sI41
F0.0
sI42
F0.0
sI43
F0.0
sI44
F0.0
sI45
F0.0
sI46
F0.0
ssI2
(dp10
I1
F0.0
sI2
F0.0
sI3
F0.0
sI4
F0.0
sI5
F0.0
sI6
F0.0
sI7
F0.0
sI8
F0.0
sI9
F0.0
sI10
F0.0
sI11
F0.0
sI12
F0.0
sI13
F0.0
sI14
F0.0
sI15
F0.0
sI16
F0.0
sI17
F0.0
sI18
F0.0
sI19
F0.0
sI20
F0.0
sI21
F0.0
sI22
F0.0
sI23
F0.0
sI24
F0.0
sI25
F0.0
sI26
F0.0
sI27
F0.0
sI28
F0.0
sI29
F0.0
sI30
F0.0
sI31
F0.0
sI32
F0.0
sI33
F0.0
sI34
F0.0
sI35
F0.0
sI36
F0.0
sI37
F0.0
sI38
F0.0
sI39
F0.0
sI40
F0.0
sI41
F0.0
sI42
F0.0
sI43
F0.0
sI44
F0.0
sI45
F0.0
sI46
F0.0
sssS'sigma_vector'
p11
(dp12
I0
(dp13
I1
F0.14771987535564246
sI2
F146.20777829574425
sI3
F25.09427903198564
sI4
F0.03944166553764005
sI5
F0.03944166553764005
sI6
F0.12938040915865026
sI7
F0.09675707296511897
sI8
F11.667996073334832
sI9
F0.13584217134082852
sI10
F0.13855949058393105
sI11
F21.12877424618769
sI12
F0.13285277815411842
sI13
F0.0061577022083720515
sI14
F22995.61592153428
sI15
F29956731.233701367
sI16
F0.0655240391997458
sI17
F0.13457043158861332
sI18
F0.13457043158861332
sI19
F0.061320923090818796
sI20
F0.10806743440364826
sI21
F0.11652956991675238
sI22
F0.06655591383281399
sI23
F0.06396195035300851
sI24
F0.06910310256062868
sI25
F0.07283681524635337
sI26
F0.003616540968552891
sI27
F0.1282331511839708
sI28
F0.014151120745457558
sI29
F0.010691812310888317
sI30
F0.08890651974288342
sI31
F0.0811475409836066
sI32
F0.06655591383281399
sI33
F0.11237442081018753
sI34
F0.03067595176805311
sI35
F0.0531125683060109
sI36
F0.05028039561035093
sI37
F0.07283681524635337
sI38
F0.003616540968552891
sI39
F0.054510554125457314
sI40
F0.007180382062051212
sI41
F0.0322585557512532
sI42
F0.014151120745457558
sI43
F0.005405030935284288
sI44
F0.003616540968552891
sI45
F0.003616540968552891
sI46
F0.003616540968552891
ssI1
(dp14
I1
F0.0014771987535564246
sI2
F1.4620777829574418
sI3
F0.25094279031985617
sI4
F0.00039441665537640053
sI5
F0.00039441665537640053
sI6
F0.0012938040915865027
sI7
F0.0009675707296511897
sI8
F0.11667996073334833
sI9
F0.0013584217134082852
sI10
F0.0013855949058393104
sI11
F0.2112877424618768
sI12
F0.0013285277815411841
sI13
F6.157702208372051e-05
sI14
F229.95615921534278
sI15
F299567.3123370138
sI16
F0.000655240391997458
sI17
F0.001345704315886133
sI18
F0.001345704315886133
sI19
F0.000613209230908188
sI20
F0.0010806743440364827
sI21
F0.0011652956991675238
sI22
F0.00066555913832814
sI23
F0.0006396195035300852
sI24
F0.0006910310256062869
sI25
F0.0007283681524635337
sI26
F3.6165409685528907e-05
sI27
F0.001282331511839708
sI28
F0.00014151120745457558
sI29
F0.00010691812310888318
sI30
F0.0008890651974288342
sI31
F0.000811475409836066
sI32
F0.00066555913832814
sI33
F0.0011237442081018752
sI34
F0.00030675951768053113
sI35
F0.000531125683060109
sI36
F0.0005028039561035093
sI37
F0.0007283681524635337
sI38
F3.6165409685528907e-05
sI39
F0.0005451055412545731
sI40
F7.180382062051213e-05
sI41
F0.000322585557512532
sI42
F0.00014151120745457558
sI43
F5.405030935284288e-05
sI44
F3.6165409685528907e-05
sI45
F3.6165409685528907e-05
sI46
F3.6165409685528907e-05
ssI2
g14
ssS'K'
p15
I3
sS'phi_vector'
p16
(dp17
I0
F1.0
sI1
F0.0
sI2
F0.0
ssS'N'
p18
I550
sS'instances'
p19
(lp20
(ics475_types
Instance
p21
(dp22
S'_feature_vector'
p23
(ics475_types
FeatureVector
p24
(dp25
S'feature_vector'
p26
(dp27
I1
F1.0
sI2
F22.25
sI3
F1.25
sI8
F3.25
sI9
F1.0
sI13
F1.0
sI14
F280.0
sI17
F1.0
sI18
F1.0
sI20
F1.0
sI21
F1.0
sI23
F1.0
sI24
F1.0
ssbsS'_label'
p28
g0
(ccs475_types
ClassificationLabel
p29
g2
Ntp30
Rp31
(dp32
S'label'
p33
I0
sbsba(ics475_types
Instance
p34
(dp35
g23
(ics475_types
FeatureVector
p36
(dp37
g26
(dp38
I33
F1.0
sI2
F16.25
sI3
F0.835
sI4
F1.0
sI5
F1.0
sI7
F1.0
sI8
F0.085
sI14
F200.0
sI16
F1.0
sI35
F1.0
sI20
F1.0
sI21
F1.0
sI22
F1.0
ssbsg28
g0
(g29
g2
Ntp39
Rp40
(dp41
g33
I0
sbsba(ics475_types
Instance
p42
(dp43
g23
(ics475_types
FeatureVector
p44
(dp45
g26
(dp46
I1
F1.0
sI2
F55.75
sI3
F7.08
sI4
F1.0
sI5
F1.0
sI33
F1.0
sI8
F6.75
sI10
F1.0
sI11
F3.0
sI12
F1.0
sI13
F1.0
sI14
F100.0
sI15
F50.0
sI19
F1.0
sI27
F1.0
ssbsg28
g0
(g29
g2
Ntp47
Rp48
(dp49
g33
I0
sbsba(ics475_types
Instance
p50
(dp51
g23
(ics475_types
FeatureVector
p52
(dp53
g26
(dp54
I2
F44.83
sI3
F7.0
sI6
F1.0
sI7
F1.0
sI8
F1.625
sI9
F1.0
sI13
F1.0
sI14
F160.0
sI15
F2.0
sI16
F1.0
sI17
F1.0
sI18
F1.0
sI20
F1.0
sI21
F1.0
ssbsg28
g0
(g29
g2
Ntp55
Rp56
(dp57
g33
I0
sbsba(ics475_types
Instance
p58
(dp59
g23
(ics475_types
FeatureVector
p60
(dp61
g26
(dp62
I1
F1.0
sI2
F24.08
sI3
F0.5
sI4
F1.0
sI5
F1.0
sI33
F1.0
sI8
F1.25
sI10
F1.0
sI11
F1.0
sI13
F1.0
sI15
F678.0
sI21
F1.0
sI27
F1.0
sI30
F1.0
ssbsg28
g0
(g29
g2
Ntp63
Rp64
(dp65
g33
I1
sbsba(ics475_types
Instance
p66
(dp67
g23
(ics475_types
FeatureVector
p68
(dp69
g26
(dp70
I33
F1.0
sI2
F40.58
sI3
F5.0
sI4
F1.0
sI5
F1.0
sI6
F1.0
sI7
F1.0
sI8
F5.0
sI10
F1.0
sI11
F7.0
sI13
F1.0
sI15
F3065.0
sI16
F1.0
sI21
F1.0
ssbsg28
g0
(g29
g2
Ntp71
Rp72
(dp73
g33
I1
sbsba(ics475_types
Instance
p74
(dp75
g23
(ics475_types
FeatureVector
p76
(dp77
g26
(dp78
I33
F1.0
sI2
F25.0
sI3
F12.5
sI4
F1.0
sI5
F1.0
sI7
F1.0
sI8
F3.0
sI12
F1.0
sI14
F20.0
sI16
F1.0
sI20
F1.0
sI22
F1.0
sI37
F1.0
ssbsg28
g0
(g29
g2
Ntp79
Rp80
(dp81
g33
I1
sbsba(ics475_types
Instance
p82
(dp83
g23
(ics475_types
FeatureVector
p84
(dp85
g26
(dp86
I2
F29.83
sI3
F1.25
sI7
F1.0
sI8
F0.25
sI9
F1.0
sI13
F1.0
sI14
F224.0
sI16
F1.0
sI17
F1.0
sI18
F1.0
sI19
F1.0
sI20
F1.0
sI21
F1.0
ssbsg28
g0
(g29
g2
Ntp87
Rp88
(dp89
g33
I0
sbsba(ics475_types
Instance
p90
(dp91
g23
(ics475_types
FeatureVector
p92
(dp93
g26
(dp94
I2
F23.58
sI3
F1.79
sI4
F1.0
sI5
F1.0
sI6
F1.0
sI7
F1.0
sI8
F0.54
sI9
F1.0
sI12
F1.0
sI13
F1.0
sI14
F136.0
sI15
F1.0
sI16
F1.0
sI20
F1.0
ssbsg28
g0
(g29
g2
Ntp95
Rp96
(dp97
g33
I0
sbsba(ics475_types
Instance
p98
(dp99
g23
(ics475_types
FeatureVector
p100
(dp101
g26
(dp102
I33
F1.0
sI2
F27.58
sI3
F2.04
sI37
F1.0
sI7
F1.0
sI8
F2.0
sI10
F1.0
sI11
F3.0
sI12
F1.0
sI13
F1.0
sI14
F370.0
sI15
F560.0
sI16
F1.0
sI17
F1.0
sI18
F1.0
ssbsg28
g0
(g29
g2
Ntp103
Rp104
(dp105
g33
I1
sbsba(ics475_types
Instance
p106
(dp107
g23
(ics475_types
FeatureVector
p108
(dp109
g26
(dp110
I33
F1.0
sI2
F18.42
sI3
F10.415
sI37
F1.0
sI7
F1.0
sI8
F0.125
sI13
F1.0
sI14
F120.0
sI15
F375.0
sI16
F1.0
sI17
F1.0
sI18
F1.0
sI20
F1.0
sI21
F1.0
ssbsg28
g0
(g29
g2
Ntp111
Rp112
(dp113
g33
I0
sbsba(ics475_types
Instance
p114
(dp115
g23
(ics475_types
FeatureVector
p116
(dp117
g26
(dp118
I33
F1.0
sI2
F32.08
sI3
F4.0
sI4
F1.0
sI5
F1.0
sI7
F1.0
sI8
F2.5
sI12
F1.0
sI13
F1.0
sI14
F360.0
sI16
F1.0
sI35
F1.0
sI20
F1.0
ssbsg28
g0
(g29
g2
Ntp119
Rp120
(dp121
g33
I1
sbsba(ics475_types
Instance
p122
(dp123
g23
(ics475_types
FeatureVector
p124
(dp125
g26
(dp126
I33
F1.0
sI2
F44.25
sI3
F11.0
sI7
F1.0
sI8
F1.5
sI34
F1.0
sI16
F1.0
sI17
F1.0
sI18
F1.0
sI20
F1.0
sI21
F1.0
sI22
F1.0
ssbsg28
g0
(g29
g2
Ntp127
Rp128
(dp129
g33
I0
sbsba(ics475_types
Instance
p130
(dp131
g23
(ics475_types
FeatureVector
p132
(dp133
g26
(dp134
I2
F24.5
sI3
F13.335
sI37
F1.0
sI7
F1.0
sI8
F0.04
sI9
F1.0
sI12
F1.0
sI13
F1.0
sI14
F120.0
sI15
F475.0
sI16
F1.0
sI17
F1.0
sI18
F1.0
sI20
F1.0
ssbsg28
g0
(g29
g2
Ntp135
Rp136
(dp137
g33
I0
sbsba(ics475_types
Instance
p138
(dp139
g23
(ics475_types
FeatureVector
p140
(dp141
g26
(dp142
I33
F1.0
sI2
F42.0
sI3
F9.79
sI4
F1.0
sI5
F1.0
sI39
F1.0
sI8
F7.96
sI10
F1.0
sI11
F8.0
sI13
F1.0
sI16
F1.0
sI21
F1.0
sI27
F1.0
ssbsg28
g0
(g29
g2
Ntp143
Rp144
(dp145
g33
I1
sbsba(ics475_types
Instance
p146
(dp147
g23
(ics475_types
FeatureVector
p148
(dp149
g26
(dp150
I32
F1.0
sI33
F1.0
sI2
F36.25
sI3
F5.0
sI4
F1.0
sI5
F1.0
sI6
F1.0
sI8
F2.5
sI10
F1.0
sI11
F6.0
sI13
F1.0
sI15
F367.0
sI16
F1.0
sI21
F1.0
ssbsg28
g0
(g29
g2
Ntp151
Rp152
(dp153
g33
I1
sbsba(ics475_types
Instance
p154
(dp155
g23
(ics475_types
FeatureVector
p156
(dp157
g26
(dp158
I33
F1.0
sI2
F23.17
sI4
F1.0
sI5
F1.0
sI7
F1.0
sI8
F0.085
sI13
F1.0
sI16
F1.0
sI20
F1.0
sI21
F1.0
sI36
F1.0
ssbsg28
g0
(g29
g2
Ntp159
Rp160
(dp161
g33
I1
sbsba(ics475_types
Instance
p162
(dp163
g23
(ics475_types
FeatureVector
p164
(dp165
g26
(dp166
I2
F34.17
sI3
F5.25
sI4
F1.0
sI5
F1.0
sI7
F1.0
sI8
F0.085
sI9
F1.0
sI12
F1.0
sI13
F1.0
sI14
F290.0
sI15
F6.0
sI16
F1.0
sI20
F1.0
sI31
F1.0
ssbsg28
g0
(g29
g2
Ntp167
Rp168
(dp169
g33
I1
sbsba(ics475_types
Instance
p170
(dp171
g23
(ics475_types
FeatureVector
p172
(dp173
g26
(dp174
I33
F1.0
sI2
F26.67
sI3
F2.71
sI36
F1.0
sI7
F1.0
sI8
F5.25
sI10
F1.0
sI11
F1.0
sI13
F1.0
sI14
F211.0
sI16
F1.0
sI17
F1.0
sI18
F1.0
sI21
F1.0
ssbsg28
g0
(g29
g2
Ntp175
Rp176
(dp177
g33
I1
sbsba(ics475_types
Instance
p178
(dp179
g23
(ics475_types
FeatureVector
p180
(dp181
g26
(dp182
I2
F25.42
sI3
F0.54
sI4
F1.0
sI5
F1.0
sI7
F1.0
sI8
F0.165
sI9
F1.0
sI10
F1.0
sI11
F1.0
sI13
F1.0
sI14
F272.0
sI15
F444.0
sI16
F1.0
sI21
F1.0
sI31
F1.0
ssbsg28
g0
(g29
g2
Ntp183
Rp184
(dp185
g33
I0
sbsba(ics475_types
Instance
p186
(dp187
g23
(ics475_types
FeatureVector
p188
(dp189
g26
(dp190
I1
F1.0
sI2
F19.58
sI3
F0.665
sI6
F1.0
sI7
F1.0
sI8
F1.0
sI9
F1.0
sI10
F1.0
sI11
F1.0
sI13
F1.0
sI14
F2000.0
sI15
F2.0
sI17
F1.0
sI18
F1.0
sI21
F1.0
ssbsg28
g0
(g29
g2
Ntp191
Rp192
(dp193
g33
I0
sbsba(ics475_types
Instance
p194
(dp195
g23
(ics475_types
FeatureVector
p196
(dp197
g26
(dp198
I33
F1.0
sI2
F39.0
sI3
F5.0
sI4
F1.0
sI5
F1.0
sI7
F1.0
sI8
F3.5
sI10
F1.0
sI11
F10.0
sI12
F1.0
sI13
F1.0
sI16
F1.0
sI36
F1.0
ssbsg28
g0
(g29
g2
Ntp199
Rp200
(dp201
g33
I1
sbsba(ics475_types
Instance
p202
(dp203
g23
(ics475_types
FeatureVector
p204
(dp205
g26
(dp206
I1
F1.0
sI2
F30.67
sI3
F12.0
sI4
F1.0
sI5
F1.0
sI6
F1.0
sI7
F1.0
sI8
F2.0
sI10
F1.0
sI11
F1.0
sI13
F1.0
sI14
F220.0
sI15
F19.0
sI21
F1.0
sI33
F1.0
ssbsg28
g0
(g29
g2
Ntp207
Rp208
(dp209
g33
I1
sbsba(ics475_types
Instance
p210
(dp211
g23
(ics475_types
FeatureVector
p212
(dp213
g26
(dp214
I1
F1.0
sI2
F19.17
sI3
F5.415
sI4
F1.0
sI5
F1.0
sI8
F0.29
sI9
F1.0
sI13
F1.0
sI14
F80.0
sI15
F484.0
sI20
F1.0
sI21
F1.0
sI25
F1.0
sI27
F1.0
ssbsg28
g0
(g29
g2
Ntp215
Rp216
(dp217
g33
I0
sbsba(ics475_types
Instance
p218
(dp219
g23
(ics475_types
FeatureVector
p220
(dp221
g26
(dp222
I1
F1.0
sI2
F49.83
sI3
F13.585
sI4
F1.0
sI5
F1.0
sI33
F1.0
sI8
F8.5
sI12
F1.0
sI13
F1.0
sI19
F1.0
sI20
F1.0
sI27
F1.0
ssbsg28
g0
(g29
g2
Ntp223
Rp224
(dp225
g33
I1
sbsba(ics475_types
Instance
p226
(dp227
g23
(ics475_types
FeatureVector
p228
(dp229
g26
(dp230
I1
F1.0
sI2
F18.83
sI3
F9.5
sI4
F1.0
sI5
F1.0
sI7
F1.0
sI8
F1.625
sI10
F1.0
sI11
F6.0
sI12
F1.0
sI13
F1.0
sI14
F40.0
sI15
F600.0
sI33
F1.0
sI31
F1.0
ssbsg28
g0
(g29
g2
Ntp231
Rp232
(dp233
g33
I1
sbsba(ics475_types
Instance
p234
(dp235
g23
(ics475_types
FeatureVector
p236
(dp237
g26
(dp238
I2
F38.42
sI3
F0.705
sI4
F1.0
sI5
F1.0
sI6
F1.0
sI7
F1.0
sI8
F0.375
sI9
F1.0
sI10
F1.0
sI11
F2.0
sI13
F1.0
sI14
F225.0
sI15
F500.0
sI16
F1.0
sI21
F1.0
ssbsg28
g0
(g29
g2
Ntp239
Rp240
(dp241
g33
I0
sbsba(ics475_types
Instance
p242
(dp243
g23
(ics475_types
FeatureVector
p244
(dp245
g26
(dp246
I33
F1.0
sI2
F31.92
sI3
F4.46
sI4
F1.0
sI5
F1.0
sI8
F6.04
sI10
F1.0
sI11
F3.0
sI13
F1.0
sI14
F311.0
sI15
F300.0
sI16
F1.0
sI21
F1.0
sI36
F1.0
sI27
F1.0
ssbsg28
g0
(g29
g2
Ntp247
Rp248
(dp249
g33
I1
sbsba(ics475_types
Instance
p250
(dp251
g23
(ics475_types
FeatureVector
p252
(dp253
g26
(dp254
I1
F1.0
sI2
F22.5
sI3
F8.46
sI7
F1.0
sI8
F2.46
sI9
F1.0
sI39
F1.0
sI13
F1.0
sI14
F164.0
sI17
F1.0
sI18
F1.0
sI20
F1.0
sI21
F1.0
ssbsg28
g0
(g29
g2
Ntp255
Rp256
(dp257
g33
I1
sbsba(ics475_types
Instance
p258
(dp259
g23
(ics475_types
FeatureVector
p260
(dp261
g26
(dp262
I1
F1.0
sI2
F17.58
sI3
F9.0
sI4
F1.0
sI5
F1.0
sI7
F1.0
sI8
F1.375
sI12
F1.0
sI13
F1.0
sI20
F1.0
sI33
F1.0
sI37
F1.0
ssbsg28
g0
(g29
g2
Ntp263
Rp264
(dp265
g33
I1
sbsba(ics475_types
Instance
p266
(dp267
g23
(ics475_types
FeatureVector
p268
(dp269
g26
(dp270
I33
F1.0
sI2
F57.83
sI3
F7.04
sI4
F1.0
sI5
F1.0
sI7
F1.0
sI8
F14.0
sI10
F1.0
sI11
F6.0
sI12
F1.0
sI13
F1.0
sI14
F360.0
sI15
F1332.0
sI16
F1.0
sI35
F1.0
ssbsg28
g0
(g29
g2
Ntp271
Rp272
(dp273
g33
I1
sbsba(ics475_types
Instance
p274
(dp275
g23
(ics475_types
FeatureVector
p276
(dp277
g26
(dp278
I1
F1.0
sI2
F25.17
sI3
F2.875
sI4
F1.0
sI5
F1.0
sI33
F1.0
sI8
F0.875
sI39
F1.0
sI13
F1.0
sI14
F360.0
sI20
F1.0
sI21
F1.0
sI27
F1.0
ssbsg28
g0
(g29
g2
Ntp279
Rp280
(dp281
g33
I1
sbsba(ics475_types
Instance
p282
(dp283
g23
(ics475_types
FeatureVector
p284
(dp285
g26
(dp286
I2
F36.08
sI3
F2.54
sI4
F1.0
sI5
F1.0
sI9
F1.0
sI13
F1.0
sI15
F1000.0
sI16
F1.0
sI20
F1.0
sI21
F1.0
sI23
F1.0
sI24
F1.0
ssbsg28
g0
(g29
g2
Ntp287
Rp288
(dp289
g33
I0
sbsba(ics475_types
Instance
p290
(dp291
g23
(ics475_types
FeatureVector
p292
(dp293
g26
(dp294
I2
F26.25
sI3
F1.54
sI4
F1.0
sI5
F1.0
sI7
F1.0
sI8
F0.125
sI9
F1.0
sI13
F1.0
sI14
F100.0
sI16
F1.0
sI20
F1.0
sI21
F1.0
sI31
F1.0
ssbsg28
g0
(g29
g2
Ntp295
Rp296
(dp297
g33
I0
sbsba(ics475_types
Instance
p298
(dp299
g23
(ics475_types
FeatureVector
p300
(dp301
g26
(dp302
I1
F1.0
sI2
F20.83
sI3
F3.0
sI4
F1.0
sI5
F1.0
sI7
F1.0
sI8
F0.04
sI13
F1.0
sI14
F100.0
sI20
F1.0
sI21
F1.0
sI33
F1.0
sI37
F1.0
ssbsg28
g0
(g29
g2
Ntp303
Rp304
(dp305
g33
I1
sbsba(ics475_types
Instance
p306
(dp307
g23
(ics475_types
FeatureVector
p308
(dp309
g26
(dp310
I33
F1.0
sI2
F48.5
sI3
F4.25
sI4
F1.0
sI5
F1.0
sI7
F1.0
sI8
F0.125
sI12
F1.0
sI13
F1.0
sI14
F225.0
sI16
F1.0
sI35
F1.0
sI20
F1.0
ssbsg28
g0
(g29
g2
Ntp311
Rp312
(dp313
g33
I1
sbsba(ics475_types
Instance
p314
(dp315
g23
(ics475_types
FeatureVector
p316
(dp317
g26
(dp318
I1
F1.0
sI2
F32.17
sI3
F1.46
sI4
F1.0
sI5
F1.0
sI7
F1.0
sI8
F1.085
sI10
F1.0
sI11
F16.0
sI13
F1.0
sI14
F120.0
sI15
F2079.0
sI21
F1.0
sI33
F1.0
sI31
F1.0
ssbsg28
g0
(g29
g2
Ntp319
Rp320
(dp321
g33
I1
sbsba(ics475_types
Instance
p322
(dp323
g23
(ics475_types
FeatureVector
p324
(dp325
g26
(dp326
I1
F1.0
sI2
F25.08
sI3
F2.54
sI33
F1.0
sI7
F1.0
sI8
F0.25
sI12
F1.0
sI13
F1.0
sI14
F370.0
sI17
F1.0
sI18
F1.0
sI20
F1.0
sI37
F1.0
ssbsg28
g0
(g29
g2
Ntp327
Rp328
(dp329
g33
I1
sbsba(ics475_types
Instance
p330
(dp331
g23
(ics475_types
FeatureVector
p332
(dp333
g26
(dp334
I33
F1.0
sI2
F33.5
sI3
F1.75
sI4
F1.0
sI5
F1.0
sI39
F1.0
sI8
F4.5
sI10
F1.0
sI11
F4.0
sI12
F1.0
sI13
F1.0
sI14
F253.0
sI15
F857.0
sI16
F1.0
sI27
F1.0
ssbsg28
g0
(g29
g2
Ntp335
Rp336
(dp337
g33
I1
sbsba(ics475_types
Instance
p338
(dp339
g23
(ics475_types
FeatureVector
p340
(dp341
g26
(dp342
I33
F1.0
sI2
F19.17
sI3
F9.5
sI4
F1.0
sI5
F1.0
sI7
F1.0
sI8
F1.5
sI13
F1.0
sI14
F120.0
sI15
F2206.0
sI16
F1.0
sI20
F1.0
sI21
F1.0
sI31
F1.0
ssbsg28
g0
(g29
g2
Ntp343
Rp344
(dp345
g33
I1
sbsba(ics475_types
Instance
p346
(dp347
g23
(ics475_types
FeatureVector
p348
(dp349
g26
(dp350
I33
F1.0
sI2
F26.67
sI3
F1.75
sI6
F1.0
sI7
F1.0
sI8
F1.0
sI10
F1.0
sI11
F5.0
sI12
F1.0
sI13
F1.0
sI14
F160.0
sI15
F5777.0
sI16
F1.0
sI17
F1.0
sI18
F1.0
ssbsg28
g0
(g29
g2
Ntp351
Rp352
(dp353
g33
I1
sbsba(ics475_types
Instance
p354
(dp355
g23
(ics475_types
FeatureVector
p356
(dp357
g26
(dp358
I33
F1.0
sI2
F23.0
sI3
F0.75
sI4
F1.0
sI5
F1.0
sI7
F1.0
sI8
F0.5
sI12
F1.0
sI14
F320.0
sI16
F1.0
sI35
F1.0
sI20
F1.0
sI22
F1.0
ssbsg28
g0
(g29
g2
Ntp359
Rp360
(dp361
g33
I0
sbsba(ics475_types
Instance
p362
(dp363
g23
(ics475_types
FeatureVector
p364
(dp365
g26
(dp366
I33
F1.0
sI2
F57.42
sI3
F8.5
sI4
F1.0
sI5
F1.0
sI8
F7.0
sI41
F1.0
sI10
F1.0
sI11
F3.0
sI13
F1.0
sI16
F1.0
sI21
F1.0
sI27
F1.0
ssbsg28
g0
(g29
g2
Ntp367
Rp368
(dp369
g33
I1
sbsba(ics475_types
Instance
p370
(dp371
g23
(ics475_types
FeatureVector
p372
(dp373
g26
(dp374
I33
F1.0
sI2
F20.67
sI3
F5.29
sI4
F1.0
sI5
F1.0
sI7
F1.0
sI8
F0.375
sI10
F1.0
sI11
F1.0
sI13
F1.0
sI14
F160.0
sI16
F1.0
sI21
F1.0
sI30
F1.0
ssbsg28
g0
(g29
g2
Ntp375
Rp376
(dp377
g33
I0
sbsba(ics475_types
Instance
p378
(dp379
g23
(ics475_types
FeatureVector
p380
(dp381
g26
(dp382
I33
F1.0
sI2
F21.83
sI3
F11.0
sI4
F1.0
sI5
F1.0
sI7
F1.0
sI8
F0.29
sI10
F1.0
sI11
F6.0
sI13
F1.0
sI14
F121.0
sI16
F1.0
sI21
F1.0
sI39
F1.0
ssbsg28
g0
(g29
g2
Ntp383
Rp384
(dp385
g33
I1
sbsba(ics475_types
Instance
p386
(dp387
g23
(ics475_types
FeatureVector
p388
(dp389
g26
(dp390
I2
F15.17
sI3
F7.0
sI4
F1.0
sI5
F1.0
sI7
F1.0
sI8
F1.0
sI9
F1.0
sI13
F1.0
sI14
F600.0
sI16
F1.0
sI20
F1.0
sI21
F1.0
sI41
F1.0
ssbsg28
g0
(g29
g2
Ntp391
Rp392
(dp393
g33
I0
sbsba(ics475_types
Instance
p394
(dp395
g23
(ics475_types
FeatureVector
p396
(dp397
g26
(dp398
I2
F22.25
sI3
F9.0
sI4
F1.0
sI5
F1.0
sI7
F1.0
sI8
F0.085
sI9
F1.0
sI13
F1.0
sI16
F1.0
sI20
F1.0
sI21
F1.0
sI37
F1.0
ssbsg28
g0
(g29
g2
Ntp399
Rp400
(dp401
g33
I0
sbsba(ics475_types
Instance
p402
(dp403
g23
(ics475_types
FeatureVector
p404
(dp405
g26
(dp406
I33
F1.0
sI2
F25.17
sI3
F6.0
sI4
F1.0
sI5
F1.0
sI6
F1.0
sI7
F1.0
sI8
F1.0
sI10
F1.0
sI11
F3.0
sI13
F1.0
sI16
F1.0
sI21
F1.0
ssbsg28
g0
(g29
g2
Ntp407
Rp408
(dp409
g33
I1
sbsba(ics475_types
Instance
p410
(dp411
g23
(ics475_types
FeatureVector
p412
(dp413
g26
(dp414
I2
F38.92
sI3
F1.75
sI4
F1.0
sI5
F1.0
sI7
F1.0
sI8
F0.5
sI9
F1.0
sI12
F1.0
sI13
F1.0
sI14
F300.0
sI15
F2.0
sI16
F1.0
sI19
F1.0
sI20
F1.0
ssbsg28
g0
(g29
g2
Ntp415
Rp416
(dp417
g33
I0
sbsba(ics475_types
Instance
p418
(dp419
g23
(ics475_types
FeatureVector
p420
(dp421
g26
(dp422
I2
F20.08
sI3
F0.25
sI4
F1.0
sI5
F1.0
sI7
F1.0
sI8
F0.125
sI9
F1.0
sI13
F1.0
sI14
F200.0
sI16
F1.0
sI20
F1.0
sI21
F1.0
sI30
F1.0
ssbsg28
g0
(g29
g2
Ntp423
Rp424
(dp425
g33
I0
sbsba(ics475_types
Instance
p426
(dp427
g23
(ics475_types
FeatureVector
p428
(dp429
g26
(dp430
I2
F22.08
sI3
F11.46
sI4
F1.0
sI5
F1.0
sI7
F1.0
sI8
F1.585
sI9
F1.0
sI12
F1.0
sI13
F1.0
sI14
F100.0
sI15
F1212.0
sI16
F1.0
sI19
F1.0
sI20
F1.0
ssbsg28
g0
(g29
g2
Ntp431
Rp432
(dp433
g33
I0
sbsba(ics475_types
Instance
p434
(dp435
g23
(ics475_types
FeatureVector
p436
(dp437
g26
(dp438
I33
F1.0
sI2
F42.0
sI3
F0.205
sI4
F1.0
sI5
F1.0
sI8
F5.125
sI13
F1.0
sI14
F400.0
sI16
F1.0
sI20
F1.0
sI21
F1.0
sI25
F1.0
sI27
F1.0
ssbsg28
g0
(g29
g2
Ntp439
Rp440
(dp441
g33
I1
sbsba(ics475_types
Instance
p442
(dp443
g23
(ics475_types
FeatureVector
p444
(dp445
g26
(dp446
I2
F26.83
sI3
F0.54
sI4
F1.0
sI5
F1.0
sI9
F1.0
sI13
F1.0
sI14
F100.0
sI16
F1.0
sI19
F1.0
sI20
F1.0
sI21
F1.0
sI24
F1.0
ssbsg28
g0
(g29
g2
Ntp447
Rp448
(dp449
g33
I0
sbsba(ics475_types
Instance
p450
(dp451
g23
(ics475_types
FeatureVector
p452
(dp453
g26
(dp454
I32
F1.0
sI2
F27.42
sI3
F12.5
sI4
F1.0
sI5
F1.0
sI8
F0.25
sI9
F1.0
sI12
F1.0
sI13
F1.0
sI14
F720.0
sI16
F1.0
sI20
F1.0
sI37
F1.0
ssbsg28
g0
(g29
g2
Ntp455
Rp456
(dp457
g33
I0
sbsba(ics475_types
Instance
p458
(dp459
g23
(ics475_types
FeatureVector
p460
(dp461
g26
(dp462
I33
F1.0
sI2
F41.58
sI3
F1.75
sI4
F1.0
sI5
F1.0
sI7
F1.0
sI8
F0.21
sI13
F1.0
sI14
F160.0
sI16
F1.0
sI19
F1.0
sI20
F1.0
sI21
F1.0
ssbsg28
g0
(g29
g2
Ntp463
Rp464
(dp465
g33
I0
sbsba(ics475_types
Instance
p466
(dp467
g23
(ics475_types
FeatureVector
p468
(dp469
g26
(dp470
I1
F1.0
sI2
F39.08
sI3
F4.0
sI4
F1.0
sI5
F1.0
sI6
F1.0
sI7
F1.0
sI8
F3.0
sI9
F1.0
sI13
F1.0
sI14
F480.0
sI20
F1.0
sI21
F1.0
ssbsg28
g0
(g29
g2
Ntp471
Rp472
(dp473
g33
I0
sbsba(ics475_types
Instance
p474
(dp475
g23
(ics475_types
FeatureVector
p476
(dp477
g26
(dp478
I1
F1.0
sI2
F33.25
sI3
F2.5
sI6
F1.0
sI7
F1.0
sI8
F2.5
sI9
F1.0
sI12
F1.0
sI13
F1.0
sI15
F2.0
sI17
F1.0
sI18
F1.0
sI20
F1.0
ssbsg28
g0
(g29
g2
Ntp479
Rp480
(dp481
g33
I0
sbsba(ics475_types
Instance
p482
(dp483
g23
(ics475_types
FeatureVector
p484
(dp485
g26
(dp486
I33
F1.0
sI2
F32.0
sI3
F1.75
sI8
F0.04
sI41
F1.0
sI12
F1.0
sI13
F1.0
sI14
F393.0
sI16
F1.0
sI17
F1.0
sI18
F1.0
sI20
F1.0
sI27
F1.0
ssbsg28
g0
(g29
g2
Ntp487
Rp488
(dp489
g33
I1
sbsba(ics475_types
Instance
p490
(dp491
g23
(ics475_types
FeatureVector
p492
(dp493
g26
(dp494
I1
F1.0
sI2
F36.75
sI3
F4.71
sI4
F1.0
sI5
F1.0
sI9
F1.0
sI13
F1.0
sI14
F160.0
sI20
F1.0
sI21
F1.0
sI23
F1.0
sI24
F1.0
ssbsg28
g0
(g29
g2
Ntp495
Rp496
(dp497
g33
I0
sbsba(ics475_types
Instance
p498
(dp499
g23
(ics475_types
FeatureVector
p500
(dp501
g26
(dp502
I1
F1.0
sI2
F35.42
sI3
F12.0
sI4
F1.0
sI5
F1.0
sI33
F1.0
sI8
F14.0
sI10
F1.0
sI11
F8.0
sI13
F1.0
sI15
F6590.0
sI21
F1.0
sI27
F1.0
sI30
F1.0
ssbsg28
g0
(g29
g2
Ntp503
Rp504
(dp505
g33
I1
sbsba(ics475_types
Instance
p506
(dp507
g23
(ics475_types
FeatureVector
p508
(dp509
g26
(dp510
I1
F1.0
sI2
F26.17
sI3
F2.0
sI4
F1.0
sI5
F1.0
sI9
F1.0
sI12
F1.0
sI13
F1.0
sI14
F276.0
sI15
F1.0
sI20
F1.0
sI28
F1.0
sI29
F1.0
ssbsg28
g0
(g29
g2
Ntp511
Rp512
(dp513
g33
I0
sbsba(ics475_types
Instance
p514
(dp515
g23
(ics475_types
FeatureVector
p516
(dp517
g26
(dp518
I2
F25.83
sI3
F12.835
sI4
F1.0
sI5
F1.0
sI7
F1.0
sI8
F0.5
sI9
F1.0
sI13
F1.0
sI15
F2.0
sI16
F1.0
sI20
F1.0
sI21
F1.0
sI36
F1.0
ssbsg28
g0
(g29
g2
Ntp519
Rp520
(dp521
g33
I0
sbsba(ics475_types
Instance
p522
(dp523
g23
(ics475_types
FeatureVector
p524
(dp525
g26
(dp526
I2
F22.58
sI3
F1.5
sI37
F1.0
sI7
F1.0
sI8
F0.54
sI9
F1.0
sI12
F1.0
sI13
F1.0
sI14
F120.0
sI15
F67.0
sI16
F1.0
sI17
F1.0
sI18
F1.0
sI20
F1.0
ssbsg28
g0
(g29
g2
Ntp527
Rp528
(dp529
g33
I0
sbsba(ics475_types
Instance
p530
(dp531
g23
(ics475_types
FeatureVector
p532
(dp533
g26
(dp534
I33
F1.0
sI2
F22.67
sI3
F10.5
sI4
F1.0
sI5
F1.0
sI8
F1.335
sI13
F1.0
sI14
F100.0
sI16
F1.0
sI20
F1.0
sI21
F1.0
sI27
F1.0
sI30
F1.0
ssbsg28
g0
(g29
g2
Ntp535
Rp536
(dp537
g33
I1
sbsba(ics475_types
Instance
p538
(dp539
g23
(ics475_types
FeatureVector
p540
(dp541
g26
(dp542
I32
F1.0
sI2
F34.17
sI3
F2.75
sI4
F1.0
sI5
F1.0
sI8
F2.5
sI9
F1.0
sI12
F1.0
sI13
F1.0
sI14
F232.0
sI15
F200.0
sI16
F1.0
sI20
F1.0
sI25
F1.0
ssbsg28
g0
(g29
g2
Ntp543
Rp544
(dp545
g33
I0
sbsba(ics475_types
Instance
p546
(dp547
g23
(ics475_types
FeatureVector
p548
(dp549
g26
(dp550
I1
F1.0
sI2
F28.08
sI3
F15.0
sI33
F1.0
sI41
F1.0
sI42
F1.0
sI13
F1.0
sI15
F13212.0
sI17
F1.0
sI18
F1.0
sI20
F1.0
sI21
F1.0
ssbsg28
g0
(g29
g2
Ntp551
Rp552
(dp553
g33
I1
sbsba(ics475_types
Instance
p554
(dp555
g23
(ics475_types
FeatureVector
p556
(dp557
g26
(dp558
I33
F1.0
sI2
F25.5
sI3
F0.375
sI4
F1.0
sI5
F1.0
sI7
F1.0
sI8
F0.25
sI10
F1.0
sI11
F3.0
sI13
F1.0
sI14
F260.0
sI15
F15108.0
sI16
F1.0
sI35
F1.0
sI21
F1.0
ssbsg28
g0
(g29
g2
Ntp559
Rp560
(dp561
g33
I1
sbsba(ics475_types
Instance
p562
(dp563
g23
(ics475_types
FeatureVector
p564
(dp565
g26
(dp566
I2
F17.08
sI3
F0.085
sI6
F1.0
sI7
F1.0
sI8
F0.04
sI9
F1.0
sI13
F1.0
sI14
F140.0
sI15
F722.0
sI16
F1.0
sI17
F1.0
sI18
F1.0
sI20
F1.0
sI21
F1.0
ssbsg28
g0
(g29
g2
Ntp567
Rp568
(dp569
g33
I0
sbsba(ics475_types
Instance
p570
(dp571
g23
(ics475_types
FeatureVector
p572
(dp573
g26
(dp574
I32
F1.0
sI33
F1.0
sI2
F41.33
sI4
F1.0
sI5
F1.0
sI6
F1.0
sI8
F15.0
sI13
F1.0
sI16
F1.0
sI20
F1.0
sI21
F1.0
ssbsg28
g0
(g29
g2
Ntp575
Rp576
(dp577
g33
I1
sbsba(ics475_types
Instance
p578
(dp579
g23
(ics475_types
FeatureVector
p580
(dp581
g26
(dp582
I2
F31.25
sI3
F2.835
sI4
F1.0
sI5
F1.0
sI9
F1.0
sI10
F1.0
sI11
F5.0
sI13
F1.0
sI14
F176.0
sI15
F146.0
sI16
F1.0
sI21
F1.0
sI23
F1.0
sI24
F1.0
ssbsg28
g0
(g29
g2
Ntp583
Rp584
(dp585
g33
I0
sbsba(ics475_types
Instance
p586
(dp587
g23
(ics475_types
FeatureVector
p588
(dp589
g26
(dp590
I33
F1.0
sI2
F31.42
sI3
F15.5
sI4
F1.0
sI5
F1.0
sI6
F1.0
sI7
F1.0
sI8
F0.5
sI13
F1.0
sI14
F120.0
sI16
F1.0
sI20
F1.0
sI21
F1.0
ssbsg28
g0
(g29
g2
Ntp591
Rp592
(dp593
g33
I0
sbsba(ics475_types
Instance
p594
(dp595
g23
(ics475_types
FeatureVector
p596
(dp597
g26
(dp598
I1
F1.0
sI2
F32.0
sI3
F6.0
sI4
F1.0
sI5
F1.0
sI7
F1.0
sI8
F1.25
sI9
F1.0
sI13
F1.0
sI14
F272.0
sI34
F1.0
sI20
F1.0
sI21
F1.0
ssbsg28
g0
(g29
g2
Ntp599
Rp600
(dp601
g33
I0
sbsba(ics475_types
Instance
p602
(dp603
g23
(ics475_types
FeatureVector
p604
(dp605
g26
(dp606
I33
F1.0
sI2
F22.83
sI3
F3.0
sI4
F1.0
sI5
F1.0
sI7
F1.0
sI8
F1.29
sI10
F1.0
sI11
F1.0
sI13
F1.0
sI14
F260.0
sI15
F800.0
sI16
F1.0
sI35
F1.0
sI21
F1.0
ssbsg28
g0
(g29
g2
Ntp607
Rp608
(dp609
g33
I1
sbsba(ics475_types
Instance
p610
(dp611
g23
(ics475_types
FeatureVector
p612
(dp613
g26
(dp614
I33
F1.0
sI2
F23.25
sI3
F1.0
sI4
F1.0
sI5
F1.0
sI6
F1.0
sI7
F1.0
sI8
F0.835
sI14
F300.0
sI16
F1.0
sI20
F1.0
sI21
F1.0
sI22
F1.0
ssbsg28
g0
(g29
g2
Ntp615
Rp616
(dp617
g33
I1
sbsba(ics475_types
Instance
p618
(dp619
g23
(ics475_types
FeatureVector
p620
(dp621
g26
(dp622
I1
F1.0
sI2
F31.25
sI3
F3.75
sI4
F1.0
sI5
F1.0
sI33
F1.0
sI8
F0.625
sI10
F1.0
sI11
F9.0
sI12
F1.0
sI13
F1.0
sI14
F181.0
sI36
F1.0
sI27
F1.0
ssbsg28
g0
(g29
g2
Ntp623
Rp624
(dp625
g33
I1
sbsba(ics475_types
Instance
p626
(dp627
g23
(ics475_types
FeatureVector
p628
(dp629
g26
(dp630
I33
F1.0
sI2
F37.42
sI3
F2.04
sI4
F1.0
sI5
F1.0
sI7
F1.0
sI8
F0.04
sI12
F1.0
sI13
F1.0
sI14
F400.0
sI15
F5800.0
sI16
F1.0
sI20
F1.0
sI31
F1.0
ssbsg28
g0
(g29
g2
Ntp631
Rp632
(dp633
g33
I1
sbsba(ics475_types
Instance
p634
(dp635
g23
(ics475_types
FeatureVector
p636
(dp637
g26
(dp638
I33
F1.0
sI2
F36.67
sI3
F3.25
sI4
F1.0
sI5
F1.0
sI8
F9.0
sI12
F1.0
sI13
F1.0
sI14
F102.0
sI15
F639.0
sI16
F1.0
sI20
F1.0
sI27
F1.0
sI30
F1.0
ssbsg28
g0
(g29
g2
Ntp639
Rp640
(dp641
g33
I1
sbsba(ics475_types
Instance
p642
(dp643
g23
(ics475_types
FeatureVector
p644
(dp645
g26
(dp646
I2
F34.67
sI3
F1.08
sI4
F1.0
sI5
F1.0
sI7
F1.0
sI8
F1.165
sI9
F1.0
sI14
F28.0
sI16
F1.0
sI35
F1.0
sI20
F1.0
sI21
F1.0
sI22
F1.0
ssbsg28
g0
(g29
g2
Ntp647
Rp648
(dp649
g33
I0
sbsba(ics475_types
Instance
p650
(dp651
g23
(ics475_types
FeatureVector
p652
(dp653
g26
(dp654
I1
F1.0
sI2
F33.08
sI3
F4.625
sI4
F1.0
sI5
F1.0
sI33
F1.0
sI8
F1.625
sI10
F1.0
sI11
F2.0
sI13
F1.0
sI21
F1.0
sI27
F1.0
sI30
F1.0
ssbsg28
g0
(g29
g2
Ntp655
Rp656
(dp657
g33
I1
sbsba(ics475_types
Instance
p658
(dp659
g23
(ics475_types
FeatureVector
p660
(dp661
g26
(dp662
I1
F1.0
sI2
F53.33
sI3
F0.165
sI4
F1.0
sI5
F1.0
sI9
F1.0
sI12
F1.0
sI14
F62.0
sI15
F27.0
sI20
F1.0
sI22
F1.0
sI23
F1.0
sI24
F1.0
ssbsg28
g0
(g29
g2
Ntp663
Rp664
(dp665
g33
I0
sbsba(ics475_types
Instance
p666
(dp667
g23
(ics475_types
FeatureVector
p668
(dp669
g26
(dp670
I2
F25.67
sI3
F0.29
sI6
F1.0
sI7
F1.0
sI8
F1.5
sI9
F1.0
sI12
F1.0
sI13
F1.0
sI14
F160.0
sI16
F1.0
sI17
F1.0
sI18
F1.0
sI20
F1.0
ssbsg28
g0
(g29
g2
Ntp671
Rp672
(dp673
g33
I0
sbsba(ics475_types
Instance
p674
(dp675
g23
(ics475_types
FeatureVector
p676
(dp677
g26
(dp678
I33
F1.0
sI2
F22.67
sI3
F1.585
sI7
F1.0
sI8
F3.085
sI10
F1.0
sI11
F6.0
sI13
F1.0
sI14
F80.0
sI16
F1.0
sI17
F1.0
sI18
F1.0
sI21
F1.0
sI31
F1.0
ssbsg28
g0
(g29
g2
Ntp679
Rp680
(dp681
g33
I1
sbsba(ics475_types
Instance
p682
(dp683
g23
(ics475_types
FeatureVector
p684
(dp685
g26
(dp686
I33
F1.0
sI2
F28.25
sI3
F0.875
sI4
F1.0
sI5
F1.0
sI7
F1.0
sI8
F0.96
sI10
F1.0
sI11
F3.0
sI12
F1.0
sI13
F1.0
sI14
F396.0
sI16
F1.0
sI35
F1.0
ssbsg28
g0
(g29
g2
Ntp687
Rp688
(dp689
g33
I1
sbsba(ics475_types
Instance
p690
(dp691
g23
(ics475_types
FeatureVector
p692
(dp693
g26
(dp694
I33
F1.0
sI2
F35.25
sI3
F16.5
sI6
F1.0
sI7
F1.0
sI8
F4.0
sI13
F1.0
sI14
F80.0
sI16
F1.0
sI17
F1.0
sI18
F1.0
sI20
F1.0
sI21
F1.0
ssbsg28
g0
(g29
g2
Ntp695
Rp696
(dp697
g33
I0
sbsba(ics475_types
Instance
p698
(dp699
g23
(ics475_types
FeatureVector
p700
(dp701
g26
(dp702
I2
F51.83
sI3
F2.04
sI8
F1.5
sI9
F1.0
sI13
F1.0
sI14
F120.0
sI15
F1.0
sI16
F1.0
sI17
F1.0
sI18
F1.0
sI20
F1.0
sI21
F1.0
sI23
F1.0
sI24
F1.0
ssbsg28
g0
(g29
g2
Ntp703
Rp704
(dp705
g33
I0
sbsba(ics475_types
Instance
p706
(dp707
g23
(ics475_types
FeatureVector
p708
(dp709
g26
(dp710
I1
F1.0
sI2
F22.83
sI3
F2.29
sI4
F1.0
sI5
F1.0
sI33
F1.0
sI8
F2.29
sI10
F1.0
sI11
F7.0
sI12
F1.0
sI13
F1.0
sI14
F140.0
sI15
F2384.0
sI27
F1.0
sI30
F1.0
ssbsg28
g0
(g29
g2
Ntp711
Rp712
(dp713
g33
I1
sbsba(ics475_types
Instance
p714
(dp715
g23
(ics475_types
FeatureVector
p716
(dp717
g26
(dp718
I2
F36.67
sI3
F2.0
sI4
F1.0
sI5
F1.0
sI7
F1.0
sI8
F0.25
sI9
F1.0
sI12
F1.0
sI13
F1.0
sI14
F221.0
sI16
F1.0
sI20
F1.0
sI25
F1.0
ssbsg28
g0
(g29
g2
Ntp719
Rp720
(dp721
g33
I0
sbsba(ics475_types
Instance
p722
(dp723
g23
(ics475_types
FeatureVector
p724
(dp725
g26
(dp726
I33
F1.0
sI2
F18.08
sI3
F5.5
sI4
F1.0
sI5
F1.0
sI7
F1.0
sI8
F0.5
sI13
F1.0
sI14
F80.0
sI16
F1.0
sI19
F1.0
sI20
F1.0
sI21
F1.0
ssbsg28
g0
(g29
g2
Ntp727
Rp728
(dp729
g33
I1
sbsba(ics475_types
Instance
p730
(dp731
g23
(ics475_types
FeatureVector
p732
(dp733
g26
(dp734
I33
F1.0
sI2
F54.42
sI3
F0.5
sI8
F3.96
sI13
F1.0
sI14
F180.0
sI15
F314.0
sI16
F1.0
sI17
F1.0
sI18
F1.0
sI19
F1.0
sI20
F1.0
sI21
F1.0
sI27
F1.0
ssbsg28
g0
(g29
g2
Ntp735
Rp736
(dp737
g33
I1
sbsba(ics475_types
Instance
p738
(dp739
g23
(ics475_types
FeatureVector
p740
(dp741
g26
(dp742
I2
F35.58
sI3
F0.75
sI4
F1.0
sI5
F1.0
sI7
F1.0
sI8
F1.5
sI9
F1.0
sI12
F1.0
sI13
F1.0
sI14
F231.0
sI16
F1.0
sI19
F1.0
sI20
F1.0
ssbsg28
g0
(g29
g2
Ntp743
Rp744
(dp745
g33
I0
sbsba(ics475_types
Instance
p746
(dp747
g23
(ics475_types
FeatureVector
p748
(dp749
g26
(dp750
I1
F1.0
sI2
F20.42
sI3
F0.835
sI4
F1.0
sI5
F1.0
sI7
F1.0
sI8
F1.585
sI10
F1.0
sI11
F1.0
sI13
F1.0
sI21
F1.0
sI33
F1.0
sI30
F1.0
ssbsg28
g0
(g29
g2
Ntp751
Rp752
(dp753
g33
I1
sbsba(ics475_types
Instance
p754
(dp755
g23
(ics475_types
FeatureVector
p756
(dp757
g26
(dp758
I1
F1.0
sI2
F38.75
sI3
F1.5
sI4
F1.0
sI5
F1.0
sI9
F1.0
sI13
F1.0
sI14
F76.0
sI20
F1.0
sI21
F1.0
sI23
F1.0
sI24
F1.0
ssbsg28
g0
(g29
g2
Ntp759
Rp760
(dp761
g33
I0
sbsba(ics475_types
Instance
p762
(dp763
g23
(ics475_types
FeatureVector
p764
(dp765
g26
(dp766
I1
F1.0
sI2
F25.42
sI3
F1.125
sI4
F1.0
sI5
F1.0
sI7
F1.0
sI8
F1.29
sI10
F1.0
sI11
F2.0
sI13
F1.0
sI14
F200.0
sI21
F1.0
sI33
F1.0
sI30
F1.0
ssbsg28
g0
(g29
g2
Ntp767
Rp768
(dp769
g33
I0
sbsba(ics475_types
Instance
p770
(dp771
g23
(ics475_types
FeatureVector
p772
(dp773
g26
(dp774
I32
F1.0
sI1
F1.0
sI2
F47.42
sI3
F8.0
sI4
F1.0
sI5
F1.0
sI33
F1.0
sI8
F6.5
sI41
F1.0
sI10
F1.0
sI11
F6.0
sI13
F1.0
sI14
F375.0
sI15
F51100.0
sI21
F1.0
ssbsg28
g0
(g29
g2
Ntp775
Rp776
(dp777
g33
I1
sbsba(ics475_types
Instance
p778
(dp779
g23
(ics475_types
FeatureVector
p780
(dp781
g26
(dp782
I33
F1.0
sI2
F36.33
sI3
F3.79
sI4
F1.0
sI5
F1.0
sI7
F1.0
sI8
F1.165
sI12
F1.0
sI13
F1.0
sI14
F200.0
sI16
F1.0
sI20
F1.0
sI31
F1.0
ssbsg28
g0
(g29
g2
Ntp783
Rp784
(dp785
g33
I0
sbsba(ics475_types
Instance
p786
(dp787
g23
(ics475_types
FeatureVector
p788
(dp789
g26
(dp790
I2
F20.42
sI3
F1.085
sI4
F1.0
sI5
F1.0
sI7
F1.0
sI8
F1.5
sI9
F1.0
sI13
F1.0
sI14
F108.0
sI15
F7.0
sI16
F1.0
sI20
F1.0
sI21
F1.0
sI30
F1.0
ssbsg28
g0
(g29
g2
Ntp791
Rp792
(dp793
g33
I0
sbsba(ics475_types
Instance
p794
(dp795
g23
(ics475_types
FeatureVector
p796
(dp797
g26
(dp798
I2
F17.92
sI3
F0.205
sI4
F1.0
sI5
F1.0
sI7
F1.0
sI8
F0.04
sI9
F1.0
sI13
F1.0
sI14
F280.0
sI15
F750.0
sI16
F1.0
sI20
F1.0
sI21
F1.0
sI37
F1.0
ssbsg28
g0
(g29
g2
Ntp799
Rp800
(dp801
g33
I0
sbsba(ics475_types
Instance
p802
(dp803
g23
(ics475_types
FeatureVector
p804
(dp805
g26
(dp806
I2
F35.0
sI3
F2.5
sI4
F1.0
sI5
F1.0
sI7
F1.0
sI8
F1.0
sI9
F1.0
sI12
F1.0
sI13
F1.0
sI14
F210.0
sI16
F1.0
sI20
F1.0
sI25
F1.0
ssbsg28
g0
(g29
g2
Ntp807
Rp808
(dp809
g33
I0
sbsba(ics475_types
Instance
p810
(dp811
g23
(ics475_types
FeatureVector
p812
(dp813
g26
(dp814
I33
F1.0
sI2
F34.92
sI3
F5.0
sI4
F1.0
sI5
F1.0
sI39
F1.0
sI8
F7.5
sI10
F1.0
sI11
F6.0
sI12
F1.0
sI13
F1.0
sI15
F1000.0
sI16
F1.0
sI27
F1.0
ssbsg28
g0
(g29
g2
Ntp815
Rp816
(dp817
g33
I1
sbsba(ics475_types
Instance
p818
(dp819
g23
(ics475_types
FeatureVector
p820
(dp821
g26
(dp822
I1
F1.0
sI2
F18.83
sI3
F9.54
sI4
F1.0
sI5
F1.0
sI7
F1.0
sI8
F0.085
sI13
F1.0
sI14
F100.0
sI20
F1.0
sI21
F1.0
sI33
F1.0
sI37
F1.0
ssbsg28
g0
(g29
g2
Ntp823
Rp824
(dp825
g33
I1
sbsba(ics475_types
Instance
p826
(dp827
g23
(ics475_types
FeatureVector
p828
(dp829
g26
(dp830
I2
F22.67
sI3
F0.75
sI4
F1.0
sI5
F1.0
sI7
F1.0
sI8
F1.585
sI9
F1.0
sI10
F1.0
sI11
F1.0
sI12
F1.0
sI13
F1.0
sI14
F400.0
sI15
F9.0
sI16
F1.0
sI25
F1.0
ssbsg28
g0
(g29
g2
Ntp831
Rp832
(dp833
g33
I0
sbsba(ics475_types
Instance
p834
(dp835
g23
(ics475_types
FeatureVector
p836
(dp837
g26
(dp838
I33
F1.0
sI2
F31.83
sI3
F2.5
sI4
F1.0
sI5
F1.0
sI7
F1.0
sI8
F7.5
sI12
F1.0
sI13
F1.0
sI14
F523.0
sI16
F1.0
sI20
F1.0
sI37
F1.0
ssbsg28
g0
(g29
g2
Ntp839
Rp840
(dp841
g33
I0
sbsba(ics475_types
Instance
p842
(dp843
g23
(ics475_types
FeatureVector
p844
(dp845
g26
(dp846
I33
F1.0
sI2
F23.17
sI3
F11.125
sI4
F1.0
sI5
F1.0
sI39
F1.0
sI8
F0.46
sI10
F1.0
sI11
F1.0
sI13
F1.0
sI14
F100.0
sI16
F1.0
sI21
F1.0
sI27
F1.0
ssbsg28
g0
(g29
g2
Ntp847
Rp848
(dp849
g33
I1
sbsba(ics475_types
Instance
p850
(dp851
g23
(ics475_types
FeatureVector
p852
(dp853
g26
(dp854
I33
F1.0
sI2
F41.92
sI3
F0.42
sI4
F1.0
sI5
F1.0
sI6
F1.0
sI8
F0.21
sI10
F1.0
sI11
F6.0
sI13
F1.0
sI14
F220.0
sI15
F948.0
sI16
F1.0
sI21
F1.0
sI27
F1.0
ssbsg28
g0
(g29
g2
Ntp855
Rp856
(dp857
g33
I1
sbsba(ics475_types
Instance
p858
(dp859
g23
(ics475_types
FeatureVector
p860
(dp861
g26
(dp862
I33
F1.0
sI2
F48.75
sI3
F8.5
sI4
F1.0
sI5
F1.0
sI6
F1.0
sI8
F12.5
sI10
F1.0
sI11
F9.0
sI13
F1.0
sI14
F181.0
sI15
F1655.0
sI16
F1.0
sI21
F1.0
sI27
F1.0
ssbsg28
g0
(g29
g2
Ntp863
Rp864
(dp865
g33
I1
sbsba(ics475_types
Instance
p866
(dp867
g23
(ics475_types
FeatureVector
p868
(dp869
g26
(dp870
I1
F1.0
sI2
F47.25
sI3
F0.75
sI4
F1.0
sI5
F1.0
sI33
F1.0
sI8
F2.75
sI10
F1.0
sI11
F1.0
sI13
F1.0
sI14
F333.0
sI15
F892.0
sI21
F1.0
sI27
F1.0
sI30
F1.0
ssbsg28
g0
(g29
g2
Ntp871
Rp872
(dp873
g33
I1
sbsba(ics475_types
Instance
p874
(dp875
g23
(ics475_types
FeatureVector
p876
(dp877
g26
(dp878
I33
F1.0
sI2
F18.67
sI3
F5.0
sI4
F1.0
sI5
F1.0
sI7
F1.0
sI8
F0.375
sI10
F1.0
sI11
F2.0
sI13
F1.0
sI15
F38.0
sI16
F1.0
sI21
F1.0
sI30
F1.0
ssbsg28
g0
(g29
g2
Ntp879
Rp880
(dp881
g33
I0
sbsba(ics475_types
Instance
p882
(dp883
g23
(ics475_types
FeatureVector
p884
(dp885
g26
(dp886
I1
F1.0
sI2
F29.58
sI3
F1.75
sI7
F1.0
sI8
F1.25
sI9
F1.0
sI12
F1.0
sI13
F1.0
sI14
F280.0
sI17
F1.0
sI18
F1.0
sI19
F1.0
sI20
F1.0
ssbsg28
g0
(g29
g2
Ntp887
Rp888
(dp889
g33
I0
sbsba(ics475_types
Instance
p890
(dp891
g23
(ics475_types
FeatureVector
p892
(dp893
g26
(dp894
I33
F1.0
sI2
F35.17
sI3
F25.125
sI4
F1.0
sI5
F1.0
sI39
F1.0
sI8
F1.625
sI10
F1.0
sI11
F1.0
sI12
F1.0
sI13
F1.0
sI14
F515.0
sI15
F500.0
sI16
F1.0
sI27
F1.0
ssbsg28
g0
(g29
g2
Ntp895
Rp896
(dp897
g33
I1
sbsba(ics475_types
Instance
p898
(dp899
g23
(ics475_types
FeatureVector
p900
(dp901
g26
(dp902
I2
F26.17
sI3
F12.5
sI8
F1.25
sI9
F1.0
sI12
F1.0
sI13
F1.0
sI15
F17.0
sI16
F1.0
sI17
F1.0
sI18
F1.0
sI19
F1.0
sI20
F1.0
sI27
F1.0
ssbsg28
g0
(g29
g2
Ntp903
Rp904
(dp905
g33
I0
sbsba(ics475_types
Instance
p906
(dp907
g23
(ics475_types
FeatureVector
p908
(dp909
g26
(dp910
I1
F1.0
sI2
F32.33
sI3
F0.54
sI4
F1.0
sI5
F1.0
sI7
F1.0
sI8
F0.04
sI13
F1.0
sI14
F440.0
sI15
F11177.0
sI20
F1.0
sI21
F1.0
sI36
F1.0
sI33
F1.0
ssbsg28
g0
(g29
g2
Ntp911
Rp912
(dp913
g33
I1
sbsba(ics475_types
Instance
p914
(dp915
g23
(ics475_types
FeatureVector
p916
(dp917
g26
(dp918
I33
F1.0
sI2
F40.92
sI3
F0.835
sI4
F1.0
sI5
F1.0
sI13
F1.0
sI14
F130.0
sI15
F1.0
sI16
F1.0
sI20
F1.0
sI21
F1.0
sI23
F1.0
sI24
F1.0
ssbsg28
g0
(g29
g2
Ntp919
Rp920
(dp921
g33
I0
sbsba(ics475_types
Instance
p922
(dp923
g23
(ics475_types
FeatureVector
p924
(dp925
g26
(dp926
I33
F1.0
sI2
F21.5
sI3
F11.5
sI4
F1.0
sI5
F1.0
sI7
F1.0
sI8
F0.5
sI12
F1.0
sI13
F1.0
sI14
F100.0
sI15
F68.0
sI16
F1.0
sI20
F1.0
sI25
F1.0
ssbsg28
g0
(g29
g2
Ntp927
Rp928
(dp929
g33
I0
sbsba(ics475_types
Instance
p930
(dp931
g23
(ics475_types
FeatureVector
p932
(dp933
g26
(dp934
I32
F1.0
sI33
F1.0
sI2
F34.5
sI3
F4.04
sI8
F8.5
sI10
F1.0
sI11
F7.0
sI12
F1.0
sI13
F1.0
sI14
F195.0
sI16
F1.0
sI17
F1.0
sI18
F1.0
sI25
F1.0
ssbsg28
g0
(g29
g2
Ntp935
Rp936
(dp937
g33
I1
sbsba(ics475_types
Instance
p938
(dp939
g23
(ics475_types
FeatureVector
p940
(dp941
g26
(dp942
I1
F1.0
sI2
F60.92
sI3
F5.0
sI4
F1.0
sI5
F1.0
sI7
F1.0
sI8
F4.0
sI10
F1.0
sI11
F4.0
sI13
F1.0
sI15
F99.0
sI21
F1.0
sI33
F1.0
sI37
F1.0
ssbsg28
g0
(g29
g2
Ntp943
Rp944
(dp945
g33
I1
sbsba(ics475_types
Instance
p946
(dp947
g23
(ics475_types
FeatureVector
p948
(dp949
g26
(dp950
I33
F1.0
sI2
F67.75
sI3
F5.5
sI4
F1.0
sI5
F1.0
sI8
F13.0
sI41
F1.0
sI10
F1.0
sI11
F1.0
sI12
F1.0
sI13
F1.0
sI16
F1.0
sI42
F1.0
ssbsg28
g0
(g29
g2
Ntp951
Rp952
(dp953
g33
I1
sbsba(ics475_types
Instance
p954
(dp955
g23
(ics475_types
FeatureVector
p956
(dp957
g26
(dp958
I1
F1.0
sI2
F41.17
sI3
F6.5
sI4
F1.0
sI5
F1.0
sI7
F1.0
sI8
F0.5
sI10
F1.0
sI11
F3.0
sI12
F1.0
sI13
F1.0
sI14
F145.0
sI33
F1.0
sI30
F1.0
ssbsg28
g0
(g29
g2
Ntp959
Rp960
(dp961
g33
I1
sbsba(ics475_types
Instance
p962
(dp963
g23
(ics475_types
FeatureVector
p964
(dp965
g26
(dp966
I33
F1.0
sI2
F39.92
sI3
F0.54
sI37
F1.0
sI7
F1.0
sI8
F0.5
sI10
F1.0
sI11
F3.0
sI13
F1.0
sI14
F200.0
sI15
F1000.0
sI16
F1.0
sI17
F1.0
sI18
F1.0
sI21
F1.0
ssbsg28
g0
(g29
g2
Ntp967
Rp968
(dp969
g33
I1
sbsba(ics475_types
Instance
p970
(dp971
g23
(ics475_types
FeatureVector
p972
(dp973
g26
(dp974
I33
F1.0
sI2
F48.25
sI3
F25.085
sI4
F1.0
sI5
F1.0
sI7
F1.0
sI8
F1.75
sI10
F1.0
sI11
F3.0
sI13
F1.0
sI14
F120.0
sI15
F14.0
sI16
F1.0
sI21
F1.0
sI31
F1.0
ssbsg28
g0
(g29
g2
Ntp975
Rp976
(dp977
g33
I1
sbsba(ics475_types
Instance
p978
(dp979
g23
(ics475_types
FeatureVector
p980
(dp981
g26
(dp982
I33
F1.0
sI2
F27.0
sI3
F1.5
sI7
F1.0
sI8
F0.375
sI12
F1.0
sI13
F1.0
sI14
F260.0
sI15
F1065.0
sI16
F1.0
sI17
F1.0
sI18
F1.0
sI20
F1.0
sI31
F1.0
ssbsg28
g0
(g29
g2
Ntp983
Rp984
(dp985
g33
I1
sbsba(ics475_types
Instance
p986
(dp987
g23
(ics475_types
FeatureVector
p988
(dp989
g26
(dp990
I2
F31.08
sI3
F1.5
sI7
F1.0
sI8
F0.04
sI9
F1.0
sI14
F160.0
sI16
F1.0
sI17
F1.0
sI18
F1.0
sI20
F1.0
sI21
F1.0
sI22
F1.0
sI31
F1.0
ssbsg28
g0
(g29
g2
Ntp991
Rp992
(dp993
g33
I0
sbsba(ics475_types
Instance
p994
(dp995
g23
(ics475_types
FeatureVector
p996
(dp997
g26
(dp998
I1
F1.0
sI2
F22.58
sI3
F10.75
sI4
F1.0
sI5
F1.0
sI7
F1.0
sI8
F0.415
sI10
F1.0
sI11
F5.0
sI12
F1.0
sI13
F1.0
sI15
F560.0
sI33
F1.0
sI30
F1.0
ssbsg28
g0
(g29
g2
Ntp999
Rp1000
(dp1001
g33
I1
sbsba(ics475_types
Instance
p1002
(dp1003
g23
(ics475_types
FeatureVector
p1004
(dp1005
g26
(dp1006
I2
F17.08
sI3
F3.29
sI4
F1.0
sI5
F1.0
sI7
F1.0
sI8
F0.335
sI9
F1.0
sI12
F1.0
sI13
F1.0
sI14
F140.0
sI15
F2.0
sI16
F1.0
sI20
F1.0
sI25
F1.0
ssbsg28
g0
(g29
g2
Ntp1007
Rp1008
(dp1009
g33
I0
sbsba(ics475_types
Instance
p1010
(dp1011
g23
(ics475_types
FeatureVector
p1012
(dp1013
g26
(dp1014
I1
F1.0
sI2
F69.5
sI3
F6.0
sI4
F1.0
sI5
F1.0
sI9
F1.0
sI20
F1.0
sI21
F1.0
sI22
F1.0
sI23
F1.0
sI24
F1.0
ssbsg28
g0
(g29
g2
Ntp1015
Rp1016
(dp1017
g33
I0
sbsba(ics475_types
Instance
p1018
(dp1019
g23
(ics475_types
FeatureVector
p1020
(dp1021
g26
(dp1022
I1
F1.0
sI2
F47.42
sI3
F3.0
sI4
F1.0
sI5
F1.0
sI7
F1.0
sI8
F13.875
sI10
F1.0
sI11
F2.0
sI12
F1.0
sI13
F1.0
sI14
F519.0
sI15
F1704.0
sI39
F1.0
sI33
F1.0
ssbsg28
g0
(g29
g2
Ntp1023
Rp1024
(dp1025
g33
I1
sbsba(ics475_types
Instance
p1026
(dp1027
g23
(ics475_types
FeatureVector
p1028
(dp1029
g26
(dp1030
I2
F22.17
sI3
F0.585
sI9
F1.0
sI13
F1.0
sI14
F100.0
sI16
F1.0
sI17
F1.0
sI18
F1.0
sI20
F1.0
sI21
F1.0
sI23
F1.0
sI24
F1.0
ssbsg28
g0
(g29
g2
Ntp1031
Rp1032
(dp1033
g33
I0
sbsba(ics475_types
Instance
p1034
(dp1035
g23
(ics475_types
FeatureVector
p1036
(dp1037
g26
(dp1038
I32
F1.0
sI2
F26.67
sI3
F14.585
sI4
F1.0
sI5
F1.0
sI9
F1.0
sI12
F1.0
sI13
F1.0
sI14
F178.0
sI16
F1.0
sI20
F1.0
sI25
F1.0
ssbsg28
g0
(g29
g2
Ntp1039
Rp1040
(dp1041
g33
I0
sbsba(ics475_types
Instance
p1042
(dp1043
g23
(ics475_types
FeatureVector
p1044
(dp1045
g26
(dp1046
I33
F1.0
sI2
F25.33
sI3
F0.58
sI4
F1.0
sI5
F1.0
sI6
F1.0
sI7
F1.0
sI8
F0.29
sI10
F1.0
sI11
F7.0
sI12
F1.0
sI13
F1.0
sI14
F96.0
sI15
F5124.0
sI16
F1.0
ssbsg28
g0
(g29
g2
Ntp1047
Rp1048
(dp1049
g33
I1
sbsba(ics475_types
Instance
p1050
(dp1051
g23
(ics475_types
FeatureVector
p1052
(dp1053
g26
(dp1054
I33
F1.0
sI2
F18.5
sI3
F2.0
sI4
F1.0
sI5
F1.0
sI7
F1.0
sI8
F1.5
sI10
F1.0
sI11
F2.0
sI13
F1.0
sI14
F120.0
sI15
F300.0
sI16
F1.0
sI21
F1.0
sI25
F1.0
ssbsg28
g0
(g29
g2
Ntp1055
Rp1056
(dp1057
g33
I1
sbsba(ics475_types
Instance
p1058
(dp1059
g23
(ics475_types
FeatureVector
p1060
(dp1061
g26
(dp1062
I2
F17.42
sI3
F6.5
sI4
F1.0
sI5
F1.0
sI7
F1.0
sI8
F0.125
sI9
F1.0
sI13
F1.0
sI14
F60.0
sI15
F100.0
sI16
F1.0
sI20
F1.0
sI21
F1.0
sI25
F1.0
ssbsg28
g0
(g29
g2
Ntp1063
Rp1064
(dp1065
g33
I0
sbsba(ics475_types
Instance
p1066
(dp1067
g23
(ics475_types
FeatureVector
p1068
(dp1069
g26
(dp1070
I1
F1.0
sI2
F20.83
sI3
F8.5
sI4
F1.0
sI5
F1.0
sI6
F1.0
sI7
F1.0
sI8
F0.165
sI9
F1.0
sI13
F1.0
sI15
F351.0
sI20
F1.0
sI21
F1.0
ssbsg28
g0
(g29
g2
Ntp1071
Rp1072
(dp1073
g33
I0
sbsba(ics475_types
Instance
p1074
(dp1075
g23
(ics475_types
FeatureVector
p1076
(dp1077
g26
(dp1078
I1
F1.0
sI2
F27.42
sI3
F14.5
sI4
F1.0
sI5
F1.0
sI33
F1.0
sI8
F3.085
sI10
F1.0
sI11
F1.0
sI13
F1.0
sI14
F120.0
sI15
F11.0
sI21
F1.0
sI39
F1.0
sI27
F1.0
ssbsg28
g0
(g29
g2
Ntp1079
Rp1080
(dp1081
g33
I1
sbsba(ics475_types
Instance
p1082
(dp1083
g23
(ics475_types
FeatureVector
p1084
(dp1085
g26
(dp1086
I1
F1.0
sI2
F17.83
sI3
F11.0
sI4
F1.0
sI5
F1.0
sI33
F1.0
sI8
F1.0
sI10
F1.0
sI11
F11.0
sI13
F1.0
sI15
F3000.0
sI21
F1.0
sI39
F1.0
sI27
F1.0
ssbsg28
g0
(g29
g2
Ntp1087
Rp1088
(dp1089
g33
I1
sbsba(ics475_types
Instance
p1090
(dp1091
g23
(ics475_types
FeatureVector
p1092
(dp1093
g26
(dp1094
I1
F1.0
sI2
F24.58
sI3
F0.67
sI4
F1.0
sI5
F1.0
sI33
F1.0
sI8
F1.75
sI13
F1.0
sI14
F400.0
sI20
F1.0
sI21
F1.0
sI27
F1.0
sI37
F1.0
ssbsg28
g0
(g29
g2
Ntp1095
Rp1096
(dp1097
g33
I0
sbsba(ics475_types
Instance
p1098
(dp1099
g23
(ics475_types
FeatureVector
p1100
(dp1101
g26
(dp1102
I33
F1.0
sI2
F29.58
sI3
F4.5
sI4
F1.0
sI5
F1.0
sI7
F1.0
sI8
F7.5
sI10
F1.0
sI11
F2.0
sI12
F1.0
sI13
F1.0
sI14
F330.0
sI16
F1.0
sI31
F1.0
ssbsg28
g0
(g29
g2
Ntp1103
Rp1104
(dp1105
g33
I1
sbsba(ics475_types
Instance
p1106
(dp1107
g23
(ics475_types
FeatureVector
p1108
(dp1109
g26
(dp1110
I1
F1.0
sI2
F24.92
sI3
F1.25
sI4
F1.0
sI5
F1.0
sI33
F1.0
sI13
F1.0
sI14
F80.0
sI20
F1.0
sI21
F1.0
sI23
F1.0
sI24
F1.0
ssbsg28
g0
(g29
g2
Ntp1111
Rp1112
(dp1113
g33
I0
sbsba(ics475_types
Instance
p1114
(dp1115
g23
(ics475_types
FeatureVector
p1116
(dp1117
g26
(dp1118
I1
F1.0
sI2
F57.08
sI3
F19.5
sI4
F1.0
sI5
F1.0
sI6
F1.0
sI7
F1.0
sI8
F5.5
sI10
F1.0
sI11
F7.0
sI13
F1.0
sI15
F3000.0
sI21
F1.0
sI33
F1.0
ssbsg28
g0
(g29
g2
Ntp1119
Rp1120
(dp1121
g33
I1
sbsba(ics475_types
Instance
p1122
(dp1123
g23
(ics475_types
FeatureVector
p1124
(dp1125
g26
(dp1126
I33
F1.0
sI2
F34.17
sI3
F1.54
sI4
F1.0
sI5
F1.0
sI7
F1.0
sI8
F1.54
sI10
F1.0
sI11
F1.0
sI12
F1.0
sI13
F1.0
sI14
F520.0
sI15
F50000.0
sI16
F1.0
sI36
F1.0
ssbsg28
g0
(g29
g2
Ntp1127
Rp1128
(dp1129
g33
I1
sbsba(ics475_types
Instance
p1130
(dp1131
g23
(ics475_types
FeatureVector
p1132
(dp1133
g26
(dp1134
I1
F1.0
sI2
F24.5
sI3
F1.04
sI33
F1.0
sI8
F0.5
sI10
F1.0
sI11
F3.0
sI13
F1.0
sI14
F180.0
sI15
F147.0
sI17
F1.0
sI18
F1.0
sI21
F1.0
sI23
F1.0
sI24
F1.0
ssbsg28
g0
(g29
g2
Ntp1135
Rp1136
(dp1137
g33
I0
sbsba(ics475_types
Instance
p1138
(dp1139
g23
(ics475_types
FeatureVector
p1140
(dp1141
g26
(dp1142
I2
F32.08
sI3
F4.0
sI36
F1.0
sI7
F1.0
sI8
F1.5
sI9
F1.0
sI12
F1.0
sI13
F1.0
sI14
F120.0
sI16
F1.0
sI17
F1.0
sI18
F1.0
sI20
F1.0
ssbsg28
g0
(g29
g2
Ntp1143
Rp1144
(dp1145
g33
I0
sbsba(ics475_types
Instance
p1146
(dp1147
g23
(ics475_types
FeatureVector
p1148
(dp1149
g26
(dp1150
I33
F1.0
sI2
F28.0
sI3
F2.0
sI4
F1.0
sI5
F1.0
sI8
F4.165
sI10
F1.0
sI11
F2.0
sI12
F1.0
sI13
F1.0
sI14
F181.0
sI16
F1.0
sI19
F1.0
sI27
F1.0
ssbsg28
g0
(g29
g2
Ntp1151
Rp1152
(dp1153
g33
I1
sbsba(ics475_types
Instance
p1154
(dp1155
g23
(ics475_types
FeatureVector
p1156
(dp1157
g26
(dp1158
I33
F1.0
sI2
F32.67
sI3
F9.0
sI8
F5.25
sI12
F1.0
sI13
F1.0
sI14
F154.0
sI16
F1.0
sI17
F1.0
sI18
F1.0
sI20
F1.0
sI27
F1.0
sI31
F1.0
ssbsg28
g0
(g29
g2
Ntp1159
Rp1160
(dp1161
g33
I1
sbsba(ics475_types
Instance
p1162
(dp1163
g23
(ics475_types
FeatureVector
p1164
(dp1165
g26
(dp1166
I32
F1.0
sI33
F1.0
sI2
F37.5
sI3
F1.75
sI6
F1.0
sI8
F0.25
sI12
F1.0
sI13
F1.0
sI14
F164.0
sI15
F400.0
sI16
F1.0
sI17
F1.0
sI18
F1.0
sI20
F1.0
ssbsg28
g0
(g29
g2
Ntp1167
Rp1168
(dp1169
g33
I0
sbsba(ics475_types
Instance
p1170
(dp1171
g23
(ics475_types
FeatureVector
p1172
(dp1173
g26
(dp1174
I33
F1.0
sI2
F33.58
sI3
F2.75
sI4
F1.0
sI5
F1.0
sI7
F1.0
sI8
F4.25
sI10
F1.0
sI11
F6.0
sI13
F1.0
sI14
F204.0
sI16
F1.0
sI35
F1.0
sI21
F1.0
ssbsg28
g0
(g29
g2
Ntp1175
Rp1176
(dp1177
g33
I1
sbsba(ics475_types
Instance
p1178
(dp1179
g23
(ics475_types
FeatureVector
p1180
(dp1181
g26
(dp1182
I1
F1.0
sI2
F25.0
sI3
F0.875
sI4
F1.0
sI5
F1.0
sI33
F1.0
sI8
F1.04
sI39
F1.0
sI12
F1.0
sI13
F1.0
sI14
F160.0
sI15
F5860.0
sI20
F1.0
sI27
F1.0
ssbsg28
g0
(g29
g2
Ntp1183
Rp1184
(dp1185
g33
I1
sbsba(ics475_types
Instance
p1186
(dp1187
g23
(ics475_types
FeatureVector
p1188
(dp1189
g26
(dp1190
I1
F1.0
sI2
F23.58
sI3
F0.83
sI4
F1.0
sI5
F1.0
sI7
F1.0
sI8
F0.415
sI9
F1.0
sI10
F1.0
sI11
F1.0
sI12
F1.0
sI13
F1.0
sI14
F200.0
sI15
F11.0
sI30
F1.0
ssbsg28
g0
(g29
g2
Ntp1191
Rp1192
(dp1193
g33
I0
sbsba(ics475_types
Instance
p1194
(dp1195
g23
(ics475_types
FeatureVector
p1196
(dp1197
g26
(dp1198
I33
F1.0
sI2
F27.25
sI3
F1.665
sI4
F1.0
sI5
F1.0
sI8
F5.085
sI10
F1.0
sI11
F9.0
sI13
F1.0
sI14
F399.0
sI15
F827.0
sI16
F1.0
sI21
F1.0
sI36
F1.0
sI27
F1.0
ssbsg28
g0
(g29
g2
Ntp1199
Rp1200
(dp1201
g33
I1
sbsba(ics475_types
Instance
p1202
(dp1203
g23
(ics475_types
FeatureVector
p1204
(dp1205
g26
(dp1206
I33
F1.0
sI2
F23.33
sI3
F11.625
sI7
F1.0
sI8
F0.835
sI12
F1.0
sI13
F1.0
sI14
F160.0
sI15
F300.0
sI16
F1.0
sI17
F1.0
sI18
F1.0
sI20
F1.0
sI31
F1.0
ssbsg28
g0
(g29
g2
Ntp1207
Rp1208
(dp1209
g33
I1
sbsba(ics475_types
Instance
p1210
(dp1211
g23
(ics475_types
FeatureVector
p1212
(dp1213
g26
(dp1214
I33
F1.0
sI2
F27.67
sI3
F13.75
sI4
F1.0
sI5
F1.0
sI7
F1.0
sI8
F5.75
sI12
F1.0
sI13
F1.0
sI14
F487.0
sI15
F500.0
sI16
F1.0
sI20
F1.0
sI31
F1.0
ssbsg28
g0
(g29
g2
Ntp1215
Rp1216
(dp1217
g33
I1
sbsba(ics475_types
Instance
p1218
(dp1219
g23
(ics475_types
FeatureVector
p1220
(dp1221
g26
(dp1222
I33
F1.0
sI2
F34.92
sI3
F2.5
sI4
F1.0
sI5
F1.0
sI7
F1.0
sI12
F1.0
sI13
F1.0
sI14
F239.0
sI15
F200.0
sI16
F1.0
sI20
F1.0
sI31
F1.0
ssbsg28
g0
(g29
g2
Ntp1223
Rp1224
(dp1225
g33
I1
sbsba(ics475_types
Instance
p1226
(dp1227
g23
(ics475_types
FeatureVector
p1228
(dp1229
g26
(dp1230
I2
F18.83
sI3
F0.415
sI6
F1.0
sI7
F1.0
sI8
F0.165
sI9
F1.0
sI10
F1.0
sI11
F1.0
sI13
F1.0
sI14
F200.0
sI15
F1.0
sI16
F1.0
sI17
F1.0
sI18
F1.0
sI21
F1.0
ssbsg28
g0
(g29
g2
Ntp1231
Rp1232
(dp1233
g33
I0
sbsba(ics475_types
Instance
p1234
(dp1235
g23
(ics475_types
FeatureVector
p1236
(dp1237
g26
(dp1238
I1
F1.0
sI2
F20.67
sI3
F3.0
sI4
F1.0
sI5
F1.0
sI7
F1.0
sI8
F0.165
sI10
F1.0
sI11
F3.0
sI13
F1.0
sI14
F100.0
sI15
F6.0
sI21
F1.0
sI33
F1.0
sI30
F1.0
ssbsg28
g0
(g29
g2
Ntp1239
Rp1240
(dp1241
g33
I1
sbsba(ics475_types
Instance
p1242
(dp1243
g23
(ics475_types
FeatureVector
p1244
(dp1245
g26
(dp1246
I33
F1.0
sI2
F39.92
sI3
F6.21
sI4
F1.0
sI5
F1.0
sI7
F1.0
sI8
F0.04
sI10
F1.0
sI11
F1.0
sI13
F1.0
sI14
F200.0
sI15
F300.0
sI16
F1.0
sI21
F1.0
sI30
F1.0
ssbsg28
g0
(g29
g2
Ntp1247
Rp1248
(dp1249
g33
I1
sbsba(ics475_types
Instance
p1250
(dp1251
g23
(ics475_types
FeatureVector
p1252
(dp1253
g26
(dp1254
I32
F1.0
sI2
F33.75
sI3
F2.75
sI4
F1.0
sI5
F1.0
sI9
F1.0
sI13
F1.0
sI14
F180.0
sI16
F1.0
sI20
F1.0
sI21
F1.0
sI25
F1.0
ssbsg28
g0
(g29
g2
Ntp1255
Rp1256
(dp1257
g33
I0
sbsba(ics475_types
Instance
p1258
(dp1259
g23
(ics475_types
FeatureVector
p1260
(dp1261
g26
(dp1262
I2
F16.0
sI3
F3.125
sI4
F1.0
sI5
F1.0
sI7
F1.0
sI8
F0.085
sI9
F1.0
sI10
F1.0
sI11
F1.0
sI13
F1.0
sI15
F6.0
sI16
F1.0
sI21
F1.0
sI31
F1.0
ssbsg28
g0
(g29
g2
Ntp1263
Rp1264
(dp1265
g33
I0
sbsba(ics475_types
Instance
p1266
(dp1267
g23
(ics475_types
FeatureVector
p1268
(dp1269
g26
(dp1270
I2
F23.92
sI3
F0.665
sI4
F1.0
sI5
F1.0
sI6
F1.0
sI7
F1.0
sI8
F0.165
sI9
F1.0
sI13
F1.0
sI14
F100.0
sI16
F1.0
sI20
F1.0
sI21
F1.0
ssbsg28
g0
(g29
g2
Ntp1271
Rp1272
(dp1273
g33
I1
sbsba(ics475_types
Instance
p1274
(dp1275
g23
(ics475_types
FeatureVector
p1276
(dp1277
g26
(dp1278
I1
F1.0
sI2
F58.33
sI3
F10.0
sI4
F1.0
sI5
F1.0
sI7
F1.0
sI8
F4.0
sI10
F1.0
sI11
F14.0
sI13
F1.0
sI15
F1602.0
sI21
F1.0
sI33
F1.0
sI30
F1.0
ssbsg28
g0
(g29
g2
Ntp1279
Rp1280
(dp1281
g33
I1
sbsba(ics475_types
Instance
p1282
(dp1283
g23
(ics475_types
FeatureVector
p1284
(dp1285
g26
(dp1286
I33
F1.0
sI2
F28.75
sI3
F1.5
sI6
F1.0
sI7
F1.0
sI8
F1.5
sI12
F1.0
sI13
F1.0
sI15
F225.0
sI16
F1.0
sI17
F1.0
sI18
F1.0
sI20
F1.0
ssbsg28
g0
(g29
g2
Ntp1287
Rp1288
(dp1289
g33
I0
sbsba(ics475_types
Instance
p1290
(dp1291
g23
(ics475_types
FeatureVector
p1292
(dp1293
g26
(dp1294
I33
F1.0
sI2
F40.92
sI3
F2.25
sI39
F1.0
sI8
F10.0
sI12
F1.0
sI13
F1.0
sI14
F176.0
sI16
F1.0
sI17
F1.0
sI18
F1.0
sI20
F1.0
sI27
F1.0
ssbsg28
g0
(g29
g2
Ntp1295
Rp1296
(dp1297
g33
I0
sbsba(ics475_types
Instance
p1298
(dp1299
g23
(ics475_types
FeatureVector
p1300
(dp1301
g26
(dp1302
I1
F1.0
sI2
F22.67
sI3
F0.335
sI4
F1.0
sI5
F1.0
sI7
F1.0
sI8
F0.75
sI9
F1.0
sI14
F160.0
sI20
F1.0
sI21
F1.0
sI22
F1.0
sI30
F1.0
ssbsg28
g0
(g29
g2
Ntp1303
Rp1304
(dp1305
g33
I0
sbsba(ics475_types
Instance
p1306
(dp1307
g23
(ics475_types
FeatureVector
p1308
(dp1309
g26
(dp1310
I33
F1.0
sI2
F43.0
sI3
F0.29
sI36
F1.0
sI8
F1.75
sI10
F1.0
sI11
F8.0
sI13
F1.0
sI14
F100.0
sI15
F375.0
sI16
F1.0
sI17
F1.0
sI18
F1.0
sI21
F1.0
sI27
F1.0
ssbsg28
g0
(g29
g2
Ntp1311
Rp1312
(dp1313
g33
I1
sbsba(ics475_types
Instance
p1314
(dp1315
g23
(ics475_types
FeatureVector
p1316
(dp1317
g26
(dp1318
I33
F1.0
sI2
F22.75
sI3
F11.0
sI4
F1.0
sI5
F1.0
sI7
F1.0
sI8
F2.5
sI10
F1.0
sI11
F7.0
sI12
F1.0
sI13
F1.0
sI14
F100.0
sI15
F809.0
sI16
F1.0
sI30
F1.0
ssbsg28
g0
(g29
g2
Ntp1319
Rp1320
(dp1321
g33
I1
sbsba(ics475_types
Instance
p1322
(dp1323
g23
(ics475_types
FeatureVector
p1324
(dp1325
g26
(dp1326
I1
F1.0
sI2
F18.42
sI3
F9.25
sI4
F1.0
sI5
F1.0
sI7
F1.0
sI8
F1.21
sI10
F1.0
sI11
F4.0
sI13
F1.0
sI14
F60.0
sI15
F540.0
sI21
F1.0
sI33
F1.0
sI30
F1.0
ssbsg28
g0
(g29
g2
Ntp1327
Rp1328
(dp1329
g33
I1
sbsba(ics475_types
Instance
p1330
(dp1331
g23
(ics475_types
FeatureVector
p1332
(dp1333
g26
(dp1334
I1
F1.0
sI2
F15.83
sI3
F0.585
sI4
F1.0
sI5
F1.0
sI6
F1.0
sI33
F1.0
sI8
F1.5
sI10
F1.0
sI11
F2.0
sI13
F1.0
sI14
F100.0
sI21
F1.0
sI27
F1.0
ssbsg28
g0
(g29
g2
Ntp1335
Rp1336
(dp1337
g33
I1
sbsba(ics475_types
Instance
p1338
(dp1339
g23
(ics475_types
FeatureVector
p1340
(dp1341
g26
(dp1342
I33
F1.0
sI2
F54.33
sI3
F6.75
sI4
F1.0
sI5
F1.0
sI6
F1.0
sI8
F2.625
sI10
F1.0
sI11
F11.0
sI12
F1.0
sI13
F1.0
sI15
F284.0
sI16
F1.0
sI27
F1.0
ssbsg28
g0
(g29
g2
Ntp1343
Rp1344
(dp1345
g33
I1
sbsba(ics475_types
Instance
p1346
(dp1347
g23
(ics475_types
FeatureVector
p1348
(dp1349
g26
(dp1350
I33
F1.0
sI2
F22.58
sI3
F10.04
sI4
F1.0
sI5
F1.0
sI7
F1.0
sI8
F0.04
sI10
F1.0
sI11
F9.0
sI13
F1.0
sI14
F60.0
sI15
F396.0
sI16
F1.0
sI21
F1.0
sI39
F1.0
ssbsg28
g0
(g29
g2
Ntp1351
Rp1352
(dp1353
g33
I1
sbsba(ics475_types
Instance
p1354
(dp1355
g23
(ics475_types
FeatureVector
p1356
(dp1357
g26
(dp1358
I1
F1.0
sI2
F52.83
sI3
F15.0
sI4
F1.0
sI5
F1.0
sI6
F1.0
sI7
F1.0
sI8
F5.5
sI10
F1.0
sI11
F14.0
sI13
F1.0
sI15
F2200.0
sI21
F1.0
sI33
F1.0
ssbsg28
g0
(g29
g2
Ntp1359
Rp1360
(dp1361
g33
I1
sbsba(ics475_types
Instance
p1362
(dp1363
g23
(ics475_types
FeatureVector
p1364
(dp1365
g26
(dp1366
I1
F1.0
sI2
F20.75
sI3
F10.335
sI4
F1.0
sI5
F1.0
sI33
F1.0
sI8
F0.335
sI10
F1.0
sI11
F1.0
sI12
F1.0
sI13
F1.0
sI14
F80.0
sI15
F50.0
sI36
F1.0
sI27
F1.0
ssbsg28
g0
(g29
g2
Ntp1367
Rp1368
(dp1369
g33
I1
sbsba(ics475_types
Instance
p1370
(dp1371
g23
(ics475_types
FeatureVector
p1372
(dp1373
g26
(dp1374
I1
F1.0
sI2
F26.08
sI3
F8.665
sI4
F1.0
sI5
F1.0
sI7
F1.0
sI8
F1.415
sI13
F1.0
sI14
F160.0
sI15
F150.0
sI20
F1.0
sI21
F1.0
sI33
F1.0
sI37
F1.0
ssbsg28
g0
(g29
g2
Ntp1375
Rp1376
(dp1377
g33
I1
sbsba(ics475_types
Instance
p1378
(dp1379
g23
(ics475_types
FeatureVector
p1380
(dp1381
g26
(dp1382
I1
F1.0
sI2
F17.33
sI3
F9.5
sI4
F1.0
sI5
F1.0
sI7
F1.0
sI8
F1.75
sI9
F1.0
sI10
F1.0
sI11
F10.0
sI12
F1.0
sI13
F1.0
sI15
F10.0
sI37
F1.0
ssbsg28
g0
(g29
g2
Ntp1383
Rp1384
(dp1385
g33
I0
sbsba(ics475_types
Instance
p1386
(dp1387
g23
(ics475_types
FeatureVector
p1388
(dp1389
g26
(dp1390
I1
F1.0
sI2
F24.5
sI3
F2.415
sI6
F1.0
sI7
F1.0
sI9
F1.0
sI13
F1.0
sI14
F120.0
sI17
F1.0
sI18
F1.0
sI20
F1.0
sI21
F1.0
ssbsg28
g0
(g29
g2
Ntp1391
Rp1392
(dp1393
g33
I0
sbsba(ics475_types
Instance
p1394
(dp1395
g23
(ics475_types
FeatureVector
p1396
(dp1397
g26
(dp1398
I1
F1.0
sI2
F27.25
sI3
F0.29
sI4
F1.0
sI5
F1.0
sI8
F0.125
sI9
F1.0
sI10
F1.0
sI11
F1.0
sI12
F1.0
sI13
F1.0
sI14
F272.0
sI15
F108.0
sI35
F1.0
sI27
F1.0
ssbsg28
g0
(g29
g2
Ntp1399
Rp1400
(dp1401
g33
I0
sbsba(ics475_types
Instance
p1402
(dp1403
g23
(ics475_types
FeatureVector
p1404
(dp1405
g26
(dp1406
I2
F28.58
sI3
F3.625
sI4
F1.0
sI5
F1.0
sI7
F1.0
sI8
F0.25
sI9
F1.0
sI12
F1.0
sI13
F1.0
sI14
F100.0
sI16
F1.0
sI20
F1.0
sI37
F1.0
ssbsg28
g0
(g29
g2
Ntp1407
Rp1408
(dp1409
g33
I0
sbsba(ics475_types
Instance
p1410
(dp1411
g23
(ics475_types
FeatureVector
p1412
(dp1413
g26
(dp1414
I32
F1.0
sI1
F1.0
sI2
F41.33
sI3
F1.0
sI4
F1.0
sI5
F1.0
sI33
F1.0
sI8
F2.25
sI12
F1.0
sI13
F1.0
sI15
F300.0
sI20
F1.0
sI25
F1.0
ssbsg28
g0
(g29
g2
Ntp1415
Rp1416
(dp1417
g33
I1
sbsba(ics475_types
Instance
p1418
(dp1419
g23
(ics475_types
FeatureVector
p1420
(dp1421
g26
(dp1422
I32
F1.0
sI2
F19.33
sI3
F10.915
sI4
F1.0
sI5
F1.0
sI6
F1.0
sI8
F0.585
sI9
F1.0
sI10
F1.0
sI11
F2.0
sI12
F1.0
sI13
F1.0
sI14
F200.0
sI15
F7.0
sI16
F1.0
ssbsg28
g0
(g29
g2
Ntp1423
Rp1424
(dp1425
g33
I0
sbsba(ics475_types
Instance
p1426
(dp1427
g23
(ics475_types
FeatureVector
p1428
(dp1429
g26
(dp1430
I1
F1.0
sI2
F24.83
sI3
F4.5
sI4
F1.0
sI5
F1.0
sI7
F1.0
sI8
F1.0
sI9
F1.0
sI12
F1.0
sI13
F1.0
sI14
F360.0
sI15
F6.0
sI20
F1.0
sI31
F1.0
ssbsg28
g0
(g29
g2
Ntp1431
Rp1432
(dp1433
g33
I0
sbsba(ics475_types
Instance
p1434
(dp1435
g23
(ics475_types
FeatureVector
p1436
(dp1437
g26
(dp1438
I32
F1.0
sI2
F26.92
sI3
F2.25
sI4
F1.0
sI5
F1.0
sI8
F0.5
sI9
F1.0
sI12
F1.0
sI13
F1.0
sI14
F640.0
sI15
F4000.0
sI16
F1.0
sI20
F1.0
sI25
F1.0
ssbsg28
g0
(g29
g2
Ntp1439
Rp1440
(dp1441
g33
I0
sbsba(ics475_types
Instance
p1442
(dp1443
g23
(ics475_types
FeatureVector
p1444
(dp1445
g26
(dp1446
I33
F1.0
sI2
F27.83
sI3
F4.0
sI8
F5.75
sI10
F1.0
sI11
F2.0
sI12
F1.0
sI13
F1.0
sI14
F75.0
sI16
F1.0
sI17
F1.0
sI18
F1.0
sI25
F1.0
sI27
F1.0
ssbsg28
g0
(g29
g2
Ntp1447
Rp1448
(dp1449
g33
I0
sbsba(ics475_types
Instance
p1450
(dp1451
g23
(ics475_types
FeatureVector
p1452
(dp1453
g26
(dp1454
I2
F29.42
sI3
F1.25
sI4
F1.0
sI5
F1.0
sI7
F1.0
sI8
F1.75
sI9
F1.0
sI13
F1.0
sI14
F200.0
sI16
F1.0
sI20
F1.0
sI21
F1.0
sI31
F1.0
ssbsg28
g0
(g29
g2
Ntp1455
Rp1456
(dp1457
g33
I0
sbsba(ics475_types
Instance
p1458
(dp1459
g23
(ics475_types
FeatureVector
p1460
(dp1461
g26
(dp1462
I2
F41.17
sI3
F1.335
sI4
F1.0
sI5
F1.0
sI7
F1.0
sI8
F0.165
sI9
F1.0
sI13
F1.0
sI14
F168.0
sI16
F1.0
sI34
F1.0
sI20
F1.0
sI21
F1.0
ssbsg28
g0
(g29
g2
Ntp1463
Rp1464
(dp1465
g33
I0
sbsba(ics475_types
Instance
p1466
(dp1467
g23
(ics475_types
FeatureVector
p1468
(dp1469
g26
(dp1470
I2
F20.0
sI34
F1.0
sI4
F1.0
sI5
F1.0
sI7
F1.0
sI8
F0.5
sI9
F1.0
sI13
F1.0
sI14
F144.0
sI16
F1.0
sI20
F1.0
sI21
F1.0
ssbsg28
g0
(g29
g2
Ntp1471
Rp1472
(dp1473
g33
I0
sbsba(ics475_types
Instance
p1474
(dp1475
g23
(ics475_types
FeatureVector
p1476
(dp1477
g26
(dp1478
I1
F1.0
sI2
F28.5
sI3
F1.0
sI4
F1.0
sI5
F1.0
sI7
F1.0
sI8
F1.0
sI10
F1.0
sI11
F2.0
sI12
F1.0
sI13
F1.0
sI14
F167.0
sI15
F500.0
sI33
F1.0
sI30
F1.0
ssbsg28
g0
(g29
g2
Ntp1479
Rp1480
(dp1481
g33
I0
sbsba(ics475_types
Instance
p1482
(dp1483
g23
(ics475_types
FeatureVector
p1484
(dp1485
g26
(dp1486
I1
F1.0
sI2
F22.92
sI3
F1.25
sI4
F1.0
sI5
F1.0
sI7
F1.0
sI8
F0.25
sI9
F1.0
sI12
F1.0
sI13
F1.0
sI14
F120.0
sI15
F809.0
sI20
F1.0
sI30
F1.0
ssbsg28
g0
(g29
g2
Ntp1487
Rp1488
(dp1489
g33
I0
sbsba(ics475_types
Instance
p1490
(dp1491
g23
(ics475_types
FeatureVector
p1492
(dp1493
g26
(dp1494
I1
F1.0
sI2
F58.67
sI3
F4.46
sI4
F1.0
sI5
F1.0
sI33
F1.0
sI8
F3.04
sI10
F1.0
sI11
F6.0
sI13
F1.0
sI14
F43.0
sI15
F560.0
sI21
F1.0
sI27
F1.0
sI30
F1.0
ssbsg28
g0
(g29
g2
Ntp1495
Rp1496
(dp1497
g33
I1
sbsba(ics475_types
Instance
p1498
(dp1499
g23
(ics475_types
FeatureVector
p1500
(dp1501
g26
(dp1502
I33
F1.0
sI2
F23.42
sI3
F0.585
sI4
F1.0
sI5
F1.0
sI6
F1.0
sI8
F0.085
sI13
F1.0
sI14
F180.0
sI16
F1.0
sI20
F1.0
sI21
F1.0
sI27
F1.0
ssbsg28
g0
(g29
g2
Ntp1503
Rp1504
(dp1505
g33
I0
sbsba(ics475_types
Instance
p1506
(dp1507
g23
(ics475_types
FeatureVector
p1508
(dp1509
g26
(dp1510
I1
F1.0
sI2
F16.5
sI3
F1.25
sI4
F1.0
sI5
F1.0
sI7
F1.0
sI8
F0.25
sI9
F1.0
sI10
F1.0
sI11
F1.0
sI13
F1.0
sI14
F108.0
sI15
F98.0
sI21
F1.0
sI30
F1.0
ssbsg28
g0
(g29
g2
Ntp1511
Rp1512
(dp1513
g33
I0
sbsba(ics475_types
Instance
p1514
(dp1515
g23
(ics475_types
FeatureVector
p1516
(dp1517
g26
(dp1518
I1
F1.0
sI2
F21.67
sI3
F11.5
sI33
F1.0
sI10
F1.0
sI11
F11.0
sI12
F1.0
sI13
F1.0
sI17
F1.0
sI18
F1.0
sI28
F1.0
sI29
F1.0
ssbsg28
g0
(g29
g2
Ntp1519
Rp1520
(dp1521
g33
I1
sbsba(ics475_types
Instance
p1522
(dp1523
g23
(ics475_types
FeatureVector
p1524
(dp1525
g26
(dp1526
I1
F1.0
sI2
F22.92
sI3
F11.585
sI4
F1.0
sI5
F1.0
sI7
F1.0
sI8
F0.04
sI13
F1.0
sI14
F80.0
sI15
F1349.0
sI20
F1.0
sI21
F1.0
sI36
F1.0
sI33
F1.0
ssbsg28
g0
(g29
g2
Ntp1527
Rp1528
(dp1529
g33
I1
sbsba(ics475_types
Instance
p1530
(dp1531
g23
(ics475_types
FeatureVector
p1532
(dp1533
g26
(dp1534
I33
F1.0
sI2
F42.5
sI3
F4.915
sI7
F1.0
sI8
F3.165
sI12
F1.0
sI13
F1.0
sI14
F52.0
sI15
F1442.0
sI16
F1.0
sI17
F1.0
sI18
F1.0
sI20
F1.0
sI31
F1.0
ssbsg28
g0
(g29
g2
Ntp1535
Rp1536
(dp1537
g33
I1
sbsba(ics475_types
Instance
p1538
(dp1539
g23
(ics475_types
FeatureVector
p1540
(dp1541
g26
(dp1542
I2
F30.58
sI3
F2.71
sI7
F1.0
sI8
F0.125
sI9
F1.0
sI12
F1.0
sI14
F80.0
sI16
F1.0
sI17
F1.0
sI18
F1.0
sI35
F1.0
sI20
F1.0
sI22
F1.0
ssbsg28
g0
(g29
g2
Ntp1543
Rp1544
(dp1545
g33
I0
sbsba(ics475_types
Instance
p1546
(dp1547
g23
(ics475_types
FeatureVector
p1548
(dp1549
g26
(dp1550
I33
F1.0
sI2
F39.83
sI3
F0.5
sI4
F1.0
sI5
F1.0
sI7
F1.0
sI8
F0.25
sI14
F288.0
sI16
F1.0
sI35
F1.0
sI20
F1.0
sI21
F1.0
sI22
F1.0
ssbsg28
g0
(g29
g2
Ntp1551
Rp1552
(dp1553
g33
I0
sbsba(ics475_types
Instance
p1554
(dp1555
g23
(ics475_types
FeatureVector
p1556
(dp1557
g26
(dp1558
I32
F1.0
sI1
F1.0
sI2
F24.33
sI3
F2.5
sI8
F4.5
sI9
F1.0
sI13
F1.0
sI14
F200.0
sI15
F456.0
sI17
F1.0
sI18
F1.0
sI20
F1.0
sI21
F1.0
sI25
F1.0
ssbsg28
g0
(g29
g2
Ntp1559
Rp1560
(dp1561
g33
I0
sbsba(ics475_types
Instance
p1562
(dp1563
g23
(ics475_types
FeatureVector
p1564
(dp1565
g26
(dp1566
I2
F28.17
sI3
F0.125
sI7
F1.0
sI8
F0.085
sI9
F1.0
sI13
F1.0
sI14
F216.0
sI15
F2100.0
sI16
F1.0
sI17
F1.0
sI18
F1.0
sI19
F1.0
sI20
F1.0
sI21
F1.0
ssbsg28
g0
(g29
g2
Ntp1567
Rp1568
(dp1569
g33
I0
sbsba(ics475_types
Instance
p1570
(dp1571
g23
(ics475_types
FeatureVector
p1572
(dp1573
g26
(dp1574
I2
F23.08
sI3
F2.5
sI4
F1.0
sI5
F1.0
sI8
F0.085
sI9
F1.0
sI12
F1.0
sI13
F1.0
sI14
F100.0
sI15
F4208.0
sI16
F1.0
sI20
F1.0
sI23
F1.0
sI24
F1.0
ssbsg28
g0
(g29
g2
Ntp1575
Rp1576
(dp1577
g33
I0
sbsba(ics475_types
Instance
p1578
(dp1579
g23
(ics475_types
FeatureVector
p1580
(dp1581
g26
(dp1582
I1
F1.0
sI2
F19.5
sI3
F0.165
sI4
F1.0
sI5
F1.0
sI7
F1.0
sI8
F0.04
sI9
F1.0
sI12
F1.0
sI13
F1.0
sI14
F380.0
sI20
F1.0
sI30
F1.0
ssbsg28
g0
(g29
g2
Ntp1583
Rp1584
(dp1585
g33
I0
sbsba(ics475_types
Instance
p1586
(dp1587
g23
(ics475_types
FeatureVector
p1588
(dp1589
g26
(dp1590
I1
F1.0
sI2
F52.5
sI3
F7.0
sI4
F1.0
sI5
F1.0
sI8
F3.0
sI9
F1.0
sI13
F1.0
sI20
F1.0
sI21
F1.0
sI27
F1.0
sI37
F1.0
ssbsg28
g0
(g29
g2
Ntp1591
Rp1592
(dp1593
g33
I0
sbsba(ics475_types
Instance
p1594
(dp1595
g23
(ics475_types
FeatureVector
p1596
(dp1597
g26
(dp1598
I33
F1.0
sI2
F29.25
sI3
F14.79
sI4
F1.0
sI5
F1.0
sI7
F1.0
sI8
F5.04
sI10
F1.0
sI11
F5.0
sI12
F1.0
sI13
F1.0
sI14
F168.0
sI16
F1.0
sI37
F1.0
ssbsg28
g0
(g29
g2
Ntp1599
Rp1600
(dp1601
g33
I1
sbsba(ics475_types
Instance
p1602
(dp1603
g23
(ics475_types
FeatureVector
p1604
(dp1605
g26
(dp1606
I2
F26.17
sI3
F0.835
sI4
F1.0
sI5
F1.0
sI7
F1.0
sI8
F1.165
sI9
F1.0
sI13
F1.0
sI14
F100.0
sI16
F1.0
sI20
F1.0
sI21
F1.0
sI36
F1.0
ssbsg28
g0
(g29
g2
Ntp1607
Rp1608
(dp1609
g33
I0
sbsba(ics475_types
Instance
p1610
(dp1611
g23
(ics475_types
FeatureVector
p1612
(dp1613
g26
(dp1614
I33
F1.0
sI2
F38.58
sI3
F3.335
sI4
F1.0
sI5
F1.0
sI7
F1.0
sI8
F4.0
sI10
F1.0
sI11
F14.0
sI13
F1.0
sI14
F383.0
sI15
F1344.0
sI16
F1.0
sI21
F1.0
sI31
F1.0
ssbsg28
g0
(g29
g2
Ntp1615
Rp1616
(dp1617
g33
I1
sbsba(ics475_types
Instance
p1618
(dp1619
g23
(ics475_types
FeatureVector
p1620
(dp1621
g26
(dp1622
I33
F1.0
sI2
F32.25
sI3
F0.165
sI6
F1.0
sI8
F3.25
sI10
F1.0
sI11
F1.0
sI12
F1.0
sI13
F1.0
sI14
F432.0
sI15
F8000.0
sI16
F1.0
sI17
F1.0
sI18
F1.0
sI27
F1.0
ssbsg28
g0
(g29
g2
Ntp1623
Rp1624
(dp1625
g33
I1
sbsba(ics475_types
Instance
p1626
(dp1627
g23
(ics475_types
FeatureVector
p1628
(dp1629
g26
(dp1630
I2
F32.42
sI3
F2.165
sI9
F1.0
sI13
F1.0
sI14
F120.0
sI16
F1.0
sI17
F1.0
sI18
F1.0
sI19
F1.0
sI20
F1.0
sI21
F1.0
sI24
F1.0
ssbsg28
g0
(g29
g2
Ntp1631
Rp1632
(dp1633
g33
I0
sbsba(ics475_types
Instance
p1634
(dp1635
g23
(ics475_types
FeatureVector
p1636
(dp1637
g26
(dp1638
I33
F1.0
sI2
F20.67
sI3
F1.25
sI6
F1.0
sI8
F1.375
sI10
F1.0
sI11
F3.0
sI12
F1.0
sI13
F1.0
sI14
F140.0
sI15
F210.0
sI16
F1.0
sI17
F1.0
sI18
F1.0
sI27
F1.0
ssbsg28
g0
(g29
g2
Ntp1639
Rp1640
(dp1641
g33
I0
sbsba(ics475_types
Instance
p1642
(dp1643
g23
(ics475_types
FeatureVector
p1644
(dp1645
g26
(dp1646
I33
F1.0
sI2
F39.17
sI3
F1.625
sI4
F1.0
sI5
F1.0
sI6
F1.0
sI7
F1.0
sI8
F1.5
sI10
F1.0
sI11
F10.0
sI13
F1.0
sI14
F186.0
sI15
F4700.0
sI16
F1.0
sI21
F1.0
ssbsg28
g0
(g29
g2
Ntp1647
Rp1648
(dp1649
g33
I1
sbsba(ics475_types
Instance
p1650
(dp1651
g23
(ics475_types
FeatureVector
p1652
(dp1653
g26
(dp1654
I2
F21.17
sI3
F0.25
sI6
F1.0
sI8
F0.25
sI9
F1.0
sI13
F1.0
sI14
F280.0
sI15
F204.0
sI16
F1.0
sI17
F1.0
sI18
F1.0
sI20
F1.0
sI21
F1.0
sI27
F1.0
ssbsg28
g0
(g29
g2
Ntp1655
Rp1656
(dp1657
g33
I0
sbsba(ics475_types
Instance
p1658
(dp1659
g23
(ics475_types
FeatureVector
p1660
(dp1661
g26
(dp1662
I2
F17.08
sI3
F0.25
sI4
F1.0
sI5
F1.0
sI7
F1.0
sI8
F0.335
sI9
F1.0
sI10
F1.0
sI11
F4.0
sI13
F1.0
sI14
F160.0
sI15
F8.0
sI16
F1.0
sI21
F1.0
sI30
F1.0
ssbsg28
g0
(g29
g2
Ntp1663
Rp1664
(dp1665
g33
I0
sbsba(ics475_types
Instance
p1666
(dp1667
g23
(ics475_types
FeatureVector
p1668
(dp1669
g26
(dp1670
I33
F1.0
sI2
F33.17
sI3
F3.04
sI6
F1.0
sI8
F2.04
sI10
F1.0
sI11
F1.0
sI12
F1.0
sI13
F1.0
sI14
F180.0
sI15
F18027.0
sI16
F1.0
sI17
F1.0
sI18
F1.0
sI27
F1.0
ssbsg28
g0
(g29
g2
Ntp1671
Rp1672
(dp1673
g33
I1
sbsba(ics475_types
Instance
p1674
(dp1675
g23
(ics475_types
FeatureVector
p1676
(dp1677
g26
(dp1678
I1
F1.0
sI2
F38.33
sI3
F4.415
sI4
F1.0
sI5
F1.0
sI6
F1.0
sI7
F1.0
sI8
F0.125
sI9
F1.0
sI13
F1.0
sI14
F160.0
sI20
F1.0
sI21
F1.0
ssbsg28
g0
(g29
g2
Ntp1679
Rp1680
(dp1681
g33
I0
sbsba(ics475_types
Instance
p1682
(dp1683
g23
(ics475_types
FeatureVector
p1684
(dp1685
g26
(dp1686
I1
F1.0
sI2
F33.25
sI3
F3.0
sI37
F1.0
sI7
F1.0
sI8
F2.0
sI9
F1.0
sI13
F1.0
sI14
F180.0
sI17
F1.0
sI18
F1.0
sI20
F1.0
sI21
F1.0
ssbsg28
g0
(g29
g2
Ntp1687
Rp1688
(dp1689
g33
I0
sbsba(ics475_types
Instance
p1690
(dp1691
g23
(ics475_types
FeatureVector
p1692
(dp1693
g26
(dp1694
I2
F19.5
sI3
F9.585
sI4
F1.0
sI5
F1.0
sI7
F1.0
sI8
F0.79
sI9
F1.0
sI13
F1.0
sI14
F80.0
sI15
F350.0
sI16
F1.0
sI20
F1.0
sI21
F1.0
sI37
F1.0
ssbsg28
g0
(g29
g2
Ntp1695
Rp1696
(dp1697
g33
I0
sbsba(ics475_types
Instance
p1698
(dp1699
g23
(ics475_types
FeatureVector
p1700
(dp1701
g26
(dp1702
I1
F1.0
sI2
F37.75
sI3
F5.5
sI4
F1.0
sI5
F1.0
sI7
F1.0
sI8
F0.125
sI12
F1.0
sI13
F1.0
sI14
F228.0
sI20
F1.0
sI33
F1.0
sI30
F1.0
ssbsg28
g0
(g29
g2
Ntp1703
Rp1704
(dp1705
g33
I1
sbsba(ics475_types
Instance
p1706
(dp1707
g23
(ics475_types
FeatureVector
p1708
(dp1709
g26
(dp1710
I2
F29.25
sI3
F13.0
sI4
F1.0
sI5
F1.0
sI8
F0.5
sI9
F1.0
sI13
F1.0
sI14
F228.0
sI16
F1.0
sI34
F1.0
sI20
F1.0
sI21
F1.0
sI27
F1.0
ssbsg28
g0
(g29
g2
Ntp1711
Rp1712
(dp1713
g33
I0
sbsba(ics475_types
Instance
p1714
(dp1715
g23
(ics475_types
FeatureVector
p1716
(dp1717
g26
(dp1718
I1
F1.0
sI2
F19.17
sI3
F8.585
sI4
F1.0
sI5
F1.0
sI33
F1.0
sI8
F0.75
sI10
F1.0
sI11
F7.0
sI13
F1.0
sI14
F96.0
sI21
F1.0
sI36
F1.0
sI27
F1.0
ssbsg28
g0
(g29
g2
Ntp1719
Rp1720
(dp1721
g33
I1
sbsba(ics475_types
Instance
p1722
(dp1723
g23
(ics475_types
FeatureVector
p1724
(dp1725
g26
(dp1726
I2
F20.75
sI3
F5.085
sI7
F1.0
sI8
F0.29
sI9
F1.0
sI13
F1.0
sI14
F140.0
sI15
F184.0
sI16
F1.0
sI17
F1.0
sI18
F1.0
sI20
F1.0
sI21
F1.0
sI28
F1.0
ssbsg28
g0
(g29
g2
Ntp1727
Rp1728
(dp1729
g33
I0
sbsba(ics475_types
Instance
p1730
(dp1731
g23
(ics475_types
FeatureVector
p1732
(dp1733
g26
(dp1734
I1
F1.0
sI2
F27.67
sI3
F1.5
sI4
F1.0
sI5
F1.0
sI7
F1.0
sI8
F2.0
sI14
F368.0
sI35
F1.0
sI20
F1.0
sI21
F1.0
sI22
F1.0
sI33
F1.0
ssbsg28
g0
(g29
g2
Ntp1735
Rp1736
(dp1737
g33
I0
sbsba(ics475_types
Instance
p1738
(dp1739
g23
(ics475_types
FeatureVector
p1740
(dp1741
g26
(dp1742
I33
F1.0
sI2
F39.08
sI3
F6.0
sI4
F1.0
sI5
F1.0
sI7
F1.0
sI8
F1.29
sI10
F1.0
sI11
F5.0
sI12
F1.0
sI13
F1.0
sI14
F108.0
sI15
F1097.0
sI16
F1.0
sI35
F1.0
ssbsg28
g0
(g29
g2
Ntp1743
Rp1744
(dp1745
g33
I1
sbsba(ics475_types
Instance
p1746
(dp1747
g23
(ics475_types
FeatureVector
p1748
(dp1749
g26
(dp1750
I33
F1.0
sI2
F52.5
sI3
F6.5
sI4
F1.0
sI5
F1.0
sI7
F1.0
sI8
F6.29
sI10
F1.0
sI11
F15.0
sI13
F1.0
sI15
F11202.0
sI16
F1.0
sI19
F1.0
sI21
F1.0
ssbsg28
g0
(g29
g2
Ntp1751
Rp1752
(dp1753
g33
I1
sbsba(ics475_types
Instance
p1754
(dp1755
g23
(ics475_types
FeatureVector
p1756
(dp1757
g26
(dp1758
I1
F1.0
sI2
F46.67
sI3
F0.46
sI4
F1.0
sI5
F1.0
sI33
F1.0
sI8
F0.415
sI10
F1.0
sI11
F11.0
sI12
F1.0
sI13
F1.0
sI14
F440.0
sI15
F6.0
sI36
F1.0
sI27
F1.0
ssbsg28
g0
(g29
g2
Ntp1759
Rp1760
(dp1761
g33
I1
sbsba(ics475_types
Instance
p1762
(dp1763
g23
(ics475_types
FeatureVector
p1764
(dp1765
g26
(dp1766
I2
F29.83
sI3
F2.04
sI39
F1.0
sI8
F0.04
sI9
F1.0
sI13
F1.0
sI14
F128.0
sI15
F1.0
sI16
F1.0
sI17
F1.0
sI18
F1.0
sI20
F1.0
sI21
F1.0
sI27
F1.0
ssbsg28
g0
(g29
g2
Ntp1767
Rp1768
(dp1769
g33
I0
sbsba(ics475_types
Instance
p1770
(dp1771
g23
(ics475_types
FeatureVector
p1772
(dp1773
g26
(dp1774
I1
F1.0
sI2
F38.25
sI3
F6.0
sI4
F1.0
sI5
F1.0
sI7
F1.0
sI8
F1.0
sI12
F1.0
sI13
F1.0
sI19
F1.0
sI20
F1.0
sI33
F1.0
ssbsg28
g0
(g29
g2
Ntp1775
Rp1776
(dp1777
g33
I1
sbsba(ics475_types
Instance
p1778
(dp1779
g23
(ics475_types
FeatureVector
p1780
(dp1781
g26
(dp1782
I1
F1.0
sI2
F34.83
sI3
F1.25
sI8
F0.5
sI9
F1.0
sI12
F1.0
sI13
F1.0
sI14
F160.0
sI17
F1.0
sI18
F1.0
sI20
F1.0
sI25
F1.0
sI27
F1.0
ssbsg28
g0
(g29
g2
Ntp1783
Rp1784
(dp1785
g33
I0
sbsba(ics475_types
Instance
p1786
(dp1787
g23
(ics475_types
FeatureVector
p1788
(dp1789
g26
(dp1790
I1
F1.0
sI2
F44.33
sI4
F1.0
sI5
F1.0
sI6
F1.0
sI7
F1.0
sI8
F2.5
sI13
F1.0
sI20
F1.0
sI21
F1.0
sI33
F1.0
ssbsg28
g0
(g29
g2
Ntp1791
Rp1792
(dp1793
g33
I1
sbsba(ics475_types
Instance
p1794
(dp1795
g23
(ics475_types
FeatureVector
p1796
(dp1797
g26
(dp1798
I33
F1.0
sI2
F26.75
sI3
F1.125
sI4
F1.0
sI5
F1.0
sI39
F1.0
sI8
F1.25
sI13
F1.0
sI15
F5298.0
sI16
F1.0
sI20
F1.0
sI21
F1.0
sI27
F1.0
ssbsg28
g0
(g29
g2
Ntp1799
Rp1800
(dp1801
g33
I1
sbsba(ics475_types
Instance
p1802
(dp1803
g23
(ics475_types
FeatureVector
p1804
(dp1805
g26
(dp1806
I33
F1.0
sI2
F23.0
sI3
F0.625
sI37
F1.0
sI7
F1.0
sI8
F0.125
sI13
F1.0
sI14
F180.0
sI15
F1.0
sI16
F1.0
sI17
F1.0
sI18
F1.0
sI20
F1.0
sI21
F1.0
ssbsg28
g0
(g29
g2
Ntp1807
Rp1808
(dp1809
g33
I0
sbsba(ics475_types
Instance
p1810
(dp1811
g23
(ics475_types
FeatureVector
p1812
(dp1813
g26
(dp1814
I32
F1.0
sI1
F1.0
sI2
F58.42
sI3
F21.0
sI4
F1.0
sI5
F1.0
sI33
F1.0
sI8
F10.0
sI10
F1.0
sI11
F13.0
sI13
F1.0
sI15
F6700.0
sI21
F1.0
sI25
F1.0
ssbsg28
g0
(g29
g2
Ntp1815
Rp1816
(dp1817
g33
I1
sbsba(ics475_types
Instance
p1818
(dp1819
g23
(ics475_types
FeatureVector
p1820
(dp1821
g26
(dp1822
I1
F1.0
sI2
F28.58
sI3
F1.665
sI4
F1.0
sI5
F1.0
sI7
F1.0
sI8
F2.415
sI12
F1.0
sI13
F1.0
sI14
F440.0
sI20
F1.0
sI33
F1.0
sI30
F1.0
ssbsg28
g0
(g29
g2
Ntp1823
Rp1824
(dp1825
g33
I0
sbsba(ics475_types
Instance
p1826
(dp1827
g23
(ics475_types
FeatureVector
p1828
(dp1829
g26
(dp1830
I2
F20.0
sI3
F7.0
sI4
F1.0
sI5
F1.0
sI6
F1.0
sI7
F1.0
sI8
F0.5
sI9
F1.0
sI13
F1.0
sI16
F1.0
sI20
F1.0
sI21
F1.0
ssbsg28
g0
(g29
g2
Ntp1831
Rp1832
(dp1833
g33
I0
sbsba(ics475_types
Instance
p1834
(dp1835
g23
(ics475_types
FeatureVector
p1836
(dp1837
g26
(dp1838
I1
F1.0
sI2
F48.17
sI3
F1.335
sI4
F1.0
sI5
F1.0
sI8
F0.335
sI9
F1.0
sI13
F1.0
sI15
F120.0
sI20
F1.0
sI21
F1.0
sI25
F1.0
sI26
F1.0
ssbsg28
g0
(g29
g2
Ntp1839
Rp1840
(dp1841
g33
I0
sbsba(ics475_types
Instance
p1842
(dp1843
g23
(ics475_types
FeatureVector
p1844
(dp1845
g26
(dp1846
I33
F1.0
sI2
F22.33
sI3
F11.0
sI4
F1.0
sI5
F1.0
sI7
F1.0
sI8
F2.0
sI10
F1.0
sI11
F1.0
sI13
F1.0
sI14
F80.0
sI15
F278.0
sI16
F1.0
sI21
F1.0
sI31
F1.0
ssbsg28
g0
(g29
g2
Ntp1847
Rp1848
(dp1849
g33
I1
sbsba(ics475_types
Instance
p1850
(dp1851
g23
(ics475_types
FeatureVector
p1852
(dp1853
g26
(dp1854
I2
F21.92
sI3
F0.5
sI4
F1.0
sI5
F1.0
sI6
F1.0
sI7
F1.0
sI8
F0.125
sI9
F1.0
sI13
F1.0
sI14
F360.0
sI16
F1.0
sI20
F1.0
sI21
F1.0
ssbsg28
g0
(g29
g2
Ntp1855
Rp1856
(dp1857
g33
I0
sbsba(ics475_types
Instance
p1858
(dp1859
g23
(ics475_types
FeatureVector
p1860
(dp1861
g26
(dp1862
I1
F1.0
sI2
F23.75
sI3
F0.71
sI4
F1.0
sI5
F1.0
sI7
F1.0
sI8
F0.25
sI9
F1.0
sI10
F1.0
sI11
F1.0
sI12
F1.0
sI13
F1.0
sI14
F240.0
sI15
F4.0
sI31
F1.0
ssbsg28
g0
(g29
g2
Ntp1863
Rp1864
(dp1865
g33
I0
sbsba(ics475_types
Instance
p1866
(dp1867
g23
(ics475_types
FeatureVector
p1868
(dp1869
g26
(dp1870
I33
F1.0
sI2
F33.17
sI3
F1.0
sI4
F1.0
sI5
F1.0
sI7
F1.0
sI8
F0.75
sI10
F1.0
sI11
F7.0
sI12
F1.0
sI13
F1.0
sI14
F340.0
sI15
F4071.0
sI16
F1.0
sI39
F1.0
ssbsg28
g0
(g29
g2
Ntp1871
Rp1872
(dp1873
g33
I1
sbsba(ics475_types
Instance
p1874
(dp1875
g23
(ics475_types
FeatureVector
p1876
(dp1877
g26
(dp1878
I1
F1.0
sI2
F27.33
sI3
F1.665
sI4
F1.0
sI5
F1.0
sI9
F1.0
sI13
F1.0
sI14
F340.0
sI15
F1.0
sI20
F1.0
sI21
F1.0
sI23
F1.0
sI24
F1.0
ssbsg28
g0
(g29
g2
Ntp1879
Rp1880
(dp1881
g33
I0
sbsba(ics475_types
Instance
p1882
(dp1883
g23
(ics475_types
FeatureVector
p1884
(dp1885
g26
(dp1886
I1
F1.0
sI2
F25.25
sI3
F13.5
sI8
F2.0
sI9
F1.0
sI10
F1.0
sI11
F1.0
sI12
F1.0
sI13
F1.0
sI14
F200.0
sI15
F1.0
sI17
F1.0
sI18
F1.0
sI23
F1.0
sI24
F1.0
ssbsg28
g0
(g29
g2
Ntp1887
Rp1888
(dp1889
g33
I0
sbsba(ics475_types
Instance
p1890
(dp1891
g23
(ics475_types
FeatureVector
p1892
(dp1893
g26
(dp1894
I2
F21.83
sI3
F1.54
sI4
F1.0
sI5
F1.0
sI7
F1.0
sI8
F0.085
sI9
F1.0
sI12
F1.0
sI13
F1.0
sI14
F356.0
sI16
F1.0
sI19
F1.0
sI20
F1.0
ssbsg28
g0
(g29
g2
Ntp1895
Rp1896
(dp1897
g33
I0
sbsba(ics475_types
Instance
p1898
(dp1899
g23
(ics475_types
FeatureVector
p1900
(dp1901
g26
(dp1902
I2
F22.08
sI3
F0.83
sI4
F1.0
sI5
F1.0
sI6
F1.0
sI8
F2.165
sI9
F1.0
sI12
F1.0
sI13
F1.0
sI14
F128.0
sI16
F1.0
sI20
F1.0
sI27
F1.0
ssbsg28
g0
(g29
g2
Ntp1903
Rp1904
(dp1905
g33
I1
sbsba(ics475_types
Instance
p1906
(dp1907
g23
(ics475_types
FeatureVector
p1908
(dp1909
g26
(dp1910
I33
F1.0
sI2
F19.33
sI3
F9.5
sI4
F1.0
sI5
F1.0
sI7
F1.0
sI8
F1.0
sI12
F1.0
sI13
F1.0
sI14
F60.0
sI15
F400.0
sI16
F1.0
sI20
F1.0
sI30
F1.0
ssbsg28
g0
(g29
g2
Ntp1911
Rp1912
(dp1913
g33
I1
sbsba(ics475_types
Instance
p1914
(dp1915
g23
(ics475_types
FeatureVector
p1916
(dp1917
g26
(dp1918
I2
F49.17
sI3
F2.29
sI4
F1.0
sI5
F1.0
sI8
F0.29
sI9
F1.0
sI13
F1.0
sI14
F200.0
sI15
F3.0
sI16
F1.0
sI20
F1.0
sI21
F1.0
sI23
F1.0
sI24
F1.0
ssbsg28
g0
(g29
g2
Ntp1919
Rp1920
(dp1921
g33
I0
sbsba(ics475_types
Instance
p1922
(dp1923
g23
(ics475_types
FeatureVector
p1924
(dp1925
g26
(dp1926
I33
F1.0
sI2
F23.08
sI3
F11.5
sI4
F1.0
sI5
F1.0
sI7
F1.0
sI8
F3.5
sI10
F1.0
sI11
F9.0
sI13
F1.0
sI14
F56.0
sI15
F742.0
sI16
F1.0
sI21
F1.0
sI25
F1.0
ssbsg28
g0
(g29
g2
Ntp1927
Rp1928
(dp1929
g33
I1
sbsba(ics475_types
Instance
p1930
(dp1931
g23
(ics475_types
FeatureVector
p1932
(dp1933
g26
(dp1934
I1
F1.0
sI2
F60.58
sI3
F16.5
sI4
F1.0
sI5
F1.0
sI7
F1.0
sI8
F11.0
sI12
F1.0
sI13
F1.0
sI14
F21.0
sI15
F10561.0
sI20
F1.0
sI33
F1.0
sI30
F1.0
ssbsg28
g0
(g29
g2
Ntp1935
Rp1936
(dp1937
g33
I1
sbsba(ics475_types
Instance
p1938
(dp1939
g23
(ics475_types
FeatureVector
p1940
(dp1941
g26
(dp1942
I33
F1.0
sI2
F19.67
sI3
F0.375
sI4
F1.0
sI5
F1.0
sI7
F1.0
sI8
F2.0
sI10
F1.0
sI11
F2.0
sI12
F1.0
sI13
F1.0
sI14
F80.0
sI16
F1.0
sI30
F1.0
ssbsg28
g0
(g29
g2
Ntp1943
Rp1944
(dp1945
g33
I1
sbsba(ics475_types
Instance
p1946
(dp1947
g23
(ics475_types
FeatureVector
p1948
(dp1949
g26
(dp1950
I33
F1.0
sI2
F20.17
sI3
F8.17
sI4
F1.0
sI5
F1.0
sI7
F1.0
sI8
F1.96
sI10
F1.0
sI11
F14.0
sI13
F1.0
sI14
F60.0
sI15
F158.0
sI16
F1.0
sI21
F1.0
sI37
F1.0
ssbsg28
g0
(g29
g2
Ntp1951
Rp1952
(dp1953
g33
I1
sbsba(ics475_types
Instance
p1954
(dp1955
g23
(ics475_types
FeatureVector
p1956
(dp1957
g26
(dp1958
I33
F1.0
sI2
F34.25
sI3
F3.0
sI4
F1.0
sI5
F1.0
sI8
F7.415
sI12
F1.0
sI13
F1.0
sI16
F1.0
sI20
F1.0
sI36
F1.0
sI27
F1.0
ssbsg28
g0
(g29
g2
Ntp1959
Rp1960
(dp1961
g33
I1
sbsba(ics475_types
Instance
p1962
(dp1963
g23
(ics475_types
FeatureVector
p1964
(dp1965
g26
(dp1966
I2
F18.17
sI3
F2.46
sI4
F1.0
sI5
F1.0
sI6
F1.0
sI8
F0.96
sI9
F1.0
sI10
F1.0
sI11
F2.0
sI12
F1.0
sI13
F1.0
sI14
F160.0
sI15
F587.0
sI16
F1.0
sI40
F1.0
ssbsg28
g0
(g29
g2
Ntp1967
Rp1968
(dp1969
g33
I0
sbsba(ics475_types
Instance
p1970
(dp1971
g23
(ics475_types
FeatureVector
p1972
(dp1973
g26
(dp1974
I33
F1.0
sI2
F27.67
sI3
F2.0
sI4
F1.0
sI5
F1.0
sI39
F1.0
sI8
F1.0
sI10
F1.0
sI11
F4.0
sI13
F1.0
sI14
F140.0
sI15
F7544.0
sI16
F1.0
sI21
F1.0
sI27
F1.0
ssbsg28
g0
(g29
g2
Ntp1975
Rp1976
(dp1977
g33
I1
sbsba(ics475_types
Instance
p1978
(dp1979
g23
(ics475_types
FeatureVector
p1980
(dp1981
g26
(dp1982
I33
F1.0
sI2
F36.33
sI3
F2.125
sI7
F1.0
sI8
F0.085
sI10
F1.0
sI11
F1.0
sI13
F1.0
sI14
F50.0
sI15
F1187.0
sI16
F1.0
sI17
F1.0
sI18
F1.0
sI21
F1.0
sI31
F1.0
ssbsg28
g0
(g29
g2
Ntp1983
Rp1984
(dp1985
g33
I1
sbsba(ics475_types
Instance
p1986
(dp1987
g23
(ics475_types
FeatureVector
p1988
(dp1989
g26
(dp1990
I2
F20.0
sI3
F1.25
sI7
F1.0
sI8
F0.125
sI9
F1.0
sI13
F1.0
sI14
F140.0
sI15
F4.0
sI16
F1.0
sI17
F1.0
sI18
F1.0
sI19
F1.0
sI20
F1.0
sI21
F1.0
ssbsg28
g0
(g29
g2
Ntp1991
Rp1992
(dp1993
g33
I0
sbsba(ics475_types
Instance
p1994
(dp1995
g23
(ics475_types
FeatureVector
p1996
(dp1997
g26
(dp1998
I1
F1.0
sI2
F22.67
sI3
F0.75
sI4
F1.0
sI5
F1.0
sI6
F1.0
sI7
F1.0
sI8
F2.0
sI9
F1.0
sI10
F1.0
sI11
F2.0
sI12
F1.0
sI13
F1.0
sI14
F200.0
sI15
F394.0
ssbsg28
g0
(g29
g2
Ntp1999
Rp2000
(dp2001
g33
I0
sbsba(ics475_types
Instance
p2002
(dp2003
g23
(ics475_types
FeatureVector
p2004
(dp2005
g26
(dp2006
I2
F21.42
sI3
F0.75
sI38
F1.0
sI8
F0.75
sI9
F1.0
sI12
F1.0
sI13
F1.0
sI14
F132.0
sI15
F2.0
sI16
F1.0
sI17
F1.0
sI18
F1.0
sI20
F1.0
sI40
F1.0
ssbsg28
g0
(g29
g2
Ntp2007
Rp2008
(dp2009
g33
I0
sbsba(ics475_types
Instance
p2010
(dp2011
g23
(ics475_types
FeatureVector
p2012
(dp2013
g26
(dp2014
I2
F18.0
sI3
F0.165
sI4
F1.0
sI5
F1.0
sI8
F0.21
sI9
F1.0
sI13
F1.0
sI14
F200.0
sI15
F40.0
sI16
F1.0
sI40
F1.0
sI20
F1.0
sI21
F1.0
sI30
F1.0
ssbsg28
g0
(g29
g2
Ntp2015
Rp2016
(dp2017
g33
I1
sbsba(ics475_types
Instance
p2018
(dp2019
g23
(ics475_types
FeatureVector
p2020
(dp2021
g26
(dp2022
I2
F23.5
sI3
F3.165
sI7
F1.0
sI8
F0.415
sI9
F1.0
sI10
F1.0
sI11
F1.0
sI12
F1.0
sI13
F1.0
sI14
F280.0
sI15
F80.0
sI16
F1.0
sI17
F1.0
sI18
F1.0
sI19
F1.0
ssbsg28
g0
(g29
g2
Ntp2023
Rp2024
(dp2025
g33
I0
sbsba(ics475_types
Instance
p2026
(dp2027
g23
(ics475_types
FeatureVector
p2028
(dp2029
g26
(dp2030
I1
F1.0
sI2
F24.75
sI3
F12.5
sI4
F1.0
sI5
F1.0
sI7
F1.0
sI8
F1.5
sI10
F1.0
sI11
F12.0
sI12
F1.0
sI13
F1.0
sI14
F120.0
sI15
F567.0
sI33
F1.0
sI37
F1.0
ssbsg28
g0
(g29
g2
Ntp2031
Rp2032
(dp2033
g33
I1
sbsba(ics475_types
Instance
p2034
(dp2035
g23
(ics475_types
FeatureVector
p2036
(dp2037
g26
(dp2038
I2
F24.08
sI3
F9.0
sI4
F1.0
sI5
F1.0
sI7
F1.0
sI8
F0.25
sI9
F1.0
sI12
F1.0
sI13
F1.0
sI16
F1.0
sI20
F1.0
sI37
F1.0
ssbsg28
g0
(g29
g2
Ntp2039
Rp2040
(dp2041
g33
I0
sbsba(ics475_types
Instance
p2042
(dp2043
g23
(ics475_types
FeatureVector
p2044
(dp2045
g26
(dp2046
I33
F1.0
sI2
F48.58
sI3
F0.205
sI7
F1.0
sI8
F0.25
sI10
F1.0
sI11
F11.0
sI13
F1.0
sI14
F380.0
sI15
F2732.0
sI16
F1.0
sI17
F1.0
sI18
F1.0
sI19
F1.0
sI21
F1.0
ssbsg28
g0
(g29
g2
Ntp2047
Rp2048
(dp2049
g33
I1
sbsba(ics475_types
Instance
p2050
(dp2051
g23
(ics475_types
FeatureVector
p2052
(dp2053
g26
(dp2054
I33
F1.0
sI2
F52.33
sI3
F1.375
sI6
F1.0
sI8
F9.46
sI12
F1.0
sI13
F1.0
sI14
F200.0
sI15
F100.0
sI16
F1.0
sI17
F1.0
sI18
F1.0
sI20
F1.0
sI27
F1.0
ssbsg28
g0
(g29
g2
Ntp2055
Rp2056
(dp2057
g33
I0
sbsba(ics475_types
Instance
p2058
(dp2059
g23
(ics475_types
FeatureVector
p2060
(dp2061
g26
(dp2062
I2
F25.67
sI3
F3.25
sI4
F1.0
sI5
F1.0
sI6
F1.0
sI8
F2.29
sI9
F1.0
sI10
F1.0
sI11
F1.0
sI12
F1.0
sI13
F1.0
sI14
F416.0
sI15
F21.0
sI16
F1.0
sI27
F1.0
ssbsg28
g0
(g29
g2
Ntp2063
Rp2064
(dp2065
g33
I0
sbsba(ics475_types
Instance
p2066
(dp2067
g23
(ics475_types
FeatureVector
p2068
(dp2069
g26
(dp2070
I1
F1.0
sI2
F21.08
sI3
F5.0
sI9
F1.0
sI13
F1.0
sI17
F1.0
sI18
F1.0
sI20
F1.0
sI21
F1.0
sI23
F1.0
sI24
F1.0
ssbsg28
g0
(g29
g2
Ntp2071
Rp2072
(dp2073
g33
I0
sbsba(ics475_types
Instance
p2074
(dp2075
g23
(ics475_types
FeatureVector
p2076
(dp2077
g26
(dp2078
I33
F1.0
sI2
F26.0
sI3
F1.0
sI4
F1.0
sI5
F1.0
sI7
F1.0
sI8
F1.75
sI12
F1.0
sI13
F1.0
sI14
F280.0
sI16
F1.0
sI20
F1.0
sI30
F1.0
ssbsg28
g0
(g29
g2
Ntp2079
Rp2080
(dp2081
g33
I1
sbsba(ics475_types
Instance
p2082
(dp2083
g23
(ics475_types
FeatureVector
p2084
(dp2085
g26
(dp2086
I2
F69.17
sI3
F9.0
sI4
F1.0
sI5
F1.0
sI8
F4.0
sI9
F1.0
sI10
F1.0
sI11
F1.0
sI13
F1.0
sI14
F70.0
sI15
F6.0
sI16
F1.0
sI21
F1.0
sI23
F1.0
sI24
F1.0
ssbsg28
g0
(g29
g2
Ntp2087
Rp2088
(dp2089
g33
I0
sbsba(ics475_types
Instance
p2090
(dp2091
g23
(ics475_types
FeatureVector
p2092
(dp2093
g26
(dp2094
I33
F1.0
sI2
F20.17
sI3
F5.625
sI4
F1.0
sI5
F1.0
sI7
F1.0
sI8
F1.71
sI14
F120.0
sI16
F1.0
sI20
F1.0
sI21
F1.0
sI22
F1.0
sI31
F1.0
ssbsg28
g0
(g29
g2
Ntp2095
Rp2096
(dp2097
g33
I1
sbsba(ics475_types
Instance
p2098
(dp2099
g23
(ics475_types
FeatureVector
p2100
(dp2101
g26
(dp2102
I33
F1.0
sI2
F25.67
sI3
F12.5
sI4
F1.0
sI5
F1.0
sI7
F1.0
sI8
F1.21
sI10
F1.0
sI11
F67.0
sI12
F1.0
sI13
F1.0
sI14
F140.0
sI15
F258.0
sI16
F1.0
sI36
F1.0
ssbsg28
g0
(g29
g2
Ntp2103
Rp2104
(dp2105
g33
I1
sbsba(ics475_types
Instance
p2106
(dp2107
g23
(ics475_types
FeatureVector
p2108
(dp2109
g26
(dp2110
I1
F1.0
sI2
F20.33
sI3
F10.0
sI4
F1.0
sI5
F1.0
sI6
F1.0
sI33
F1.0
sI8
F1.0
sI10
F1.0
sI11
F4.0
sI13
F1.0
sI14
F50.0
sI15
F1465.0
sI21
F1.0
sI27
F1.0
ssbsg28
g0
(g29
g2
Ntp2111
Rp2112
(dp2113
g33
I1
sbsba(ics475_types
Instance
p2114
(dp2115
g23
(ics475_types
FeatureVector
p2116
(dp2117
g26
(dp2118
I2
F74.83
sI3
F19.0
sI8
F0.04
sI9
F1.0
sI10
F1.0
sI11
F2.0
sI13
F1.0
sI15
F351.0
sI16
F1.0
sI17
F1.0
sI18
F1.0
sI21
F1.0
sI23
F1.0
sI24
F1.0
ssbsg28
g0
(g29
g2
Ntp2119
Rp2120
(dp2121
g33
I0
sbsba(ics475_types
Instance
p2122
(dp2123
g23
(ics475_types
FeatureVector
p2124
(dp2125
g26
(dp2126
I32
F1.0
sI33
F1.0
sI2
F32.33
sI3
F7.5
sI4
F1.0
sI5
F1.0
sI8
F1.585
sI41
F1.0
sI12
F1.0
sI14
F420.0
sI16
F1.0
sI20
F1.0
sI22
F1.0
ssbsg28
g0
(g29
g2
Ntp2127
Rp2128
(dp2129
g33
I0
sbsba(ics475_types
Instance
p2130
(dp2131
g23
(ics475_types
FeatureVector
p2132
(dp2133
g26
(dp2134
I2
F35.17
sI3
F4.5
sI4
F1.0
sI5
F1.0
sI39
F1.0
sI8
F5.75
sI9
F1.0
sI12
F1.0
sI14
F711.0
sI16
F1.0
sI20
F1.0
sI22
F1.0
sI27
F1.0
ssbsg28
g0
(g29
g2
Ntp2135
Rp2136
(dp2137
g33
I1
sbsba(ics475_types
Instance
p2138
(dp2139
g23
(ics475_types
FeatureVector
p2140
(dp2141
g26
(dp2142
I33
F1.0
sI2
F27.83
sI3
F1.5
sI4
F1.0
sI5
F1.0
sI7
F1.0
sI8
F2.0
sI10
F1.0
sI11
F11.0
sI12
F1.0
sI13
F1.0
sI14
F434.0
sI15
F35.0
sI16
F1.0
sI31
F1.0
ssbsg28
g0
(g29
g2
Ntp2143
Rp2144
(dp2145
g33
I1
sbsba(ics475_types
Instance
p2146
(dp2147
g23
(ics475_types
FeatureVector
p2148
(dp2149
g26
(dp2150
I2
F42.83
sI3
F1.25
sI4
F1.0
sI5
F1.0
sI7
F1.0
sI8
F13.875
sI9
F1.0
sI10
F1.0
sI11
F1.0
sI12
F1.0
sI13
F1.0
sI14
F352.0
sI15
F112.0
sI16
F1.0
sI35
F1.0
ssbsg28
g0
(g29
g2
Ntp2151
Rp2152
(dp2153
g33
I0
sbsba(ics475_types
Instance
p2154
(dp2155
g23
(ics475_types
FeatureVector
p2156
(dp2157
g26
(dp2158
I1
F1.0
sI2
F56.5
sI3
F16.0
sI4
F1.0
sI5
F1.0
sI33
F1.0
sI10
F1.0
sI11
F15.0
sI13
F1.0
sI15
F247.0
sI21
F1.0
sI24
F1.0
sI28
F1.0
ssbsg28
g0
(g29
g2
Ntp2159
Rp2160
(dp2161
g33
I1
sbsba(ics475_types
Instance
p2162
(dp2163
g23
(ics475_types
FeatureVector
p2164
(dp2165
g26
(dp2166
I2
F26.75
sI3
F2.0
sI4
F1.0
sI5
F1.0
sI7
F1.0
sI8
F0.75
sI9
F1.0
sI12
F1.0
sI13
F1.0
sI14
F80.0
sI16
F1.0
sI34
F1.0
sI20
F1.0
ssbsg28
g0
(g29
g2
Ntp2167
Rp2168
(dp2169
g33
I0
sbsba(ics475_types
Instance
p2170
(dp2171
g23
(ics475_types
FeatureVector
p2172
(dp2173
g26
(dp2174
I2
F33.67
sI3
F1.25
sI4
F1.0
sI5
F1.0
sI7
F1.0
sI8
F1.165
sI9
F1.0
sI13
F1.0
sI14
F120.0
sI16
F1.0
sI20
F1.0
sI21
F1.0
sI31
F1.0
ssbsg28
g0
(g29
g2
Ntp2175
Rp2176
(dp2177
g33
I0
sbsba(ics475_types
Instance
p2178
(dp2179
g23
(ics475_types
FeatureVector
p2180
(dp2181
g26
(dp2182
I1
F1.0
sI2
F57.58
sI3
F2.0
sI4
F1.0
sI5
F1.0
sI8
F6.5
sI9
F1.0
sI10
F1.0
sI11
F1.0
sI13
F1.0
sI15
F10.0
sI21
F1.0
sI23
F1.0
sI24
F1.0
ssbsg28
g0
(g29
g2
Ntp2183
Rp2184
(dp2185
g33
I0
sbsba(ics475_types
Instance
p2186
(dp2187
g23
(ics475_types
FeatureVector
p2188
(dp2189
g26
(dp2190
I1
F1.0
sI2
F16.0
sI3
F0.165
sI4
F1.0
sI5
F1.0
sI7
F1.0
sI8
F1.0
sI9
F1.0
sI10
F1.0
sI11
F2.0
sI12
F1.0
sI13
F1.0
sI14
F320.0
sI15
F1.0
sI37
F1.0
ssbsg28
g0
(g29
g2
Ntp2191
Rp2192
(dp2193
g33
I0
sbsba(ics475_types
Instance
p2194
(dp2195
g23
(ics475_types
FeatureVector
p2196
(dp2197
g26
(dp2198
I32
F1.0
sI2
F48.08
sI3
F3.75
sI4
F1.0
sI5
F1.0
sI8
F1.0
sI9
F1.0
sI13
F1.0
sI14
F100.0
sI15
F2.0
sI16
F1.0
sI20
F1.0
sI21
F1.0
sI25
F1.0
ssbsg28
g0
(g29
g2
Ntp2199
Rp2200
(dp2201
g33
I0
sbsba(ics475_types
Instance
p2202
(dp2203
g23
(ics475_types
FeatureVector
p2204
(dp2205
g26
(dp2206
I33
F1.0
sI2
F25.08
sI3
F1.71
sI4
F1.0
sI5
F1.0
sI7
F1.0
sI8
F1.665
sI10
F1.0
sI11
F1.0
sI12
F1.0
sI13
F1.0
sI14
F395.0
sI15
F20.0
sI16
F1.0
sI39
F1.0
ssbsg28
g0
(g29
g2
Ntp2207
Rp2208
(dp2209
g33
I1
sbsba(ics475_types
Instance
p2210
(dp2211
g23
(ics475_types
FeatureVector
p2212
(dp2213
g26
(dp2214
I1
F1.0
sI2
F19.17
sI3
F0.585
sI33
F1.0
sI7
F1.0
sI8
F0.585
sI12
F1.0
sI13
F1.0
sI14
F160.0
sI17
F1.0
sI18
F1.0
sI20
F1.0
sI37
F1.0
ssbsg28
g0
(g29
g2
Ntp2215
Rp2216
(dp2217
g33
I0
sbsba(ics475_types
Instance
p2218
(dp2219
g23
(ics475_types
FeatureVector
p2220
(dp2221
g26
(dp2222
I1
F1.0
sI2
F19.67
sI3
F0.21
sI4
F1.0
sI5
F1.0
sI33
F1.0
sI8
F0.29
sI10
F1.0
sI11
F11.0
sI13
F1.0
sI14
F80.0
sI15
F99.0
sI21
F1.0
sI27
F1.0
sI30
F1.0
ssbsg28
g0
(g29
g2
Ntp2223
Rp2224
(dp2225
g33
I1
sbsba(ics475_types
Instance
p2226
(dp2227
g23
(ics475_types
FeatureVector
p2228
(dp2229
g26
(dp2230
I33
F1.0
sI2
F56.42
sI3
F28.0
sI6
F1.0
sI7
F1.0
sI8
F28.5
sI10
F1.0
sI11
F40.0
sI13
F1.0
sI15
F15.0
sI16
F1.0
sI17
F1.0
sI18
F1.0
sI21
F1.0
ssbsg28
g0
(g29
g2
Ntp2231
Rp2232
(dp2233
g33
I1
sbsba(ics475_types
Instance
p2234
(dp2235
g23
(ics475_types
FeatureVector
p2236
(dp2237
g26
(dp2238
I33
F1.0
sI2
F28.75
sI3
F1.165
sI4
F1.0
sI5
F1.0
sI7
F1.0
sI8
F0.5
sI14
F280.0
sI16
F1.0
sI19
F1.0
sI20
F1.0
sI21
F1.0
sI22
F1.0
ssbsg28
g0
(g29
g2
Ntp2239
Rp2240
(dp2241
g33
I0
sbsba(ics475_types
Instance
p2242
(dp2243
g23
(ics475_types
FeatureVector
p2244
(dp2245
g26
(dp2246
I2
F36.5
sI3
F4.25
sI4
F1.0
sI5
F1.0
sI7
F1.0
sI8
F3.5
sI9
F1.0
sI13
F1.0
sI14
F454.0
sI15
F50.0
sI16
F1.0
sI20
F1.0
sI21
F1.0
sI30
F1.0
ssbsg28
g0
(g29
g2
Ntp2247
Rp2248
(dp2249
g33
I0
sbsba(ics475_types
Instance
p2250
(dp2251
g23
(ics475_types
FeatureVector
p2252
(dp2253
g26
(dp2254
I33
F1.0
sI2
F24.42
sI3
F12.335
sI4
F1.0
sI5
F1.0
sI8
F1.585
sI12
F1.0
sI13
F1.0
sI14
F120.0
sI16
F1.0
sI20
F1.0
sI27
F1.0
sI30
F1.0
ssbsg28
g0
(g29
g2
Ntp2255
Rp2256
(dp2257
g33
I1
sbsba(ics475_types
Instance
p2258
(dp2259
g23
(ics475_types
FeatureVector
p2260
(dp2261
g26
(dp2262
I2
F62.75
sI3
F7.0
sI4
F1.0
sI5
F1.0
sI9
F1.0
sI42
F1.0
sI13
F1.0
sI15
F12.0
sI16
F1.0
sI20
F1.0
sI21
F1.0
sI41
F1.0
ssbsg28
g0
(g29
g2
Ntp2263
Rp2264
(dp2265
g33
I0
sbsba(ics475_types
Instance
p2266
(dp2267
g23
(ics475_types
FeatureVector
p2268
(dp2269
g26
(dp2270
I1
F1.0
sI2
F15.83
sI3
F7.625
sI4
F1.0
sI5
F1.0
sI7
F1.0
sI8
F0.125
sI9
F1.0
sI10
F1.0
sI11
F1.0
sI12
F1.0
sI13
F1.0
sI15
F160.0
sI30
F1.0
ssbsg28
g0
(g29
g2
Ntp2271
Rp2272
(dp2273
g33
I0
sbsba(ics475_types
Instance
p2274
(dp2275
g23
(ics475_types
FeatureVector
p2276
(dp2277
g26
(dp2278
I32
F1.0
sI1
F1.0
sI2
F51.92
sI3
F6.5
sI4
F1.0
sI5
F1.0
sI8
F3.085
sI9
F1.0
sI12
F1.0
sI13
F1.0
sI14
F73.0
sI20
F1.0
sI25
F1.0
ssbsg28
g0
(g29
g2
Ntp2279
Rp2280
(dp2281
g33
I0
sbsba(ics475_types
Instance
p2282
(dp2283
g23
(ics475_types
FeatureVector
p2284
(dp2285
g26
(dp2286
I1
F1.0
sI2
F26.58
sI3
F2.54
sI9
F1.0
sI12
F1.0
sI13
F1.0
sI14
F180.0
sI15
F60.0
sI17
F1.0
sI18
F1.0
sI20
F1.0
sI23
F1.0
sI24
F1.0
ssbsg28
g0
(g29
g2
Ntp2287
Rp2288
(dp2289
g33
I0
sbsba(ics475_types
Instance
p2290
(dp2291
g23
(ics475_types
FeatureVector
p2292
(dp2293
g26
(dp2294
I33
F1.0
sI2
F44.33
sI3
F0.5
sI4
F1.0
sI5
F1.0
sI8
F5.0
sI12
F1.0
sI13
F1.0
sI14
F320.0
sI16
F1.0
sI20
F1.0
sI25
F1.0
sI27
F1.0
ssbsg28
g0
(g29
g2
Ntp2295
Rp2296
(dp2297
g33
I1
sbsba(ics475_types
Instance
p2298
(dp2299
g23
(ics475_types
FeatureVector
p2300
(dp2301
g26
(dp2302
I1
F1.0
sI2
F29.5
sI3
F1.085
sI7
F1.0
sI8
F1.0
sI9
F1.0
sI39
F1.0
sI13
F1.0
sI14
F280.0
sI15
F13.0
sI17
F1.0
sI18
F1.0
sI20
F1.0
sI21
F1.0
ssbsg28
g0
(g29
g2
Ntp2303
Rp2304
(dp2305
g33
I0
sbsba(ics475_types
Instance
p2306
(dp2307
g23
(ics475_types
FeatureVector
p2308
(dp2309
g26
(dp2310
I2
F20.67
sI3
F0.835
sI6
F1.0
sI7
F1.0
sI8
F2.0
sI9
F1.0
sI12
F1.0
sI14
F240.0
sI16
F1.0
sI17
F1.0
sI18
F1.0
sI20
F1.0
sI22
F1.0
ssbsg28
g0
(g29
g2
Ntp2311
Rp2312
(dp2313
g33
I0
sbsba(ics475_types
Instance
p2314
(dp2315
g23
(ics475_types
FeatureVector
p2316
(dp2317
g26
(dp2318
I32
F1.0
sI33
F1.0
sI2
F42.75
sI3
F3.0
sI4
F1.0
sI5
F1.0
sI8
F1.0
sI13
F1.0
sI15
F200.0
sI16
F1.0
sI20
F1.0
sI21
F1.0
sI25
F1.0
ssbsg28
g0
(g29
g2
Ntp2319
Rp2320
(dp2321
g33
I0
sbsba(ics475_types
Instance
p2322
(dp2323
g23
(ics475_types
FeatureVector
p2324
(dp2325
g26
(dp2326
I33
F1.0
sI2
F24.17
sI3
F0.875
sI4
F1.0
sI5
F1.0
sI7
F1.0
sI8
F4.625
sI10
F1.0
sI11
F2.0
sI12
F1.0
sI13
F1.0
sI14
F520.0
sI15
F2000.0
sI16
F1.0
sI30
F1.0
ssbsg28
g0
(g29
g2
Ntp2327
Rp2328
(dp2329
g33
I1
sbsba(ics475_types
Instance
p2330
(dp2331
g23
(ics475_types
FeatureVector
p2332
(dp2333
g26
(dp2334
I33
F1.0
sI2
F60.08
sI3
F14.5
sI4
F1.0
sI5
F1.0
sI8
F18.0
sI10
F1.0
sI11
F15.0
sI12
F1.0
sI13
F1.0
sI15
F1000.0
sI16
F1.0
sI23
F1.0
sI24
F1.0
ssbsg28
g0
(g29
g2
Ntp2335
Rp2336
(dp2337
g33
I1
sbsba(ics475_types
Instance
p2338
(dp2339
g23
(ics475_types
FeatureVector
p2340
(dp2341
g26
(dp2342
I33
F1.0
sI2
F34.08
sI3
F6.5
sI4
F1.0
sI5
F1.0
sI7
F1.0
sI8
F0.125
sI12
F1.0
sI13
F1.0
sI14
F443.0
sI16
F1.0
sI20
F1.0
sI37
F1.0
ssbsg28
g0
(g29
g2
Ntp2343
Rp2344
(dp2345
g33
I0
sbsba(ics475_types
Instance
p2346
(dp2347
g23
(ics475_types
FeatureVector
p2348
(dp2349
g26
(dp2350
I32
F1.0
sI2
F34.0
sI3
F5.085
sI8
F1.085
sI9
F1.0
sI12
F1.0
sI13
F1.0
sI14
F480.0
sI16
F1.0
sI17
F1.0
sI18
F1.0
sI20
F1.0
sI25
F1.0
ssbsg28
g0
(g29
g2
Ntp2351
Rp2352
(dp2353
g33
I0
sbsba(ics475_types
Instance
p2354
(dp2355
g23
(ics475_types
FeatureVector
p2356
(dp2357
g26
(dp2358
I33
F1.0
sI2
F41.75
sI3
F0.96
sI4
F1.0
sI5
F1.0
sI7
F1.0
sI8
F2.5
sI39
F1.0
sI13
F1.0
sI14
F510.0
sI15
F600.0
sI16
F1.0
sI20
F1.0
sI21
F1.0
ssbsg28
g0
(g29
g2
Ntp2359
Rp2360
(dp2361
g33
I1
sbsba(ics475_types
Instance
p2362
(dp2363
g23
(ics475_types
FeatureVector
p2364
(dp2365
g26
(dp2366
I33
F1.0
sI2
F19.42
sI3
F6.5
sI4
F1.0
sI5
F1.0
sI8
F1.46
sI10
F1.0
sI11
F7.0
sI13
F1.0
sI14
F80.0
sI15
F2954.0
sI16
F1.0
sI21
F1.0
sI27
F1.0
sI31
F1.0
ssbsg28
g0
(g29
g2
Ntp2367
Rp2368
(dp2369
g33
I1
sbsba(ics475_types
Instance
p2370
(dp2371
g23
(ics475_types
FeatureVector
p2372
(dp2373
g26
(dp2374
I1
F1.0
sI2
F25.33
sI3
F2.085
sI4
F1.0
sI5
F1.0
sI6
F1.0
sI33
F1.0
sI8
F2.75
sI12
F1.0
sI13
F1.0
sI14
F360.0
sI15
F1.0
sI20
F1.0
sI27
F1.0
ssbsg28
g0
(g29
g2
Ntp2375
Rp2376
(dp2377
g33
I0
sbsba(ics475_types
Instance
p2378
(dp2379
g23
(ics475_types
FeatureVector
p2380
(dp2381
g26
(dp2382
I33
F1.0
sI2
F30.17
sI3
F0.5
sI4
F1.0
sI5
F1.0
sI6
F1.0
sI7
F1.0
sI8
F1.75
sI10
F1.0
sI11
F11.0
sI13
F1.0
sI14
F32.0
sI15
F540.0
sI16
F1.0
sI21
F1.0
ssbsg28
g0
(g29
g2
Ntp2383
Rp2384
(dp2385
g33
I1
sbsba(ics475_types
Instance
p2386
(dp2387
g23
(ics475_types
FeatureVector
p2388
(dp2389
g26
(dp2390
I2
F32.92
sI3
F2.5
sI4
F1.0
sI5
F1.0
sI7
F1.0
sI8
F1.75
sI9
F1.0
sI10
F1.0
sI11
F2.0
sI12
F1.0
sI13
F1.0
sI14
F720.0
sI16
F1.0
sI37
F1.0
ssbsg28
g0
(g29
g2
Ntp2391
Rp2392
(dp2393
g33
I0
sbsba(ics475_types
Instance
p2394
(dp2395
g23
(ics475_types
FeatureVector
p2396
(dp2397
g26
(dp2398
I2
F34.0
sI3
F5.5
sI6
F1.0
sI7
F1.0
sI8
F1.5
sI9
F1.0
sI12
F1.0
sI13
F1.0
sI14
F60.0
sI16
F1.0
sI17
F1.0
sI18
F1.0
sI20
F1.0
ssbsg28
g0
(g29
g2
Ntp2399
Rp2400
(dp2401
g33
I0
sbsba(ics475_types
Instance
p2402
(dp2403
g23
(ics475_types
FeatureVector
p2404
(dp2405
g26
(dp2406
I33
F1.0
sI2
F45.0
sI3
F8.5
sI4
F1.0
sI5
F1.0
sI8
F14.0
sI10
F1.0
sI11
F1.0
sI12
F1.0
sI13
F1.0
sI14
F88.0
sI15
F2000.0
sI16
F1.0
sI36
F1.0
sI27
F1.0
ssbsg28
g0
(g29
g2
Ntp2407
Rp2408
(dp2409
g33
I1
sbsba(ics475_types
Instance
p2410
(dp2411
g23
(ics475_types
FeatureVector
p2412
(dp2413
g26
(dp2414
I2
F17.5
sI3
F22.0
sI9
F1.0
sI12
F1.0
sI45
F1.0
sI14
F450.0
sI15
F100000.0
sI16
F1.0
sI20
F1.0
sI46
F1.0
sI23
F1.0
sI26
F1.0
sI44
F1.0
ssbsg28
g0
(g29
g2
Ntp2415
Rp2416
(dp2417
g33
I1
sbsba(ics475_types
Instance
p2418
(dp2419
g23
(ics475_types
FeatureVector
p2420
(dp2421
g26
(dp2422
I1
F1.0
sI2
F23.5
sI3
F9.0
sI4
F1.0
sI5
F1.0
sI7
F1.0
sI8
F8.5
sI10
F1.0
sI11
F5.0
sI12
F1.0
sI13
F1.0
sI14
F120.0
sI33
F1.0
sI30
F1.0
ssbsg28
g0
(g29
g2
Ntp2423
Rp2424
(dp2425
g33
I1
sbsba(ics475_types
Instance
p2426
(dp2427
g23
(ics475_types
FeatureVector
p2428
(dp2429
g26
(dp2430
I1
F1.0
sI2
F22.42
sI3
F5.665
sI4
F1.0
sI5
F1.0
sI7
F1.0
sI8
F2.585
sI10
F1.0
sI11
F7.0
sI13
F1.0
sI14
F129.0
sI15
F3257.0
sI21
F1.0
sI33
F1.0
sI30
F1.0
ssbsg28
g0
(g29
g2
Ntp2431
Rp2432
(dp2433
g33
I1
sbsba(ics475_types
Instance
p2434
(dp2435
g23
(ics475_types
FeatureVector
p2436
(dp2437
g26
(dp2438
I2
F41.0
sI3
F0.04
sI4
F1.0
sI5
F1.0
sI7
F1.0
sI8
F0.04
sI9
F1.0
sI10
F1.0
sI11
F1.0
sI14
F560.0
sI16
F1.0
sI21
F1.0
sI22
F1.0
sI41
F1.0
ssbsg28
g0
(g29
g2
Ntp2439
Rp2440
(dp2441
g33
I1
sbsba(ics475_types
Instance
p2442
(dp2443
g23
(ics475_types
FeatureVector
p2444
(dp2445
g26
(dp2446
I33
F1.0
sI2
F41.17
sI3
F4.04
sI4
F1.0
sI5
F1.0
sI8
F7.0
sI10
F1.0
sI11
F8.0
sI13
F1.0
sI14
F320.0
sI16
F1.0
sI21
F1.0
sI36
F1.0
sI27
F1.0
ssbsg28
g0
(g29
g2
Ntp2447
Rp2448
(dp2449
g33
I1
sbsba(ics475_types
Instance
p2450
(dp2451
g23
(ics475_types
FeatureVector
p2452
(dp2453
g26
(dp2454
I1
F1.0
sI2
F24.75
sI3
F13.665
sI4
F1.0
sI5
F1.0
sI8
F1.5
sI9
F1.0
sI13
F1.0
sI14
F280.0
sI15
F1.0
sI20
F1.0
sI21
F1.0
sI27
F1.0
sI30
F1.0
ssbsg28
g0
(g29
g2
Ntp2455
Rp2456
(dp2457
g33
I0
sbsba(ics475_types
Instance
p2458
(dp2459
g23
(ics475_types
FeatureVector
p2460
(dp2461
g26
(dp2462
I33
F1.0
sI2
F41.42
sI3
F5.0
sI4
F1.0
sI5
F1.0
sI8
F5.0
sI10
F1.0
sI11
F6.0
sI12
F1.0
sI13
F1.0
sI14
F470.0
sI16
F1.0
sI27
F1.0
sI30
F1.0
ssbsg28
g0
(g29
g2
Ntp2463
Rp2464
(dp2465
g33
I1
sbsba(ics475_types
Instance
p2466
(dp2467
g23
(ics475_types
FeatureVector
p2468
(dp2469
g26
(dp2470
I33
F1.0
sI2
F48.17
sI3
F3.5
sI4
F1.0
sI5
F1.0
sI7
F1.0
sI8
F3.5
sI14
F230.0
sI16
F1.0
sI20
F1.0
sI21
F1.0
sI22
F1.0
sI37
F1.0
ssbsg28
g0
(g29
g2
Ntp2471
Rp2472
(dp2473
g33
I1
sbsba(ics475_types
Instance
p2474
(dp2475
g23
(ics475_types
FeatureVector
p2476
(dp2477
g26
(dp2478
I32
F1.0
sI2
F36.17
sI3
F5.5
sI4
F1.0
sI5
F1.0
sI8
F5.0
sI9
F1.0
sI13
F1.0
sI14
F210.0
sI15
F687.0
sI16
F1.0
sI20
F1.0
sI21
F1.0
sI25
F1.0
ssbsg28
g0
(g29
g2
Ntp2479
Rp2480
(dp2481
g33
I0
sbsba(ics475_types
Instance
p2482
(dp2483
g23
(ics475_types
FeatureVector
p2484
(dp2485
g26
(dp2486
I2
F24.58
sI3
F1.25
sI4
F1.0
sI5
F1.0
sI6
F1.0
sI7
F1.0
sI8
F0.25
sI9
F1.0
sI13
F1.0
sI14
F110.0
sI16
F1.0
sI20
F1.0
sI21
F1.0
ssbsg28
g0
(g29
g2
Ntp2487
Rp2488
(dp2489
g33
I0
sbsba(ics475_types
Instance
p2490
(dp2491
g23
(ics475_types
FeatureVector
p2492
(dp2493
g26
(dp2494
I1
F1.0
sI2
F52.17
sI9
F1.0
sI13
F1.0
sI17
F1.0
sI18
F1.0
sI20
F1.0
sI21
F1.0
sI23
F1.0
sI24
F1.0
ssbsg28
g0
(g29
g2
Ntp2495
Rp2496
(dp2497
g33
I0
sbsba(ics475_types
Instance
p2498
(dp2499
g23
(ics475_types
FeatureVector
p2500
(dp2501
g26
(dp2502
I1
F1.0
sI2
F18.25
sI3
F10.0
sI4
F1.0
sI5
F1.0
sI7
F1.0
sI8
F1.0
sI9
F1.0
sI10
F1.0
sI11
F1.0
sI13
F1.0
sI14
F120.0
sI15
F1.0
sI21
F1.0
sI31
F1.0
ssbsg28
g0
(g29
g2
Ntp2503
Rp2504
(dp2505
g33
I0
sbsba(ics475_types
Instance
p2506
(dp2507
g23
(ics475_types
FeatureVector
p2508
(dp2509
g26
(dp2510
I33
F1.0
sI2
F54.58
sI3
F9.415
sI4
F1.0
sI5
F1.0
sI8
F14.415
sI10
F1.0
sI11
F11.0
sI12
F1.0
sI13
F1.0
sI14
F30.0
sI15
F300.0
sI16
F1.0
sI23
F1.0
sI24
F1.0
ssbsg28
g0
(g29
g2
Ntp2511
Rp2512
(dp2513
g33
I1
sbsba(ics475_types
Instance
p2514
(dp2515
g23
(ics475_types
FeatureVector
p2516
(dp2517
g26
(dp2518
I2
F17.67
sI3
F4.46
sI4
F1.0
sI5
F1.0
sI6
F1.0
sI7
F1.0
sI8
F0.25
sI9
F1.0
sI14
F80.0
sI16
F1.0
sI20
F1.0
sI21
F1.0
sI22
F1.0
ssbsg28
g0
(g29
g2
Ntp2519
Rp2520
(dp2521
g33
I0
sbsba(ics475_types
Instance
p2522
(dp2523
g23
(ics475_types
FeatureVector
p2524
(dp2525
g26
(dp2526
I33
F1.0
sI2
F27.0
sI3
F0.75
sI4
F1.0
sI5
F1.0
sI6
F1.0
sI8
F4.25
sI10
F1.0
sI11
F3.0
sI12
F1.0
sI13
F1.0
sI14
F312.0
sI15
F150.0
sI16
F1.0
sI27
F1.0
ssbsg28
g0
(g29
g2
Ntp2527
Rp2528
(dp2529
g33
I1
sbsba(ics475_types
Instance
p2530
(dp2531
g23
(ics475_types
FeatureVector
p2532
(dp2533
g26
(dp2534
I33
F1.0
sI2
F59.5
sI3
F2.75
sI4
F1.0
sI5
F1.0
sI7
F1.0
sI8
F1.75
sI10
F1.0
sI11
F5.0
sI12
F1.0
sI13
F1.0
sI14
F60.0
sI15
F58.0
sI16
F1.0
sI31
F1.0
ssbsg28
g0
(g29
g2
Ntp2535
Rp2536
(dp2537
g33
I1
sbsba(ics475_types
Instance
p2538
(dp2539
g23
(ics475_types
FeatureVector
p2540
(dp2541
g26
(dp2542
I33
F1.0
sI2
F48.17
sI3
F7.625
sI4
F1.0
sI5
F1.0
sI8
F15.5
sI10
F1.0
sI11
F12.0
sI13
F1.0
sI15
F790.0
sI16
F1.0
sI21
F1.0
sI27
F1.0
sI31
F1.0
ssbsg28
g0
(g29
g2
Ntp2543
Rp2544
(dp2545
g33
I1
sbsba(ics475_types
Instance
p2546
(dp2547
g23
(ics475_types
FeatureVector
p2548
(dp2549
g26
(dp2550
I1
F1.0
sI2
F15.75
sI3
F0.375
sI4
F1.0
sI5
F1.0
sI6
F1.0
sI7
F1.0
sI8
F1.0
sI9
F1.0
sI13
F1.0
sI14
F120.0
sI15
F18.0
sI20
F1.0
sI21
F1.0
ssbsg28
g0
(g29
g2
Ntp2551
Rp2552
(dp2553
g33
I0
sbsba(ics475_types
Instance
p2554
(dp2555
g23
(ics475_types
FeatureVector
p2556
(dp2557
g26
(dp2558
I33
F1.0
sI2
F30.83
sI4
F1.0
sI5
F1.0
sI7
F1.0
sI8
F1.25
sI10
F1.0
sI11
F1.0
sI13
F1.0
sI14
F202.0
sI16
F1.0
sI21
F1.0
sI31
F1.0
ssbsg28
g0
(g29
g2
Ntp2559
Rp2560
(dp2561
g33
I1
sbsba(ics475_types
Instance
p2562
(dp2563
g23
(ics475_types
FeatureVector
p2564
(dp2565
g26
(dp2566
I2
F21.17
sI4
F1.0
sI5
F1.0
sI6
F1.0
sI7
F1.0
sI8
F0.5
sI9
F1.0
sI12
F1.0
sI16
F1.0
sI20
F1.0
sI22
F1.0
ssbsg28
g0
(g29
g2
Ntp2567
Rp2568
(dp2569
g33
I0
sbsba(ics475_types
Instance
p2570
(dp2571
g23
(ics475_types
FeatureVector
p2572
(dp2573
g26
(dp2574
I33
F1.0
sI2
F28.67
sI3
F9.335
sI4
F1.0
sI5
F1.0
sI8
F5.665
sI10
F1.0
sI11
F6.0
sI13
F1.0
sI14
F381.0
sI15
F168.0
sI16
F1.0
sI21
F1.0
sI27
F1.0
sI30
F1.0
ssbsg28
g0
(g29
g2
Ntp2575
Rp2576
(dp2577
g33
I1
sbsba(ics475_types
Instance
p2578
(dp2579
g23
(ics475_types
FeatureVector
p2580
(dp2581
g26
(dp2582
I2
F22.17
sI3
F2.25
sI4
F1.0
sI5
F1.0
sI7
F1.0
sI8
F0.125
sI9
F1.0
sI13
F1.0
sI14
F160.0
sI15
F10.0
sI16
F1.0
sI20
F1.0
sI21
F1.0
sI25
F1.0
ssbsg28
g0
(g29
g2
Ntp2583
Rp2584
(dp2585
g33
I0
sbsba(ics475_types
Instance
p2586
(dp2587
g23
(ics475_types
FeatureVector
p2588
(dp2589
g26
(dp2590
I33
F1.0
sI2
F44.0
sI3
F2.0
sI4
F1.0
sI5
F1.0
sI7
F1.0
sI8
F1.75
sI10
F1.0
sI11
F2.0
sI12
F1.0
sI13
F1.0
sI15
F15.0
sI16
F1.0
sI35
F1.0
ssbsg28
g0
(g29
g2
Ntp2591
Rp2592
(dp2593
g33
I1
sbsba(ics475_types
Instance
p2594
(dp2595
g23
(ics475_types
FeatureVector
p2596
(dp2597
g26
(dp2598
I1
F1.0
sI2
F33.67
sI3
F0.375
sI4
F1.0
sI5
F1.0
sI7
F1.0
sI8
F0.375
sI9
F1.0
sI13
F1.0
sI14
F300.0
sI15
F44.0
sI20
F1.0
sI21
F1.0
sI36
F1.0
ssbsg28
g0
(g29
g2
Ntp2599
Rp2600
(dp2601
g33
I1
sbsba(ics475_types
Instance
p2602
(dp2603
g23
(ics475_types
FeatureVector
p2604
(dp2605
g26
(dp2606
I1
F1.0
sI2
F56.83
sI3
F4.25
sI8
F5.0
sI9
F1.0
sI12
F1.0
sI13
F1.0
sI15
F4.0
sI17
F1.0
sI18
F1.0
sI20
F1.0
sI23
F1.0
sI24
F1.0
ssbsg28
g0
(g29
g2
Ntp2607
Rp2608
(dp2609
g33
I0
sbsba(ics475_types
Instance
p2610
(dp2611
g23
(ics475_types
FeatureVector
p2612
(dp2613
g26
(dp2614
I33
F1.0
sI2
F31.67
sI3
F0.83
sI4
F1.0
sI5
F1.0
sI7
F1.0
sI8
F1.335
sI10
F1.0
sI11
F8.0
sI12
F1.0
sI13
F1.0
sI14
F303.0
sI15
F3290.0
sI16
F1.0
sI39
F1.0
ssbsg28
g0
(g29
g2
Ntp2615
Rp2616
(dp2617
g33
I1
sbsba(ics475_types
Instance
p2618
(dp2619
g23
(ics475_types
FeatureVector
p2620
(dp2621
g26
(dp2622
I33
F1.0
sI2
F20.42
sI3
F7.0
sI4
F1.0
sI5
F1.0
sI6
F1.0
sI7
F1.0
sI8
F1.625
sI10
F1.0
sI11
F3.0
sI13
F1.0
sI14
F200.0
sI15
F1391.0
sI16
F1.0
sI21
F1.0
ssbsg28
g0
(g29
g2
Ntp2623
Rp2624
(dp2625
g33
I1
sbsba(ics475_types
Instance
p2626
(dp2627
g23
(ics475_types
FeatureVector
p2628
(dp2629
g26
(dp2630
I33
F1.0
sI2
F21.0
sI3
F3.0
sI7
F1.0
sI8
F1.085
sI10
F1.0
sI11
F8.0
sI12
F1.0
sI13
F1.0
sI14
F160.0
sI15
F1.0
sI16
F1.0
sI17
F1.0
sI18
F1.0
sI34
F1.0
ssbsg28
g0
(g29
g2
Ntp2631
Rp2632
(dp2633
g33
I1
sbsba(ics475_types
Instance
p2634
(dp2635
g23
(ics475_types
FeatureVector
p2636
(dp2637
g26
(dp2638
I32
F1.0
sI2
F39.92
sI3
F5.0
sI4
F1.0
sI5
F1.0
sI8
F0.21
sI9
F1.0
sI13
F1.0
sI14
F550.0
sI16
F1.0
sI20
F1.0
sI21
F1.0
sI25
F1.0
ssbsg28
g0
(g29
g2
Ntp2639
Rp2640
(dp2641
g33
I0
sbsba(ics475_types
Instance
p2642
(dp2643
g23
(ics475_types
FeatureVector
p2644
(dp2645
g26
(dp2646
I33
F1.0
sI2
F65.42
sI3
F11.0
sI4
F1.0
sI5
F1.0
sI8
F20.0
sI41
F1.0
sI10
F1.0
sI11
F7.0
sI12
F1.0
sI13
F1.0
sI14
F22.0
sI16
F1.0
sI42
F1.0
ssbsg28
g0
(g29
g2
Ntp2647
Rp2648
(dp2649
g33
I1
sbsba(ics475_types
Instance
p2650
(dp2651
g23
(ics475_types
FeatureVector
p2652
(dp2653
g26
(dp2654
I33
F1.0
sI2
F43.08
sI3
F0.375
sI6
F1.0
sI7
F1.0
sI8
F0.375
sI10
F1.0
sI11
F8.0
sI12
F1.0
sI13
F1.0
sI14
F300.0
sI15
F162.0
sI16
F1.0
sI17
F1.0
sI18
F1.0
ssbsg28
g0
(g29
g2
Ntp2655
Rp2656
(dp2657
g33
I1
sbsba(ics475_types
Instance
p2658
(dp2659
g23
(ics475_types
FeatureVector
p2660
(dp2661
g26
(dp2662
I2
F31.0
sI3
F2.085
sI4
F1.0
sI5
F1.0
sI6
F1.0
sI7
F1.0
sI8
F0.085
sI9
F1.0
sI13
F1.0
sI14
F300.0
sI16
F1.0
sI20
F1.0
sI21
F1.0
ssbsg28
g0
(g29
g2
Ntp2663
Rp2664
(dp2665
g33
I0
sbsba(ics475_types
Instance
p2666
(dp2667
g23
(ics475_types
FeatureVector
p2668
(dp2669
g26
(dp2670
I1
F1.0
sI2
F22.42
sI3
F11.25
sI33
F1.0
sI8
F0.75
sI10
F1.0
sI11
F4.0
sI13
F1.0
sI15
F321.0
sI17
F1.0
sI18
F1.0
sI21
F1.0
sI39
F1.0
sI27
F1.0
ssbsg28
g0
(g29
g2
Ntp2671
Rp2672
(dp2673
g33
I1
sbsba(ics475_types
Instance
p2674
(dp2675
g23
(ics475_types
FeatureVector
p2676
(dp2677
g26
(dp2678
I2
F22.17
sI3
F12.125
sI4
F1.0
sI5
F1.0
sI6
F1.0
sI7
F1.0
sI8
F3.335
sI9
F1.0
sI10
F1.0
sI11
F2.0
sI12
F1.0
sI13
F1.0
sI14
F180.0
sI15
F173.0
sI16
F1.0
ssbsg28
g0
(g29
g2
Ntp2679
Rp2680
(dp2681
g33
I0
sbsba(ics475_types
Instance
p2682
(dp2683
g23
(ics475_types
FeatureVector
p2684
(dp2685
g26
(dp2686
I1
F1.0
sI2
F20.83
sI3
F0.5
sI8
F1.0
sI9
F1.0
sI43
F1.0
sI13
F1.0
sI14
F260.0
sI17
F1.0
sI18
F1.0
sI20
F1.0
sI21
F1.0
sI41
F1.0
ssbsg28
g0
(g29
g2
Ntp2687
Rp2688
(dp2689
g33
I0
sbsba(ics475_types
Instance
p2690
(dp2691
g23
(ics475_types
FeatureVector
p2692
(dp2693
g26
(dp2694
I1
F1.0
sI2
F40.33
sI3
F7.54
sI33
F1.0
sI8
F8.0
sI10
F1.0
sI11
F14.0
sI13
F1.0
sI15
F2300.0
sI17
F1.0
sI18
F1.0
sI21
F1.0
sI27
F1.0
sI30
F1.0
ssbsg28
g0
(g29
g2
Ntp2695
Rp2696
(dp2697
g33
I1
sbsba(ics475_types
Instance
p2698
(dp2699
g23
(ics475_types
FeatureVector
p2700
(dp2701
g26
(dp2702
I32
F1.0
sI33
F1.0
sI2
F23.25
sI3
F4.0
sI4
F1.0
sI5
F1.0
sI6
F1.0
sI8
F0.25
sI12
F1.0
sI13
F1.0
sI14
F160.0
sI16
F1.0
sI20
F1.0
ssbsg28
g0
(g29
g2
Ntp2703
Rp2704
(dp2705
g33
I1
sbsba(ics475_types
Instance
p2706
(dp2707
g23
(ics475_types
FeatureVector
p2708
(dp2709
g26
(dp2710
I2
F16.17
sI3
F0.04
sI4
F1.0
sI5
F1.0
sI6
F1.0
sI7
F1.0
sI8
F0.04
sI9
F1.0
sI13
F1.0
sI16
F1.0
sI20
F1.0
sI21
F1.0
ssbsg28
g0
(g29
g2
Ntp2711
Rp2712
(dp2713
g33
I1
sbsba(ics475_types
Instance
p2714
(dp2715
g23
(ics475_types
FeatureVector
p2716
(dp2717
g26
(dp2718
I1
F1.0
sI2
F19.75
sI3
F0.75
sI4
F1.0
sI5
F1.0
sI6
F1.0
sI7
F1.0
sI8
F0.795
sI10
F1.0
sI11
F5.0
sI12
F1.0
sI13
F1.0
sI14
F140.0
sI15
F5.0
sI33
F1.0
ssbsg28
g0
(g29
g2
Ntp2719
Rp2720
(dp2721
g33
I0
sbsba(ics475_types
Instance
p2722
(dp2723
g23
(ics475_types
FeatureVector
p2724
(dp2725
g26
(dp2726
I33
F1.0
sI2
F39.58
sI3
F13.915
sI4
F1.0
sI5
F1.0
sI7
F1.0
sI8
F8.625
sI10
F1.0
sI11
F6.0
sI12
F1.0
sI13
F1.0
sI14
F70.0
sI16
F1.0
sI31
F1.0
ssbsg28
g0
(g29
g2
Ntp2727
Rp2728
(dp2729
g33
I1
sbsba(ics475_types
Instance
p2730
(dp2731
g23
(ics475_types
FeatureVector
p2732
(dp2733
g26
(dp2734
I33
F1.0
sI2
F21.92
sI3
F0.54
sI7
F1.0
sI8
F0.04
sI10
F1.0
sI11
F1.0
sI12
F1.0
sI13
F1.0
sI14
F840.0
sI15
F59.0
sI16
F1.0
sI17
F1.0
sI18
F1.0
sI39
F1.0
ssbsg28
g0
(g29
g2
Ntp2735
Rp2736
(dp2737
g33
I1
sbsba(ics475_types
Instance
p2738
(dp2739
g23
(ics475_types
FeatureVector
p2740
(dp2741
g26
(dp2742
I2
F23.42
sI3
F1.0
sI4
F1.0
sI5
F1.0
sI6
F1.0
sI7
F1.0
sI8
F0.5
sI9
F1.0
sI12
F1.0
sI14
F280.0
sI16
F1.0
sI20
F1.0
sI22
F1.0
ssbsg28
g0
(g29
g2
Ntp2743
Rp2744
(dp2745
g33
I0
sbsba(ics475_types
Instance
p2746
(dp2747
g23
(ics475_types
FeatureVector
p2748
(dp2749
g26
(dp2750
I33
F1.0
sI2
F27.25
sI3
F1.585
sI4
F1.0
sI5
F1.0
sI8
F1.835
sI10
F1.0
sI11
F12.0
sI12
F1.0
sI13
F1.0
sI14
F583.0
sI15
F713.0
sI16
F1.0
sI36
F1.0
sI27
F1.0
ssbsg28
g0
(g29
g2
Ntp2751
Rp2752
(dp2753
g33
I1
sbsba(ics475_types
Instance
p2754
(dp2755
g23
(ics475_types
FeatureVector
p2756
(dp2757
g26
(dp2758
I33
F1.0
sI2
F64.08
sI3
F20.0
sI4
F1.0
sI5
F1.0
sI39
F1.0
sI8
F17.5
sI10
F1.0
sI11
F9.0
sI12
F1.0
sI13
F1.0
sI15
F1000.0
sI16
F1.0
sI27
F1.0
ssbsg28
g0
(g29
g2
Ntp2759
Rp2760
(dp2761
g33
I1
sbsba(ics475_types
Instance
p2762
(dp2763
g23
(ics475_types
FeatureVector
p2764
(dp2765
g26
(dp2766
I33
F1.0
sI2
F16.08
sI3
F0.75
sI4
F1.0
sI5
F1.0
sI6
F1.0
sI7
F1.0
sI8
F1.75
sI10
F1.0
sI11
F5.0
sI12
F1.0
sI13
F1.0
sI14
F352.0
sI15
F690.0
sI16
F1.0
ssbsg28
g0
(g29
g2
Ntp2767
Rp2768
(dp2769
g33
I1
sbsba(ics475_types
Instance
p2770
(dp2771
g23
(ics475_types
FeatureVector
p2772
(dp2773
g26
(dp2774
I2
F31.58
sI3
F0.75
sI37
F1.0
sI7
F1.0
sI8
F3.5
sI9
F1.0
sI12
F1.0
sI13
F1.0
sI14
F320.0
sI16
F1.0
sI17
F1.0
sI18
F1.0
sI20
F1.0
ssbsg28
g0
(g29
g2
Ntp2775
Rp2776
(dp2777
g33
I0
sbsba(ics475_types
Instance
p2778
(dp2779
g23
(ics475_types
FeatureVector
p2780
(dp2781
g26
(dp2782
I33
F1.0
sI2
F25.17
sI3
F3.5
sI4
F1.0
sI5
F1.0
sI7
F1.0
sI8
F0.625
sI10
F1.0
sI11
F7.0
sI13
F1.0
sI15
F7059.0
sI16
F1.0
sI21
F1.0
sI36
F1.0
ssbsg28
g0
(g29
g2
Ntp2783
Rp2784
(dp2785
g33
I1
sbsba(ics475_types
Instance
p2786
(dp2787
g23
(ics475_types
FeatureVector
p2788
(dp2789
g26
(dp2790
I33
F1.0
sI2
F20.5
sI3
F2.415
sI4
F1.0
sI5
F1.0
sI6
F1.0
sI7
F1.0
sI8
F2.0
sI10
F1.0
sI11
F11.0
sI12
F1.0
sI13
F1.0
sI14
F200.0
sI15
F3000.0
sI16
F1.0
ssbsg28
g0
(g29
g2
Ntp2791
Rp2792
(dp2793
g33
I1
sbsba(ics475_types
Instance
p2794
(dp2795
g23
(ics475_types
FeatureVector
p2796
(dp2797
g26
(dp2798
I32
F1.0
sI1
F1.0
sI2
F28.58
sI3
F3.54
sI4
F1.0
sI5
F1.0
sI33
F1.0
sI8
F0.5
sI12
F1.0
sI13
F1.0
sI14
F171.0
sI20
F1.0
sI25
F1.0
ssbsg28
g0
(g29
g2
Ntp2799
Rp2800
(dp2801
g33
I0
sbsba(ics475_types
Instance
p2802
(dp2803
g23
(ics475_types
FeatureVector
p2804
(dp2805
g26
(dp2806
I2
F16.33
sI3
F4.085
sI4
F1.0
sI5
F1.0
sI8
F0.415
sI9
F1.0
sI12
F1.0
sI13
F1.0
sI14
F120.0
sI16
F1.0
sI20
F1.0
sI25
F1.0
sI27
F1.0
ssbsg28
g0
(g29
g2
Ntp2807
Rp2808
(dp2809
g33
I0
sbsba(ics475_types
Instance
p2810
(dp2811
g23
(ics475_types
FeatureVector
p2812
(dp2813
g26
(dp2814
I2
F22.67
sI3
F0.165
sI4
F1.0
sI5
F1.0
sI6
F1.0
sI8
F2.25
sI9
F1.0
sI12
F1.0
sI16
F1.0
sI20
F1.0
sI22
F1.0
sI29
F1.0
ssbsg28
g0
(g29
g2
Ntp2815
Rp2816
(dp2817
g33
I1
sbsba(ics475_types
Instance
p2818
(dp2819
g23
(ics475_types
FeatureVector
p2820
(dp2821
g26
(dp2822
I2
F18.83
sI4
F1.0
sI5
F1.0
sI7
F1.0
sI8
F0.665
sI9
F1.0
sI13
F1.0
sI14
F160.0
sI15
F1.0
sI16
F1.0
sI20
F1.0
sI21
F1.0
sI30
F1.0
ssbsg28
g0
(g29
g2
Ntp2823
Rp2824
(dp2825
g33
I0
sbsba(ics475_types
Instance
p2826
(dp2827
g23
(ics475_types
FeatureVector
p2828
(dp2829
g26
(dp2830
I1
F1.0
sI2
F16.33
sI3
F0.21
sI4
F1.0
sI5
F1.0
sI7
F1.0
sI8
F0.125
sI9
F1.0
sI13
F1.0
sI14
F200.0
sI15
F1.0
sI20
F1.0
sI21
F1.0
sI37
F1.0
ssbsg28
g0
(g29
g2
Ntp2831
Rp2832
(dp2833
g33
I0
sbsba(ics475_types
Instance
p2834
(dp2835
g23
(ics475_types
FeatureVector
p2836
(dp2837
g26
(dp2838
I1
F1.0
sI2
F64.08
sI3
F0.165
sI4
F1.0
sI5
F1.0
sI33
F1.0
sI10
F1.0
sI11
F1.0
sI13
F1.0
sI14
F232.0
sI15
F100.0
sI21
F1.0
sI23
F1.0
sI24
F1.0
ssbsg28
g0
(g29
g2
Ntp2839
Rp2840
(dp2841
g33
I1
sbsba(ics475_types
Instance
p2842
(dp2843
g23
(ics475_types
FeatureVector
p2844
(dp2845
g26
(dp2846
I1
F1.0
sI2
F37.33
sI3
F2.5
sI4
F1.0
sI5
F1.0
sI8
F0.21
sI9
F1.0
sI13
F1.0
sI14
F260.0
sI15
F246.0
sI20
F1.0
sI21
F1.0
sI25
F1.0
sI27
F1.0
ssbsg28
g0
(g29
g2
Ntp2847
Rp2848
(dp2849
g33
I0
sbsba(ics475_types
Instance
p2850
(dp2851
g23
(ics475_types
FeatureVector
p2852
(dp2853
g26
(dp2854
I33
F1.0
sI2
F32.83
sI3
F2.5
sI4
F1.0
sI5
F1.0
sI8
F2.75
sI10
F1.0
sI11
F6.0
sI13
F1.0
sI14
F160.0
sI15
F2072.0
sI16
F1.0
sI21
F1.0
sI36
F1.0
sI27
F1.0
ssbsg28
g0
(g29
g2
Ntp2855
Rp2856
(dp2857
g33
I1
sbsba(ics475_types
Instance
p2858
(dp2859
g23
(ics475_types
FeatureVector
p2860
(dp2861
g26
(dp2862
I32
F1.0
sI33
F1.0
sI2
F47.67
sI3
F2.5
sI4
F1.0
sI5
F1.0
sI8
F2.5
sI10
F1.0
sI11
F12.0
sI12
F1.0
sI13
F1.0
sI14
F410.0
sI15
F2510.0
sI16
F1.0
sI35
F1.0
ssbsg28
g0
(g29
g2
Ntp2863
Rp2864
(dp2865
g33
I1
sbsba(ics475_types
Instance
p2866
(dp2867
g23
(ics475_types
FeatureVector
p2868
(dp2869
g26
(dp2870
I1
F1.0
sI2
F50.08
sI3
F12.54
sI4
F1.0
sI5
F1.0
sI7
F1.0
sI8
F2.29
sI10
F1.0
sI11
F3.0
sI12
F1.0
sI13
F1.0
sI14
F156.0
sI33
F1.0
sI37
F1.0
ssbsg28
g0
(g29
g2
Ntp2871
Rp2872
(dp2873
g33
I1
sbsba(ics475_types
Instance
p2874
(dp2875
g23
(ics475_types
FeatureVector
p2876
(dp2877
g26
(dp2878
I33
F1.0
sI2
F28.33
sI3
F5.0
sI4
F1.0
sI5
F1.0
sI7
F1.0
sI8
F11.0
sI12
F1.0
sI13
F1.0
sI14
F70.0
sI16
F1.0
sI20
F1.0
sI31
F1.0
ssbsg28
g0
(g29
g2
Ntp2879
Rp2880
(dp2881
g33
I1
sbsba(ics475_types
Instance
p2882
(dp2883
g23
(ics475_types
FeatureVector
p2884
(dp2885
g26
(dp2886
I33
F1.0
sI2
F29.67
sI3
F1.415
sI4
F1.0
sI5
F1.0
sI8
F0.75
sI10
F1.0
sI11
F1.0
sI13
F1.0
sI14
F240.0
sI15
F100.0
sI16
F1.0
sI21
F1.0
sI27
F1.0
sI31
F1.0
ssbsg28
g0
(g29
g2
Ntp2887
Rp2888
(dp2889
g33
I1
sbsba(ics475_types
Instance
p2890
(dp2891
g23
(ics475_types
FeatureVector
p2892
(dp2893
g26
(dp2894
I33
F1.0
sI2
F42.83
sI3
F4.625
sI4
F1.0
sI5
F1.0
sI7
F1.0
sI8
F4.58
sI16
F1.0
sI20
F1.0
sI21
F1.0
sI22
F1.0
sI30
F1.0
ssbsg28
g0
(g29
g2
Ntp2895
Rp2896
(dp2897
g33
I1
sbsba(ics475_types
Instance
p2898
(dp2899
g23
(ics475_types
FeatureVector
p2900
(dp2901
g26
(dp2902
I1
F1.0
sI2
F28.5
sI3
F3.04
sI33
F1.0
sI8
F2.54
sI10
F1.0
sI11
F1.0
sI13
F1.0
sI14
F70.0
sI17
F1.0
sI18
F1.0
sI21
F1.0
sI39
F1.0
sI27
F1.0
ssbsg28
g0
(g29
g2
Ntp2903
Rp2904
(dp2905
g33
I1
sbsba(ics475_types
Instance
p2906
(dp2907
g23
(ics475_types
FeatureVector
p2908
(dp2909
g26
(dp2910
I2
F23.25
sI3
F12.625
sI4
F1.0
sI5
F1.0
sI6
F1.0
sI7
F1.0
sI8
F0.125
sI9
F1.0
sI10
F1.0
sI11
F2.0
sI13
F1.0
sI15
F5552.0
sI16
F1.0
sI21
F1.0
ssbsg28
g0
(g29
g2
Ntp2911
Rp2912
(dp2913
g33
I0
sbsba(ics475_types
Instance
p2914
(dp2915
g23
(ics475_types
FeatureVector
p2916
(dp2917
g26
(dp2918
I2
F47.33
sI3
F6.5
sI4
F1.0
sI5
F1.0
sI6
F1.0
sI7
F1.0
sI8
F1.0
sI9
F1.0
sI12
F1.0
sI13
F1.0
sI15
F228.0
sI16
F1.0
sI20
F1.0
ssbsg28
g0
(g29
g2
Ntp2919
Rp2920
(dp2921
g33
I0
sbsba(ics475_types
Instance
p2922
(dp2923
g23
(ics475_types
FeatureVector
p2924
(dp2925
g26
(dp2926
I2
F16.5
sI3
F0.125
sI4
F1.0
sI5
F1.0
sI6
F1.0
sI7
F1.0
sI8
F0.165
sI9
F1.0
sI13
F1.0
sI14
F132.0
sI16
F1.0
sI20
F1.0
sI21
F1.0
ssbsg28
g0
(g29
g2
Ntp2927
Rp2928
(dp2929
g33
I0
sbsba(ics475_types
Instance
p2930
(dp2931
g23
(ics475_types
FeatureVector
p2932
(dp2933
g26
(dp2934
I2
F33.0
sI3
F2.5
sI7
F1.0
sI8
F7.0
sI9
F1.0
sI12
F1.0
sI13
F1.0
sI14
F280.0
sI16
F1.0
sI17
F1.0
sI18
F1.0
sI20
F1.0
sI31
F1.0
ssbsg28
g0
(g29
g2
Ntp2935
Rp2936
(dp2937
g33
I0
sbsba(ics475_types
Instance
p2938
(dp2939
g23
(ics475_types
FeatureVector
p2940
(dp2941
g26
(dp2942
I33
F1.0
sI2
F27.83
sI3
F1.54
sI4
F1.0
sI5
F1.0
sI7
F1.0
sI8
F3.75
sI10
F1.0
sI11
F5.0
sI12
F1.0
sI13
F1.0
sI14
F100.0
sI15
F3.0
sI16
F1.0
sI31
F1.0
ssbsg28
g0
(g29
g2
Ntp2943
Rp2944
(dp2945
g33
I1
sbsba(ics475_types
Instance
p2946
(dp2947
g23
(ics475_types
FeatureVector
p2948
(dp2949
g26
(dp2950
I2
F21.17
sI3
F0.875
sI6
F1.0
sI8
F0.25
sI9
F1.0
sI13
F1.0
sI14
F280.0
sI15
F204.0
sI16
F1.0
sI17
F1.0
sI18
F1.0
sI20
F1.0
sI21
F1.0
sI27
F1.0
ssbsg28
g0
(g29
g2
Ntp2951
Rp2952
(dp2953
g33
I0
sbsba(ics475_types
Instance
p2954
(dp2955
g23
(ics475_types
FeatureVector
p2956
(dp2957
g26
(dp2958
I33
F1.0
sI2
F22.67
sI3
F2.54
sI6
F1.0
sI8
F2.585
sI13
F1.0
sI16
F1.0
sI17
F1.0
sI18
F1.0
sI20
F1.0
sI21
F1.0
sI27
F1.0
ssbsg28
g0
(g29
g2
Ntp2959
Rp2960
(dp2961
g33
I1
sbsba(ics475_types
Instance
p2962
(dp2963
g23
(ics475_types
FeatureVector
p2964
(dp2965
g26
(dp2966
I2
F19.0
sI9
F1.0
sI10
F1.0
sI11
F4.0
sI13
F1.0
sI14
F45.0
sI15
F1.0
sI16
F1.0
sI17
F1.0
sI18
F1.0
sI21
F1.0
sI23
F1.0
sI24
F1.0
ssbsg28
g0
(g29
g2
Ntp2967
Rp2968
(dp2969
g33
I0
sbsba(ics475_types
Instance
p2970
(dp2971
g23
(ics475_types
FeatureVector
p2972
(dp2973
g26
(dp2974
I33
F1.0
sI2
F39.17
sI3
F1.71
sI4
F1.0
sI5
F1.0
sI7
F1.0
sI8
F0.125
sI10
F1.0
sI11
F5.0
sI12
F1.0
sI13
F1.0
sI14
F480.0
sI16
F1.0
sI39
F1.0
ssbsg28
g0
(g29
g2
Ntp2975
Rp2976
(dp2977
g33
I1
sbsba(ics475_types
Instance
p2978
(dp2979
g23
(ics475_types
FeatureVector
p2980
(dp2981
g26
(dp2982
I2
F19.58
sI3
F0.585
sI4
F1.0
sI5
F1.0
sI9
F1.0
sI10
F1.0
sI11
F3.0
sI13
F1.0
sI14
F350.0
sI15
F769.0
sI16
F1.0
sI21
F1.0
sI23
F1.0
sI24
F1.0
ssbsg28
g0
(g29
g2
Ntp2983
Rp2984
(dp2985
g33
I0
sbsba(ics475_types
Instance
p2986
(dp2987
g23
(ics475_types
FeatureVector
p2988
(dp2989
g26
(dp2990
I33
F1.0
sI2
F42.17
sI3
F5.04
sI4
F1.0
sI5
F1.0
sI8
F12.75
sI12
F1.0
sI13
F1.0
sI14
F92.0
sI16
F1.0
sI20
F1.0
sI27
F1.0
sI30
F1.0
ssbsg28
g0
(g29
g2
Ntp2991
Rp2992
(dp2993
g33
I1
sbsba(ics475_types
Instance
p2994
(dp2995
g23
(ics475_types
FeatureVector
p2996
(dp2997
g26
(dp2998
I33
F1.0
sI2
F54.83
sI3
F15.5
sI4
F1.0
sI5
F1.0
sI41
F1.0
sI10
F1.0
sI11
F20.0
sI13
F1.0
sI14
F152.0
sI15
F130.0
sI16
F1.0
sI21
F1.0
sI42
F1.0
ssbsg28
g0
(g29
g2
Ntp2999
Rp3000
(dp3001
g33
I0
sbsba(ics475_types
Instance
p3002
(dp3003
g23
(ics475_types
FeatureVector
p3004
(dp3005
g26
(dp3006
I1
F1.0
sI2
F36.58
sI3
F0.29
sI4
F1.0
sI5
F1.0
sI9
F1.0
sI10
F1.0
sI11
F10.0
sI13
F1.0
sI14
F200.0
sI15
F18.0
sI21
F1.0
sI23
F1.0
sI24
F1.0
ssbsg28
g0
(g29
g2
Ntp3007
Rp3008
(dp3009
g33
I0
sbsba(ics475_types
Instance
p3010
(dp3011
g23
(ics475_types
FeatureVector
p3012
(dp3013
g26
(dp3014
I2
F18.33
sI3
F1.21
sI9
F1.0
sI43
F1.0
sI13
F1.0
sI14
F100.0
sI16
F1.0
sI17
F1.0
sI18
F1.0
sI20
F1.0
sI21
F1.0
sI41
F1.0
ssbsg28
g0
(g29
g2
Ntp3015
Rp3016
(dp3017
g33
I0
sbsba(ics475_types
Instance
p3018
(dp3019
g23
(ics475_types
FeatureVector
p3020
(dp3021
g26
(dp3022
I2
F34.08
sI3
F2.5
sI4
F1.0
sI5
F1.0
sI6
F1.0
sI7
F1.0
sI8
F1.0
sI9
F1.0
sI13
F1.0
sI14
F460.0
sI15
F16.0
sI16
F1.0
sI20
F1.0
sI21
F1.0
ssbsg28
g0
(g29
g2
Ntp3023
Rp3024
(dp3025
g33
I0
sbsba(ics475_types
Instance
p3026
(dp3027
g23
(ics475_types
FeatureVector
p3028
(dp3029
g26
(dp3030
I2
F25.25
sI3
F1.0
sI4
F1.0
sI5
F1.0
sI7
F1.0
sI8
F0.5
sI9
F1.0
sI13
F1.0
sI14
F200.0
sI16
F1.0
sI20
F1.0
sI21
F1.0
sI37
F1.0
ssbsg28
g0
(g29
g2
Ntp3031
Rp3032
(dp3033
g33
I0
sbsba(ics475_types
Instance
p3034
(dp3035
g23
(ics475_types
FeatureVector
p3036
(dp3037
g26
(dp3038
I33
F1.0
sI2
F39.25
sI3
F9.5
sI4
F1.0
sI5
F1.0
sI7
F1.0
sI8
F6.5
sI10
F1.0
sI11
F14.0
sI13
F1.0
sI14
F240.0
sI15
F4607.0
sI16
F1.0
sI35
F1.0
sI21
F1.0
ssbsg28
g0
(g29
g2
Ntp3039
Rp3040
(dp3041
g33
I1
sbsba(ics475_types
Instance
p3042
(dp3043
g23
(ics475_types
FeatureVector
p3044
(dp3045
g26
(dp3046
I2
F20.0
sI3
F11.045
sI4
F1.0
sI5
F1.0
sI6
F1.0
sI7
F1.0
sI8
F2.0
sI9
F1.0
sI12
F1.0
sI13
F1.0
sI14
F136.0
sI16
F1.0
sI20
F1.0
ssbsg28
g0
(g29
g2
Ntp3047
Rp3048
(dp3049
g33
I0
sbsba(ics475_types
Instance
p3050
(dp3051
g23
(ics475_types
FeatureVector
p3052
(dp3053
g26
(dp3054
I1
F1.0
sI2
F24.5
sI3
F0.5
sI4
F1.0
sI5
F1.0
sI33
F1.0
sI8
F1.5
sI13
F1.0
sI14
F280.0
sI15
F824.0
sI20
F1.0
sI21
F1.0
sI27
F1.0
sI30
F1.0
ssbsg28
g0
(g29
g2
Ntp3055
Rp3056
(dp3057
g33
I1
sbsba(ics475_types
Instance
p3058
(dp3059
g23
(ics475_types
FeatureVector
p3060
(dp3061
g26
(dp3062
I2
F23.75
sI3
F0.415
sI6
F1.0
sI7
F1.0
sI8
F0.04
sI9
F1.0
sI10
F1.0
sI11
F2.0
sI13
F1.0
sI14
F128.0
sI15
F6.0
sI16
F1.0
sI17
F1.0
sI18
F1.0
sI21
F1.0
ssbsg28
g0
(g29
g2
Ntp3063
Rp3064
(dp3065
g33
I0
sbsba(ics475_types
Instance
p3066
(dp3067
g23
(ics475_types
FeatureVector
p3068
(dp3069
g26
(dp3070
I33
F1.0
sI2
F21.33
sI3
F7.5
sI4
F1.0
sI5
F1.0
sI7
F1.0
sI8
F1.415
sI10
F1.0
sI11
F1.0
sI13
F1.0
sI14
F80.0
sI15
F9800.0
sI16
F1.0
sI21
F1.0
sI37
F1.0
ssbsg28
g0
(g29
g2
Ntp3071
Rp3072
(dp3073
g33
I1
sbsba(ics475_types
Instance
p3074
(dp3075
g23
(ics475_types
FeatureVector
p3076
(dp3077
g26
(dp3078
I1
F1.0
sI2
F30.58
sI3
F10.665
sI4
F1.0
sI5
F1.0
sI8
F0.085
sI9
F1.0
sI10
F1.0
sI11
F12.0
sI12
F1.0
sI13
F1.0
sI14
F129.0
sI15
F3.0
sI27
F1.0
sI30
F1.0
ssbsg28
g0
(g29
g2
Ntp3079
Rp3080
(dp3081
g33
I0
sbsba(ics475_types
Instance
p3082
(dp3083
g23
(ics475_types
FeatureVector
p3084
(dp3085
g26
(dp3086
I2
F40.58
sI3
F3.29
sI4
F1.0
sI5
F1.0
sI7
F1.0
sI8
F3.5
sI9
F1.0
sI12
F1.0
sI14
F400.0
sI16
F1.0
sI35
F1.0
sI20
F1.0
sI22
F1.0
ssbsg28
g0
(g29
g2
Ntp3087
Rp3088
(dp3089
g33
I0
sbsba(ics475_types
Instance
p3090
(dp3091
g23
(ics475_types
FeatureVector
p3092
(dp3093
g26
(dp3094
I2
F31.08
sI3
F3.085
sI4
F1.0
sI5
F1.0
sI6
F1.0
sI7
F1.0
sI8
F2.5
sI9
F1.0
sI10
F1.0
sI11
F2.0
sI12
F1.0
sI13
F1.0
sI14
F160.0
sI15
F41.0
sI16
F1.0
ssbsg28
g0
(g29
g2
Ntp3095
Rp3096
(dp3097
g33
I0
sbsba(ics475_types
Instance
p3098
(dp3099
g23
(ics475_types
FeatureVector
p3100
(dp3101
g26
(dp3102
I1
F1.0
sI2
F17.67
sI9
F1.0
sI13
F1.0
sI14
F86.0
sI17
F1.0
sI18
F1.0
sI20
F1.0
sI21
F1.0
sI24
F1.0
sI28
F1.0
ssbsg28
g0
(g29
g2
Ntp3103
Rp3104
(dp3105
g33
I0
sbsba(ics475_types
Instance
p3106
(dp3107
g23
(ics475_types
FeatureVector
p3108
(dp3109
g26
(dp3110
I32
F1.0
sI33
F1.0
sI2
F40.0
sI3
F6.5
sI4
F1.0
sI5
F1.0
sI8
F3.5
sI10
F1.0
sI11
F1.0
sI13
F1.0
sI15
F500.0
sI16
F1.0
sI21
F1.0
sI37
F1.0
ssbsg28
g0
(g29
g2
Ntp3111
Rp3112
(dp3113
g33
I1
sbsba(ics475_types
Instance
p3114
(dp3115
g23
(ics475_types
FeatureVector
p3116
(dp3117
g26
(dp3118
I1
F1.0
sI2
F16.08
sI3
F0.335
sI4
F1.0
sI5
F1.0
sI9
F1.0
sI10
F1.0
sI11
F1.0
sI13
F1.0
sI14
F160.0
sI15
F126.0
sI21
F1.0
sI23
F1.0
sI24
F1.0
ssbsg28
g0
(g29
g2
Ntp3119
Rp3120
(dp3121
g33
I0
sbsba(ics475_types
Instance
p3122
(dp3123
g23
(ics475_types
FeatureVector
p3124
(dp3125
g26
(dp3126
I33
F1.0
sI2
F44.25
sI3
F0.5
sI4
F1.0
sI5
F1.0
sI7
F1.0
sI8
F10.75
sI14
F400.0
sI16
F1.0
sI35
F1.0
sI20
F1.0
sI21
F1.0
sI22
F1.0
ssbsg28
g0
(g29
g2
Ntp3127
Rp3128
(dp3129
g33
I0
sbsba(ics475_types
Instance
p3130
(dp3131
g23
(ics475_types
FeatureVector
p3132
(dp3133
g26
(dp3134
I32
F1.0
sI33
F1.0
sI2
F34.25
sI3
F1.75
sI4
F1.0
sI5
F1.0
sI8
F0.25
sI12
F1.0
sI13
F1.0
sI14
F163.0
sI16
F1.0
sI20
F1.0
sI31
F1.0
ssbsg28
g0
(g29
g2
Ntp3135
Rp3136
(dp3137
g33
I0
sbsba(ics475_types
Instance
p3138
(dp3139
g23
(ics475_types
FeatureVector
p3140
(dp3141
g26
(dp3142
I2
F22.0
sI3
F0.79
sI4
F1.0
sI5
F1.0
sI7
F1.0
sI8
F0.29
sI9
F1.0
sI10
F1.0
sI11
F1.0
sI13
F1.0
sI14
F420.0
sI15
F283.0
sI16
F1.0
sI21
F1.0
sI31
F1.0
ssbsg28
g0
(g29
g2
Ntp3143
Rp3144
(dp3145
g33
I0
sbsba(ics475_types
Instance
p3146
(dp3147
g23
(ics475_types
FeatureVector
p3148
(dp3149
g26
(dp3150
I33
F1.0
sI2
F13.75
sI3
F4.0
sI7
F1.0
sI8
F1.75
sI10
F1.0
sI11
F2.0
sI12
F1.0
sI13
F1.0
sI14
F120.0
sI15
F1000.0
sI16
F1.0
sI17
F1.0
sI18
F1.0
sI31
F1.0
ssbsg28
g0
(g29
g2
Ntp3151
Rp3152
(dp3153
g33
I1
sbsba(ics475_types
Instance
p3154
(dp3155
g23
(ics475_types
FeatureVector
p3156
(dp3157
g26
(dp3158
I2
F19.17
sI3
F4.0
sI7
F1.0
sI8
F1.0
sI9
F1.0
sI12
F1.0
sI13
F1.0
sI14
F360.0
sI15
F1000.0
sI16
F1.0
sI17
F1.0
sI18
F1.0
sI20
F1.0
sI25
F1.0
ssbsg28
g0
(g29
g2
Ntp3159
Rp3160
(dp3161
g33
I0
sbsba(ics475_types
Instance
p3162
(dp3163
g23
(ics475_types
FeatureVector
p3164
(dp3165
g26
(dp3166
I1
F1.0
sI2
F28.58
sI3
F3.75
sI4
F1.0
sI5
F1.0
sI6
F1.0
sI7
F1.0
sI8
F0.25
sI9
F1.0
sI10
F1.0
sI11
F1.0
sI12
F1.0
sI13
F1.0
sI14
F40.0
sI15
F154.0
ssbsg28
g0
(g29
g2
Ntp3167
Rp3168
(dp3169
g33
I0
sbsba(ics475_types
Instance
p3170
(dp3171
g23
(ics475_types
FeatureVector
p3172
(dp3173
g26
(dp3174
I33
F1.0
sI2
F43.25
sI3
F3.0
sI4
F1.0
sI5
F1.0
sI8
F6.0
sI10
F1.0
sI11
F11.0
sI13
F1.0
sI14
F80.0
sI16
F1.0
sI21
F1.0
sI27
F1.0
sI30
F1.0
ssbsg28
g0
(g29
g2
Ntp3175
Rp3176
(dp3177
g33
I1
sbsba(ics475_types
Instance
p3178
(dp3179
g23
(ics475_types
FeatureVector
p3180
(dp3181
g26
(dp3182
I33
F1.0
sI2
F63.33
sI3
F0.54
sI4
F1.0
sI5
F1.0
sI6
F1.0
sI7
F1.0
sI8
F0.585
sI10
F1.0
sI11
F3.0
sI12
F1.0
sI13
F1.0
sI14
F180.0
sI16
F1.0
ssbsg28
g0
(g29
g2
Ntp3183
Rp3184
(dp3185
g33
I0
sbsba(ics475_types
Instance
p3186
(dp3187
g23
(ics475_types
FeatureVector
p3188
(dp3189
g26
(dp3190
I1
F1.0
sI2
F18.92
sI3
F9.0
sI4
F1.0
sI5
F1.0
sI7
F1.0
sI8
F0.75
sI10
F1.0
sI11
F2.0
sI13
F1.0
sI14
F88.0
sI15
F591.0
sI21
F1.0
sI33
F1.0
sI37
F1.0
ssbsg28
g0
(g29
g2
Ntp3191
Rp3192
(dp3193
g33
I1
sbsba(ics475_types
Instance
p3194
(dp3195
g23
(ics475_types
FeatureVector
p3196
(dp3197
g26
(dp3198
I33
F1.0
sI2
F31.67
sI3
F16.165
sI4
F1.0
sI5
F1.0
sI7
F1.0
sI8
F3.0
sI10
F1.0
sI11
F9.0
sI13
F1.0
sI14
F250.0
sI15
F730.0
sI16
F1.0
sI34
F1.0
sI21
F1.0
ssbsg28
g0
(g29
g2
Ntp3199
Rp3200
(dp3201
g33
I1
sbsba(ics475_types
Instance
p3202
(dp3203
g23
(ics475_types
FeatureVector
p3204
(dp3205
g26
(dp3206
I1
F1.0
sI2
F35.17
sI3
F3.75
sI4
F1.0
sI5
F1.0
sI9
F1.0
sI10
F1.0
sI11
F6.0
sI13
F1.0
sI15
F200.0
sI21
F1.0
sI23
F1.0
sI24
F1.0
ssbsg28
g0
(g29
g2
Ntp3207
Rp3208
(dp3209
g33
I0
sbsba(ics475_types
Instance
p3210
(dp3211
g23
(ics475_types
FeatureVector
p3212
(dp3213
g26
(dp3214
I2
F30.75
sI3
F1.585
sI4
F1.0
sI5
F1.0
sI7
F1.0
sI8
F0.585
sI9
F1.0
sI12
F1.0
sI34
F1.0
sI16
F1.0
sI20
F1.0
sI22
F1.0
ssbsg28
g0
(g29
g2
Ntp3215
Rp3216
(dp3217
g33
I0
sbsba(ics475_types
Instance
p3218
(dp3219
g23
(ics475_types
FeatureVector
p3220
(dp3221
g26
(dp3222
I1
F1.0
sI2
F25.25
sI3
F12.5
sI4
F1.0
sI5
F1.0
sI7
F1.0
sI8
F1.0
sI9
F1.0
sI12
F1.0
sI13
F1.0
sI14
F180.0
sI15
F1062.0
sI34
F1.0
sI20
F1.0
ssbsg28
g0
(g29
g2
Ntp3223
Rp3224
(dp3225
g33
I0
sbsba(ics475_types
Instance
p3226
(dp3227
g23
(ics475_types
FeatureVector
p3228
(dp3229
g26
(dp3230
I2
F36.17
sI3
F0.42
sI7
F1.0
sI8
F0.29
sI9
F1.0
sI12
F1.0
sI13
F1.0
sI14
F309.0
sI15
F2.0
sI16
F1.0
sI17
F1.0
sI18
F1.0
sI20
F1.0
sI31
F1.0
ssbsg28
g0
(g29
g2
Ntp3231
Rp3232
(dp3233
g33
I0
sbsba(ics475_types
Instance
p3234
(dp3235
g23
(ics475_types
FeatureVector
p3236
(dp3237
g26
(dp3238
I33
F1.0
sI2
F20.5
sI3
F10.0
sI6
F1.0
sI7
F1.0
sI8
F2.5
sI14
F40.0
sI16
F1.0
sI17
F1.0
sI18
F1.0
sI20
F1.0
sI21
F1.0
sI22
F1.0
ssbsg28
g0
(g29
g2
Ntp3239
Rp3240
(dp3241
g33
I1
sbsba(ics475_types
Instance
p3242
(dp3243
g23
(ics475_types
FeatureVector
p3244
(dp3245
g26
(dp3246
I33
F1.0
sI2
F37.75
sI3
F7.0
sI4
F1.0
sI5
F1.0
sI8
F11.5
sI10
F1.0
sI11
F7.0
sI12
F1.0
sI13
F1.0
sI14
F300.0
sI15
F5.0
sI16
F1.0
sI27
F1.0
sI30
F1.0
ssbsg28
g0
(g29
g2
Ntp3247
Rp3248
(dp3249
g33
I0
sbsba(ics475_types
Instance
p3250
(dp3251
g23
(ics475_types
FeatureVector
p3252
(dp3253
g26
(dp3254
I1
F1.0
sI2
F27.67
sI3
F2.04
sI4
F1.0
sI5
F1.0
sI7
F1.0
sI8
F0.25
sI9
F1.0
sI12
F1.0
sI13
F1.0
sI14
F180.0
sI15
F50.0
sI20
F1.0
sI31
F1.0
ssbsg28
g0
(g29
g2
Ntp3255
Rp3256
(dp3257
g33
I0
sbsba(ics475_types
Instance
p3258
(dp3259
g23
(ics475_types
FeatureVector
p3260
(dp3261
g26
(dp3262
I2
F20.67
sI3
F0.415
sI4
F1.0
sI5
F1.0
sI6
F1.0
sI7
F1.0
sI8
F0.125
sI9
F1.0
sI13
F1.0
sI15
F44.0
sI16
F1.0
sI20
F1.0
sI21
F1.0
ssbsg28
g0
(g29
g2
Ntp3263
Rp3264
(dp3265
g33
I0
sbsba(ics475_types
Instance
p3266
(dp3267
g23
(ics475_types
FeatureVector
p3268
(dp3269
g26
(dp3270
I2
F32.33
sI3
F3.5
sI4
F1.0
sI5
F1.0
sI7
F1.0
sI8
F0.5
sI9
F1.0
sI12
F1.0
sI13
F1.0
sI14
F232.0
sI16
F1.0
sI19
F1.0
sI20
F1.0
ssbsg28
g0
(g29
g2
Ntp3271
Rp3272
(dp3273
g33
I0
sbsba(ics475_types
Instance
p3274
(dp3275
g23
(ics475_types
FeatureVector
p3276
(dp3277
g26
(dp3278
I2
F22.25
sI3
F0.46
sI4
F1.0
sI5
F1.0
sI7
F1.0
sI8
F0.125
sI9
F1.0
sI12
F1.0
sI13
F1.0
sI14
F280.0
sI15
F55.0
sI16
F1.0
sI19
F1.0
sI20
F1.0
ssbsg28
g0
(g29
g2
Ntp3279
Rp3280
(dp3281
g33
I0
sbsba(ics475_types
Instance
p3282
(dp3283
g23
(ics475_types
FeatureVector
p3284
(dp3285
g26
(dp3286
I32
F1.0
sI1
F1.0
sI2
F21.25
sI3
F2.335
sI4
F1.0
sI5
F1.0
sI33
F1.0
sI8
F0.5
sI10
F1.0
sI11
F4.0
sI14
F80.0
sI21
F1.0
sI22
F1.0
sI25
F1.0
ssbsg28
g0
(g29
g2
Ntp3287
Rp3288
(dp3289
g33
I1
sbsba(ics475_types
Instance
p3290
(dp3291
g23
(ics475_types
FeatureVector
p3292
(dp3293
g26
(dp3294
I33
F1.0
sI2
F25.0
sI3
F12.0
sI4
F1.0
sI5
F1.0
sI7
F1.0
sI8
F2.25
sI10
F1.0
sI11
F2.0
sI12
F1.0
sI13
F1.0
sI14
F120.0
sI15
F5.0
sI16
F1.0
sI19
F1.0
ssbsg28
g0
(g29
g2
Ntp3295
Rp3296
(dp3297
g33
I0
sbsba(ics475_types
Instance
p3298
(dp3299
g23
(ics475_types
FeatureVector
p3300
(dp3301
g26
(dp3302
I33
F1.0
sI2
F38.67
sI3
F0.21
sI4
F1.0
sI5
F1.0
sI7
F1.0
sI8
F0.085
sI12
F1.0
sI13
F1.0
sI14
F280.0
sI16
F1.0
sI19
F1.0
sI20
F1.0
ssbsg28
g0
(g29
g2
Ntp3303
Rp3304
(dp3305
g33
I1
sbsba(ics475_types
Instance
p3306
(dp3307
g23
(ics475_types
FeatureVector
p3308
(dp3309
g26
(dp3310
I33
F1.0
sI2
F56.0
sI3
F12.5
sI4
F1.0
sI5
F1.0
sI8
F8.0
sI12
F1.0
sI13
F1.0
sI14
F24.0
sI15
F2028.0
sI16
F1.0
sI19
F1.0
sI20
F1.0
sI27
F1.0
ssbsg28
g0
(g29
g2
Ntp3311
Rp3312
(dp3313
g33
I1
sbsba(ics475_types
Instance
p3314
(dp3315
g23
(ics475_types
FeatureVector
p3316
(dp3317
g26
(dp3318
I1
F1.0
sI2
F19.58
sI3
F0.665
sI4
F1.0
sI5
F1.0
sI7
F1.0
sI8
F1.665
sI9
F1.0
sI13
F1.0
sI14
F220.0
sI15
F5.0
sI20
F1.0
sI21
F1.0
sI31
F1.0
ssbsg28
g0
(g29
g2
Ntp3319
Rp3320
(dp3321
g33
I0
sbsba(ics475_types
Instance
p3322
(dp3323
g23
(ics475_types
FeatureVector
p3324
(dp3325
g26
(dp3326
I2
F29.83
sI3
F3.5
sI4
F1.0
sI5
F1.0
sI6
F1.0
sI7
F1.0
sI8
F0.165
sI9
F1.0
sI13
F1.0
sI14
F216.0
sI16
F1.0
sI20
F1.0
sI21
F1.0
ssbsg28
g0
(g29
g2
Ntp3327
Rp3328
(dp3329
g33
I0
sbsba(ics475_types
Instance
p3330
(dp3331
g23
(ics475_types
FeatureVector
p3332
(dp3333
g26
(dp3334
I33
F1.0
sI2
F23.08
sI3
F2.5
sI4
F1.0
sI5
F1.0
sI6
F1.0
sI7
F1.0
sI8
F1.085
sI10
F1.0
sI11
F11.0
sI12
F1.0
sI13
F1.0
sI14
F60.0
sI15
F2184.0
sI16
F1.0
ssbsg28
g0
(g29
g2
Ntp3335
Rp3336
(dp3337
g33
I1
sbsba(ics475_types
Instance
p3338
(dp3339
g23
(ics475_types
FeatureVector
p3340
(dp3341
g26
(dp3342
I1
F1.0
sI2
F38.92
sI3
F1.665
sI4
F1.0
sI5
F1.0
sI7
F1.0
sI8
F0.25
sI9
F1.0
sI13
F1.0
sI15
F390.0
sI20
F1.0
sI21
F1.0
sI37
F1.0
ssbsg28
g0
(g29
g2
Ntp3343
Rp3344
(dp3345
g33
I0
sbsba(ics475_types
Instance
p3346
(dp3347
g23
(ics475_types
FeatureVector
p3348
(dp3349
g26
(dp3350
I2
F39.17
sI3
F2.5
sI8
F10.0
sI9
F1.0
sI12
F1.0
sI14
F200.0
sI16
F1.0
sI17
F1.0
sI18
F1.0
sI20
F1.0
sI22
F1.0
sI25
F1.0
sI27
F1.0
ssbsg28
g0
(g29
g2
Ntp3351
Rp3352
(dp3353
g33
I0
sbsba(ics475_types
Instance
p3354
(dp3355
g23
(ics475_types
FeatureVector
p3356
(dp3357
g26
(dp3358
I2
F29.42
sI3
F1.25
sI4
F1.0
sI5
F1.0
sI6
F1.0
sI8
F0.25
sI9
F1.0
sI10
F1.0
sI11
F2.0
sI12
F1.0
sI13
F1.0
sI14
F400.0
sI15
F108.0
sI16
F1.0
sI27
F1.0
ssbsg28
g0
(g29
g2
Ntp3359
Rp3360
(dp3361
g33
I0
sbsba(ics475_types
Instance
p3362
(dp3363
g23
(ics475_types
FeatureVector
p3364
(dp3365
g26
(dp3366
I2
F23.08
sI4
F1.0
sI5
F1.0
sI7
F1.0
sI8
F1.0
sI9
F1.0
sI10
F1.0
sI11
F11.0
sI16
F1.0
sI19
F1.0
sI21
F1.0
sI22
F1.0
ssbsg28
g0
(g29
g2
Ntp3367
Rp3368
(dp3369
g33
I0
sbsba(ics475_types
Instance
p3370
(dp3371
g23
(ics475_types
FeatureVector
p3372
(dp3373
g26
(dp3374
I33
F1.0
sI2
F22.08
sI3
F11.0
sI4
F1.0
sI5
F1.0
sI7
F1.0
sI8
F0.665
sI13
F1.0
sI14
F100.0
sI16
F1.0
sI20
F1.0
sI21
F1.0
sI36
F1.0
ssbsg28
g0
(g29
g2
Ntp3375
Rp3376
(dp3377
g33
I1
sbsba(ics475_types
Instance
p3378
(dp3379
g23
(ics475_types
FeatureVector
p3380
(dp3381
g26
(dp3382
I33
F1.0
sI2
F21.67
sI3
F1.165
sI7
F1.0
sI8
F2.5
sI10
F1.0
sI11
F1.0
sI13
F1.0
sI14
F180.0
sI15
F20.0
sI16
F1.0
sI17
F1.0
sI18
F1.0
sI19
F1.0
sI21
F1.0
ssbsg28
g0
(g29
g2
Ntp3383
Rp3384
(dp3385
g33
I0
sbsba(ics475_types
Instance
p3386
(dp3387
g23
(ics475_types
FeatureVector
p3388
(dp3389
g26
(dp3390
I33
F1.0
sI2
F23.25
sI3
F1.5
sI4
F1.0
sI5
F1.0
sI7
F1.0
sI8
F2.375
sI10
F1.0
sI11
F3.0
sI12
F1.0
sI13
F1.0
sI15
F582.0
sI16
F1.0
sI30
F1.0
ssbsg28
g0
(g29
g2
Ntp3391
Rp3392
(dp3393
g33
I1
sbsba(ics475_types
Instance
p3394
(dp3395
g23
(ics475_types
FeatureVector
p3396
(dp3397
g26
(dp3398
I1
F1.0
sI2
F40.83
sI3
F10.0
sI4
F1.0
sI5
F1.0
sI33
F1.0
sI8
F1.75
sI13
F1.0
sI14
F29.0
sI15
F837.0
sI20
F1.0
sI21
F1.0
sI27
F1.0
sI30
F1.0
ssbsg28
g0
(g29
g2
Ntp3399
Rp3400
(dp3401
g33
I1
sbsba(ics475_types
Instance
p3402
(dp3403
g23
(ics475_types
FeatureVector
p3404
(dp3405
g26
(dp3406
I33
F1.0
sI2
F27.25
sI3
F0.625
sI4
F1.0
sI5
F1.0
sI7
F1.0
sI8
F0.455
sI12
F1.0
sI13
F1.0
sI14
F200.0
sI16
F1.0
sI20
F1.0
sI37
F1.0
ssbsg28
g0
(g29
g2
Ntp3407
Rp3408
(dp3409
g33
I0
sbsba(ics475_types
Instance
p3410
(dp3411
g23
(ics475_types
FeatureVector
p3412
(dp3413
g26
(dp3414
I1
F1.0
sI2
F21.75
sI3
F11.75
sI4
F1.0
sI5
F1.0
sI6
F1.0
sI7
F1.0
sI8
F0.25
sI9
F1.0
sI12
F1.0
sI13
F1.0
sI14
F180.0
sI20
F1.0
ssbsg28
g0
(g29
g2
Ntp3415
Rp3416
(dp3417
g33
I0
sbsba(ics475_types
Instance
p3418
(dp3419
g23
(ics475_types
FeatureVector
p3420
(dp3421
g26
(dp3422
I1
F1.0
sI2
F21.92
sI3
F11.665
sI4
F1.0
sI5
F1.0
sI8
F0.085
sI9
F1.0
sI13
F1.0
sI14
F320.0
sI15
F5.0
sI19
F1.0
sI20
F1.0
sI21
F1.0
sI27
F1.0
ssbsg28
g0
(g29
g2
Ntp3423
Rp3424
(dp3425
g33
I0
sbsba(ics475_types
Instance
p3426
(dp3427
g23
(ics475_types
FeatureVector
p3428
(dp3429
g26
(dp3430
I1
F1.0
sI2
F31.92
sI3
F3.125
sI4
F1.0
sI5
F1.0
sI8
F3.04
sI9
F1.0
sI10
F1.0
sI11
F2.0
sI12
F1.0
sI13
F1.0
sI14
F200.0
sI15
F4.0
sI23
F1.0
sI24
F1.0
ssbsg28
g0
(g29
g2
Ntp3431
Rp3432
(dp3433
g33
I0
sbsba(ics475_types
Instance
p3434
(dp3435
g23
(ics475_types
FeatureVector
p3436
(dp3437
g26
(dp3438
I33
F1.0
sI2
F29.92
sI3
F1.835
sI4
F1.0
sI5
F1.0
sI6
F1.0
sI8
F4.335
sI13
F1.0
sI14
F260.0
sI15
F200.0
sI16
F1.0
sI20
F1.0
sI21
F1.0
sI27
F1.0
ssbsg28
g0
(g29
g2
Ntp3439
Rp3440
(dp3441
g33
I1
sbsba(ics475_types
Instance
p3442
(dp3443
g23
(ics475_types
FeatureVector
p3444
(dp3445
g26
(dp3446
I1
F1.0
sI2
F21.75
sI3
F1.75
sI9
F1.0
sI13
F1.0
sI14
F160.0
sI17
F1.0
sI18
F1.0
sI20
F1.0
sI21
F1.0
sI28
F1.0
sI29
F1.0
ssbsg28
g0
(g29
g2
Ntp3447
Rp3448
(dp3449
g33
I0
sbsba(ics475_types
Instance
p3450
(dp3451
g23
(ics475_types
FeatureVector
p3452
(dp3453
g26
(dp3454
I2
F37.33
sI3
F2.665
sI4
F1.0
sI5
F1.0
sI7
F1.0
sI8
F0.165
sI9
F1.0
sI12
F1.0
sI13
F1.0
sI15
F501.0
sI16
F1.0
sI20
F1.0
sI36
F1.0
ssbsg28
g0
(g29
g2
Ntp3455
Rp3456
(dp3457
g33
I0
sbsba(ics475_types
Instance
p3458
(dp3459
g23
(ics475_types
FeatureVector
p3460
(dp3461
g26
(dp3462
I1
F1.0
sI2
F47.75
sI3
F8.0
sI4
F1.0
sI5
F1.0
sI6
F1.0
sI7
F1.0
sI8
F7.875
sI10
F1.0
sI11
F6.0
sI12
F1.0
sI13
F1.0
sI15
F1260.0
sI33
F1.0
ssbsg28
g0
(g29
g2
Ntp3463
Rp3464
(dp3465
g33
I1
sbsba(ics475_types
Instance
p3466
(dp3467
g23
(ics475_types
FeatureVector
p3468
(dp3469
g26
(dp3470
I1
F1.0
sI2
F22.5
sI3
F11.0
sI33
F1.0
sI7
F1.0
sI8
F3.0
sI12
F1.0
sI13
F1.0
sI14
F268.0
sI17
F1.0
sI18
F1.0
sI20
F1.0
sI30
F1.0
ssbsg28
g0
(g29
g2
Ntp3471
Rp3472
(dp3473
g33
I0
sbsba(ics475_types
Instance
p3474
(dp3475
g23
(ics475_types
FeatureVector
p3476
(dp3477
g26
(dp3478
I2
F29.5
sI3
F0.58
sI4
F1.0
sI5
F1.0
sI7
F1.0
sI8
F0.29
sI9
F1.0
sI10
F1.0
sI11
F1.0
sI13
F1.0
sI14
F340.0
sI15
F2803.0
sI16
F1.0
sI21
F1.0
sI31
F1.0
ssbsg28
g0
(g29
g2
Ntp3479
Rp3480
(dp3481
g33
I0
sbsba(ics475_types
Instance
p3482
(dp3483
g23
(ics475_types
FeatureVector
p3484
(dp3485
g26
(dp3486
I32
F1.0
sI33
F1.0
sI2
F51.33
sI3
F10.0
sI4
F1.0
sI5
F1.0
sI10
F1.0
sI11
F11.0
sI13
F1.0
sI15
F1249.0
sI16
F1.0
sI21
F1.0
sI25
F1.0
ssbsg28
g0
(g29
g2
Ntp3487
Rp3488
(dp3489
g33
I1
sbsba(ics475_types
Instance
p3490
(dp3491
g23
(ics475_types
FeatureVector
p3492
(dp3493
g26
(dp3494
I2
F24.08
sI3
F0.875
sI4
F1.0
sI5
F1.0
sI7
F1.0
sI8
F0.085
sI9
F1.0
sI10
F1.0
sI11
F4.0
sI13
F1.0
sI14
F254.0
sI15
F1950.0
sI16
F1.0
sI35
F1.0
sI21
F1.0
ssbsg28
g0
(g29
g2
Ntp3495
Rp3496
(dp3497
g33
I0
sbsba(ics475_types
Instance
p3498
(dp3499
g23
(ics475_types
FeatureVector
p3500
(dp3501
g26
(dp3502
I32
F1.0
sI2
F47.83
sI3
F4.165
sI4
F1.0
sI5
F1.0
sI39
F1.0
sI8
F0.085
sI9
F1.0
sI12
F1.0
sI13
F1.0
sI14
F520.0
sI16
F1.0
sI20
F1.0
ssbsg28
g0
(g29
g2
Ntp3503
Rp3504
(dp3505
g33
I0
sbsba(ics475_types
Instance
p3506
(dp3507
g23
(ics475_types
FeatureVector
p3508
(dp3509
g26
(dp3510
I2
F18.25
sI3
F0.165
sI4
F1.0
sI5
F1.0
sI7
F1.0
sI8
F0.25
sI9
F1.0
sI12
F1.0
sI34
F1.0
sI14
F280.0
sI16
F1.0
sI20
F1.0
sI22
F1.0
ssbsg28
g0
(g29
g2
Ntp3511
Rp3512
(dp3513
g33
I0
sbsba(ics475_types
Instance
p3514
(dp3515
g23
(ics475_types
FeatureVector
p3516
(dp3517
g26
(dp3518
I33
F1.0
sI2
F48.75
sI3
F26.335
sI12
F1.0
sI13
F1.0
sI16
F1.0
sI17
F1.0
sI18
F1.0
sI20
F1.0
sI23
F1.0
sI24
F1.0
ssbsg28
g0
(g29
g2
Ntp3519
Rp3520
(dp3521
g33
I0
sbsba(ics475_types
Instance
p3522
(dp3523
g23
(ics475_types
FeatureVector
p3524
(dp3525
g26
(dp3526
I33
F1.0
sI2
F34.75
sI3
F15.0
sI4
F1.0
sI5
F1.0
sI38
F1.0
sI8
F5.375
sI10
F1.0
sI11
F9.0
sI12
F1.0
sI13
F1.0
sI15
F134.0
sI16
F1.0
sI40
F1.0
ssbsg28
g0
(g29
g2
Ntp3527
Rp3528
(dp3529
g33
I1
sbsba(ics475_types
Instance
p3530
(dp3531
g23
(ics475_types
FeatureVector
p3532
(dp3533
g26
(dp3534
I1
F1.0
sI2
F18.83
sI3
F4.415
sI6
F1.0
sI33
F1.0
sI8
F3.0
sI13
F1.0
sI14
F240.0
sI17
F1.0
sI18
F1.0
sI20
F1.0
sI21
F1.0
sI27
F1.0
ssbsg28
g0
(g29
g2
Ntp3535
Rp3536
(dp3537
g33
I1
sbsba(ics475_types
Instance
p3538
(dp3539
g23
(ics475_types
FeatureVector
p3540
(dp3541
g26
(dp3542
I2
F21.25
sI3
F1.5
sI4
F1.0
sI5
F1.0
sI7
F1.0
sI8
F1.5
sI9
F1.0
sI13
F1.0
sI14
F150.0
sI15
F8.0
sI16
F1.0
sI20
F1.0
sI21
F1.0
sI31
F1.0
ssbsg28
g0
(g29
g2
Ntp3543
Rp3544
(dp3545
g33
I1
sbsba(ics475_types
Instance
p3546
(dp3547
g23
(ics475_types
FeatureVector
p3548
(dp3549
g26
(dp3550
I33
F1.0
sI2
F48.58
sI3
F6.5
sI4
F1.0
sI5
F1.0
sI8
F6.0
sI12
F1.0
sI13
F1.0
sI14
F350.0
sI16
F1.0
sI20
F1.0
sI27
F1.0
sI30
F1.0
ssbsg28
g0
(g29
g2
Ntp3551
Rp3552
(dp3553
g33
I1
sbsba(ics475_types
Instance
p3554
(dp3555
g23
(ics475_types
FeatureVector
p3556
(dp3557
g26
(dp3558
I32
F1.0
sI33
F1.0
sI2
F25.75
sI3
F0.75
sI4
F1.0
sI5
F1.0
sI6
F1.0
sI8
F0.25
sI13
F1.0
sI14
F349.0
sI15
F23.0
sI16
F1.0
sI20
F1.0
sI21
F1.0
ssbsg28
g0
(g29
g2
Ntp3559
Rp3560
(dp3561
g33
I1
sbsba(ics475_types
Instance
p3562
(dp3563
g23
(ics475_types
FeatureVector
p3564
(dp3565
g26
(dp3566
I1
F1.0
sI2
F46.08
sI3
F3.0
sI4
F1.0
sI5
F1.0
sI6
F1.0
sI7
F1.0
sI8
F2.375
sI10
F1.0
sI11
F8.0
sI12
F1.0
sI13
F1.0
sI14
F396.0
sI15
F4159.0
sI33
F1.0
ssbsg28
g0
(g29
g2
Ntp3567
Rp3568
(dp3569
g33
I1
sbsba(ics475_types
Instance
p3570
(dp3571
g23
(ics475_types
FeatureVector
p3572
(dp3573
g26
(dp3574
I2
F30.33
sI3
F0.5
sI4
F1.0
sI5
F1.0
sI8
F0.085
sI9
F1.0
sI12
F1.0
sI34
F1.0
sI14
F252.0
sI16
F1.0
sI20
F1.0
sI22
F1.0
sI27
F1.0
ssbsg28
g0
(g29
g2
Ntp3575
Rp3576
(dp3577
g33
I0
sbsba(ics475_types
Instance
p3578
(dp3579
g23
(ics475_types
FeatureVector
p3580
(dp3581
g26
(dp3582
I33
F1.0
sI2
F34.0
sI3
F4.5
sI4
F1.0
sI5
F1.0
sI7
F1.0
sI8
F1.0
sI12
F1.0
sI13
F1.0
sI14
F240.0
sI16
F1.0
sI20
F1.0
sI37
F1.0
ssbsg28
g0
(g29
g2
Ntp3583
Rp3584
(dp3585
g33
I0
sbsba(ics475_types
Instance
p3586
(dp3587
g23
(ics475_types
FeatureVector
p3588
(dp3589
g26
(dp3590
I33
F1.0
sI2
F24.58
sI3
F12.5
sI4
F1.0
sI5
F1.0
sI7
F1.0
sI8
F0.875
sI12
F1.0
sI13
F1.0
sI14
F260.0
sI16
F1.0
sI20
F1.0
sI31
F1.0
ssbsg28
g0
(g29
g2
Ntp3591
Rp3592
(dp3593
g33
I0
sbsba(ics475_types
Instance
p3594
(dp3595
g23
(ics475_types
FeatureVector
p3596
(dp3597
g26
(dp3598
I2
F32.33
sI3
F2.5
sI4
F1.0
sI5
F1.0
sI6
F1.0
sI7
F1.0
sI8
F1.25
sI9
F1.0
sI12
F1.0
sI13
F1.0
sI14
F280.0
sI16
F1.0
sI20
F1.0
ssbsg28
g0
(g29
g2
Ntp3599
Rp3600
(dp3601
g33
I0
sbsba(ics475_types
Instance
p3602
(dp3603
g23
(ics475_types
FeatureVector
p3604
(dp3605
g26
(dp3606
I33
F1.0
sI2
F20.42
sI3
F1.835
sI4
F1.0
sI5
F1.0
sI6
F1.0
sI7
F1.0
sI8
F2.25
sI10
F1.0
sI11
F1.0
sI13
F1.0
sI14
F100.0
sI15
F150.0
sI16
F1.0
sI21
F1.0
ssbsg28
g0
(g29
g2
Ntp3607
Rp3608
(dp3609
g33
I1
sbsba(ics475_types
Instance
p3610
(dp3611
g23
(ics475_types
FeatureVector
p3612
(dp3613
g26
(dp3614
I33
F1.0
sI2
F29.17
sI3
F3.5
sI4
F1.0
sI5
F1.0
sI7
F1.0
sI8
F3.5
sI10
F1.0
sI11
F3.0
sI12
F1.0
sI13
F1.0
sI14
F329.0
sI16
F1.0
sI31
F1.0
ssbsg28
g0
(g29
g2
Ntp3615
Rp3616
(dp3617
g33
I0
sbsba(ics475_types
Instance
p3618
(dp3619
g23
(ics475_types
FeatureVector
p3620
(dp3621
g26
(dp3622
I2
F51.83
sI3
F3.0
sI8
F1.5
sI9
F1.0
sI13
F1.0
sI14
F180.0
sI15
F4.0
sI16
F1.0
sI17
F1.0
sI18
F1.0
sI20
F1.0
sI21
F1.0
sI23
F1.0
sI24
F1.0
ssbsg28
g0
(g29
g2
Ntp3623
Rp3624
(dp3625
g33
I0
sbsba(ics475_types
Instance
p3626
(dp3627
g23
(ics475_types
FeatureVector
p3628
(dp3629
g26
(dp3630
I1
F1.0
sI2
F29.5
sI3
F0.46
sI4
F1.0
sI5
F1.0
sI7
F1.0
sI8
F0.54
sI10
F1.0
sI11
F4.0
sI13
F1.0
sI14
F380.0
sI15
F500.0
sI19
F1.0
sI21
F1.0
sI33
F1.0
ssbsg28
g0
(g29
g2
Ntp3631
Rp3632
(dp3633
g33
I1
sbsba(ics475_types
Instance
p3634
(dp3635
g23
(ics475_types
FeatureVector
p3636
(dp3637
g26
(dp3638
I2
F33.58
sI3
F0.335
sI36
F1.0
sI7
F1.0
sI8
F0.085
sI9
F1.0
sI13
F1.0
sI14
F180.0
sI16
F1.0
sI17
F1.0
sI18
F1.0
sI20
F1.0
sI21
F1.0
ssbsg28
g0
(g29
g2
Ntp3639
Rp3640
(dp3641
g33
I0
sbsba(ics475_types
Instance
p3642
(dp3643
g23
(ics475_types
FeatureVector
p3644
(dp3645
g26
(dp3646
I1
F1.0
sI2
F45.83
sI3
F10.5
sI4
F1.0
sI5
F1.0
sI7
F1.0
sI8
F5.0
sI10
F1.0
sI11
F7.0
sI12
F1.0
sI13
F1.0
sI33
F1.0
sI30
F1.0
ssbsg28
g0
(g29
g2
Ntp3647
Rp3648
(dp3649
g33
I1
sbsba(ics475_types
Instance
p3650
(dp3651
g23
(ics475_types
FeatureVector
p3652
(dp3653
g26
(dp3654
I2
F48.08
sI3
F6.04
sI4
F1.0
sI5
F1.0
sI7
F1.0
sI8
F0.04
sI9
F1.0
sI13
F1.0
sI15
F2690.0
sI16
F1.0
sI19
F1.0
sI20
F1.0
sI21
F1.0
ssbsg28
g0
(g29
g2
Ntp3655
Rp3656
(dp3657
g33
I1
sbsba(ics475_types
Instance
p3658
(dp3659
g23
(ics475_types
FeatureVector
p3660
(dp3661
g26
(dp3662
I32
F1.0
sI2
F33.58
sI3
F0.25
sI4
F1.0
sI5
F1.0
sI8
F4.0
sI9
F1.0
sI12
F1.0
sI14
F420.0
sI16
F1.0
sI20
F1.0
sI22
F1.0
sI25
F1.0
ssbsg28
g0
(g29
g2
Ntp3663
Rp3664
(dp3665
g33
I0
sbsba(ics475_types
Instance
p3666
(dp3667
g23
(ics475_types
FeatureVector
p3668
(dp3669
g26
(dp3670
I32
F1.0
sI2
F34.42
sI3
F1.335
sI4
F1.0
sI5
F1.0
sI8
F0.125
sI9
F1.0
sI12
F1.0
sI13
F1.0
sI14
F440.0
sI15
F4500.0
sI16
F1.0
sI20
F1.0
sI25
F1.0
ssbsg28
g0
(g29
g2
Ntp3671
Rp3672
(dp3673
g33
I0
sbsba(ics475_types
Instance
p3674
(dp3675
g23
(ics475_types
FeatureVector
p3676
(dp3677
g26
(dp3678
I2
F22.5
sI3
F0.125
sI7
F1.0
sI8
F0.125
sI9
F1.0
sI13
F1.0
sI14
F200.0
sI15
F70.0
sI16
F1.0
sI17
F1.0
sI18
F1.0
sI19
F1.0
sI20
F1.0
sI21
F1.0
ssbsg28
g0
(g29
g2
Ntp3679
Rp3680
(dp3681
g33
I0
sbsba(ics475_types
Instance
p3682
(dp3683
g23
(ics475_types
FeatureVector
p3684
(dp3685
g26
(dp3686
I1
F1.0
sI2
F68.67
sI3
F15.0
sI4
F1.0
sI5
F1.0
sI33
F1.0
sI41
F1.0
sI10
F1.0
sI11
F14.0
sI13
F1.0
sI15
F3376.0
sI21
F1.0
sI42
F1.0
ssbsg28
g0
(g29
g2
Ntp3687
Rp3688
(dp3689
g33
I1
sbsba(ics475_types
Instance
p3690
(dp3691
g23
(ics475_types
FeatureVector
p3692
(dp3693
g26
(dp3694
I1
F1.0
sI2
F30.25
sI3
F5.5
sI4
F1.0
sI5
F1.0
sI7
F1.0
sI8
F5.5
sI9
F1.0
sI12
F1.0
sI14
F100.0
sI19
F1.0
sI20
F1.0
sI22
F1.0
ssbsg28
g0
(g29
g2
Ntp3695
Rp3696
(dp3697
g33
I0
sbsba(ics475_types
Instance
p3698
(dp3699
g23
(ics475_types
FeatureVector
p3700
(dp3701
g26
(dp3702
I32
F1.0
sI2
F19.17
sI35
F1.0
sI9
F1.0
sI12
F1.0
sI14
F500.0
sI15
F1.0
sI16
F1.0
sI17
F1.0
sI18
F1.0
sI20
F1.0
sI22
F1.0
ssbsg28
g0
(g29
g2
Ntp3703
Rp3704
(dp3705
g33
I1
sbsba(ics475_types
Instance
p3706
(dp3707
g23
(ics475_types
FeatureVector
p3708
(dp3709
g26
(dp3710
I33
F1.0
sI2
F28.25
sI3
F5.125
sI4
F1.0
sI5
F1.0
sI7
F1.0
sI8
F4.75
sI10
F1.0
sI11
F2.0
sI13
F1.0
sI14
F420.0
sI15
F7.0
sI16
F1.0
sI21
F1.0
sI39
F1.0
ssbsg28
g0
(g29
g2
Ntp3711
Rp3712
(dp3713
g33
I1
sbsba(ics475_types
Instance
p3714
(dp3715
g23
(ics475_types
FeatureVector
p3716
(dp3717
g26
(dp3718
I33
F1.0
sI2
F23.92
sI3
F1.5
sI4
F1.0
sI5
F1.0
sI8
F1.875
sI10
F1.0
sI11
F6.0
sI13
F1.0
sI14
F200.0
sI15
F327.0
sI16
F1.0
sI34
F1.0
sI21
F1.0
sI27
F1.0
ssbsg28
g0
(g29
g2
Ntp3719
Rp3720
(dp3721
g33
I1
sbsba(ics475_types
Instance
p3722
(dp3723
g23
(ics475_types
FeatureVector
p3724
(dp3725
g26
(dp3726
I2
F25.58
sI3
F0.335
sI4
F1.0
sI5
F1.0
sI8
F3.5
sI9
F1.0
sI12
F1.0
sI13
F1.0
sI14
F340.0
sI16
F1.0
sI19
F1.0
sI20
F1.0
sI27
F1.0
ssbsg28
g0
(g29
g2
Ntp3727
Rp3728
(dp3729
g33
I0
sbsba(ics475_types
Instance
p3730
(dp3731
g23
(ics475_types
FeatureVector
p3732
(dp3733
g26
(dp3734
I33
F1.0
sI2
F51.42
sI3
F0.04
sI4
F1.0
sI5
F1.0
sI39
F1.0
sI8
F0.04
sI13
F1.0
sI15
F3000.0
sI16
F1.0
sI20
F1.0
sI21
F1.0
sI27
F1.0
ssbsg28
g0
(g29
g2
Ntp3735
Rp3736
(dp3737
g33
I1
sbsba(ics475_types
Instance
p3738
(dp3739
g23
(ics475_types
FeatureVector
p3740
(dp3741
g26
(dp3742
I1
F1.0
sI2
F23.58
sI3
F0.585
sI8
F0.125
sI9
F1.0
sI13
F1.0
sI14
F120.0
sI15
F87.0
sI17
F1.0
sI18
F1.0
sI20
F1.0
sI21
F1.0
sI23
F1.0
sI24
F1.0
ssbsg28
g0
(g29
g2
Ntp3743
Rp3744
(dp3745
g33
I0
sbsba(ics475_types
Instance
p3746
(dp3747
g23
(ics475_types
FeatureVector
p3748
(dp3749
g26
(dp3750
I33
F1.0
sI2
F36.67
sI3
F4.415
sI7
F1.0
sI8
F0.25
sI10
F1.0
sI11
F10.0
sI12
F1.0
sI13
F1.0
sI14
F320.0
sI16
F1.0
sI17
F1.0
sI18
F1.0
sI19
F1.0
ssbsg28
g0
(g29
g2
Ntp3751
Rp3752
(dp3753
g33
I1
sbsba(ics475_types
Instance
p3754
(dp3755
g23
(ics475_types
FeatureVector
p3756
(dp3757
g26
(dp3758
I2
F30.17
sI3
F1.085
sI6
F1.0
sI7
F1.0
sI8
F0.04
sI9
F1.0
sI13
F1.0
sI14
F170.0
sI15
F179.0
sI16
F1.0
sI17
F1.0
sI18
F1.0
sI20
F1.0
sI21
F1.0
ssbsg28
g0
(g29
g2
Ntp3759
Rp3760
(dp3761
g33
I0
sbsba(ics475_types
Instance
p3762
(dp3763
g23
(ics475_types
FeatureVector
p3764
(dp3765
g26
(dp3766
I2
F50.75
sI3
F0.585
sI4
F1.0
sI5
F1.0
sI9
F1.0
sI13
F1.0
sI14
F145.0
sI16
F1.0
sI20
F1.0
sI21
F1.0
sI23
F1.0
sI24
F1.0
ssbsg28
g0
(g29
g2
Ntp3767
Rp3768
(dp3769
g33
I0
sbsba(ics475_types
Instance
p3770
(dp3771
g23
(ics475_types
FeatureVector
p3772
(dp3773
g26
(dp3774
I1
F1.0
sI2
F20.75
sI3
F9.54
sI4
F1.0
sI5
F1.0
sI7
F1.0
sI8
F0.04
sI9
F1.0
sI13
F1.0
sI14
F200.0
sI15
F1000.0
sI20
F1.0
sI21
F1.0
sI25
F1.0
ssbsg28
g0
(g29
g2
Ntp3775
Rp3776
(dp3777
g33
I0
sbsba(ics475_types
Instance
p3778
(dp3779
g23
(ics475_types
FeatureVector
p3780
(dp3781
g26
(dp3782
I33
F1.0
sI2
F49.58
sI3
F19.0
sI4
F1.0
sI5
F1.0
sI10
F1.0
sI11
F1.0
sI13
F1.0
sI14
F94.0
sI16
F1.0
sI21
F1.0
sI23
F1.0
sI24
F1.0
ssbsg28
g0
(g29
g2
Ntp3783
Rp3784
(dp3785
g33
I0
sbsba(ics475_types
Instance
p3786
(dp3787
g23
(ics475_types
FeatureVector
p3788
(dp3789
g26
(dp3790
I2
F39.5
sI3
F1.625
sI4
F1.0
sI5
F1.0
sI6
F1.0
sI7
F1.0
sI8
F1.5
sI9
F1.0
sI13
F1.0
sI15
F316.0
sI16
F1.0
sI20
F1.0
sI21
F1.0
ssbsg28
g0
(g29
g2
Ntp3791
Rp3792
(dp3793
g33
I0
sbsba(ics475_types
Instance
p3794
(dp3795
g23
(ics475_types
FeatureVector
p3796
(dp3797
g26
(dp3798
I1
F1.0
sI2
F23.0
sI3
F11.75
sI4
F1.0
sI5
F1.0
sI33
F1.0
sI8
F0.5
sI10
F1.0
sI11
F2.0
sI12
F1.0
sI13
F1.0
sI14
F300.0
sI15
F551.0
sI39
F1.0
sI27
F1.0
ssbsg28
g0
(g29
g2
Ntp3799
Rp3800
(dp3801
g33
I1
sbsba(ics475_types
Instance
p3802
(dp3803
g23
(ics475_types
FeatureVector
p3804
(dp3805
g26
(dp3806
I1
F1.0
sI2
F36.75
sI3
F5.125
sI4
F1.0
sI5
F1.0
sI7
F1.0
sI8
F5.0
sI41
F1.0
sI12
F1.0
sI13
F1.0
sI15
F4000.0
sI20
F1.0
sI33
F1.0
ssbsg28
g0
(g29
g2
Ntp3807
Rp3808
(dp3809
g33
I1
sbsba(ics475_types
Instance
p3810
(dp3811
g23
(ics475_types
FeatureVector
p3812
(dp3813
g26
(dp3814
I2
F36.75
sI3
F0.125
sI6
F1.0
sI7
F1.0
sI8
F1.5
sI9
F1.0
sI12
F1.0
sI13
F1.0
sI14
F232.0
sI15
F113.0
sI16
F1.0
sI17
F1.0
sI18
F1.0
sI20
F1.0
ssbsg28
g0
(g29
g2
Ntp3815
Rp3816
(dp3817
g33
I1
sbsba(ics475_types
Instance
p3818
(dp3819
g23
(ics475_types
FeatureVector
p3820
(dp3821
g26
(dp3822
I2
F22.75
sI3
F11.5
sI4
F1.0
sI5
F1.0
sI7
F1.0
sI8
F0.415
sI9
F1.0
sI13
F1.0
sI16
F1.0
sI20
F1.0
sI21
F1.0
sI25
F1.0
ssbsg28
g0
(g29
g2
Ntp3823
Rp3824
(dp3825
g33
I0
sbsba(ics475_types
Instance
p3826
(dp3827
g23
(ics475_types
FeatureVector
p3828
(dp3829
g26
(dp3830
I33
F1.0
sI2
F37.33
sI3
F6.5
sI4
F1.0
sI5
F1.0
sI8
F4.25
sI10
F1.0
sI11
F12.0
sI12
F1.0
sI13
F1.0
sI14
F93.0
sI16
F1.0
sI35
F1.0
sI27
F1.0
ssbsg28
g0
(g29
g2
Ntp3831
Rp3832
(dp3833
g33
I1
sbsba(ics475_types
Instance
p3834
(dp3835
g23
(ics475_types
FeatureVector
p3836
(dp3837
g26
(dp3838
I33
F1.0
sI2
F23.58
sI3
F0.46
sI7
F1.0
sI8
F2.625
sI10
F1.0
sI11
F6.0
sI12
F1.0
sI13
F1.0
sI14
F208.0
sI15
F347.0
sI16
F1.0
sI17
F1.0
sI18
F1.0
sI31
F1.0
ssbsg28
g0
(g29
g2
Ntp3839
Rp3840
(dp3841
g33
I0
sbsba(ics475_types
Instance
p3842
(dp3843
g23
(ics475_types
FeatureVector
p3844
(dp3845
g26
(dp3846
I2
F22.5
sI3
F11.5
sI7
F1.0
sI8
F1.5
sI9
F1.0
sI12
F1.0
sI13
F1.0
sI15
F4000.0
sI16
F1.0
sI17
F1.0
sI18
F1.0
sI35
F1.0
sI20
F1.0
ssbsg28
g0
(g29
g2
Ntp3847
Rp3848
(dp3849
g33
I0
sbsba(ics475_types
Instance
p3850
(dp3851
g23
(ics475_types
FeatureVector
p3852
(dp3853
g26
(dp3854
I1
F1.0
sI2
F18.58
sI3
F10.0
sI4
F1.0
sI5
F1.0
sI7
F1.0
sI8
F0.415
sI9
F1.0
sI13
F1.0
sI14
F80.0
sI15
F42.0
sI34
F1.0
sI20
F1.0
sI21
F1.0
ssbsg28
g0
(g29
g2
Ntp3855
Rp3856
(dp3857
g33
I0
sbsba(ics475_types
Instance
p3858
(dp3859
g23
(ics475_types
FeatureVector
p3860
(dp3861
g26
(dp3862
I32
F1.0
sI1
F1.0
sI2
F33.75
sI3
F0.75
sI4
F1.0
sI5
F1.0
sI33
F1.0
sI8
F1.0
sI10
F1.0
sI11
F3.0
sI12
F1.0
sI13
F1.0
sI14
F212.0
sI19
F1.0
ssbsg28
g0
(g29
g2
Ntp3863
Rp3864
(dp3865
g33
I0
sbsba(ics475_types
Instance
p3866
(dp3867
g23
(ics475_types
FeatureVector
p3868
(dp3869
g26
(dp3870
I1
F1.0
sI2
F36.0
sI3
F1.0
sI4
F1.0
sI5
F1.0
sI6
F1.0
sI7
F1.0
sI8
F2.0
sI10
F1.0
sI11
F11.0
sI13
F1.0
sI15
F456.0
sI21
F1.0
sI33
F1.0
ssbsg28
g0
(g29
g2
Ntp3871
Rp3872
(dp3873
g33
I1
sbsba(ics475_types
Instance
p3874
(dp3875
g23
(ics475_types
FeatureVector
p3876
(dp3877
g26
(dp3878
I2
F31.83
sI3
F0.04
sI7
F1.0
sI8
F0.04
sI9
F1.0
sI13
F1.0
sI16
F1.0
sI17
F1.0
sI18
F1.0
sI35
F1.0
sI20
F1.0
sI21
F1.0
ssbsg28
g0
(g29
g2
Ntp3879
Rp3880
(dp3881
g33
I0
sbsba(ics475_types
Instance
p3882
(dp3883
g23
(ics475_types
FeatureVector
p3884
(dp3885
g26
(dp3886
I33
F1.0
sI2
F59.67
sI3
F1.54
sI4
F1.0
sI5
F1.0
sI7
F1.0
sI8
F0.125
sI12
F1.0
sI13
F1.0
sI14
F260.0
sI16
F1.0
sI20
F1.0
sI30
F1.0
ssbsg28
g0
(g29
g2
Ntp3887
Rp3888
(dp3889
g33
I1
sbsba(ics475_types
Instance
p3890
(dp3891
g23
(ics475_types
FeatureVector
p3892
(dp3893
g26
(dp3894
I2
F42.75
sI3
F4.085
sI4
F1.0
sI5
F1.0
sI7
F1.0
sI8
F0.04
sI9
F1.0
sI13
F1.0
sI14
F108.0
sI15
F100.0
sI16
F1.0
sI20
F1.0
sI21
F1.0
sI37
F1.0
ssbsg28
g0
(g29
g2
Ntp3895
Rp3896
(dp3897
g33
I0
sbsba(ics475_types
Instance
p3898
(dp3899
g23
(ics475_types
FeatureVector
p3900
(dp3901
g26
(dp3902
I33
F1.0
sI2
F76.75
sI3
F22.29
sI4
F1.0
sI5
F1.0
sI8
F12.75
sI41
F1.0
sI10
F1.0
sI11
F1.0
sI12
F1.0
sI13
F1.0
sI15
F109.0
sI16
F1.0
sI42
F1.0
ssbsg28
g0
(g29
g2
Ntp3903
Rp3904
(dp3905
g33
I1
sbsba(ics475_types
Instance
p3906
(dp3907
g23
(ics475_types
FeatureVector
p3908
(dp3909
g26
(dp3910
I33
F1.0
sI2
F21.33
sI3
F10.5
sI4
F1.0
sI5
F1.0
sI6
F1.0
sI7
F1.0
sI8
F3.0
sI12
F1.0
sI13
F1.0
sI16
F1.0
sI20
F1.0
ssbsg28
g0
(g29
g2
Ntp3911
Rp3912
(dp3913
g33
I1
sbsba(ics475_types
Instance
p3914
(dp3915
g23
(ics475_types
FeatureVector
p3916
(dp3917
g26
(dp3918
I33
F1.0
sI2
F30.17
sI3
F6.5
sI4
F1.0
sI5
F1.0
sI7
F1.0
sI8
F3.125
sI10
F1.0
sI11
F8.0
sI13
F1.0
sI14
F330.0
sI15
F1200.0
sI16
F1.0
sI21
F1.0
sI36
F1.0
ssbsg28
g0
(g29
g2
Ntp3919
Rp3920
(dp3921
g33
I1
sbsba(ics475_types
Instance
p3922
(dp3923
g23
(ics475_types
FeatureVector
p3924
(dp3925
g26
(dp3926
I1
F1.0
sI2
F26.92
sI3
F13.5
sI4
F1.0
sI5
F1.0
sI33
F1.0
sI8
F5.0
sI10
F1.0
sI11
F2.0
sI13
F1.0
sI15
F5000.0
sI21
F1.0
sI27
F1.0
sI30
F1.0
ssbsg28
g0
(g29
g2
Ntp3927
Rp3928
(dp3929
g33
I1
sbsba(ics475_types
Instance
p3930
(dp3931
g23
(ics475_types
FeatureVector
p3932
(dp3933
g26
(dp3934
I32
F1.0
sI33
F1.0
sI2
F49.5
sI3
F7.585
sI4
F1.0
sI5
F1.0
sI8
F7.585
sI10
F1.0
sI11
F15.0
sI12
F1.0
sI13
F1.0
sI15
F5000.0
sI16
F1.0
sI25
F1.0
ssbsg28
g0
(g29
g2
Ntp3935
Rp3936
(dp3937
g33
I1
sbsba(ics475_types
Instance
p3938
(dp3939
g23
(ics475_types
FeatureVector
p3940
(dp3941
g26
(dp3942
I1
F1.0
sI2
F38.58
sI3
F5.0
sI4
F1.0
sI5
F1.0
sI7
F1.0
sI8
F13.5
sI12
F1.0
sI13
F1.0
sI14
F980.0
sI20
F1.0
sI36
F1.0
sI33
F1.0
ssbsg28
g0
(g29
g2
Ntp3943
Rp3944
(dp3945
g33
I0
sbsba(ics475_types
Instance
p3946
(dp3947
g23
(ics475_types
FeatureVector
p3948
(dp3949
g26
(dp3950
I2
F33.67
sI3
F2.165
sI4
F1.0
sI5
F1.0
sI6
F1.0
sI7
F1.0
sI8
F1.5
sI9
F1.0
sI46
F1.0
sI14
F120.0
sI16
F1.0
sI20
F1.0
sI21
F1.0
ssbsg28
g0
(g29
g2
Ntp3951
Rp3952
(dp3953
g33
I0
sbsba(ics475_types
Instance
p3954
(dp3955
g23
(ics475_types
FeatureVector
p3956
(dp3957
g26
(dp3958
I2
F19.5
sI3
F0.29
sI4
F1.0
sI5
F1.0
sI7
F1.0
sI8
F0.29
sI9
F1.0
sI13
F1.0
sI14
F280.0
sI15
F364.0
sI16
F1.0
sI19
F1.0
sI20
F1.0
sI21
F1.0
ssbsg28
g0
(g29
g2
Ntp3959
Rp3960
(dp3961
g33
I0
sbsba(ics475_types
Instance
p3962
(dp3963
g23
(ics475_types
FeatureVector
p3964
(dp3965
g26
(dp3966
I32
F1.0
sI33
F1.0
sI2
F28.25
sI3
F5.04
sI6
F1.0
sI8
F1.5
sI10
F1.0
sI11
F8.0
sI12
F1.0
sI13
F1.0
sI14
F144.0
sI15
F7.0
sI16
F1.0
sI17
F1.0
sI18
F1.0
ssbsg28
g0
(g29
g2
Ntp3967
Rp3968
(dp3969
g33
I1
sbsba(ics475_types
Instance
p3970
(dp3971
g23
(ics475_types
FeatureVector
p3972
(dp3973
g26
(dp3974
I1
F1.0
sI2
F22.67
sI3
F7.0
sI4
F1.0
sI5
F1.0
sI6
F1.0
sI7
F1.0
sI8
F0.165
sI9
F1.0
sI13
F1.0
sI14
F160.0
sI20
F1.0
sI21
F1.0
ssbsg28
g0
(g29
g2
Ntp3975
Rp3976
(dp3977
g33
I0
sbsba(ics475_types
Instance
p3978
(dp3979
g23
(ics475_types
FeatureVector
p3980
(dp3981
g26
(dp3982
I2
F36.17
sI3
F18.125
sI4
F1.0
sI5
F1.0
sI7
F1.0
sI8
F0.085
sI9
F1.0
sI13
F1.0
sI14
F320.0
sI15
F3552.0
sI16
F1.0
sI20
F1.0
sI21
F1.0
sI31
F1.0
ssbsg28
g0
(g29
g2
Ntp3983
Rp3984
(dp3985
g33
I0
sbsba(ics475_types
Instance
p3986
(dp3987
g23
(ics475_types
FeatureVector
p3988
(dp3989
g26
(dp3990
I33
F1.0
sI2
F45.17
sI3
F1.5
sI4
F1.0
sI5
F1.0
sI6
F1.0
sI7
F1.0
sI8
F2.5
sI12
F1.0
sI13
F1.0
sI14
F140.0
sI16
F1.0
sI20
F1.0
ssbsg28
g0
(g29
g2
Ntp3991
Rp3992
(dp3993
g33
I0
sbsba(ics475_types
Instance
p3994
(dp3995
g23
(ics475_types
FeatureVector
p3996
(dp3997
g26
(dp3998
I2
F52.42
sI3
F1.5
sI4
F1.0
sI5
F1.0
sI7
F1.0
sI8
F3.75
sI9
F1.0
sI12
F1.0
sI13
F1.0
sI15
F350.0
sI16
F1.0
sI34
F1.0
sI20
F1.0
ssbsg28
g0
(g29
g2
Ntp3999
Rp4000
(dp4001
g33
I0
sbsba(ics475_types
Instance
p4002
(dp4003
g23
(ics475_types
FeatureVector
p4004
(dp4005
g26
(dp4006
I2
F29.67
sI3
F0.75
sI6
F1.0
sI7
F1.0
sI8
F0.04
sI9
F1.0
sI13
F1.0
sI14
F240.0
sI16
F1.0
sI17
F1.0
sI18
F1.0
sI20
F1.0
sI21
F1.0
ssbsg28
g0
(g29
g2
Ntp4007
Rp4008
(dp4009
g33
I0
sbsba(ics475_types
Instance
p4010
(dp4011
g23
(ics475_types
FeatureVector
p4012
(dp4013
g26
(dp4014
I33
F1.0
sI2
F56.75
sI3
F12.25
sI4
F1.0
sI5
F1.0
sI7
F1.0
sI8
F1.25
sI10
F1.0
sI11
F4.0
sI12
F1.0
sI13
F1.0
sI14
F200.0
sI16
F1.0
sI35
F1.0
ssbsg28
g0
(g29
g2
Ntp4015
Rp4016
(dp4017
g33
I1
sbsba(ics475_types
Instance
p4018
(dp4019
g23
(ics475_types
FeatureVector
p4020
(dp4021
g26
(dp4022
I33
F1.0
sI2
F26.67
sI3
F4.25
sI4
F1.0
sI5
F1.0
sI7
F1.0
sI8
F4.29
sI10
F1.0
sI11
F1.0
sI12
F1.0
sI13
F1.0
sI14
F120.0
sI16
F1.0
sI36
F1.0
ssbsg28
g0
(g29
g2
Ntp4023
Rp4024
(dp4025
g33
I1
sbsba(ics475_types
Instance
p4026
(dp4027
g23
(ics475_types
FeatureVector
p4028
(dp4029
g26
(dp4030
I1
F1.0
sI2
F35.75
sI3
F0.915
sI4
F1.0
sI5
F1.0
sI7
F1.0
sI8
F0.75
sI10
F1.0
sI11
F4.0
sI13
F1.0
sI15
F1583.0
sI21
F1.0
sI33
F1.0
sI37
F1.0
ssbsg28
g0
(g29
g2
Ntp4031
Rp4032
(dp4033
g33
I1
sbsba(ics475_types
Instance
p4034
(dp4035
g23
(ics475_types
FeatureVector
p4036
(dp4037
g26
(dp4038
I2
F41.17
sI3
F1.25
sI7
F1.0
sI8
F0.25
sI9
F1.0
sI13
F1.0
sI15
F195.0
sI16
F1.0
sI17
F1.0
sI18
F1.0
sI20
F1.0
sI21
F1.0
sI31
F1.0
ssbsg28
g0
(g29
g2
Ntp4039
Rp4040
(dp4041
g33
I0
sbsba(ics475_types
Instance
p4042
(dp4043
g23
(ics475_types
FeatureVector
p4044
(dp4045
g26
(dp4046
I1
F1.0
sI2
F23.25
sI3
F5.875
sI4
F1.0
sI5
F1.0
sI7
F1.0
sI8
F3.17
sI10
F1.0
sI11
F10.0
sI13
F1.0
sI14
F120.0
sI15
F245.0
sI21
F1.0
sI33
F1.0
sI30
F1.0
ssbsg28
g0
(g29
g2
Ntp4047
Rp4048
(dp4049
g33
I1
sbsba(ics475_types
Instance
p4050
(dp4051
g23
(ics475_types
FeatureVector
p4052
(dp4053
g26
(dp4054
I2
F28.0
sI3
F3.0
sI4
F1.0
sI5
F1.0
sI7
F1.0
sI8
F0.75
sI9
F1.0
sI12
F1.0
sI13
F1.0
sI14
F300.0
sI15
F67.0
sI16
F1.0
sI20
F1.0
sI31
F1.0
ssbsg28
g0
(g29
g2
Ntp4055
Rp4056
(dp4057
g33
I0
sbsba(ics475_types
Instance
p4058
(dp4059
g23
(ics475_types
FeatureVector
p4060
(dp4061
g26
(dp4062
I2
F16.25
sI37
F1.0
sI7
F1.0
sI8
F0.25
sI9
F1.0
sI13
F1.0
sI14
F60.0
sI16
F1.0
sI17
F1.0
sI18
F1.0
sI20
F1.0
sI21
F1.0
ssbsg28
g0
(g29
g2
Ntp4063
Rp4064
(dp4065
g33
I0
sbsba(ics475_types
Instance
p4066
(dp4067
g23
(ics475_types
FeatureVector
p4068
(dp4069
g26
(dp4070
I1
F1.0
sI2
F23.0
sI3
F1.835
sI4
F1.0
sI5
F1.0
sI9
F1.0
sI10
F1.0
sI11
F1.0
sI13
F1.0
sI14
F200.0
sI15
F53.0
sI21
F1.0
sI28
F1.0
sI29
F1.0
ssbsg28
g0
(g29
g2
Ntp4071
Rp4072
(dp4073
g33
I0
sbsba(ics475_types
Instance
p4074
(dp4075
g23
(ics475_types
FeatureVector
p4076
(dp4077
g26
(dp4078
I33
F1.0
sI2
F23.33
sI3
F1.5
sI4
F1.0
sI5
F1.0
sI6
F1.0
sI8
F1.415
sI13
F1.0
sI14
F422.0
sI15
F200.0
sI16
F1.0
sI20
F1.0
sI21
F1.0
sI27
F1.0
ssbsg28
g0
(g29
g2
Ntp4079
Rp4080
(dp4081
g33
I1
sbsba(ics475_types
Instance
p4082
(dp4083
g23
(ics475_types
FeatureVector
p4084
(dp4085
g26
(dp4086
I1
F1.0
sI2
F18.08
sI3
F0.375
sI36
F1.0
sI8
F10.0
sI9
F1.0
sI12
F1.0
sI45
F1.0
sI14
F300.0
sI44
F1.0
sI20
F1.0
sI22
F1.0
sI24
F1.0
ssbsg28
g0
(g29
g2
Ntp4087
Rp4088
(dp4089
g33
I1
sbsba(ics475_types
Instance
p4090
(dp4091
g23
(ics475_types
FeatureVector
p4092
(dp4093
g26
(dp4094
I33
F1.0
sI2
F35.25
sI3
F3.165
sI4
F1.0
sI5
F1.0
sI39
F1.0
sI8
F3.75
sI12
F1.0
sI13
F1.0
sI14
F680.0
sI16
F1.0
sI20
F1.0
sI27
F1.0
ssbsg28
g0
(g29
g2
Ntp4095
Rp4096
(dp4097
g33
I0
sbsba(ics475_types
Instance
p4098
(dp4099
g23
(ics475_types
FeatureVector
p4100
(dp4101
g26
(dp4102
I2
F34.83
sI3
F2.5
sI7
F1.0
sI8
F3.0
sI9
F1.0
sI14
F200.0
sI16
F1.0
sI17
F1.0
sI18
F1.0
sI20
F1.0
sI21
F1.0
sI22
F1.0
sI31
F1.0
ssbsg28
g0
(g29
g2
Ntp4103
Rp4104
(dp4105
g33
I0
sbsba(ics475_types
Instance
p4106
(dp4107
g23
(ics475_types
FeatureVector
p4108
(dp4109
g26
(dp4110
I33
F1.0
sI2
F73.42
sI3
F17.75
sI4
F1.0
sI5
F1.0
sI12
F1.0
sI13
F1.0
sI16
F1.0
sI20
F1.0
sI23
F1.0
sI24
F1.0
ssbsg28
g0
(g29
g2
Ntp4111
Rp4112
(dp4113
g33
I1
sbsba(ics475_types
Instance
p4114
(dp4115
g23
(ics475_types
FeatureVector
p4116
(dp4117
g26
(dp4118
I2
F23.0
sI3
F0.75
sI4
F1.0
sI5
F1.0
sI7
F1.0
sI8
F0.5
sI9
F1.0
sI12
F1.0
sI14
F320.0
sI16
F1.0
sI35
F1.0
sI20
F1.0
sI22
F1.0
ssbsg28
g0
(g29
g2
Ntp4119
Rp4120
(dp4121
g33
I0
sbsba(ics475_types
Instance
p4122
(dp4123
g23
(ics475_types
FeatureVector
p4124
(dp4125
g26
(dp4126
I1
F1.0
sI2
F28.17
sI3
F0.375
sI4
F1.0
sI5
F1.0
sI7
F1.0
sI8
F0.585
sI10
F1.0
sI11
F4.0
sI13
F1.0
sI14
F80.0
sI21
F1.0
sI33
F1.0
sI30
F1.0
ssbsg28
g0
(g29
g2
Ntp4127
Rp4128
(dp4129
g33
I1
sbsba(ics475_types
Instance
p4130
(dp4131
g23
(ics475_types
FeatureVector
p4132
(dp4133
g26
(dp4134
I2
F18.08
sI3
F6.75
sI7
F1.0
sI8
F0.04
sI9
F1.0
sI13
F1.0
sI14
F140.0
sI16
F1.0
sI17
F1.0
sI18
F1.0
sI35
F1.0
sI20
F1.0
sI21
F1.0
ssbsg28
g0
(g29
g2
Ntp4135
Rp4136
(dp4137
g33
I0
sbsba(ics475_types
Instance
p4138
(dp4139
g23
(ics475_types
FeatureVector
p4140
(dp4141
g26
(dp4142
I33
F1.0
sI2
F21.5
sI3
F9.75
sI4
F1.0
sI5
F1.0
sI6
F1.0
sI7
F1.0
sI8
F0.25
sI13
F1.0
sI14
F140.0
sI16
F1.0
sI20
F1.0
sI21
F1.0
ssbsg28
g0
(g29
g2
Ntp4143
Rp4144
(dp4145
g33
I0
sbsba(ics475_types
Instance
p4146
(dp4147
g23
(ics475_types
FeatureVector
p4148
(dp4149
g26
(dp4150
I2
F39.58
sI3
F5.0
sI4
F1.0
sI5
F1.0
sI9
F1.0
sI10
F1.0
sI11
F2.0
sI13
F1.0
sI14
F17.0
sI15
F1.0
sI16
F1.0
sI21
F1.0
sI23
F1.0
sI24
F1.0
ssbsg28
g0
(g29
g2
Ntp4151
Rp4152
(dp4153
g33
I0
sbsba(ics475_types
Instance
p4154
(dp4155
g23
(ics475_types
FeatureVector
p4156
(dp4157
g26
(dp4158
I1
F1.0
sI2
F28.75
sI3
F3.75
sI4
F1.0
sI5
F1.0
sI6
F1.0
sI7
F1.0
sI8
F1.085
sI10
F1.0
sI11
F1.0
sI12
F1.0
sI13
F1.0
sI14
F371.0
sI33
F1.0
ssbsg28
g0
(g29
g2
Ntp4159
Rp4160
(dp4161
g33
I1
sbsba(ics475_types
Instance
p4162
(dp4163
g23
(ics475_types
FeatureVector
p4164
(dp4165
g26
(dp4166
I1
F1.0
sI2
F20.08
sI3
F1.25
sI4
F1.0
sI5
F1.0
sI6
F1.0
sI7
F1.0
sI9
F1.0
sI13
F1.0
sI20
F1.0
sI21
F1.0
ssbsg28
g0
(g29
g2
Ntp4167
Rp4168
(dp4169
g33
I0
sbsba(ics475_types
Instance
p4170
(dp4171
g23
(ics475_types
FeatureVector
p4172
(dp4173
g26
(dp4174
I32
F1.0
sI2
F41.5
sI3
F1.54
sI4
F1.0
sI5
F1.0
sI8
F3.5
sI9
F1.0
sI13
F1.0
sI14
F216.0
sI16
F1.0
sI20
F1.0
sI21
F1.0
sI25
F1.0
ssbsg28
g0
(g29
g2
Ntp4175
Rp4176
(dp4177
g33
I1
sbsba(ics475_types
Instance
p4178
(dp4179
g23
(ics475_types
FeatureVector
p4180
(dp4181
g26
(dp4182
I2
F23.58
sI3
F0.835
sI4
F1.0
sI5
F1.0
sI8
F0.085
sI9
F1.0
sI12
F1.0
sI13
F1.0
sI14
F220.0
sI15
F5.0
sI16
F1.0
sI20
F1.0
sI25
F1.0
sI27
F1.0
ssbsg28
g0
(g29
g2
Ntp4183
Rp4184
(dp4185
g33
I0
sbsba(ics475_types
Instance
p4186
(dp4187
g23
(ics475_types
FeatureVector
p4188
(dp4189
g26
(dp4190
I2
F37.5
sI3
F0.835
sI4
F1.0
sI5
F1.0
sI7
F1.0
sI8
F0.04
sI9
F1.0
sI13
F1.0
sI14
F120.0
sI15
F5.0
sI16
F1.0
sI20
F1.0
sI21
F1.0
sI41
F1.0
ssbsg28
g0
(g29
g2
Ntp4191
Rp4192
(dp4193
g33
I0
sbsba(ics475_types
Instance
p4194
(dp4195
g23
(ics475_types
FeatureVector
p4196
(dp4197
g26
(dp4198
I33
F1.0
sI2
F48.33
sI3
F12.0
sI4
F1.0
sI5
F1.0
sI7
F1.0
sI8
F16.0
sI14
F110.0
sI16
F1.0
sI35
F1.0
sI20
F1.0
sI21
F1.0
sI22
F1.0
ssbsg28
g0
(g29
g2
Ntp4199
Rp4200
(dp4201
g33
I1
sbsba(ics475_types
Instance
p4202
(dp4203
g23
(ics475_types
FeatureVector
p4204
(dp4205
g26
(dp4206
I1
F1.0
sI2
F49.0
sI3
F1.5
sI4
F1.0
sI5
F1.0
sI33
F1.0
sI12
F1.0
sI13
F1.0
sI14
F100.0
sI15
F27.0
sI20
F1.0
sI28
F1.0
sI29
F1.0
ssbsg28
g0
(g29
g2
Ntp4207
Rp4208
(dp4209
g33
I0
sbsba(ics475_types
Instance
p4210
(dp4211
g23
(ics475_types
FeatureVector
p4212
(dp4213
g26
(dp4214
I1
F1.0
sI2
F28.67
sI3
F1.04
sI4
F1.0
sI5
F1.0
sI6
F1.0
sI7
F1.0
sI8
F2.5
sI10
F1.0
sI11
F5.0
sI12
F1.0
sI13
F1.0
sI14
F300.0
sI15
F1430.0
sI33
F1.0
ssbsg28
g0
(g29
g2
Ntp4215
Rp4216
(dp4217
g33
I1
sbsba(ics475_types
Instance
p4218
(dp4219
g23
(ics475_types
FeatureVector
p4220
(dp4221
g26
(dp4222
I1
F1.0
sI2
F22.75
sI3
F6.165
sI4
F1.0
sI5
F1.0
sI7
F1.0
sI8
F0.165
sI9
F1.0
sI13
F1.0
sI14
F220.0
sI15
F1000.0
sI20
F1.0
sI21
F1.0
sI37
F1.0
ssbsg28
g0
(g29
g2
Ntp4223
Rp4224
(dp4225
g33
I0
sbsba(ics475_types
Instance
p4226
(dp4227
g23
(ics475_types
FeatureVector
p4228
(dp4229
g26
(dp4230
I1
F1.0
sI2
F16.92
sI3
F0.5
sI4
F1.0
sI5
F1.0
sI7
F1.0
sI8
F0.165
sI9
F1.0
sI10
F1.0
sI11
F6.0
sI12
F1.0
sI13
F1.0
sI14
F240.0
sI15
F35.0
sI25
F1.0
ssbsg28
g0
(g29
g2
Ntp4231
Rp4232
(dp4233
g33
I0
sbsba(ics475_types
Instance
p4234
(dp4235
g23
(ics475_types
FeatureVector
p4236
(dp4237
g26
(dp4238
I1
F1.0
sI2
F20.42
sI3
F10.5
sI39
F1.0
sI9
F1.0
sI12
F1.0
sI13
F1.0
sI14
F154.0
sI15
F32.0
sI17
F1.0
sI18
F1.0
sI20
F1.0
sI27
F1.0
ssbsg28
g0
(g29
g2
Ntp4239
Rp4240
(dp4241
g33
I0
sbsba(ics475_types
Instance
p4242
(dp4243
g23
(ics475_types
FeatureVector
p4244
(dp4245
g26
(dp4246
I32
F1.0
sI2
F40.58
sI3
F1.5
sI4
F1.0
sI5
F1.0
sI9
F1.0
sI14
F300.0
sI16
F1.0
sI20
F1.0
sI21
F1.0
sI22
F1.0
sI25
F1.0
ssbsg28
g0
(g29
g2
Ntp4247
Rp4248
(dp4249
g33
I0
sbsba(ics475_types
Instance
p4250
(dp4251
g23
(ics475_types
FeatureVector
p4252
(dp4253
g26
(dp4254
I33
F1.0
sI2
F55.92
sI3
F11.5
sI4
F1.0
sI5
F1.0
sI8
F5.0
sI10
F1.0
sI11
F5.0
sI13
F1.0
sI15
F8851.0
sI16
F1.0
sI21
F1.0
sI23
F1.0
sI24
F1.0
ssbsg28
g0
(g29
g2
Ntp4255
Rp4256
(dp4257
g33
I1
sbsba(ics475_types
Instance
p4258
(dp4259
g23
(ics475_types
FeatureVector
p4260
(dp4261
g26
(dp4262
I32
F1.0
sI33
F1.0
sI2
F34.08
sI3
F0.08
sI8
F0.04
sI10
F1.0
sI11
F1.0
sI12
F1.0
sI13
F1.0
sI14
F280.0
sI15
F2000.0
sI16
F1.0
sI17
F1.0
sI18
F1.0
sI35
F1.0
ssbsg28
g0
(g29
g2
Ntp4263
Rp4264
(dp4265
g33
I1
sbsba(ics475_types
Instance
p4266
(dp4267
g23
(ics475_types
FeatureVector
p4268
(dp4269
g26
(dp4270
I32
F1.0
sI2
F43.17
sI3
F5.0
sI4
F1.0
sI5
F1.0
sI8
F2.25
sI9
F1.0
sI12
F1.0
sI13
F1.0
sI14
F141.0
sI16
F1.0
sI20
F1.0
sI25
F1.0
ssbsg28
g0
(g29
g2
Ntp4271
Rp4272
(dp4273
g33
I0
sbsba(ics475_types
Instance
p4274
(dp4275
g23
(ics475_types
FeatureVector
p4276
(dp4277
g26
(dp4278
I2
F29.58
sI3
F4.75
sI4
F1.0
sI5
F1.0
sI7
F1.0
sI8
F2.0
sI9
F1.0
sI10
F1.0
sI11
F1.0
sI12
F1.0
sI13
F1.0
sI14
F460.0
sI15
F68.0
sI16
F1.0
sI35
F1.0
ssbsg28
g0
(g29
g2
Ntp4279
Rp4280
(dp4281
g33
I0
sbsba(ics475_types
Instance
p4282
(dp4283
g23
(ics475_types
FeatureVector
p4284
(dp4285
g26
(dp4286
I1
F1.0
sI2
F41.58
sI3
F1.04
sI4
F1.0
sI5
F1.0
sI7
F1.0
sI8
F0.665
sI9
F1.0
sI13
F1.0
sI14
F240.0
sI15
F237.0
sI20
F1.0
sI21
F1.0
sI37
F1.0
ssbsg28
g0
(g29
g2
Ntp4287
Rp4288
(dp4289
g33
I0
sbsba(ics475_types
Instance
p4290
(dp4291
g23
(ics475_types
FeatureVector
p4292
(dp4293
g26
(dp4294
I2
F22.08
sI3
F2.335
sI4
F1.0
sI5
F1.0
sI7
F1.0
sI8
F0.75
sI9
F1.0
sI13
F1.0
sI14
F180.0
sI16
F1.0
sI19
F1.0
sI20
F1.0
sI21
F1.0
ssbsg28
g0
(g29
g2
Ntp4295
Rp4296
(dp4297
g33
I0
sbsba(ics475_types
Instance
p4298
(dp4299
g23
(ics475_types
FeatureVector
p4300
(dp4301
g26
(dp4302
I2
F26.33
sI3
F13.0
sI4
F1.0
sI5
F1.0
sI9
F1.0
sI43
F1.0
sI12
F1.0
sI13
F1.0
sI14
F140.0
sI15
F1110.0
sI16
F1.0
sI20
F1.0
sI41
F1.0
ssbsg28
g0
(g29
g2
Ntp4303
Rp4304
(dp4305
g33
I0
sbsba(ics475_types
Instance
p4306
(dp4307
g23
(ics475_types
FeatureVector
p4308
(dp4309
g26
(dp4310
I33
F1.0
sI2
F62.5
sI3
F12.75
sI6
F1.0
sI8
F5.0
sI13
F1.0
sI14
F112.0
sI16
F1.0
sI17
F1.0
sI18
F1.0
sI20
F1.0
sI21
F1.0
sI27
F1.0
ssbsg28
g0
(g29
g2
Ntp4311
Rp4312
(dp4313
g33
I0
sbsba(ics475_types
Instance
p4314
(dp4315
g23
(ics475_types
FeatureVector
p4316
(dp4317
g26
(dp4318
I33
F1.0
sI2
F40.25
sI3
F21.5
sI4
F1.0
sI5
F1.0
sI8
F20.0
sI41
F1.0
sI10
F1.0
sI11
F11.0
sI13
F1.0
sI15
F1200.0
sI16
F1.0
sI21
F1.0
sI42
F1.0
ssbsg28
g0
(g29
g2
Ntp4319
Rp4320
(dp4321
g33
I1
sbsba(ics475_types
Instance
p4322
(dp4323
g23
(ics475_types
FeatureVector
p4324
(dp4325
g26
(dp4326
I32
F1.0
sI1
F1.0
sI2
F47.0
sI3
F13.0
sI4
F1.0
sI5
F1.0
sI33
F1.0
sI8
F5.165
sI10
F1.0
sI11
F9.0
sI12
F1.0
sI13
F1.0
sI25
F1.0
ssbsg28
g0
(g29
g2
Ntp4327
Rp4328
(dp4329
g33
I1
sbsba(ics475_types
Instance
p4330
(dp4331
g23
(ics475_types
FeatureVector
p4332
(dp4333
g26
(dp4334
I1
F1.0
sI2
F25.75
sI3
F0.5
sI4
F1.0
sI5
F1.0
sI6
F1.0
sI33
F1.0
sI8
F0.875
sI12
F1.0
sI13
F1.0
sI14
F491.0
sI20
F1.0
sI27
F1.0
ssbsg28
g0
(g29
g2
Ntp4335
Rp4336
(dp4337
g33
I1
sbsba(ics475_types
Instance
p4338
(dp4339
g23
(ics475_types
FeatureVector
p4340
(dp4341
g26
(dp4342
I2
F16.33
sI3
F2.75
sI4
F1.0
sI5
F1.0
sI7
F1.0
sI8
F0.665
sI9
F1.0
sI10
F1.0
sI11
F1.0
sI13
F1.0
sI14
F80.0
sI15
F21.0
sI16
F1.0
sI21
F1.0
sI37
F1.0
ssbsg28
g0
(g29
g2
Ntp4343
Rp4344
(dp4345
g33
I0
sbsba(ics475_types
Instance
p4346
(dp4347
g23
(ics475_types
FeatureVector
p4348
(dp4349
g26
(dp4350
I33
F1.0
sI2
F25.75
sI3
F0.5
sI4
F1.0
sI5
F1.0
sI6
F1.0
sI7
F1.0
sI8
F1.46
sI10
F1.0
sI11
F5.0
sI12
F1.0
sI13
F1.0
sI14
F312.0
sI16
F1.0
ssbsg28
g0
(g29
g2
Ntp4351
Rp4352
(dp4353
g33
I1
sbsba(ics475_types
Instance
p4354
(dp4355
g23
(ics475_types
FeatureVector
p4356
(dp4357
g26
(dp4358
I2
F24.75
sI3
F0.54
sI4
F1.0
sI5
F1.0
sI7
F1.0
sI8
F1.0
sI9
F1.0
sI12
F1.0
sI13
F1.0
sI14
F120.0
sI15
F1.0
sI16
F1.0
sI35
F1.0
sI20
F1.0
ssbsg28
g0
(g29
g2
Ntp4359
Rp4360
(dp4361
g33
I0
sbsba(ics475_types
Instance
p4362
(dp4363
g23
(ics475_types
FeatureVector
p4364
(dp4365
g26
(dp4366
I33
F1.0
sI2
F21.0
sI3
F4.79
sI7
F1.0
sI8
F2.25
sI10
F1.0
sI11
F1.0
sI12
F1.0
sI13
F1.0
sI14
F80.0
sI15
F300.0
sI16
F1.0
sI17
F1.0
sI18
F1.0
sI31
F1.0
ssbsg28
g0
(g29
g2
Ntp4367
Rp4368
(dp4369
g33
I1
sbsba(ics475_types
Instance
p4370
(dp4371
g23
(ics475_types
FeatureVector
p4372
(dp4373
g26
(dp4374
I2
F21.08
sI3
F4.125
sI8
F0.04
sI9
F1.0
sI13
F1.0
sI14
F140.0
sI15
F100.0
sI16
F1.0
sI17
F1.0
sI18
F1.0
sI20
F1.0
sI21
F1.0
sI25
F1.0
sI27
F1.0
ssbsg28
g0
(g29
g2
Ntp4375
Rp4376
(dp4377
g33
I0
sbsba(ics475_types
Instance
p4378
(dp4379
g23
(ics475_types
FeatureVector
p4380
(dp4381
g26
(dp4382
I33
F1.0
sI2
F24.33
sI3
F6.625
sI7
F1.0
sI8
F5.5
sI12
F1.0
sI34
F1.0
sI14
F100.0
sI16
F1.0
sI17
F1.0
sI18
F1.0
sI20
F1.0
sI22
F1.0
ssbsg28
g0
(g29
g2
Ntp4383
Rp4384
(dp4385
g33
I1
sbsba(ics475_types
Instance
p4386
(dp4387
g23
(ics475_types
FeatureVector
p4388
(dp4389
g26
(dp4390
I2
F27.83
sI3
F1.5
sI4
F1.0
sI5
F1.0
sI7
F1.0
sI8
F2.25
sI9
F1.0
sI10
F1.0
sI11
F1.0
sI12
F1.0
sI13
F1.0
sI14
F100.0
sI15
F3.0
sI16
F1.0
sI31
F1.0
ssbsg28
g0
(g29
g2
Ntp4391
Rp4392
(dp4393
g33
I0
sbsba(ics475_types
Instance
p4394
(dp4395
g23
(ics475_types
FeatureVector
p4396
(dp4397
g26
(dp4398
I33
F1.0
sI2
F28.92
sI3
F15.0
sI4
F1.0
sI5
F1.0
sI6
F1.0
sI8
F5.335
sI10
F1.0
sI11
F11.0
sI13
F1.0
sI15
F2283.0
sI16
F1.0
sI21
F1.0
sI27
F1.0
ssbsg28
g0
(g29
g2
Ntp4399
Rp4400
(dp4401
g33
I1
sbsba(ics475_types
Instance
p4402
(dp4403
g23
(ics475_types
FeatureVector
p4404
(dp4405
g26
(dp4406
I1
F1.0
sI2
F33.08
sI3
F1.625
sI4
F1.0
sI5
F1.0
sI7
F1.0
sI8
F0.54
sI9
F1.0
sI12
F1.0
sI13
F1.0
sI34
F1.0
sI20
F1.0
ssbsg28
g0
(g29
g2
Ntp4407
Rp4408
(dp4409
g33
I0
sbsba(ics475_types
Instance
p4410
(dp4411
g23
(ics475_types
FeatureVector
p4412
(dp4413
g26
(dp4414
I32
F1.0
sI2
F26.75
sI3
F4.5
sI6
F1.0
sI8
F2.5
sI9
F1.0
sI13
F1.0
sI14
F200.0
sI15
F1210.0
sI16
F1.0
sI17
F1.0
sI18
F1.0
sI20
F1.0
sI21
F1.0
ssbsg28
g0
(g29
g2
Ntp4415
Rp4416
(dp4417
g33
I0
sbsba(ics475_types
Instance
p4418
(dp4419
g23
(ics475_types
FeatureVector
p4420
(dp4421
g26
(dp4422
I32
F1.0
sI33
F1.0
sI2
F56.58
sI3
F18.5
sI4
F1.0
sI5
F1.0
sI8
F15.0
sI10
F1.0
sI11
F17.0
sI12
F1.0
sI13
F1.0
sI16
F1.0
sI34
F1.0
ssbsg28
g0
(g29
g2
Ntp4423
Rp4424
(dp4425
g33
I1
sbsbasS'S'
p4426
g14
sS'T'
p4427
I10
sS'clusters'
p4428
(dp4429
I0
(lp4430
(I0
g27
tp4431
a(I3
g54
tp4432
a(I6
g78
tp4433
a(I9
g102
tp4434
a(I12
g126
tp4435
a(I15
g150
tp4436
a(I18
g174
tp4437
a(I21
g198
tp4438
a(I24
g222
tp4439
a(I27
g246
tp4440
a(I30
g270
tp4441
a(I33
g294
tp4442
a(I36
g318
tp4443
a(I39
g342
tp4444
a(I42
g366
tp4445
a(I45
g390
tp4446
a(I48
g414
tp4447
a(I51
g438
tp4448
a(I54
g462
tp4449
a(I57
g486
tp4450
a(I60
g510
tp4451
a(I63
g534
tp4452
a(I66
g558
tp4453
a(I69
g582
tp4454
a(I72
g606
tp4455
a(I75
g630
tp4456
a(I78
g654
tp4457
a(I81
g678
tp4458
a(I84
g702
tp4459
a(I87
g726
tp4460
a(I90
g750
tp4461
a(I93
g774
tp4462
a(I96
g798
tp4463
a(I99
g822
tp4464
a(I102
g846
tp4465
a(I105
g870
tp4466
a(I108
g894
tp4467
a(I111
g918
tp4468
a(I114
g942
tp4469
a(I117
g966
tp4470
a(I120
g990
tp4471
a(I123
g1014
tp4472
a(I126
g1038
tp4473
a(I129
g1062
tp4474
a(I132
g1086
tp4475
a(I135
g1110
tp4476
a(I138
g1134
tp4477
a(I141
g1158
tp4478
a(I144
g1182
tp4479
a(I147
g1206
tp4480
a(I150
g1230
tp4481
a(I153
g1254
tp4482
a(I156
g1278
tp4483
a(I159
g1302
tp4484
a(I162
g1326
tp4485
a(I165
g1350
tp4486
a(I168
g1374
tp4487
a(I171
g1398
tp4488
a(I174
g1422
tp4489
a(I177
g1446
tp4490
a(I180
g1470
tp4491
a(I183
g1494
tp4492
a(I186
g1518
tp4493
a(I189
g1542
tp4494
a(I192
g1566
tp4495
a(I195
g1590
tp4496
a(I198
g1614
tp4497
a(I201
g1638
tp4498
a(I204
g1662
tp4499
a(I207
g1686
tp4500
a(I210
g1710
tp4501
a(I213
g1734
tp4502
a(I216
g1758
tp4503
a(I219
g1782
tp4504
a(I222
g1806
tp4505
a(I225
g1830
tp4506
a(I228
g1854
tp4507
a(I231
g1878
tp4508
a(I234
g1902
tp4509
a(I237
g1926
tp4510
a(I240
g1950
tp4511
a(I243
g1974
tp4512
a(I246
g1998
tp4513
a(I249
g2022
tp4514
a(I252
g2046
tp4515
a(I255
g2070
tp4516
a(I258
g2094
tp4517
a(I261
g2118
tp4518
a(I264
g2142
tp4519
a(I267
g2166
tp4520
a(I270
g2190
tp4521
a(I273
g2214
tp4522
a(I276
g2238
tp4523
a(I279
g2262
tp4524
a(I282
g2286
tp4525
a(I285
g2310
tp4526
a(I288
g2334
tp4527
a(I291
g2358
tp4528
a(I294
g2382
tp4529
a(I297
g2406
tp4530
a(I300
g2430
tp4531
a(I303
g2454
tp4532
a(I306
g2478
tp4533
a(I309
g2502
tp4534
a(I312
g2526
tp4535
a(I315
g2550
tp4536
a(I318
g2574
tp4537
a(I321
g2598
tp4538
a(I324
g2622
tp4539
a(I327
g2646
tp4540
a(I330
g2670
tp4541
a(I333
g2694
tp4542
a(I336
g2718
tp4543
a(I339
g2742
tp4544
a(I342
g2766
tp4545
a(I345
g2790
tp4546
a(I348
g2814
tp4547
a(I351
g2838
tp4548
a(I354
g2862
tp4549
a(I357
g2886
tp4550
a(I360
g2910
tp4551
a(I363
g2934
tp4552
a(I366
g2958
tp4553
a(I369
g2982
tp4554
a(I372
g3006
tp4555
a(I375
g3030
tp4556
a(I378
g3054
tp4557
a(I381
g3078
tp4558
a(I384
g3102
tp4559
a(I387
g3126
tp4560
a(I390
g3150
tp4561
a(I393
g3174
tp4562
a(I396
g3198
tp4563
a(I399
g3222
tp4564
a(I402
g3246
tp4565
a(I405
g3270
tp4566
a(I408
g3294
tp4567
a(I411
g3318
tp4568
a(I414
g3342
tp4569
a(I417
g3366
tp4570
a(I420
g3390
tp4571
a(I423
g3414
tp4572
a(I426
g3438
tp4573
a(I429
g3462
tp4574
a(I432
g3486
tp4575
a(I435
g3510
tp4576
a(I438
g3534
tp4577
a(I441
g3558
tp4578
a(I444
g3582
tp4579
a(I447
g3606
tp4580
a(I450
g3630
tp4581
a(I453
g3654
tp4582
a(I456
g3678
tp4583
a(I459
g3702
tp4584
a(I462
g3726
tp4585
a(I465
g3750
tp4586
a(I468
g3774
tp4587
a(I471
g3798
tp4588
a(I474
g3822
tp4589
a(I477
g3846
tp4590
a(I480
g3870
tp4591
a(I483
g3894
tp4592
a(I486
g3918
tp4593
a(I489
g3942
tp4594
a(I492
g3966
tp4595
a(I495
g3990
tp4596
a(I498
g4014
tp4597
a(I501
g4038
tp4598
a(I504
g4062
tp4599
a(I507
g4086
tp4600
a(I510
g4110
tp4601
a(I513
g4134
tp4602
a(I516
g4158
tp4603
a(I519
g4182
tp4604
a(I522
g4206
tp4605
a(I525
g4230
tp4606
a(I528
g4254
tp4607
a(I531
g4278
tp4608
a(I534
g4302
tp4609
a(I537
g4326
tp4610
a(I540
g4350
tp4611
a(I543
g4374
tp4612
a(I546
g4398
tp4613
a(I549
g4422
tp4614
a(I1
g38
tp4615
a(I2
g46
tp4616
a(I4
g62
tp4617
a(I5
g70
tp4618
a(I7
g86
tp4619
a(I8
g94
tp4620
a(I10
g110
tp4621
a(I11
g118
tp4622
a(I13
g134
tp4623
a(I14
g142
tp4624
a(I16
g158
tp4625
a(I17
g166
tp4626
a(I19
g182
tp4627
a(I20
g190
tp4628
a(I22
g206
tp4629
a(I23
g214
tp4630
a(I25
g230
tp4631
a(I26
g238
tp4632
a(I28
g254
tp4633
a(I29
g262
tp4634
a(I31
g278
tp4635
a(I32
g286
tp4636
a(I34
g302
tp4637
a(I35
g310
tp4638
a(I37
g326
tp4639
a(I38
g334
tp4640
a(I40
g350
tp4641
a(I41
g358
tp4642
a(I43
g374
tp4643
a(I44
g382
tp4644
a(I46
g398
tp4645
a(I47
g406
tp4646
a(I49
g422
tp4647
a(I50
g430
tp4648
a(I52
g446
tp4649
a(I53
g454
tp4650
a(I55
g470
tp4651
a(I56
g478
tp4652
a(I58
g494
tp4653
a(I59
g502
tp4654
a(I61
g518
tp4655
a(I62
g526
tp4656
a(I64
g542
tp4657
a(I65
g550
tp4658
a(I67
g566
tp4659
a(I68
g574
tp4660
a(I70
g590
tp4661
a(I71
g598
tp4662
a(I73
g614
tp4663
a(I74
g622
tp4664
a(I76
g638
tp4665
a(I77
g646
tp4666
a(I79
g662
tp4667
a(I80
g670
tp4668
a(I82
g686
tp4669
a(I83
g694
tp4670
a(I85
g710
tp4671
a(I86
g718
tp4672
a(I88
g734
tp4673
a(I89
g742
tp4674
a(I91
g758
tp4675
a(I92
g766
tp4676
a(I94
g782
tp4677
a(I95
g790
tp4678
a(I97
g806
tp4679
a(I98
g814
tp4680
a(I100
g830
tp4681
a(I101
g838
tp4682
a(I103
g854
tp4683
a(I104
g862
tp4684
a(I106
g878
tp4685
a(I107
g886
tp4686
a(I109
g902
tp4687
a(I110
g910
tp4688
a(I112
g926
tp4689
a(I113
g934
tp4690
a(I115
g950
tp4691
a(I116
g958
tp4692
a(I118
g974
tp4693
a(I119
g982
tp4694
a(I121
g998
tp4695
a(I122
g1006
tp4696
a(I124
g1022
tp4697
a(I125
g1030
tp4698
a(I127
g1046
tp4699
a(I128
g1054
tp4700
a(I130
g1070
tp4701
a(I131
g1078
tp4702
a(I133
g1094
tp4703
a(I134
g1102
tp4704
a(I136
g1118
tp4705
a(I137
g1126
tp4706
a(I139
g1142
tp4707
a(I140
g1150
tp4708
a(I142
g1166
tp4709
a(I143
g1174
tp4710
a(I145
g1190
tp4711
a(I146
g1198
tp4712
a(I148
g1214
tp4713
a(I149
g1222
tp4714
a(I151
g1238
tp4715
a(I152
g1246
tp4716
a(I154
g1262
tp4717
a(I155
g1270
tp4718
a(I157
g1286
tp4719
a(I158
g1294
tp4720
a(I160
g1310
tp4721
a(I161
g1318
tp4722
a(I163
g1334
tp4723
a(I164
g1342
tp4724
a(I166
g1358
tp4725
a(I167
g1366
tp4726
a(I169
g1382
tp4727
a(I170
g1390
tp4728
a(I172
g1406
tp4729
a(I173
g1414
tp4730
a(I175
g1430
tp4731
a(I176
g1438
tp4732
a(I178
g1454
tp4733
a(I179
g1462
tp4734
a(I181
g1478
tp4735
a(I182
g1486
tp4736
a(I184
g1502
tp4737
a(I185
g1510
tp4738
a(I187
g1526
tp4739
a(I188
g1534
tp4740
a(I190
g1550
tp4741
a(I191
g1558
tp4742
a(I193
g1574
tp4743
a(I194
g1582
tp4744
a(I196
g1598
tp4745
a(I197
g1606
tp4746
a(I199
g1622
tp4747
a(I200
g1630
tp4748
a(I202
g1646
tp4749
a(I203
g1654
tp4750
a(I205
g1670
tp4751
a(I206
g1678
tp4752
a(I208
g1694
tp4753
a(I209
g1702
tp4754
a(I211
g1718
tp4755
a(I212
g1726
tp4756
a(I214
g1742
tp4757
a(I215
g1750
tp4758
a(I217
g1766
tp4759
a(I218
g1774
tp4760
a(I220
g1790
tp4761
a(I221
g1798
tp4762
a(I223
g1814
tp4763
a(I224
g1822
tp4764
a(I226
g1838
tp4765
a(I227
g1846
tp4766
a(I229
g1862
tp4767
a(I230
g1870
tp4768
a(I232
g1886
tp4769
a(I233
g1894
tp4770
a(I235
g1910
tp4771
a(I236
g1918
tp4772
a(I238
g1934
tp4773
a(I239
g1942
tp4774
a(I241
g1958
tp4775
a(I242
g1966
tp4776
a(I244
g1982
tp4777
a(I245
g1990
tp4778
a(I247
g2006
tp4779
a(I248
g2014
tp4780
a(I250
g2030
tp4781
a(I251
g2038
tp4782
a(I253
g2054
tp4783
a(I254
g2062
tp4784
a(I256
g2078
tp4785
a(I257
g2086
tp4786
a(I259
g2102
tp4787
a(I260
g2110
tp4788
a(I262
g2126
tp4789
a(I263
g2134
tp4790
a(I265
g2150
tp4791
a(I266
g2158
tp4792
a(I268
g2174
tp4793
a(I269
g2182
tp4794
a(I271
g2198
tp4795
a(I272
g2206
tp4796
a(I274
g2222
tp4797
a(I275
g2230
tp4798
a(I277
g2246
tp4799
a(I278
g2254
tp4800
a(I280
g2270
tp4801
a(I281
g2278
tp4802
a(I283
g2294
tp4803
a(I284
g2302
tp4804
a(I286
g2318
tp4805
a(I287
g2326
tp4806
a(I289
g2342
tp4807
a(I290
g2350
tp4808
a(I292
g2366
tp4809
a(I293
g2374
tp4810
a(I295
g2390
tp4811
a(I296
g2398
tp4812
a(I298
g2414
tp4813
a(I299
g2422
tp4814
a(I301
g2438
tp4815
a(I302
g2446
tp4816
a(I304
g2462
tp4817
a(I305
g2470
tp4818
a(I307
g2486
tp4819
a(I308
g2494
tp4820
a(I310
g2510
tp4821
a(I311
g2518
tp4822
a(I313
g2534
tp4823
a(I314
g2542
tp4824
a(I316
g2558
tp4825
a(I317
g2566
tp4826
a(I319
g2582
tp4827
a(I320
g2590
tp4828
a(I322
g2606
tp4829
a(I323
g2614
tp4830
a(I325
g2630
tp4831
a(I326
g2638
tp4832
a(I328
g2654
tp4833
a(I329
g2662
tp4834
a(I331
g2678
tp4835
a(I332
g2686
tp4836
a(I334
g2702
tp4837
a(I335
g2710
tp4838
a(I337
g2726
tp4839
a(I338
g2734
tp4840
a(I340
g2750
tp4841
a(I341
g2758
tp4842
a(I343
g2774
tp4843
a(I344
g2782
tp4844
a(I346
g2798
tp4845
a(I347
g2806
tp4846
a(I349
g2822
tp4847
a(I350
g2830
tp4848
a(I352
g2846
tp4849
a(I353
g2854
tp4850
a(I355
g2870
tp4851
a(I356
g2878
tp4852
a(I358
g2894
tp4853
a(I359
g2902
tp4854
a(I361
g2918
tp4855
a(I362
g2926
tp4856
a(I364
g2942
tp4857
a(I365
g2950
tp4858
a(I367
g2966
tp4859
a(I368
g2974
tp4860
a(I370
g2990
tp4861
a(I371
g2998
tp4862
a(I373
g3014
tp4863
a(I374
g3022
tp4864
a(I376
g3038
tp4865
a(I377
g3046
tp4866
a(I379
g3062
tp4867
a(I380
g3070
tp4868
a(I382
g3086
tp4869
a(I383
g3094
tp4870
a(I385
g3110
tp4871
a(I386
g3118
tp4872
a(I388
g3134
tp4873
a(I389
g3142
tp4874
a(I391
g3158
tp4875
a(I392
g3166
tp4876
a(I394
g3182
tp4877
a(I395
g3190
tp4878
a(I397
g3206
tp4879
a(I398
g3214
tp4880
a(I400
g3230
tp4881
a(I401
g3238
tp4882
a(I403
g3254
tp4883
a(I404
g3262
tp4884
a(I406
g3278
tp4885
a(I407
g3286
tp4886
a(I409
g3302
tp4887
a(I410
g3310
tp4888
a(I412
g3326
tp4889
a(I413
g3334
tp4890
a(I415
g3350
tp4891
a(I416
g3358
tp4892
a(I418
g3374
tp4893
a(I419
g3382
tp4894
a(I421
g3398
tp4895
a(I422
g3406
tp4896
a(I424
g3422
tp4897
a(I425
g3430
tp4898
a(I427
g3446
tp4899
a(I428
g3454
tp4900
a(I430
g3470
tp4901
a(I431
g3478
tp4902
a(I433
g3494
tp4903
a(I434
g3502
tp4904
a(I436
g3518
tp4905
a(I437
g3526
tp4906
a(I439
g3542
tp4907
a(I440
g3550
tp4908
a(I442
g3566
tp4909
a(I443
g3574
tp4910
a(I445
g3590
tp4911
a(I446
g3598
tp4912
a(I448
g3614
tp4913
a(I449
g3622
tp4914
a(I451
g3638
tp4915
a(I452
g3646
tp4916
a(I454
g3662
tp4917
a(I455
g3670
tp4918
a(I457
g3686
tp4919
a(I458
g3694
tp4920
a(I460
g3710
tp4921
a(I461
g3718
tp4922
a(I463
g3734
tp4923
a(I464
g3742
tp4924
a(I466
g3758
tp4925
a(I467
g3766
tp4926
a(I469
g3782
tp4927
a(I470
g3790
tp4928
a(I472
g3806
tp4929
a(I473
g3814
tp4930
a(I475
g3830
tp4931
a(I476
g3838
tp4932
a(I478
g3854
tp4933
a(I479
g3862
tp4934
a(I481
g3878
tp4935
a(I482
g3886
tp4936
a(I484
g3902
tp4937
a(I485
g3910
tp4938
a(I487
g3926
tp4939
a(I488
g3934
tp4940
a(I490
g3950
tp4941
a(I491
g3958
tp4942
a(I493
g3974
tp4943
a(I494
g3982
tp4944
a(I496
g3998
tp4945
a(I497
g4006
tp4946
a(I499
g4022
tp4947
a(I500
g4030
tp4948
a(I502
g4046
tp4949
a(I503
g4054
tp4950
a(I505
g4070
tp4951
a(I506
g4078
tp4952
a(I508
g4094
tp4953
a(I509
g4102
tp4954
a(I511
g4118
tp4955
a(I512
g4126
tp4956
a(I514
g4142
tp4957
a(I515
g4150
tp4958
a(I517
g4166
tp4959
a(I518
g4174
tp4960
a(I520
g4190
tp4961
a(I521
g4198
tp4962
a(I523
g4214
tp4963
a(I524
g4222
tp4964
a(I526
g4238
tp4965
a(I527
g4246
tp4966
a(I529
g4262
tp4967
a(I530
g4270
tp4968
a(I532
g4286
tp4969
a(I533
g4294
tp4970
a(I535
g4310
tp4971
a(I536
g4318
tp4972
a(I538
g4334
tp4973
a(I539
g4342
tp4974
a(I541
g4358
tp4975
a(I542
g4366
tp4976
a(I544
g4382
tp4977
a(I545
g4390
tp4978
a(I547
g4406
tp4979
a(I548
g4414
tp4980
asI1
(lp4981
sI2
(lp4982
ssS'all_features'
p4983
(lp4984
I1
aI2
aI3
aI8
aI9
aI13
aI14
aI17
aI18
aI20
aI21
aI23
aI24
aI33
aI4
aI5
aI7
aI16
aI35
aI22
aI10
aI11
aI12
aI15
aI19
aI27
aI6
aI30
aI37
aI34
aI39
aI32
aI36
aI31
aI25
aI41
aI28
aI29
aI42
aI26
aI40
aI38
aI45
aI46
aI44
aI43
asb.