ccopy_reg
_reconstructor
p0
(cpredictor_subclasses
NaiveBayes
p1
c__builtin__
object
p2
Ntp3
Rp4
(dp5
S'mu_vector'
p6
(dp7
I0
(dp8
I1
F0.3240740740740738
sI2
F35.60962962962963
sI3
F4.566250000000001
sI4
F0.7129629629629634
sI5
F0.7129629629629634
sI6
F0.009259259259259259
sI7
F0.407407407407407
sI8
F2.0342129629629633
sI9
F0.611111111111111
sI10
F0.39814814814814775
sI11
F2.0462962962962967
sI12
F0.444444444444444
sI13
F0.7962962962962971
sI14
F164.48148148148144
sI15
F511.759259259259
sI16
F0.6759259259259262
sI17
F0.27777777777777757
sI18
F0.27777777777777757
sI19
F0.0
sI20
F0.6018518518518517
sI21
F0.5555555555555552
sI22
F0.2037037037037036
sI23
F0.37037037037037
sI24
F0.39814814814814775
sI25
F0.0
sI26
F0.0
sI27
F0.06481481481481481
sI28
F0.07407407407407407
sI29
F0.05555555555555555
sI30
F0.0
sI31
F0.0
sI32
F0.046296296296296294
sI33
F0.3888888888888885
sI34
F0.16666666666666663
sI35
F0.3055555555555553
sI36
F0.009259259259259259
sI37
F0.0
sI38
F0.0
sI39
F0.0
sI40
F0.0
sI41
F0.06481481481481481
sI42
F0.0
sI43
F0.027777777777777776
sI44
F0.009259259259259259
sI45
F0.009259259259259259
sI46
F0.0
ssI1
(dp9
I1
F0.41379310344827597
sI2
F44.485862068965524
sI3
F10.244137931034484
sI4
F0.8620689655172411
sI5
F0.8620689655172411
sI6
F0.20689655172413796
sI7
F0.44827586206896564
sI8
F6.044482758620689
sI9
F0.24137931034482762
sI10
F0.6206896551724138
sI11
F8.448275862068966
sI12
F0.34482758620689663
sI13
F0.9310344827586203
sI14
F204.1034482758621
sI15
F8962.896551724138
sI16
F0.5862068965517242
sI17
F0.10344827586206896
sI18
F0.10344827586206896
sI19
F0.0
sI20
F0.3793103448275863
sI21
F0.6551724137931034
sI22
F0.0
sI23
F0.034482758620689655
sI24
F0.0
sI25
F0.1724137931034483
sI26
F0.06896551724137931
sI27
F0.0
sI28
F0.0
sI29
F0.0
sI30
F0.0
sI31
F0.0
sI32
F0.20689655172413796
sI33
F0.7586206896551723
sI34
F0.0
sI35
F0.0
sI36
F0.1724137931034483
sI37
F0.0
sI38
F0.0
sI39
F0.0
sI40
F0.0
sI41
F0.41379310344827597
sI42
F0.2758620689655173
sI43
F0.0
sI44
F0.034482758620689655
sI45
F0.034482758620689655
sI46
F0.06896551724137931
ssI2
(dp10
I1
F0.29539951573849904
sI2
F29.891355932203385
sI3
F4.47050847457627
sI4
F0.7845036319612644
sI5
F0.7845036319612644
sI6
F0.25423728813559304
sI7
F0.6585956416464931
sI8
F2.0577360774818394
sI9
F0.4261501210653769
sI10
F0.4358353510895901
sI11
F2.1138014527845055
sI12
F0.4818401937046027
sI13
F0.9491525423728884
sI14
F182.39709443099267
sI15
F626.6440677966104
sI16
F0.7046004842615057
sI17
F0.21549636803874075
sI18
F0.21549636803874075
sI19
F0.09443099273607743
sI20
F0.5641646489104146
sI21
F0.518159806295402
sI22
F0.050847457627118633
sI23
F0.0
sI24
F0.004842615012106538
sI25
F0.10411622276029049
sI26
F0.0
sI27
F0.24939467312348648
sI28
F0.0
sI29
F0.0
sI30
F0.15012106537530256
sI31
F0.1331719128329297
sI32
F0.07748184019370456
sI33
F0.5738498789346278
sI34
F0.0
sI35
F0.0
sI36
F0.0605326876513317
sI37
F0.11622276029055682
sI38
F0.004842615012106538
sI39
F0.0823244552058111
sI40
F0.009685230024213076
sI41
F0.0
sI42
F0.0
sI43
F0.0
sI44
F0.0
sI45
F0.0
sI46
F0.0
sssS'sigma_vector'
p11
(dp12
I0
(dp13
I1
F0.22109726548978928
sI2
F209.3356409830391
sI3
F29.615669684579448
sI4
F0.2065593631014191
sI5
F0.2065593631014191
sI6
F0.009259259259259323
sI7
F0.2436829352717201
sI8
F14.52915988880236
sI9
F0.23987538940809985
sI10
F0.2418656974731742
sI11
F14.941761855313262
sI12
F0.24922118380062316
sI13
F0.16372447213568714
sI14
F18564.719280027683
sI15
F3337721.1377639403
sI16
F0.2210972654897892
sI17
F0.2024922118380061
sI18
F0.2024922118380061
sI19
F0.0006600099354197677
sI20
F0.24186569747317416
sI21
F0.24922118380062316
sI22
F0.16372447213568728
sI23
F0.23537556247836627
sI24
F0.2418656974731742
sI25
F0.0007980129160456955
sI26
F3.629740023182656e-05
sI27
F0.06118033921772243
sI28
F0.06922810661128423
sI29
F0.052959501557632446
sI30
F0.001002020202020201
sI31
F0.0009016393442622868
sI32
F0.044565593631014144
sI33
F0.23987538940809905
sI34
F0.1401869158878506
sI35
F0.21417445482866085
sI36
F0.009259259259259313
sI37
F0.0007980129160456927
sI38
F3.629740023182656e-05
sI39
F0.0005810233482364587
sI40
F7.232985593641366e-05
sI41
F0.06118033921772243
sI42
F0.00014359993376386886
sI43
F0.027258566978193153
sI44
F0.009259259259259313
sI45
F0.009259259259259313
sI46
F3.629740023182654e-05
ssI1
(dp14
I1
F0.2512315270935961
sI2
F266.3583822660098
sI3
F63.931626908866996
sI4
F0.12315270935960597
sI5
F0.12315270935960597
sI6
F0.1699507389162562
sI7
F0.25615763546798037
sI8
F57.57415418719213
sI9
F0.18965517241379296
sI10
F0.24384236453201977
sI11
F204.11330049261093
sI12
F0.23399014778325122
sI13
F0.06650246305418711
sI14
F178265.16748768472
sI15
F473038833.9532019
sI16
F0.2512315270935961
sI17
F0.09605911330049262
sI18
F0.09605911330049262
sI19
F0.0006600099354197677
sI20
F0.24384236453201974
sI21
F0.23399014778325122
sI22
F0.0007220069547938412
sI23
F0.03448275862068965
sI24
F0.000752608047690011
sI25
F0.1477832512315271
sI26
F0.06650246305418714
sI27
F0.0016029143897996424
sI28
F0.0001435999337638695
sI29
F0.00010809736711376139
sI30
F0.001002020202020201
sI31
F0.0009016393442622868
sI32
F0.16995073891625617
sI33
F0.18965517241379326
sI34
F0.0003171385991058118
sI35
F0.0005650273224043637
sI36
F0.1477832512315271
sI37
F0.0007980129160456927
sI38
F3.629740023182656e-05
sI39
F0.0005810233482364587
sI40
F7.232985593641366e-05
sI41
F0.2512315270935961
sI42
F0.20689655172413787
sI43
F5.434674615002439e-05
sI44
F0.03448275862068965
sI45
F0.03448275862068965
sI46
F0.06650246305418714
ssI2
(dp15
I1
F0.20864383271821293
sI2
F103.57355495310189
sI3
F19.91820059034065
sI4
F0.16946801758386512
sI5
F0.16946801758386512
sI6
F0.19006088530524867
sI7
F0.22539316862173425
sI8
F7.408496257845746
sI9
F0.24513975410799485
sI10
F0.2464797009802748
sI11
F12.15934789252216
sI12
F0.25027621711841036
sI13
F0.04837913444133597
sI14
F22170.002127459495
sI15
F2853440.4239756563
sI16
F0.2086438327182115
sI17
F0.1694680175838642
sI18
F0.1694680175838642
sI19
F0.08572133806624516
sI20
F0.24647970098027697
sI21
F0.2502762171184081
sI22
F0.04837913444133614
sI23
F0.0006911409173704212
sI24
F0.004830861092174262
sI25
F0.0935024330614263
sI26
F3.629740023182656e-05
sI27
F0.1876513317191277
sI28
F0.0001435999337638695
sI29
F0.00010809736711376139
sI30
F0.12789440278332884
sI31
F0.11571734173346739
sI32
F0.07165189590728555
sI33
F0.24513975410799366
sI34
F0.0003171385991058118
sI35
F0.0005650273224043637
sI36
F0.057006511671642134
sI37
F0.10296433860692485
sI38
F0.004830861092174258
sI39
F0.07573050612379277
sI40
F0.009614706504619375
sI41
F0.0003341281669150534
sI42
F0.00014359993376386886
sI43
F5.434674615002439e-05
sI44
F3.629740023182654e-05
sI45
F3.629740023182654e-05
sI46
F3.629740023182654e-05
sssS'K'
p16
I3
sS'phi_vector'
p17
(dp18
I0
F0.19710669077757687
sI1
F0.054249547920433995
sI2
F0.7486437613019892
ssS'N'
p19
I550
sS'instances'
p20
(lp21
(ics475_types
Instance
p22
(dp23
S'_feature_vector'
p24
(ics475_types
FeatureVector
p25
(dp26
S'feature_vector'
p27
(dp28
I1
F1.0
sI2
F22.25
sI3
F1.25
sI8
F3.25
sI9
F1.0
sI13
F1.0
sI14
F280.0
sI17
F1.0
sI18
F1.0
sI20
F1.0
sI21
F1.0
sI23
F1.0
sI24
F1.0
ssbsS'_label'
p29
g0
(ccs475_types
ClassificationLabel
p30
g2
Ntp31
Rp32
(dp33
S'label'
p34
I0
sbsba(ics475_types
Instance
p35
(dp36
g24
(ics475_types
FeatureVector
p37
(dp38
g27
(dp39
I33
F1.0
sI2
F16.25
sI3
F0.835
sI4
F1.0
sI5
F1.0
sI7
F1.0
sI8
F0.085
sI14
F200.0
sI16
F1.0
sI35
F1.0
sI20
F1.0
sI21
F1.0
sI22
F1.0
ssbsg29
g0
(g30
g2
Ntp40
Rp41
(dp42
g34
I0
sbsba(ics475_types
Instance
p43
(dp44
g24
(ics475_types
FeatureVector
p45
(dp46
g27
(dp47
I1
F1.0
sI2
F55.75
sI3
F7.08
sI4
F1.0
sI5
F1.0
sI33
F1.0
sI8
F6.75
sI10
F1.0
sI11
F3.0
sI12
F1.0
sI13
F1.0
sI14
F100.0
sI15
F50.0
sI19
F1.0
sI27
F1.0
ssbsg29
g0
(g30
g2
Ntp48
Rp49
(dp50
g34
I0
sbsba(ics475_types
Instance
p51
(dp52
g24
(ics475_types
FeatureVector
p53
(dp54
g27
(dp55
I2
F44.83
sI3
F7.0
sI6
F1.0
sI7
F1.0
sI8
F1.625
sI9
F1.0
sI13
F1.0
sI14
F160.0
sI15
F2.0
sI16
F1.0
sI17
F1.0
sI18
F1.0
sI20
F1.0
sI21
F1.0
ssbsg29
g0
(g30
g2
Ntp56
Rp57
(dp58
g34
I0
sbsba(ics475_types
Instance
p59
(dp60
g24
(ics475_types
FeatureVector
p61
(dp62
g27
(dp63
I1
F1.0
sI2
F24.08
sI3
F0.5
sI4
F1.0
sI5
F1.0
sI33
F1.0
sI8
F1.25
sI10
F1.0
sI11
F1.0
sI13
F1.0
sI15
F678.0
sI21
F1.0
sI27
F1.0
sI30
F1.0
ssbsg29
g0
(g30
g2
Ntp64
Rp65
(dp66
g34
I1
sbsba(ics475_types
Instance
p67
(dp68
g24
(ics475_types
FeatureVector
p69
(dp70
g27
(dp71
I33
F1.0
sI2
F40.58
sI3
F5.0
sI4
F1.0
sI5
F1.0
sI6
F1.0
sI7
F1.0
sI8
F5.0
sI10
F1.0
sI11
F7.0
sI13
F1.0
sI15
F3065.0
sI16
F1.0
sI21
F1.0
ssbsg29
g0
(g30
g2
Ntp72
Rp73
(dp74
g34
I1
sbsba(ics475_types
Instance
p75
(dp76
g24
(ics475_types
FeatureVector
p77
(dp78
g27
(dp79
I33
F1.0
sI2
F25.0
sI3
F12.5
sI4
F1.0
sI5
F1.0
sI7
F1.0
sI8
F3.0
sI12
F1.0
sI14
F20.0
sI16
F1.0
sI20
F1.0
sI22
F1.0
sI37
F1.0
ssbsg29
g0
(g30
g2
Ntp80
Rp81
(dp82
g34
I1
sbsba(ics475_types
Instance
p83
(dp84
g24
(ics475_types
FeatureVector
p85
(dp86
g27
(dp87
I2
F29.83
sI3
F1.25
sI7
F1.0
sI8
F0.25
sI9
F1.0
sI13
F1.0
sI14
F224.0
sI16
F1.0
sI17
F1.0
sI18
F1.0
sI19
F1.0
sI20
F1.0
sI21
F1.0
ssbsg29
g0
(g30
g2
Ntp88
Rp89
(dp90
g34
I0
sbsba(ics475_types
Instance
p91
(dp92
g24
(ics475_types
FeatureVector
p93
(dp94
g27
(dp95
I2
F23.58
sI3
F1.79
sI4
F1.0
sI5
F1.0
sI6
F1.0
sI7
F1.0
sI8
F0.54
sI9
F1.0
sI12
F1.0
sI13
F1.0
sI14
F136.0
sI15
F1.0
sI16
F1.0
sI20
F1.0
ssbsg29
g0
(g30
g2
Ntp96
Rp97
(dp98
g34
I0
sbsba(ics475_types
Instance
p99
(dp100
g24
(ics475_types
FeatureVector
p101
(dp102
g27
(dp103
I33
F1.0
sI2
F27.58
sI3
F2.04
sI37
F1.0
sI7
F1.0
sI8
F2.0
sI10
F1.0
sI11
F3.0
sI12
F1.0
sI13
F1.0
sI14
F370.0
sI15
F560.0
sI16
F1.0
sI17
F1.0
sI18
F1.0
ssbsg29
g0
(g30
g2
Ntp104
Rp105
(dp106
g34
I1
sbsba(ics475_types
Instance
p107
(dp108
g24
(ics475_types
FeatureVector
p109
(dp110
g27
(dp111
I33
F1.0
sI2
F18.42
sI3
F10.415
sI37
F1.0
sI7
F1.0
sI8
F0.125
sI13
F1.0
sI14
F120.0
sI15
F375.0
sI16
F1.0
sI17
F1.0
sI18
F1.0
sI20
F1.0
sI21
F1.0
ssbsg29
g0
(g30
g2
Ntp112
Rp113
(dp114
g34
I0
sbsba(ics475_types
Instance
p115
(dp116
g24
(ics475_types
FeatureVector
p117
(dp118
g27
(dp119
I33
F1.0
sI2
F32.08
sI3
F4.0
sI4
F1.0
sI5
F1.0
sI7
F1.0
sI8
F2.5
sI12
F1.0
sI13
F1.0
sI14
F360.0
sI16
F1.0
sI35
F1.0
sI20
F1.0
ssbsg29
g0
(g30
g2
Ntp120
Rp121
(dp122
g34
I1
sbsba(ics475_types
Instance
p123
(dp124
g24
(ics475_types
FeatureVector
p125
(dp126
g27
(dp127
I33
F1.0
sI2
F44.25
sI3
F11.0
sI7
F1.0
sI8
F1.5
sI34
F1.0
sI16
F1.0
sI17
F1.0
sI18
F1.0
sI20
F1.0
sI21
F1.0
sI22
F1.0
ssbsg29
g0
(g30
g2
Ntp128
Rp129
(dp130
g34
I0
sbsba(ics475_types
Instance
p131
(dp132
g24
(ics475_types
FeatureVector
p133
(dp134
g27
(dp135
I2
F24.5
sI3
F13.335
sI37
F1.0
sI7
F1.0
sI8
F0.04
sI9
F1.0
sI12
F1.0
sI13
F1.0
sI14
F120.0
sI15
F475.0
sI16
F1.0
sI17
F1.0
sI18
F1.0
sI20
F1.0
ssbsg29
g0
(g30
g2
Ntp136
Rp137
(dp138
g34
I0
sbsba(ics475_types
Instance
p139
(dp140
g24
(ics475_types
FeatureVector
p141
(dp142
g27
(dp143
I33
F1.0
sI2
F42.0
sI3
F9.79
sI4
F1.0
sI5
F1.0
sI39
F1.0
sI8
F7.96
sI10
F1.0
sI11
F8.0
sI13
F1.0
sI16
F1.0
sI21
F1.0
sI27
F1.0
ssbsg29
g0
(g30
g2
Ntp144
Rp145
(dp146
g34
I1
sbsba(ics475_types
Instance
p147
(dp148
g24
(ics475_types
FeatureVector
p149
(dp150
g27
(dp151
I32
F1.0
sI33
F1.0
sI2
F36.25
sI3
F5.0
sI4
F1.0
sI5
F1.0
sI6
F1.0
sI8
F2.5
sI10
F1.0
sI11
F6.0
sI13
F1.0
sI15
F367.0
sI16
F1.0
sI21
F1.0
ssbsg29
g0
(g30
g2
Ntp152
Rp153
(dp154
g34
I1
sbsba(ics475_types
Instance
p155
(dp156
g24
(ics475_types
FeatureVector
p157
(dp158
g27
(dp159
I33
F1.0
sI2
F23.17
sI4
F1.0
sI5
F1.0
sI7
F1.0
sI8
F0.085
sI13
F1.0
sI16
F1.0
sI20
F1.0
sI21
F1.0
sI36
F1.0
ssbsg29
g0
(g30
g2
Ntp160
Rp161
(dp162
g34
I1
sbsba(ics475_types
Instance
p163
(dp164
g24
(ics475_types
FeatureVector
p165
(dp166
g27
(dp167
I2
F34.17
sI3
F5.25
sI4
F1.0
sI5
F1.0
sI7
F1.0
sI8
F0.085
sI9
F1.0
sI12
F1.0
sI13
F1.0
sI14
F290.0
sI15
F6.0
sI16
F1.0
sI20
F1.0
sI31
F1.0
ssbsg29
g0
(g30
g2
Ntp168
Rp169
(dp170
g34
I1
sbsba(ics475_types
Instance
p171
(dp172
g24
(ics475_types
FeatureVector
p173
(dp174
g27
(dp175
I33
F1.0
sI2
F26.67
sI3
F2.71
sI36
F1.0
sI7
F1.0
sI8
F5.25
sI10
F1.0
sI11
F1.0
sI13
F1.0
sI14
F211.0
sI16
F1.0
sI17
F1.0
sI18
F1.0
sI21
F1.0
ssbsg29
g0
(g30
g2
Ntp176
Rp177
(dp178
g34
I1
sbsba(ics475_types
Instance
p179
(dp180
g24
(ics475_types
FeatureVector
p181
(dp182
g27
(dp183
I2
F25.42
sI3
F0.54
sI4
F1.0
sI5
F1.0
sI7
F1.0
sI8
F0.165
sI9
F1.0
sI10
F1.0
sI11
F1.0
sI13
F1.0
sI14
F272.0
sI15
F444.0
sI16
F1.0
sI21
F1.0
sI31
F1.0
ssbsg29
g0
(g30
g2
Ntp184
Rp185
(dp186
g34
I0
sbsba(ics475_types
Instance
p187
(dp188
g24
(ics475_types
FeatureVector
p189
(dp190
g27
(dp191
I1
F1.0
sI2
F19.58
sI3
F0.665
sI6
F1.0
sI7
F1.0
sI8
F1.0
sI9
F1.0
sI10
F1.0
sI11
F1.0
sI13
F1.0
sI14
F2000.0
sI15
F2.0
sI17
F1.0
sI18
F1.0
sI21
F1.0
ssbsg29
g0
(g30
g2
Ntp192
Rp193
(dp194
g34
I0
sbsba(ics475_types
Instance
p195
(dp196
g24
(ics475_types
FeatureVector
p197
(dp198
g27
(dp199
I33
F1.0
sI2
F39.0
sI3
F5.0
sI4
F1.0
sI5
F1.0
sI7
F1.0
sI8
F3.5
sI10
F1.0
sI11
F10.0
sI12
F1.0
sI13
F1.0
sI16
F1.0
sI36
F1.0
ssbsg29
g0
(g30
g2
Ntp200
Rp201
(dp202
g34
I1
sbsba(ics475_types
Instance
p203
(dp204
g24
(ics475_types
FeatureVector
p205
(dp206
g27
(dp207
I1
F1.0
sI2
F30.67
sI3
F12.0
sI4
F1.0
sI5
F1.0
sI6
F1.0
sI7
F1.0
sI8
F2.0
sI10
F1.0
sI11
F1.0
sI13
F1.0
sI14
F220.0
sI15
F19.0
sI21
F1.0
sI33
F1.0
ssbsg29
g0
(g30
g2
Ntp208
Rp209
(dp210
g34
I1
sbsba(ics475_types
Instance
p211
(dp212
g24
(ics475_types
FeatureVector
p213
(dp214
g27
(dp215
I1
F1.0
sI2
F19.17
sI3
F5.415
sI4
F1.0
sI5
F1.0
sI8
F0.29
sI9
F1.0
sI13
F1.0
sI14
F80.0
sI15
F484.0
sI20
F1.0
sI21
F1.0
sI25
F1.0
sI27
F1.0
ssbsg29
g0
(g30
g2
Ntp216
Rp217
(dp218
g34
I0
sbsba(ics475_types
Instance
p219
(dp220
g24
(ics475_types
FeatureVector
p221
(dp222
g27
(dp223
I1
F1.0
sI2
F49.83
sI3
F13.585
sI4
F1.0
sI5
F1.0
sI33
F1.0
sI8
F8.5
sI12
F1.0
sI13
F1.0
sI19
F1.0
sI20
F1.0
sI27
F1.0
ssbsg29
g0
(g30
g2
Ntp224
Rp225
(dp226
g34
I1
sbsba(ics475_types
Instance
p227
(dp228
g24
(ics475_types
FeatureVector
p229
(dp230
g27
(dp231
I1
F1.0
sI2
F18.83
sI3
F9.5
sI4
F1.0
sI5
F1.0
sI7
F1.0
sI8
F1.625
sI10
F1.0
sI11
F6.0
sI12
F1.0
sI13
F1.0
sI14
F40.0
sI15
F600.0
sI33
F1.0
sI31
F1.0
ssbsg29
g0
(g30
g2
Ntp232
Rp233
(dp234
g34
I1
sbsba(ics475_types
Instance
p235
(dp236
g24
(ics475_types
FeatureVector
p237
(dp238
g27
(dp239
I2
F38.42
sI3
F0.705
sI4
F1.0
sI5
F1.0
sI6
F1.0
sI7
F1.0
sI8
F0.375
sI9
F1.0
sI10
F1.0
sI11
F2.0
sI13
F1.0
sI14
F225.0
sI15
F500.0
sI16
F1.0
sI21
F1.0
ssbsg29
g0
(g30
g2
Ntp240
Rp241
(dp242
g34
I0
sbsba(ics475_types
Instance
p243
(dp244
g24
(ics475_types
FeatureVector
p245
(dp246
g27
(dp247
I33
F1.0
sI2
F31.92
sI3
F4.46
sI4
F1.0
sI5
F1.0
sI8
F6.04
sI10
F1.0
sI11
F3.0
sI13
F1.0
sI14
F311.0
sI15
F300.0
sI16
F1.0
sI21
F1.0
sI36
F1.0
sI27
F1.0
ssbsg29
g0
(g30
g2
Ntp248
Rp249
(dp250
g34
I1
sbsba(ics475_types
Instance
p251
(dp252
g24
(ics475_types
FeatureVector
p253
(dp254
g27
(dp255
I1
F1.0
sI2
F22.5
sI3
F8.46
sI7
F1.0
sI8
F2.46
sI9
F1.0
sI39
F1.0
sI13
F1.0
sI14
F164.0
sI17
F1.0
sI18
F1.0
sI20
F1.0
sI21
F1.0
ssbsg29
g0
(g30
g2
Ntp256
Rp257
(dp258
g34
I1
sbsba(ics475_types
Instance
p259
(dp260
g24
(ics475_types
FeatureVector
p261
(dp262
g27
(dp263
I1
F1.0
sI2
F17.58
sI3
F9.0
sI4
F1.0
sI5
F1.0
sI7
F1.0
sI8
F1.375
sI12
F1.0
sI13
F1.0
sI20
F1.0
sI33
F1.0
sI37
F1.0
ssbsg29
g0
(g30
g2
Ntp264
Rp265
(dp266
g34
I1
sbsba(ics475_types
Instance
p267
(dp268
g24
(ics475_types
FeatureVector
p269
(dp270
g27
(dp271
I33
F1.0
sI2
F57.83
sI3
F7.04
sI4
F1.0
sI5
F1.0
sI7
F1.0
sI8
F14.0
sI10
F1.0
sI11
F6.0
sI12
F1.0
sI13
F1.0
sI14
F360.0
sI15
F1332.0
sI16
F1.0
sI35
F1.0
ssbsg29
g0
(g30
g2
Ntp272
Rp273
(dp274
g34
I1
sbsba(ics475_types
Instance
p275
(dp276
g24
(ics475_types
FeatureVector
p277
(dp278
g27
(dp279
I1
F1.0
sI2
F25.17
sI3
F2.875
sI4
F1.0
sI5
F1.0
sI33
F1.0
sI8
F0.875
sI39
F1.0
sI13
F1.0
sI14
F360.0
sI20
F1.0
sI21
F1.0
sI27
F1.0
ssbsg29
g0
(g30
g2
Ntp280
Rp281
(dp282
g34
I1
sbsba(ics475_types
Instance
p283
(dp284
g24
(ics475_types
FeatureVector
p285
(dp286
g27
(dp287
I2
F36.08
sI3
F2.54
sI4
F1.0
sI5
F1.0
sI9
F1.0
sI13
F1.0
sI15
F1000.0
sI16
F1.0
sI20
F1.0
sI21
F1.0
sI23
F1.0
sI24
F1.0
ssbsg29
g0
(g30
g2
Ntp288
Rp289
(dp290
g34
I0
sbsba(ics475_types
Instance
p291
(dp292
g24
(ics475_types
FeatureVector
p293
(dp294
g27
(dp295
I2
F26.25
sI3
F1.54
sI4
F1.0
sI5
F1.0
sI7
F1.0
sI8
F0.125
sI9
F1.0
sI13
F1.0
sI14
F100.0
sI16
F1.0
sI20
F1.0
sI21
F1.0
sI31
F1.0
ssbsg29
g0
(g30
g2
Ntp296
Rp297
(dp298
g34
I0
sbsba(ics475_types
Instance
p299
(dp300
g24
(ics475_types
FeatureVector
p301
(dp302
g27
(dp303
I1
F1.0
sI2
F20.83
sI3
F3.0
sI4
F1.0
sI5
F1.0
sI7
F1.0
sI8
F0.04
sI13
F1.0
sI14
F100.0
sI20
F1.0
sI21
F1.0
sI33
F1.0
sI37
F1.0
ssbsg29
g0
(g30
g2
Ntp304
Rp305
(dp306
g34
I1
sbsba(ics475_types
Instance
p307
(dp308
g24
(ics475_types
FeatureVector
p309
(dp310
g27
(dp311
I33
F1.0
sI2
F48.5
sI3
F4.25
sI4
F1.0
sI5
F1.0
sI7
F1.0
sI8
F0.125
sI12
F1.0
sI13
F1.0
sI14
F225.0
sI16
F1.0
sI35
F1.0
sI20
F1.0
ssbsg29
g0
(g30
g2
Ntp312
Rp313
(dp314
g34
I1
sbsba(ics475_types
Instance
p315
(dp316
g24
(ics475_types
FeatureVector
p317
(dp318
g27
(dp319
I1
F1.0
sI2
F32.17
sI3
F1.46
sI4
F1.0
sI5
F1.0
sI7
F1.0
sI8
F1.085
sI10
F1.0
sI11
F16.0
sI13
F1.0
sI14
F120.0
sI15
F2079.0
sI21
F1.0
sI33
F1.0
sI31
F1.0
ssbsg29
g0
(g30
g2
Ntp320
Rp321
(dp322
g34
I1
sbsba(ics475_types
Instance
p323
(dp324
g24
(ics475_types
FeatureVector
p325
(dp326
g27
(dp327
I1
F1.0
sI2
F25.08
sI3
F2.54
sI33
F1.0
sI7
F1.0
sI8
F0.25
sI12
F1.0
sI13
F1.0
sI14
F370.0
sI17
F1.0
sI18
F1.0
sI20
F1.0
sI37
F1.0
ssbsg29
g0
(g30
g2
Ntp328
Rp329
(dp330
g34
I1
sbsba(ics475_types
Instance
p331
(dp332
g24
(ics475_types
FeatureVector
p333
(dp334
g27
(dp335
I33
F1.0
sI2
F33.5
sI3
F1.75
sI4
F1.0
sI5
F1.0
sI39
F1.0
sI8
F4.5
sI10
F1.0
sI11
F4.0
sI12
F1.0
sI13
F1.0
sI14
F253.0
sI15
F857.0
sI16
F1.0
sI27
F1.0
ssbsg29
g0
(g30
g2
Ntp336
Rp337
(dp338
g34
I1
sbsba(ics475_types
Instance
p339
(dp340
g24
(ics475_types
FeatureVector
p341
(dp342
g27
(dp343
I33
F1.0
sI2
F19.17
sI3
F9.5
sI4
F1.0
sI5
F1.0
sI7
F1.0
sI8
F1.5
sI13
F1.0
sI14
F120.0
sI15
F2206.0
sI16
F1.0
sI20
F1.0
sI21
F1.0
sI31
F1.0
ssbsg29
g0
(g30
g2
Ntp344
Rp345
(dp346
g34
I1
sbsba(ics475_types
Instance
p347
(dp348
g24
(ics475_types
FeatureVector
p349
(dp350
g27
(dp351
I33
F1.0
sI2
F26.67
sI3
F1.75
sI6
F1.0
sI7
F1.0
sI8
F1.0
sI10
F1.0
sI11
F5.0
sI12
F1.0
sI13
F1.0
sI14
F160.0
sI15
F5777.0
sI16
F1.0
sI17
F1.0
sI18
F1.0
ssbsg29
g0
(g30
g2
Ntp352
Rp353
(dp354
g34
I1
sbsba(ics475_types
Instance
p355
(dp356
g24
(ics475_types
FeatureVector
p357
(dp358
g27
(dp359
I33
F1.0
sI2
F23.0
sI3
F0.75
sI4
F1.0
sI5
F1.0
sI7
F1.0
sI8
F0.5
sI12
F1.0
sI14
F320.0
sI16
F1.0
sI35
F1.0
sI20
F1.0
sI22
F1.0
ssbsg29
g0
(g30
g2
Ntp360
Rp361
(dp362
g34
I0
sbsba(ics475_types
Instance
p363
(dp364
g24
(ics475_types
FeatureVector
p365
(dp366
g27
(dp367
I33
F1.0
sI2
F57.42
sI3
F8.5
sI4
F1.0
sI5
F1.0
sI8
F7.0
sI41
F1.0
sI10
F1.0
sI11
F3.0
sI13
F1.0
sI16
F1.0
sI21
F1.0
sI27
F1.0
ssbsg29
g0
(g30
g2
Ntp368
Rp369
(dp370
g34
I1
sbsba(ics475_types
Instance
p371
(dp372
g24
(ics475_types
FeatureVector
p373
(dp374
g27
(dp375
I33
F1.0
sI2
F20.67
sI3
F5.29
sI4
F1.0
sI5
F1.0
sI7
F1.0
sI8
F0.375
sI10
F1.0
sI11
F1.0
sI13
F1.0
sI14
F160.0
sI16
F1.0
sI21
F1.0
sI30
F1.0
ssbsg29
g0
(g30
g2
Ntp376
Rp377
(dp378
g34
I0
sbsba(ics475_types
Instance
p379
(dp380
g24
(ics475_types
FeatureVector
p381
(dp382
g27
(dp383
I33
F1.0
sI2
F21.83
sI3
F11.0
sI4
F1.0
sI5
F1.0
sI7
F1.0
sI8
F0.29
sI10
F1.0
sI11
F6.0
sI13
F1.0
sI14
F121.0
sI16
F1.0
sI21
F1.0
sI39
F1.0
ssbsg29
g0
(g30
g2
Ntp384
Rp385
(dp386
g34
I1
sbsba(ics475_types
Instance
p387
(dp388
g24
(ics475_types
FeatureVector
p389
(dp390
g27
(dp391
I2
F15.17
sI3
F7.0
sI4
F1.0
sI5
F1.0
sI7
F1.0
sI8
F1.0
sI9
F1.0
sI13
F1.0
sI14
F600.0
sI16
F1.0
sI20
F1.0
sI21
F1.0
sI41
F1.0
ssbsg29
g0
(g30
g2
Ntp392
Rp393
(dp394
g34
I0
sbsba(ics475_types
Instance
p395
(dp396
g24
(ics475_types
FeatureVector
p397
(dp398
g27
(dp399
I2
F22.25
sI3
F9.0
sI4
F1.0
sI5
F1.0
sI7
F1.0
sI8
F0.085
sI9
F1.0
sI13
F1.0
sI16
F1.0
sI20
F1.0
sI21
F1.0
sI37
F1.0
ssbsg29
g0
(g30
g2
Ntp400
Rp401
(dp402
g34
I0
sbsba(ics475_types
Instance
p403
(dp404
g24
(ics475_types
FeatureVector
p405
(dp406
g27
(dp407
I33
F1.0
sI2
F25.17
sI3
F6.0
sI4
F1.0
sI5
F1.0
sI6
F1.0
sI7
F1.0
sI8
F1.0
sI10
F1.0
sI11
F3.0
sI13
F1.0
sI16
F1.0
sI21
F1.0
ssbsg29
g0
(g30
g2
Ntp408
Rp409
(dp410
g34
I1
sbsba(ics475_types
Instance
p411
(dp412
g24
(ics475_types
FeatureVector
p413
(dp414
g27
(dp415
I2
F38.92
sI3
F1.75
sI4
F1.0
sI5
F1.0
sI7
F1.0
sI8
F0.5
sI9
F1.0
sI12
F1.0
sI13
F1.0
sI14
F300.0
sI15
F2.0
sI16
F1.0
sI19
F1.0
sI20
F1.0
ssbsg29
g0
(g30
g2
Ntp416
Rp417
(dp418
g34
I0
sbsba(ics475_types
Instance
p419
(dp420
g24
(ics475_types
FeatureVector
p421
(dp422
g27
(dp423
I2
F20.08
sI3
F0.25
sI4
F1.0
sI5
F1.0
sI7
F1.0
sI8
F0.125
sI9
F1.0
sI13
F1.0
sI14
F200.0
sI16
F1.0
sI20
F1.0
sI21
F1.0
sI30
F1.0
ssbsg29
g0
(g30
g2
Ntp424
Rp425
(dp426
g34
I0
sbsba(ics475_types
Instance
p427
(dp428
g24
(ics475_types
FeatureVector
p429
(dp430
g27
(dp431
I2
F22.08
sI3
F11.46
sI4
F1.0
sI5
F1.0
sI7
F1.0
sI8
F1.585
sI9
F1.0
sI12
F1.0
sI13
F1.0
sI14
F100.0
sI15
F1212.0
sI16
F1.0
sI19
F1.0
sI20
F1.0
ssbsg29
g0
(g30
g2
Ntp432
Rp433
(dp434
g34
I0
sbsba(ics475_types
Instance
p435
(dp436
g24
(ics475_types
FeatureVector
p437
(dp438
g27
(dp439
I33
F1.0
sI2
F42.0
sI3
F0.205
sI4
F1.0
sI5
F1.0
sI8
F5.125
sI13
F1.0
sI14
F400.0
sI16
F1.0
sI20
F1.0
sI21
F1.0
sI25
F1.0
sI27
F1.0
ssbsg29
g0
(g30
g2
Ntp440
Rp441
(dp442
g34
I1
sbsba(ics475_types
Instance
p443
(dp444
g24
(ics475_types
FeatureVector
p445
(dp446
g27
(dp447
I2
F26.83
sI3
F0.54
sI4
F1.0
sI5
F1.0
sI9
F1.0
sI13
F1.0
sI14
F100.0
sI16
F1.0
sI19
F1.0
sI20
F1.0
sI21
F1.0
sI24
F1.0
ssbsg29
g0
(g30
g2
Ntp448
Rp449
(dp450
g34
I0
sbsba(ics475_types
Instance
p451
(dp452
g24
(ics475_types
FeatureVector
p453
(dp454
g27
(dp455
I32
F1.0
sI2
F27.42
sI3
F12.5
sI4
F1.0
sI5
F1.0
sI8
F0.25
sI9
F1.0
sI12
F1.0
sI13
F1.0
sI14
F720.0
sI16
F1.0
sI20
F1.0
sI37
F1.0
ssbsg29
g0
(g30
g2
Ntp456
Rp457
(dp458
g34
I0
sbsba(ics475_types
Instance
p459
(dp460
g24
(ics475_types
FeatureVector
p461
(dp462
g27
(dp463
I33
F1.0
sI2
F41.58
sI3
F1.75
sI4
F1.0
sI5
F1.0
sI7
F1.0
sI8
F0.21
sI13
F1.0
sI14
F160.0
sI16
F1.0
sI19
F1.0
sI20
F1.0
sI21
F1.0
ssbsg29
g0
(g30
g2
Ntp464
Rp465
(dp466
g34
I0
sbsba(ics475_types
Instance
p467
(dp468
g24
(ics475_types
FeatureVector
p469
(dp470
g27
(dp471
I1
F1.0
sI2
F39.08
sI3
F4.0
sI4
F1.0
sI5
F1.0
sI6
F1.0
sI7
F1.0
sI8
F3.0
sI9
F1.0
sI13
F1.0
sI14
F480.0
sI20
F1.0
sI21
F1.0
ssbsg29
g0
(g30
g2
Ntp472
Rp473
(dp474
g34
I0
sbsba(ics475_types
Instance
p475
(dp476
g24
(ics475_types
FeatureVector
p477
(dp478
g27
(dp479
I1
F1.0
sI2
F33.25
sI3
F2.5
sI6
F1.0
sI7
F1.0
sI8
F2.5
sI9
F1.0
sI12
F1.0
sI13
F1.0
sI15
F2.0
sI17
F1.0
sI18
F1.0
sI20
F1.0
ssbsg29
g0
(g30
g2
Ntp480
Rp481
(dp482
g34
I0
sbsba(ics475_types
Instance
p483
(dp484
g24
(ics475_types
FeatureVector
p485
(dp486
g27
(dp487
I33
F1.0
sI2
F32.0
sI3
F1.75
sI8
F0.04
sI41
F1.0
sI12
F1.0
sI13
F1.0
sI14
F393.0
sI16
F1.0
sI17
F1.0
sI18
F1.0
sI20
F1.0
sI27
F1.0
ssbsg29
g0
(g30
g2
Ntp488
Rp489
(dp490
g34
I1
sbsba(ics475_types
Instance
p491
(dp492
g24
(ics475_types
FeatureVector
p493
(dp494
g27
(dp495
I1
F1.0
sI2
F36.75
sI3
F4.71
sI4
F1.0
sI5
F1.0
sI9
F1.0
sI13
F1.0
sI14
F160.0
sI20
F1.0
sI21
F1.0
sI23
F1.0
sI24
F1.0
ssbsg29
g0
(g30
g2
Ntp496
Rp497
(dp498
g34
I0
sbsba(ics475_types
Instance
p499
(dp500
g24
(ics475_types
FeatureVector
p501
(dp502
g27
(dp503
I1
F1.0
sI2
F35.42
sI3
F12.0
sI4
F1.0
sI5
F1.0
sI33
F1.0
sI8
F14.0
sI10
F1.0
sI11
F8.0
sI13
F1.0
sI15
F6590.0
sI21
F1.0
sI27
F1.0
sI30
F1.0
ssbsg29
g0
(g30
g2
Ntp504
Rp505
(dp506
g34
I1
sbsba(ics475_types
Instance
p507
(dp508
g24
(ics475_types
FeatureVector
p509
(dp510
g27
(dp511
I1
F1.0
sI2
F26.17
sI3
F2.0
sI4
F1.0
sI5
F1.0
sI9
F1.0
sI12
F1.0
sI13
F1.0
sI14
F276.0
sI15
F1.0
sI20
F1.0
sI28
F1.0
sI29
F1.0
ssbsg29
g0
(g30
g2
Ntp512
Rp513
(dp514
g34
I0
sbsba(ics475_types
Instance
p515
(dp516
g24
(ics475_types
FeatureVector
p517
(dp518
g27
(dp519
I2
F25.83
sI3
F12.835
sI4
F1.0
sI5
F1.0
sI7
F1.0
sI8
F0.5
sI9
F1.0
sI13
F1.0
sI15
F2.0
sI16
F1.0
sI20
F1.0
sI21
F1.0
sI36
F1.0
ssbsg29
g0
(g30
g2
Ntp520
Rp521
(dp522
g34
I0
sbsba(ics475_types
Instance
p523
(dp524
g24
(ics475_types
FeatureVector
p525
(dp526
g27
(dp527
I2
F22.58
sI3
F1.5
sI37
F1.0
sI7
F1.0
sI8
F0.54
sI9
F1.0
sI12
F1.0
sI13
F1.0
sI14
F120.0
sI15
F67.0
sI16
F1.0
sI17
F1.0
sI18
F1.0
sI20
F1.0
ssbsg29
g0
(g30
g2
Ntp528
Rp529
(dp530
g34
I0
sbsba(ics475_types
Instance
p531
(dp532
g24
(ics475_types
FeatureVector
p533
(dp534
g27
(dp535
I33
F1.0
sI2
F22.67
sI3
F10.5
sI4
F1.0
sI5
F1.0
sI8
F1.335
sI13
F1.0
sI14
F100.0
sI16
F1.0
sI20
F1.0
sI21
F1.0
sI27
F1.0
sI30
F1.0
ssbsg29
g0
(g30
g2
Ntp536
Rp537
(dp538
g34
I1
sbsba(ics475_types
Instance
p539
(dp540
g24
(ics475_types
FeatureVector
p541
(dp542
g27
(dp543
I32
F1.0
sI2
F34.17
sI3
F2.75
sI4
F1.0
sI5
F1.0
sI8
F2.5
sI9
F1.0
sI12
F1.0
sI13
F1.0
sI14
F232.0
sI15
F200.0
sI16
F1.0
sI20
F1.0
sI25
F1.0
ssbsg29
g0
(g30
g2
Ntp544
Rp545
(dp546
g34
I0
sbsba(ics475_types
Instance
p547
(dp548
g24
(ics475_types
FeatureVector
p549
(dp550
g27
(dp551
I1
F1.0
sI2
F28.08
sI3
F15.0
sI33
F1.0
sI41
F1.0
sI42
F1.0
sI13
F1.0
sI15
F13212.0
sI17
F1.0
sI18
F1.0
sI20
F1.0
sI21
F1.0
ssbsg29
g0
(g30
g2
Ntp552
Rp553
(dp554
g34
I1
sbsba(ics475_types
Instance
p555
(dp556
g24
(ics475_types
FeatureVector
p557
(dp558
g27
(dp559
I33
F1.0
sI2
F25.5
sI3
F0.375
sI4
F1.0
sI5
F1.0
sI7
F1.0
sI8
F0.25
sI10
F1.0
sI11
F3.0
sI13
F1.0
sI14
F260.0
sI15
F15108.0
sI16
F1.0
sI35
F1.0
sI21
F1.0
ssbsg29
g0
(g30
g2
Ntp560
Rp561
(dp562
g34
I1
sbsba(ics475_types
Instance
p563
(dp564
g24
(ics475_types
FeatureVector
p565
(dp566
g27
(dp567
I2
F17.08
sI3
F0.085
sI6
F1.0
sI7
F1.0
sI8
F0.04
sI9
F1.0
sI13
F1.0
sI14
F140.0
sI15
F722.0
sI16
F1.0
sI17
F1.0
sI18
F1.0
sI20
F1.0
sI21
F1.0
ssbsg29
g0
(g30
g2
Ntp568
Rp569
(dp570
g34
I0
sbsba(ics475_types
Instance
p571
(dp572
g24
(ics475_types
FeatureVector
p573
(dp574
g27
(dp575
I32
F1.0
sI33
F1.0
sI2
F41.33
sI4
F1.0
sI5
F1.0
sI6
F1.0
sI8
F15.0
sI13
F1.0
sI16
F1.0
sI20
F1.0
sI21
F1.0
ssbsg29
g0
(g30
g2
Ntp576
Rp577
(dp578
g34
I1
sbsba(ics475_types
Instance
p579
(dp580
g24
(ics475_types
FeatureVector
p581
(dp582
g27
(dp583
I2
F31.25
sI3
F2.835
sI4
F1.0
sI5
F1.0
sI9
F1.0
sI10
F1.0
sI11
F5.0
sI13
F1.0
sI14
F176.0
sI15
F146.0
sI16
F1.0
sI21
F1.0
sI23
F1.0
sI24
F1.0
ssbsg29
g0
(g30
g2
Ntp584
Rp585
(dp586
g34
I0
sbsba(ics475_types
Instance
p587
(dp588
g24
(ics475_types
FeatureVector
p589
(dp590
g27
(dp591
I33
F1.0
sI2
F31.42
sI3
F15.5
sI4
F1.0
sI5
F1.0
sI6
F1.0
sI7
F1.0
sI8
F0.5
sI13
F1.0
sI14
F120.0
sI16
F1.0
sI20
F1.0
sI21
F1.0
ssbsg29
g0
(g30
g2
Ntp592
Rp593
(dp594
g34
I0
sbsba(ics475_types
Instance
p595
(dp596
g24
(ics475_types
FeatureVector
p597
(dp598
g27
(dp599
I1
F1.0
sI2
F32.0
sI3
F6.0
sI4
F1.0
sI5
F1.0
sI7
F1.0
sI8
F1.25
sI9
F1.0
sI13
F1.0
sI14
F272.0
sI34
F1.0
sI20
F1.0
sI21
F1.0
ssbsg29
g0
(g30
g2
Ntp600
Rp601
(dp602
g34
I0
sbsba(ics475_types
Instance
p603
(dp604
g24
(ics475_types
FeatureVector
p605
(dp606
g27
(dp607
I33
F1.0
sI2
F22.83
sI3
F3.0
sI4
F1.0
sI5
F1.0
sI7
F1.0
sI8
F1.29
sI10
F1.0
sI11
F1.0
sI13
F1.0
sI14
F260.0
sI15
F800.0
sI16
F1.0
sI35
F1.0
sI21
F1.0
ssbsg29
g0
(g30
g2
Ntp608
Rp609
(dp610
g34
I1
sbsba(ics475_types
Instance
p611
(dp612
g24
(ics475_types
FeatureVector
p613
(dp614
g27
(dp615
I33
F1.0
sI2
F23.25
sI3
F1.0
sI4
F1.0
sI5
F1.0
sI6
F1.0
sI7
F1.0
sI8
F0.835
sI14
F300.0
sI16
F1.0
sI20
F1.0
sI21
F1.0
sI22
F1.0
ssbsg29
g0
(g30
g2
Ntp616
Rp617
(dp618
g34
I1
sbsba(ics475_types
Instance
p619
(dp620
g24
(ics475_types
FeatureVector
p621
(dp622
g27
(dp623
I1
F1.0
sI2
F31.25
sI3
F3.75
sI4
F1.0
sI5
F1.0
sI33
F1.0
sI8
F0.625
sI10
F1.0
sI11
F9.0
sI12
F1.0
sI13
F1.0
sI14
F181.0
sI36
F1.0
sI27
F1.0
ssbsg29
g0
(g30
g2
Ntp624
Rp625
(dp626
g34
I1
sbsba(ics475_types
Instance
p627
(dp628
g24
(ics475_types
FeatureVector
p629
(dp630
g27
(dp631
I33
F1.0
sI2
F37.42
sI3
F2.04
sI4
F1.0
sI5
F1.0
sI7
F1.0
sI8
F0.04
sI12
F1.0
sI13
F1.0
sI14
F400.0
sI15
F5800.0
sI16
F1.0
sI20
F1.0
sI31
F1.0
ssbsg29
g0
(g30
g2
Ntp632
Rp633
(dp634
g34
I1
sbsba(ics475_types
Instance
p635
(dp636
g24
(ics475_types
FeatureVector
p637
(dp638
g27
(dp639
I33
F1.0
sI2
F36.67
sI3
F3.25
sI4
F1.0
sI5
F1.0
sI8
F9.0
sI12
F1.0
sI13
F1.0
sI14
F102.0
sI15
F639.0
sI16
F1.0
sI20
F1.0
sI27
F1.0
sI30
F1.0
ssbsg29
g0
(g30
g2
Ntp640
Rp641
(dp642
g34
I1
sbsba(ics475_types
Instance
p643
(dp644
g24
(ics475_types
FeatureVector
p645
(dp646
g27
(dp647
I2
F34.67
sI3
F1.08
sI4
F1.0
sI5
F1.0
sI7
F1.0
sI8
F1.165
sI9
F1.0
sI14
F28.0
sI16
F1.0
sI35
F1.0
sI20
F1.0
sI21
F1.0
sI22
F1.0
ssbsg29
g0
(g30
g2
Ntp648
Rp649
(dp650
g34
I0
sbsba(ics475_types
Instance
p651
(dp652
g24
(ics475_types
FeatureVector
p653
(dp654
g27
(dp655
I1
F1.0
sI2
F33.08
sI3
F4.625
sI4
F1.0
sI5
F1.0
sI33
F1.0
sI8
F1.625
sI10
F1.0
sI11
F2.0
sI13
F1.0
sI21
F1.0
sI27
F1.0
sI30
F1.0
ssbsg29
g0
(g30
g2
Ntp656
Rp657
(dp658
g34
I1
sbsba(ics475_types
Instance
p659
(dp660
g24
(ics475_types
FeatureVector
p661
(dp662
g27
(dp663
I1
F1.0
sI2
F53.33
sI3
F0.165
sI4
F1.0
sI5
F1.0
sI9
F1.0
sI12
F1.0
sI14
F62.0
sI15
F27.0
sI20
F1.0
sI22
F1.0
sI23
F1.0
sI24
F1.0
ssbsg29
g0
(g30
g2
Ntp664
Rp665
(dp666
g34
I0
sbsba(ics475_types
Instance
p667
(dp668
g24
(ics475_types
FeatureVector
p669
(dp670
g27
(dp671
I2
F25.67
sI3
F0.29
sI6
F1.0
sI7
F1.0
sI8
F1.5
sI9
F1.0
sI12
F1.0
sI13
F1.0
sI14
F160.0
sI16
F1.0
sI17
F1.0
sI18
F1.0
sI20
F1.0
ssbsg29
g0
(g30
g2
Ntp672
Rp673
(dp674
g34
I0
sbsba(ics475_types
Instance
p675
(dp676
g24
(ics475_types
FeatureVector
p677
(dp678
g27
(dp679
I33
F1.0
sI2
F22.67
sI3
F1.585
sI7
F1.0
sI8
F3.085
sI10
F1.0
sI11
F6.0
sI13
F1.0
sI14
F80.0
sI16
F1.0
sI17
F1.0
sI18
F1.0
sI21
F1.0
sI31
F1.0
ssbsg29
g0
(g30
g2
Ntp680
Rp681
(dp682
g34
I1
sbsba(ics475_types
Instance
p683
(dp684
g24
(ics475_types
FeatureVector
p685
(dp686
g27
(dp687
I33
F1.0
sI2
F28.25
sI3
F0.875
sI4
F1.0
sI5
F1.0
sI7
F1.0
sI8
F0.96
sI10
F1.0
sI11
F3.0
sI12
F1.0
sI13
F1.0
sI14
F396.0
sI16
F1.0
sI35
F1.0
ssbsg29
g0
(g30
g2
Ntp688
Rp689
(dp690
g34
I1
sbsba(ics475_types
Instance
p691
(dp692
g24
(ics475_types
FeatureVector
p693
(dp694
g27
(dp695
I33
F1.0
sI2
F35.25
sI3
F16.5
sI6
F1.0
sI7
F1.0
sI8
F4.0
sI13
F1.0
sI14
F80.0
sI16
F1.0
sI17
F1.0
sI18
F1.0
sI20
F1.0
sI21
F1.0
ssbsg29
g0
(g30
g2
Ntp696
Rp697
(dp698
g34
I0
sbsba(ics475_types
Instance
p699
(dp700
g24
(ics475_types
FeatureVector
p701
(dp702
g27
(dp703
I2
F51.83
sI3
F2.04
sI8
F1.5
sI9
F1.0
sI13
F1.0
sI14
F120.0
sI15
F1.0
sI16
F1.0
sI17
F1.0
sI18
F1.0
sI20
F1.0
sI21
F1.0
sI23
F1.0
sI24
F1.0
ssbsg29
g0
(g30
g2
Ntp704
Rp705
(dp706
g34
I0
sbsba(ics475_types
Instance
p707
(dp708
g24
(ics475_types
FeatureVector
p709
(dp710
g27
(dp711
I1
F1.0
sI2
F22.83
sI3
F2.29
sI4
F1.0
sI5
F1.0
sI33
F1.0
sI8
F2.29
sI10
F1.0
sI11
F7.0
sI12
F1.0
sI13
F1.0
sI14
F140.0
sI15
F2384.0
sI27
F1.0
sI30
F1.0
ssbsg29
g0
(g30
g2
Ntp712
Rp713
(dp714
g34
I1
sbsba(ics475_types
Instance
p715
(dp716
g24
(ics475_types
FeatureVector
p717
(dp718
g27
(dp719
I2
F36.67
sI3
F2.0
sI4
F1.0
sI5
F1.0
sI7
F1.0
sI8
F0.25
sI9
F1.0
sI12
F1.0
sI13
F1.0
sI14
F221.0
sI16
F1.0
sI20
F1.0
sI25
F1.0
ssbsg29
g0
(g30
g2
Ntp720
Rp721
(dp722
g34
I0
sbsba(ics475_types
Instance
p723
(dp724
g24
(ics475_types
FeatureVector
p725
(dp726
g27
(dp727
I33
F1.0
sI2
F18.08
sI3
F5.5
sI4
F1.0
sI5
F1.0
sI7
F1.0
sI8
F0.5
sI13
F1.0
sI14
F80.0
sI16
F1.0
sI19
F1.0
sI20
F1.0
sI21
F1.0
ssbsg29
g0
(g30
g2
Ntp728
Rp729
(dp730
g34
I1
sbsba(ics475_types
Instance
p731
(dp732
g24
(ics475_types
FeatureVector
p733
(dp734
g27
(dp735
I33
F1.0
sI2
F54.42
sI3
F0.5
sI8
F3.96
sI13
F1.0
sI14
F180.0
sI15
F314.0
sI16
F1.0
sI17
F1.0
sI18
F1.0
sI19
F1.0
sI20
F1.0
sI21
F1.0
sI27
F1.0
ssbsg29
g0
(g30
g2
Ntp736
Rp737
(dp738
g34
I1
sbsba(ics475_types
Instance
p739
(dp740
g24
(ics475_types
FeatureVector
p741
(dp742
g27
(dp743
I2
F35.58
sI3
F0.75
sI4
F1.0
sI5
F1.0
sI7
F1.0
sI8
F1.5
sI9
F1.0
sI12
F1.0
sI13
F1.0
sI14
F231.0
sI16
F1.0
sI19
F1.0
sI20
F1.0
ssbsg29
g0
(g30
g2
Ntp744
Rp745
(dp746
g34
I0
sbsba(ics475_types
Instance
p747
(dp748
g24
(ics475_types
FeatureVector
p749
(dp750
g27
(dp751
I1
F1.0
sI2
F20.42
sI3
F0.835
sI4
F1.0
sI5
F1.0
sI7
F1.0
sI8
F1.585
sI10
F1.0
sI11
F1.0
sI13
F1.0
sI21
F1.0
sI33
F1.0
sI30
F1.0
ssbsg29
g0
(g30
g2
Ntp752
Rp753
(dp754
g34
I1
sbsba(ics475_types
Instance
p755
(dp756
g24
(ics475_types
FeatureVector
p757
(dp758
g27
(dp759
I1
F1.0
sI2
F38.75
sI3
F1.5
sI4
F1.0
sI5
F1.0
sI9
F1.0
sI13
F1.0
sI14
F76.0
sI20
F1.0
sI21
F1.0
sI23
F1.0
sI24
F1.0
ssbsg29
g0
(g30
g2
Ntp760
Rp761
(dp762
g34
I0
sbsba(ics475_types
Instance
p763
(dp764
g24
(ics475_types
FeatureVector
p765
(dp766
g27
(dp767
I1
F1.0
sI2
F25.42
sI3
F1.125
sI4
F1.0
sI5
F1.0
sI7
F1.0
sI8
F1.29
sI10
F1.0
sI11
F2.0
sI13
F1.0
sI14
F200.0
sI21
F1.0
sI33
F1.0
sI30
F1.0
ssbsg29
g0
(g30
g2
Ntp768
Rp769
(dp770
g34
I0
sbsba(ics475_types
Instance
p771
(dp772
g24
(ics475_types
FeatureVector
p773
(dp774
g27
(dp775
I32
F1.0
sI1
F1.0
sI2
F47.42
sI3
F8.0
sI4
F1.0
sI5
F1.0
sI33
F1.0
sI8
F6.5
sI41
F1.0
sI10
F1.0
sI11
F6.0
sI13
F1.0
sI14
F375.0
sI15
F51100.0
sI21
F1.0
ssbsg29
g0
(g30
g2
Ntp776
Rp777
(dp778
g34
I1
sbsba(ics475_types
Instance
p779
(dp780
g24
(ics475_types
FeatureVector
p781
(dp782
g27
(dp783
I33
F1.0
sI2
F36.33
sI3
F3.79
sI4
F1.0
sI5
F1.0
sI7
F1.0
sI8
F1.165
sI12
F1.0
sI13
F1.0
sI14
F200.0
sI16
F1.0
sI20
F1.0
sI31
F1.0
ssbsg29
g0
(g30
g2
Ntp784
Rp785
(dp786
g34
I0
sbsba(ics475_types
Instance
p787
(dp788
g24
(ics475_types
FeatureVector
p789
(dp790
g27
(dp791
I2
F20.42
sI3
F1.085
sI4
F1.0
sI5
F1.0
sI7
F1.0
sI8
F1.5
sI9
F1.0
sI13
F1.0
sI14
F108.0
sI15
F7.0
sI16
F1.0
sI20
F1.0
sI21
F1.0
sI30
F1.0
ssbsg29
g0
(g30
g2
Ntp792
Rp793
(dp794
g34
I0
sbsba(ics475_types
Instance
p795
(dp796
g24
(ics475_types
FeatureVector
p797
(dp798
g27
(dp799
I2
F17.92
sI3
F0.205
sI4
F1.0
sI5
F1.0
sI7
F1.0
sI8
F0.04
sI9
F1.0
sI13
F1.0
sI14
F280.0
sI15
F750.0
sI16
F1.0
sI20
F1.0
sI21
F1.0
sI37
F1.0
ssbsg29
g0
(g30
g2
Ntp800
Rp801
(dp802
g34
I0
sbsba(ics475_types
Instance
p803
(dp804
g24
(ics475_types
FeatureVector
p805
(dp806
g27
(dp807
I2
F35.0
sI3
F2.5
sI4
F1.0
sI5
F1.0
sI7
F1.0
sI8
F1.0
sI9
F1.0
sI12
F1.0
sI13
F1.0
sI14
F210.0
sI16
F1.0
sI20
F1.0
sI25
F1.0
ssbsg29
g0
(g30
g2
Ntp808
Rp809
(dp810
g34
I0
sbsba(ics475_types
Instance
p811
(dp812
g24
(ics475_types
FeatureVector
p813
(dp814
g27
(dp815
I33
F1.0
sI2
F34.92
sI3
F5.0
sI4
F1.0
sI5
F1.0
sI39
F1.0
sI8
F7.5
sI10
F1.0
sI11
F6.0
sI12
F1.0
sI13
F1.0
sI15
F1000.0
sI16
F1.0
sI27
F1.0
ssbsg29
g0
(g30
g2
Ntp816
Rp817
(dp818
g34
I1
sbsba(ics475_types
Instance
p819
(dp820
g24
(ics475_types
FeatureVector
p821
(dp822
g27
(dp823
I1
F1.0
sI2
F18.83
sI3
F9.54
sI4
F1.0
sI5
F1.0
sI7
F1.0
sI8
F0.085
sI13
F1.0
sI14
F100.0
sI20
F1.0
sI21
F1.0
sI33
F1.0
sI37
F1.0
ssbsg29
g0
(g30
g2
Ntp824
Rp825
(dp826
g34
I1
sbsba(ics475_types
Instance
p827
(dp828
g24
(ics475_types
FeatureVector
p829
(dp830
g27
(dp831
I2
F22.67
sI3
F0.75
sI4
F1.0
sI5
F1.0
sI7
F1.0
sI8
F1.585
sI9
F1.0
sI10
F1.0
sI11
F1.0
sI12
F1.0
sI13
F1.0
sI14
F400.0
sI15
F9.0
sI16
F1.0
sI25
F1.0
ssbsg29
g0
(g30
g2
Ntp832
Rp833
(dp834
g34
I0
sbsba(ics475_types
Instance
p835
(dp836
g24
(ics475_types
FeatureVector
p837
(dp838
g27
(dp839
I33
F1.0
sI2
F31.83
sI3
F2.5
sI4
F1.0
sI5
F1.0
sI7
F1.0
sI8
F7.5
sI12
F1.0
sI13
F1.0
sI14
F523.0
sI16
F1.0
sI20
F1.0
sI37
F1.0
ssbsg29
g0
(g30
g2
Ntp840
Rp841
(dp842
g34
I0
sbsba(ics475_types
Instance
p843
(dp844
g24
(ics475_types
FeatureVector
p845
(dp846
g27
(dp847
I33
F1.0
sI2
F23.17
sI3
F11.125
sI4
F1.0
sI5
F1.0
sI39
F1.0
sI8
F0.46
sI10
F1.0
sI11
F1.0
sI13
F1.0
sI14
F100.0
sI16
F1.0
sI21
F1.0
sI27
F1.0
ssbsg29
g0
(g30
g2
Ntp848
Rp849
(dp850
g34
I1
sbsba(ics475_types
Instance
p851
(dp852
g24
(ics475_types
FeatureVector
p853
(dp854
g27
(dp855
I33
F1.0
sI2
F41.92
sI3
F0.42
sI4
F1.0
sI5
F1.0
sI6
F1.0
sI8
F0.21
sI10
F1.0
sI11
F6.0
sI13
F1.0
sI14
F220.0
sI15
F948.0
sI16
F1.0
sI21
F1.0
sI27
F1.0
ssbsg29
g0
(g30
g2
Ntp856
Rp857
(dp858
g34
I1
sbsba(ics475_types
Instance
p859
(dp860
g24
(ics475_types
FeatureVector
p861
(dp862
g27
(dp863
I33
F1.0
sI2
F48.75
sI3
F8.5
sI4
F1.0
sI5
F1.0
sI6
F1.0
sI8
F12.5
sI10
F1.0
sI11
F9.0
sI13
F1.0
sI14
F181.0
sI15
F1655.0
sI16
F1.0
sI21
F1.0
sI27
F1.0
ssbsg29
g0
(g30
g2
Ntp864
Rp865
(dp866
g34
I1
sbsba(ics475_types
Instance
p867
(dp868
g24
(ics475_types
FeatureVector
p869
(dp870
g27
(dp871
I1
F1.0
sI2
F47.25
sI3
F0.75
sI4
F1.0
sI5
F1.0
sI33
F1.0
sI8
F2.75
sI10
F1.0
sI11
F1.0
sI13
F1.0
sI14
F333.0
sI15
F892.0
sI21
F1.0
sI27
F1.0
sI30
F1.0
ssbsg29
g0
(g30
g2
Ntp872
Rp873
(dp874
g34
I1
sbsba(ics475_types
Instance
p875
(dp876
g24
(ics475_types
FeatureVector
p877
(dp878
g27
(dp879
I33
F1.0
sI2
F18.67
sI3
F5.0
sI4
F1.0
sI5
F1.0
sI7
F1.0
sI8
F0.375
sI10
F1.0
sI11
F2.0
sI13
F1.0
sI15
F38.0
sI16
F1.0
sI21
F1.0
sI30
F1.0
ssbsg29
g0
(g30
g2
Ntp880
Rp881
(dp882
g34
I0
sbsba(ics475_types
Instance
p883
(dp884
g24
(ics475_types
FeatureVector
p885
(dp886
g27
(dp887
I1
F1.0
sI2
F29.58
sI3
F1.75
sI7
F1.0
sI8
F1.25
sI9
F1.0
sI12
F1.0
sI13
F1.0
sI14
F280.0
sI17
F1.0
sI18
F1.0
sI19
F1.0
sI20
F1.0
ssbsg29
g0
(g30
g2
Ntp888
Rp889
(dp890
g34
I0
sbsba(ics475_types
Instance
p891
(dp892
g24
(ics475_types
FeatureVector
p893
(dp894
g27
(dp895
I33
F1.0
sI2
F35.17
sI3
F25.125
sI4
F1.0
sI5
F1.0
sI39
F1.0
sI8
F1.625
sI10
F1.0
sI11
F1.0
sI12
F1.0
sI13
F1.0
sI14
F515.0
sI15
F500.0
sI16
F1.0
sI27
F1.0
ssbsg29
g0
(g30
g2
Ntp896
Rp897
(dp898
g34
I1
sbsba(ics475_types
Instance
p899
(dp900
g24
(ics475_types
FeatureVector
p901
(dp902
g27
(dp903
I2
F26.17
sI3
F12.5
sI8
F1.25
sI9
F1.0
sI12
F1.0
sI13
F1.0
sI15
F17.0
sI16
F1.0
sI17
F1.0
sI18
F1.0
sI19
F1.0
sI20
F1.0
sI27
F1.0
ssbsg29
g0
(g30
g2
Ntp904
Rp905
(dp906
g34
I0
sbsba(ics475_types
Instance
p907
(dp908
g24
(ics475_types
FeatureVector
p909
(dp910
g27
(dp911
I1
F1.0
sI2
F32.33
sI3
F0.54
sI4
F1.0
sI5
F1.0
sI7
F1.0
sI8
F0.04
sI13
F1.0
sI14
F440.0
sI15
F11177.0
sI20
F1.0
sI21
F1.0
sI36
F1.0
sI33
F1.0
ssbsg29
g0
(g30
g2
Ntp912
Rp913
(dp914
g34
I1
sbsba(ics475_types
Instance
p915
(dp916
g24
(ics475_types
FeatureVector
p917
(dp918
g27
(dp919
I33
F1.0
sI2
F40.92
sI3
F0.835
sI4
F1.0
sI5
F1.0
sI13
F1.0
sI14
F130.0
sI15
F1.0
sI16
F1.0
sI20
F1.0
sI21
F1.0
sI23
F1.0
sI24
F1.0
ssbsg29
g0
(g30
g2
Ntp920
Rp921
(dp922
g34
I0
sbsba(ics475_types
Instance
p923
(dp924
g24
(ics475_types
FeatureVector
p925
(dp926
g27
(dp927
I33
F1.0
sI2
F21.5
sI3
F11.5
sI4
F1.0
sI5
F1.0
sI7
F1.0
sI8
F0.5
sI12
F1.0
sI13
F1.0
sI14
F100.0
sI15
F68.0
sI16
F1.0
sI20
F1.0
sI25
F1.0
ssbsg29
g0
(g30
g2
Ntp928
Rp929
(dp930
g34
I0
sbsba(ics475_types
Instance
p931
(dp932
g24
(ics475_types
FeatureVector
p933
(dp934
g27
(dp935
I32
F1.0
sI33
F1.0
sI2
F34.5
sI3
F4.04
sI8
F8.5
sI10
F1.0
sI11
F7.0
sI12
F1.0
sI13
F1.0
sI14
F195.0
sI16
F1.0
sI17
F1.0
sI18
F1.0
sI25
F1.0
ssbsg29
g0
(g30
g2
Ntp936
Rp937
(dp938
g34
I1
sbsba(ics475_types
Instance
p939
(dp940
g24
(ics475_types
FeatureVector
p941
(dp942
g27
(dp943
I1
F1.0
sI2
F60.92
sI3
F5.0
sI4
F1.0
sI5
F1.0
sI7
F1.0
sI8
F4.0
sI10
F1.0
sI11
F4.0
sI13
F1.0
sI15
F99.0
sI21
F1.0
sI33
F1.0
sI37
F1.0
ssbsg29
g0
(g30
g2
Ntp944
Rp945
(dp946
g34
I1
sbsba(ics475_types
Instance
p947
(dp948
g24
(ics475_types
FeatureVector
p949
(dp950
g27
(dp951
I33
F1.0
sI2
F67.75
sI3
F5.5
sI4
F1.0
sI5
F1.0
sI8
F13.0
sI41
F1.0
sI10
F1.0
sI11
F1.0
sI12
F1.0
sI13
F1.0
sI16
F1.0
sI42
F1.0
ssbsg29
g0
(g30
g2
Ntp952
Rp953
(dp954
g34
I1
sbsba(ics475_types
Instance
p955
(dp956
g24
(ics475_types
FeatureVector
p957
(dp958
g27
(dp959
I1
F1.0
sI2
F41.17
sI3
F6.5
sI4
F1.0
sI5
F1.0
sI7
F1.0
sI8
F0.5
sI10
F1.0
sI11
F3.0
sI12
F1.0
sI13
F1.0
sI14
F145.0
sI33
F1.0
sI30
F1.0
ssbsg29
g0
(g30
g2
Ntp960
Rp961
(dp962
g34
I1
sbsba(ics475_types
Instance
p963
(dp964
g24
(ics475_types
FeatureVector
p965
(dp966
g27
(dp967
I33
F1.0
sI2
F39.92
sI3
F0.54
sI37
F1.0
sI7
F1.0
sI8
F0.5
sI10
F1.0
sI11
F3.0
sI13
F1.0
sI14
F200.0
sI15
F1000.0
sI16
F1.0
sI17
F1.0
sI18
F1.0
sI21
F1.0
ssbsg29
g0
(g30
g2
Ntp968
Rp969
(dp970
g34
I1
sbsba(ics475_types
Instance
p971
(dp972
g24
(ics475_types
FeatureVector
p973
(dp974
g27
(dp975
I33
F1.0
sI2
F48.25
sI3
F25.085
sI4
F1.0
sI5
F1.0
sI7
F1.0
sI8
F1.75
sI10
F1.0
sI11
F3.0
sI13
F1.0
sI14
F120.0
sI15
F14.0
sI16
F1.0
sI21
F1.0
sI31
F1.0
ssbsg29
g0
(g30
g2
Ntp976
Rp977
(dp978
g34
I1
sbsba(ics475_types
Instance
p979
(dp980
g24
(ics475_types
FeatureVector
p981
(dp982
g27
(dp983
I33
F1.0
sI2
F27.0
sI3
F1.5
sI7
F1.0
sI8
F0.375
sI12
F1.0
sI13
F1.0
sI14
F260.0
sI15
F1065.0
sI16
F1.0
sI17
F1.0
sI18
F1.0
sI20
F1.0
sI31
F1.0
ssbsg29
g0
(g30
g2
Ntp984
Rp985
(dp986
g34
I1
sbsba(ics475_types
Instance
p987
(dp988
g24
(ics475_types
FeatureVector
p989
(dp990
g27
(dp991
I2
F31.08
sI3
F1.5
sI7
F1.0
sI8
F0.04
sI9
F1.0
sI14
F160.0
sI16
F1.0
sI17
F1.0
sI18
F1.0
sI20
F1.0
sI21
F1.0
sI22
F1.0
sI31
F1.0
ssbsg29
g0
(g30
g2
Ntp992
Rp993
(dp994
g34
I0
sbsba(ics475_types
Instance
p995
(dp996
g24
(ics475_types
FeatureVector
p997
(dp998
g27
(dp999
I1
F1.0
sI2
F22.58
sI3
F10.75
sI4
F1.0
sI5
F1.0
sI7
F1.0
sI8
F0.415
sI10
F1.0
sI11
F5.0
sI12
F1.0
sI13
F1.0
sI15
F560.0
sI33
F1.0
sI30
F1.0
ssbsg29
g0
(g30
g2
Ntp1000
Rp1001
(dp1002
g34
I1
sbsba(ics475_types
Instance
p1003
(dp1004
g24
(ics475_types
FeatureVector
p1005
(dp1006
g27
(dp1007
I2
F17.08
sI3
F3.29
sI4
F1.0
sI5
F1.0
sI7
F1.0
sI8
F0.335
sI9
F1.0
sI12
F1.0
sI13
F1.0
sI14
F140.0
sI15
F2.0
sI16
F1.0
sI20
F1.0
sI25
F1.0
ssbsg29
g0
(g30
g2
Ntp1008
Rp1009
(dp1010
g34
I0
sbsba(ics475_types
Instance
p1011
(dp1012
g24
(ics475_types
FeatureVector
p1013
(dp1014
g27
(dp1015
I1
F1.0
sI2
F69.5
sI3
F6.0
sI4
F1.0
sI5
F1.0
sI9
F1.0
sI20
F1.0
sI21
F1.0
sI22
F1.0
sI23
F1.0
sI24
F1.0
ssbsg29
g0
(g30
g2
Ntp1016
Rp1017
(dp1018
g34
I0
sbsba(ics475_types
Instance
p1019
(dp1020
g24
(ics475_types
FeatureVector
p1021
(dp1022
g27
(dp1023
I1
F1.0
sI2
F47.42
sI3
F3.0
sI4
F1.0
sI5
F1.0
sI7
F1.0
sI8
F13.875
sI10
F1.0
sI11
F2.0
sI12
F1.0
sI13
F1.0
sI14
F519.0
sI15
F1704.0
sI39
F1.0
sI33
F1.0
ssbsg29
g0
(g30
g2
Ntp1024
Rp1025
(dp1026
g34
I1
sbsba(ics475_types
Instance
p1027
(dp1028
g24
(ics475_types
FeatureVector
p1029
(dp1030
g27
(dp1031
I2
F22.17
sI3
F0.585
sI9
F1.0
sI13
F1.0
sI14
F100.0
sI16
F1.0
sI17
F1.0
sI18
F1.0
sI20
F1.0
sI21
F1.0
sI23
F1.0
sI24
F1.0
ssbsg29
g0
(g30
g2
Ntp1032
Rp1033
(dp1034
g34
I0
sbsba(ics475_types
Instance
p1035
(dp1036
g24
(ics475_types
FeatureVector
p1037
(dp1038
g27
(dp1039
I32
F1.0
sI2
F26.67
sI3
F14.585
sI4
F1.0
sI5
F1.0
sI9
F1.0
sI12
F1.0
sI13
F1.0
sI14
F178.0
sI16
F1.0
sI20
F1.0
sI25
F1.0
ssbsg29
g0
(g30
g2
Ntp1040
Rp1041
(dp1042
g34
I0
sbsba(ics475_types
Instance
p1043
(dp1044
g24
(ics475_types
FeatureVector
p1045
(dp1046
g27
(dp1047
I33
F1.0
sI2
F25.33
sI3
F0.58
sI4
F1.0
sI5
F1.0
sI6
F1.0
sI7
F1.0
sI8
F0.29
sI10
F1.0
sI11
F7.0
sI12
F1.0
sI13
F1.0
sI14
F96.0
sI15
F5124.0
sI16
F1.0
ssbsg29
g0
(g30
g2
Ntp1048
Rp1049
(dp1050
g34
I1
sbsba(ics475_types
Instance
p1051
(dp1052
g24
(ics475_types
FeatureVector
p1053
(dp1054
g27
(dp1055
I33
F1.0
sI2
F18.5
sI3
F2.0
sI4
F1.0
sI5
F1.0
sI7
F1.0
sI8
F1.5
sI10
F1.0
sI11
F2.0
sI13
F1.0
sI14
F120.0
sI15
F300.0
sI16
F1.0
sI21
F1.0
sI25
F1.0
ssbsg29
g0
(g30
g2
Ntp1056
Rp1057
(dp1058
g34
I1
sbsba(ics475_types
Instance
p1059
(dp1060
g24
(ics475_types
FeatureVector
p1061
(dp1062
g27
(dp1063
I2
F17.42
sI3
F6.5
sI4
F1.0
sI5
F1.0
sI7
F1.0
sI8
F0.125
sI9
F1.0
sI13
F1.0
sI14
F60.0
sI15
F100.0
sI16
F1.0
sI20
F1.0
sI21
F1.0
sI25
F1.0
ssbsg29
g0
(g30
g2
Ntp1064
Rp1065
(dp1066
g34
I0
sbsba(ics475_types
Instance
p1067
(dp1068
g24
(ics475_types
FeatureVector
p1069
(dp1070
g27
(dp1071
I1
F1.0
sI2
F20.83
sI3
F8.5
sI4
F1.0
sI5
F1.0
sI6
F1.0
sI7
F1.0
sI8
F0.165
sI9
F1.0
sI13
F1.0
sI15
F351.0
sI20
F1.0
sI21
F1.0
ssbsg29
g0
(g30
g2
Ntp1072
Rp1073
(dp1074
g34
I0
sbsba(ics475_types
Instance
p1075
(dp1076
g24
(ics475_types
FeatureVector
p1077
(dp1078
g27
(dp1079
I1
F1.0
sI2
F27.42
sI3
F14.5
sI4
F1.0
sI5
F1.0
sI33
F1.0
sI8
F3.085
sI10
F1.0
sI11
F1.0
sI13
F1.0
sI14
F120.0
sI15
F11.0
sI21
F1.0
sI39
F1.0
sI27
F1.0
ssbsg29
g0
(g30
g2
Ntp1080
Rp1081
(dp1082
g34
I1
sbsba(ics475_types
Instance
p1083
(dp1084
g24
(ics475_types
FeatureVector
p1085
(dp1086
g27
(dp1087
I1
F1.0
sI2
F17.83
sI3
F11.0
sI4
F1.0
sI5
F1.0
sI33
F1.0
sI8
F1.0
sI10
F1.0
sI11
F11.0
sI13
F1.0
sI15
F3000.0
sI21
F1.0
sI39
F1.0
sI27
F1.0
ssbsg29
g0
(g30
g2
Ntp1088
Rp1089
(dp1090
g34
I1
sbsba(ics475_types
Instance
p1091
(dp1092
g24
(ics475_types
FeatureVector
p1093
(dp1094
g27
(dp1095
I1
F1.0
sI2
F24.58
sI3
F0.67
sI4
F1.0
sI5
F1.0
sI33
F1.0
sI8
F1.75
sI13
F1.0
sI14
F400.0
sI20
F1.0
sI21
F1.0
sI27
F1.0
sI37
F1.0
ssbsg29
g0
(g30
g2
Ntp1096
Rp1097
(dp1098
g34
I0
sbsba(ics475_types
Instance
p1099
(dp1100
g24
(ics475_types
FeatureVector
p1101
(dp1102
g27
(dp1103
I33
F1.0
sI2
F29.58
sI3
F4.5
sI4
F1.0
sI5
F1.0
sI7
F1.0
sI8
F7.5
sI10
F1.0
sI11
F2.0
sI12
F1.0
sI13
F1.0
sI14
F330.0
sI16
F1.0
sI31
F1.0
ssbsg29
g0
(g30
g2
Ntp1104
Rp1105
(dp1106
g34
I1
sbsba(ics475_types
Instance
p1107
(dp1108
g24
(ics475_types
FeatureVector
p1109
(dp1110
g27
(dp1111
I1
F1.0
sI2
F24.92
sI3
F1.25
sI4
F1.0
sI5
F1.0
sI33
F1.0
sI13
F1.0
sI14
F80.0
sI20
F1.0
sI21
F1.0
sI23
F1.0
sI24
F1.0
ssbsg29
g0
(g30
g2
Ntp1112
Rp1113
(dp1114
g34
I0
sbsba(ics475_types
Instance
p1115
(dp1116
g24
(ics475_types
FeatureVector
p1117
(dp1118
g27
(dp1119
I1
F1.0
sI2
F57.08
sI3
F19.5
sI4
F1.0
sI5
F1.0
sI6
F1.0
sI7
F1.0
sI8
F5.5
sI10
F1.0
sI11
F7.0
sI13
F1.0
sI15
F3000.0
sI21
F1.0
sI33
F1.0
ssbsg29
g0
(g30
g2
Ntp1120
Rp1121
(dp1122
g34
I1
sbsba(ics475_types
Instance
p1123
(dp1124
g24
(ics475_types
FeatureVector
p1125
(dp1126
g27
(dp1127
I33
F1.0
sI2
F34.17
sI3
F1.54
sI4
F1.0
sI5
F1.0
sI7
F1.0
sI8
F1.54
sI10
F1.0
sI11
F1.0
sI12
F1.0
sI13
F1.0
sI14
F520.0
sI15
F50000.0
sI16
F1.0
sI36
F1.0
ssbsg29
g0
(g30
g2
Ntp1128
Rp1129
(dp1130
g34
I1
sbsba(ics475_types
Instance
p1131
(dp1132
g24
(ics475_types
FeatureVector
p1133
(dp1134
g27
(dp1135
I1
F1.0
sI2
F24.5
sI3
F1.04
sI33
F1.0
sI8
F0.5
sI10
F1.0
sI11
F3.0
sI13
F1.0
sI14
F180.0
sI15
F147.0
sI17
F1.0
sI18
F1.0
sI21
F1.0
sI23
F1.0
sI24
F1.0
ssbsg29
g0
(g30
g2
Ntp1136
Rp1137
(dp1138
g34
I0
sbsba(ics475_types
Instance
p1139
(dp1140
g24
(ics475_types
FeatureVector
p1141
(dp1142
g27
(dp1143
I2
F32.08
sI3
F4.0
sI36
F1.0
sI7
F1.0
sI8
F1.5
sI9
F1.0
sI12
F1.0
sI13
F1.0
sI14
F120.0
sI16
F1.0
sI17
F1.0
sI18
F1.0
sI20
F1.0
ssbsg29
g0
(g30
g2
Ntp1144
Rp1145
(dp1146
g34
I0
sbsba(ics475_types
Instance
p1147
(dp1148
g24
(ics475_types
FeatureVector
p1149
(dp1150
g27
(dp1151
I33
F1.0
sI2
F28.0
sI3
F2.0
sI4
F1.0
sI5
F1.0
sI8
F4.165
sI10
F1.0
sI11
F2.0
sI12
F1.0
sI13
F1.0
sI14
F181.0
sI16
F1.0
sI19
F1.0
sI27
F1.0
ssbsg29
g0
(g30
g2
Ntp1152
Rp1153
(dp1154
g34
I1
sbsba(ics475_types
Instance
p1155
(dp1156
g24
(ics475_types
FeatureVector
p1157
(dp1158
g27
(dp1159
I33
F1.0
sI2
F32.67
sI3
F9.0
sI8
F5.25
sI12
F1.0
sI13
F1.0
sI14
F154.0
sI16
F1.0
sI17
F1.0
sI18
F1.0
sI20
F1.0
sI27
F1.0
sI31
F1.0
ssbsg29
g0
(g30
g2
Ntp1160
Rp1161
(dp1162
g34
I1
sbsba(ics475_types
Instance
p1163
(dp1164
g24
(ics475_types
FeatureVector
p1165
(dp1166
g27
(dp1167
I32
F1.0
sI33
F1.0
sI2
F37.5
sI3
F1.75
sI6
F1.0
sI8
F0.25
sI12
F1.0
sI13
F1.0
sI14
F164.0
sI15
F400.0
sI16
F1.0
sI17
F1.0
sI18
F1.0
sI20
F1.0
ssbsg29
g0
(g30
g2
Ntp1168
Rp1169
(dp1170
g34
I0
sbsba(ics475_types
Instance
p1171
(dp1172
g24
(ics475_types
FeatureVector
p1173
(dp1174
g27
(dp1175
I33
F1.0
sI2
F33.58
sI3
F2.75
sI4
F1.0
sI5
F1.0
sI7
F1.0
sI8
F4.25
sI10
F1.0
sI11
F6.0
sI13
F1.0
sI14
F204.0
sI16
F1.0
sI35
F1.0
sI21
F1.0
ssbsg29
g0
(g30
g2
Ntp1176
Rp1177
(dp1178
g34
I1
sbsba(ics475_types
Instance
p1179
(dp1180
g24
(ics475_types
FeatureVector
p1181
(dp1182
g27
(dp1183
I1
F1.0
sI2
F25.0
sI3
F0.875
sI4
F1.0
sI5
F1.0
sI33
F1.0
sI8
F1.04
sI39
F1.0
sI12
F1.0
sI13
F1.0
sI14
F160.0
sI15
F5860.0
sI20
F1.0
sI27
F1.0
ssbsg29
g0
(g30
g2
Ntp1184
Rp1185
(dp1186
g34
I1
sbsba(ics475_types
Instance
p1187
(dp1188
g24
(ics475_types
FeatureVector
p1189
(dp1190
g27
(dp1191
I1
F1.0
sI2
F23.58
sI3
F0.83
sI4
F1.0
sI5
F1.0
sI7
F1.0
sI8
F0.415
sI9
F1.0
sI10
F1.0
sI11
F1.0
sI12
F1.0
sI13
F1.0
sI14
F200.0
sI15
F11.0
sI30
F1.0
ssbsg29
g0
(g30
g2
Ntp1192
Rp1193
(dp1194
g34
I0
sbsba(ics475_types
Instance
p1195
(dp1196
g24
(ics475_types
FeatureVector
p1197
(dp1198
g27
(dp1199
I33
F1.0
sI2
F27.25
sI3
F1.665
sI4
F1.0
sI5
F1.0
sI8
F5.085
sI10
F1.0
sI11
F9.0
sI13
F1.0
sI14
F399.0
sI15
F827.0
sI16
F1.0
sI21
F1.0
sI36
F1.0
sI27
F1.0
ssbsg29
g0
(g30
g2
Ntp1200
Rp1201
(dp1202
g34
I1
sbsba(ics475_types
Instance
p1203
(dp1204
g24
(ics475_types
FeatureVector
p1205
(dp1206
g27
(dp1207
I33
F1.0
sI2
F23.33
sI3
F11.625
sI7
F1.0
sI8
F0.835
sI12
F1.0
sI13
F1.0
sI14
F160.0
sI15
F300.0
sI16
F1.0
sI17
F1.0
sI18
F1.0
sI20
F1.0
sI31
F1.0
ssbsg29
g0
(g30
g2
Ntp1208
Rp1209
(dp1210
g34
I1
sbsba(ics475_types
Instance
p1211
(dp1212
g24
(ics475_types
FeatureVector
p1213
(dp1214
g27
(dp1215
I33
F1.0
sI2
F27.67
sI3
F13.75
sI4
F1.0
sI5
F1.0
sI7
F1.0
sI8
F5.75
sI12
F1.0
sI13
F1.0
sI14
F487.0
sI15
F500.0
sI16
F1.0
sI20
F1.0
sI31
F1.0
ssbsg29
g0
(g30
g2
Ntp1216
Rp1217
(dp1218
g34
I1
sbsba(ics475_types
Instance
p1219
(dp1220
g24
(ics475_types
FeatureVector
p1221
(dp1222
g27
(dp1223
I33
F1.0
sI2
F34.92
sI3
F2.5
sI4
F1.0
sI5
F1.0
sI7
F1.0
sI12
F1.0
sI13
F1.0
sI14
F239.0
sI15
F200.0
sI16
F1.0
sI20
F1.0
sI31
F1.0
ssbsg29
g0
(g30
g2
Ntp1224
Rp1225
(dp1226
g34
I1
sbsba(ics475_types
Instance
p1227
(dp1228
g24
(ics475_types
FeatureVector
p1229
(dp1230
g27
(dp1231
I2
F18.83
sI3
F0.415
sI6
F1.0
sI7
F1.0
sI8
F0.165
sI9
F1.0
sI10
F1.0
sI11
F1.0
sI13
F1.0
sI14
F200.0
sI15
F1.0
sI16
F1.0
sI17
F1.0
sI18
F1.0
sI21
F1.0
ssbsg29
g0
(g30
g2
Ntp1232
Rp1233
(dp1234
g34
I0
sbsba(ics475_types
Instance
p1235
(dp1236
g24
(ics475_types
FeatureVector
p1237
(dp1238
g27
(dp1239
I1
F1.0
sI2
F20.67
sI3
F3.0
sI4
F1.0
sI5
F1.0
sI7
F1.0
sI8
F0.165
sI10
F1.0
sI11
F3.0
sI13
F1.0
sI14
F100.0
sI15
F6.0
sI21
F1.0
sI33
F1.0
sI30
F1.0
ssbsg29
g0
(g30
g2
Ntp1240
Rp1241
(dp1242
g34
I1
sbsba(ics475_types
Instance
p1243
(dp1244
g24
(ics475_types
FeatureVector
p1245
(dp1246
g27
(dp1247
I33
F1.0
sI2
F39.92
sI3
F6.21
sI4
F1.0
sI5
F1.0
sI7
F1.0
sI8
F0.04
sI10
F1.0
sI11
F1.0
sI13
F1.0
sI14
F200.0
sI15
F300.0
sI16
F1.0
sI21
F1.0
sI30
F1.0
ssbsg29
g0
(g30
g2
Ntp1248
Rp1249
(dp1250
g34
I1
sbsba(ics475_types
Instance
p1251
(dp1252
g24
(ics475_types
FeatureVector
p1253
(dp1254
g27
(dp1255
I32
F1.0
sI2
F33.75
sI3
F2.75
sI4
F1.0
sI5
F1.0
sI9
F1.0
sI13
F1.0
sI14
F180.0
sI16
F1.0
sI20
F1.0
sI21
F1.0
sI25
F1.0
ssbsg29
g0
(g30
g2
Ntp1256
Rp1257
(dp1258
g34
I0
sbsba(ics475_types
Instance
p1259
(dp1260
g24
(ics475_types
FeatureVector
p1261
(dp1262
g27
(dp1263
I2
F16.0
sI3
F3.125
sI4
F1.0
sI5
F1.0
sI7
F1.0
sI8
F0.085
sI9
F1.0
sI10
F1.0
sI11
F1.0
sI13
F1.0
sI15
F6.0
sI16
F1.0
sI21
F1.0
sI31
F1.0
ssbsg29
g0
(g30
g2
Ntp1264
Rp1265
(dp1266
g34
I0
sbsba(ics475_types
Instance
p1267
(dp1268
g24
(ics475_types
FeatureVector
p1269
(dp1270
g27
(dp1271
I2
F23.92
sI3
F0.665
sI4
F1.0
sI5
F1.0
sI6
F1.0
sI7
F1.0
sI8
F0.165
sI9
F1.0
sI13
F1.0
sI14
F100.0
sI16
F1.0
sI20
F1.0
sI21
F1.0
ssbsg29
g0
(g30
g2
Ntp1272
Rp1273
(dp1274
g34
I1
sbsba(ics475_types
Instance
p1275
(dp1276
g24
(ics475_types
FeatureVector
p1277
(dp1278
g27
(dp1279
I1
F1.0
sI2
F58.33
sI3
F10.0
sI4
F1.0
sI5
F1.0
sI7
F1.0
sI8
F4.0
sI10
F1.0
sI11
F14.0
sI13
F1.0
sI15
F1602.0
sI21
F1.0
sI33
F1.0
sI30
F1.0
ssbsg29
g0
(g30
g2
Ntp1280
Rp1281
(dp1282
g34
I1
sbsba(ics475_types
Instance
p1283
(dp1284
g24
(ics475_types
FeatureVector
p1285
(dp1286
g27
(dp1287
I33
F1.0
sI2
F28.75
sI3
F1.5
sI6
F1.0
sI7
F1.0
sI8
F1.5
sI12
F1.0
sI13
F1.0
sI15
F225.0
sI16
F1.0
sI17
F1.0
sI18
F1.0
sI20
F1.0
ssbsg29
g0
(g30
g2
Ntp1288
Rp1289
(dp1290
g34
I0
sbsba(ics475_types
Instance
p1291
(dp1292
g24
(ics475_types
FeatureVector
p1293
(dp1294
g27
(dp1295
I33
F1.0
sI2
F40.92
sI3
F2.25
sI39
F1.0
sI8
F10.0
sI12
F1.0
sI13
F1.0
sI14
F176.0
sI16
F1.0
sI17
F1.0
sI18
F1.0
sI20
F1.0
sI27
F1.0
ssbsg29
g0
(g30
g2
Ntp1296
Rp1297
(dp1298
g34
I0
sbsba(ics475_types
Instance
p1299
(dp1300
g24
(ics475_types
FeatureVector
p1301
(dp1302
g27
(dp1303
I1
F1.0
sI2
F22.67
sI3
F0.335
sI4
F1.0
sI5
F1.0
sI7
F1.0
sI8
F0.75
sI9
F1.0
sI14
F160.0
sI20
F1.0
sI21
F1.0
sI22
F1.0
sI30
F1.0
ssbsg29
g0
(g30
g2
Ntp1304
Rp1305
(dp1306
g34
I0
sbsba(ics475_types
Instance
p1307
(dp1308
g24
(ics475_types
FeatureVector
p1309
(dp1310
g27
(dp1311
I33
F1.0
sI2
F43.0
sI3
F0.29
sI36
F1.0
sI8
F1.75
sI10
F1.0
sI11
F8.0
sI13
F1.0
sI14
F100.0
sI15
F375.0
sI16
F1.0
sI17
F1.0
sI18
F1.0
sI21
F1.0
sI27
F1.0
ssbsg29
g0
(g30
g2
Ntp1312
Rp1313
(dp1314
g34
I1
sbsba(ics475_types
Instance
p1315
(dp1316
g24
(ics475_types
FeatureVector
p1317
(dp1318
g27
(dp1319
I33
F1.0
sI2
F22.75
sI3
F11.0
sI4
F1.0
sI5
F1.0
sI7
F1.0
sI8
F2.5
sI10
F1.0
sI11
F7.0
sI12
F1.0
sI13
F1.0
sI14
F100.0
sI15
F809.0
sI16
F1.0
sI30
F1.0
ssbsg29
g0
(g30
g2
Ntp1320
Rp1321
(dp1322
g34
I1
sbsba(ics475_types
Instance
p1323
(dp1324
g24
(ics475_types
FeatureVector
p1325
(dp1326
g27
(dp1327
I1
F1.0
sI2
F18.42
sI3
F9.25
sI4
F1.0
sI5
F1.0
sI7
F1.0
sI8
F1.21
sI10
F1.0
sI11
F4.0
sI13
F1.0
sI14
F60.0
sI15
F540.0
sI21
F1.0
sI33
F1.0
sI30
F1.0
ssbsg29
g0
(g30
g2
Ntp1328
Rp1329
(dp1330
g34
I1
sbsba(ics475_types
Instance
p1331
(dp1332
g24
(ics475_types
FeatureVector
p1333
(dp1334
g27
(dp1335
I1
F1.0
sI2
F15.83
sI3
F0.585
sI4
F1.0
sI5
F1.0
sI6
F1.0
sI33
F1.0
sI8
F1.5
sI10
F1.0
sI11
F2.0
sI13
F1.0
sI14
F100.0
sI21
F1.0
sI27
F1.0
ssbsg29
g0
(g30
g2
Ntp1336
Rp1337
(dp1338
g34
I1
sbsba(ics475_types
Instance
p1339
(dp1340
g24
(ics475_types
FeatureVector
p1341
(dp1342
g27
(dp1343
I33
F1.0
sI2
F54.33
sI3
F6.75
sI4
F1.0
sI5
F1.0
sI6
F1.0
sI8
F2.625
sI10
F1.0
sI11
F11.0
sI12
F1.0
sI13
F1.0
sI15
F284.0
sI16
F1.0
sI27
F1.0
ssbsg29
g0
(g30
g2
Ntp1344
Rp1345
(dp1346
g34
I1
sbsba(ics475_types
Instance
p1347
(dp1348
g24
(ics475_types
FeatureVector
p1349
(dp1350
g27
(dp1351
I33
F1.0
sI2
F22.58
sI3
F10.04
sI4
F1.0
sI5
F1.0
sI7
F1.0
sI8
F0.04
sI10
F1.0
sI11
F9.0
sI13
F1.0
sI14
F60.0
sI15
F396.0
sI16
F1.0
sI21
F1.0
sI39
F1.0
ssbsg29
g0
(g30
g2
Ntp1352
Rp1353
(dp1354
g34
I1
sbsba(ics475_types
Instance
p1355
(dp1356
g24
(ics475_types
FeatureVector
p1357
(dp1358
g27
(dp1359
I1
F1.0
sI2
F52.83
sI3
F15.0
sI4
F1.0
sI5
F1.0
sI6
F1.0
sI7
F1.0
sI8
F5.5
sI10
F1.0
sI11
F14.0
sI13
F1.0
sI15
F2200.0
sI21
F1.0
sI33
F1.0
ssbsg29
g0
(g30
g2
Ntp1360
Rp1361
(dp1362
g34
I1
sbsba(ics475_types
Instance
p1363
(dp1364
g24
(ics475_types
FeatureVector
p1365
(dp1366
g27
(dp1367
I1
F1.0
sI2
F20.75
sI3
F10.335
sI4
F1.0
sI5
F1.0
sI33
F1.0
sI8
F0.335
sI10
F1.0
sI11
F1.0
sI12
F1.0
sI13
F1.0
sI14
F80.0
sI15
F50.0
sI36
F1.0
sI27
F1.0
ssbsg29
g0
(g30
g2
Ntp1368
Rp1369
(dp1370
g34
I1
sbsba(ics475_types
Instance
p1371
(dp1372
g24
(ics475_types
FeatureVector
p1373
(dp1374
g27
(dp1375
I1
F1.0
sI2
F26.08
sI3
F8.665
sI4
F1.0
sI5
F1.0
sI7
F1.0
sI8
F1.415
sI13
F1.0
sI14
F160.0
sI15
F150.0
sI20
F1.0
sI21
F1.0
sI33
F1.0
sI37
F1.0
ssbsg29
g0
(g30
g2
Ntp1376
Rp1377
(dp1378
g34
I1
sbsba(ics475_types
Instance
p1379
(dp1380
g24
(ics475_types
FeatureVector
p1381
(dp1382
g27
(dp1383
I1
F1.0
sI2
F17.33
sI3
F9.5
sI4
F1.0
sI5
F1.0
sI7
F1.0
sI8
F1.75
sI9
F1.0
sI10
F1.0
sI11
F10.0
sI12
F1.0
sI13
F1.0
sI15
F10.0
sI37
F1.0
ssbsg29
g0
(g30
g2
Ntp1384
Rp1385
(dp1386
g34
I0
sbsba(ics475_types
Instance
p1387
(dp1388
g24
(ics475_types
FeatureVector
p1389
(dp1390
g27
(dp1391
I1
F1.0
sI2
F24.5
sI3
F2.415
sI6
F1.0
sI7
F1.0
sI9
F1.0
sI13
F1.0
sI14
F120.0
sI17
F1.0
sI18
F1.0
sI20
F1.0
sI21
F1.0
ssbsg29
g0
(g30
g2
Ntp1392
Rp1393
(dp1394
g34
I0
sbsba(ics475_types
Instance
p1395
(dp1396
g24
(ics475_types
FeatureVector
p1397
(dp1398
g27
(dp1399
I1
F1.0
sI2
F27.25
sI3
F0.29
sI4
F1.0
sI5
F1.0
sI8
F0.125
sI9
F1.0
sI10
F1.0
sI11
F1.0
sI12
F1.0
sI13
F1.0
sI14
F272.0
sI15
F108.0
sI35
F1.0
sI27
F1.0
ssbsg29
g0
(g30
g2
Ntp1400
Rp1401
(dp1402
g34
I0
sbsba(ics475_types
Instance
p1403
(dp1404
g24
(ics475_types
FeatureVector
p1405
(dp1406
g27
(dp1407
I2
F28.58
sI3
F3.625
sI4
F1.0
sI5
F1.0
sI7
F1.0
sI8
F0.25
sI9
F1.0
sI12
F1.0
sI13
F1.0
sI14
F100.0
sI16
F1.0
sI20
F1.0
sI37
F1.0
ssbsg29
g0
(g30
g2
Ntp1408
Rp1409
(dp1410
g34
I0
sbsba(ics475_types
Instance
p1411
(dp1412
g24
(ics475_types
FeatureVector
p1413
(dp1414
g27
(dp1415
I32
F1.0
sI1
F1.0
sI2
F41.33
sI3
F1.0
sI4
F1.0
sI5
F1.0
sI33
F1.0
sI8
F2.25
sI12
F1.0
sI13
F1.0
sI15
F300.0
sI20
F1.0
sI25
F1.0
ssbsg29
g0
(g30
g2
Ntp1416
Rp1417
(dp1418
g34
I1
sbsba(ics475_types
Instance
p1419
(dp1420
g24
(ics475_types
FeatureVector
p1421
(dp1422
g27
(dp1423
I32
F1.0
sI2
F19.33
sI3
F10.915
sI4
F1.0
sI5
F1.0
sI6
F1.0
sI8
F0.585
sI9
F1.0
sI10
F1.0
sI11
F2.0
sI12
F1.0
sI13
F1.0
sI14
F200.0
sI15
F7.0
sI16
F1.0
ssbsg29
g0
(g30
g2
Ntp1424
Rp1425
(dp1426
g34
I0
sbsba(ics475_types
Instance
p1427
(dp1428
g24
(ics475_types
FeatureVector
p1429
(dp1430
g27
(dp1431
I1
F1.0
sI2
F24.83
sI3
F4.5
sI4
F1.0
sI5
F1.0
sI7
F1.0
sI8
F1.0
sI9
F1.0
sI12
F1.0
sI13
F1.0
sI14
F360.0
sI15
F6.0
sI20
F1.0
sI31
F1.0
ssbsg29
g0
(g30
g2
Ntp1432
Rp1433
(dp1434
g34
I0
sbsba(ics475_types
Instance
p1435
(dp1436
g24
(ics475_types
FeatureVector
p1437
(dp1438
g27
(dp1439
I32
F1.0
sI2
F26.92
sI3
F2.25
sI4
F1.0
sI5
F1.0
sI8
F0.5
sI9
F1.0
sI12
F1.0
sI13
F1.0
sI14
F640.0
sI15
F4000.0
sI16
F1.0
sI20
F1.0
sI25
F1.0
ssbsg29
g0
(g30
g2
Ntp1440
Rp1441
(dp1442
g34
I0
sbsba(ics475_types
Instance
p1443
(dp1444
g24
(ics475_types
FeatureVector
p1445
(dp1446
g27
(dp1447
I33
F1.0
sI2
F27.83
sI3
F4.0
sI8
F5.75
sI10
F1.0
sI11
F2.0
sI12
F1.0
sI13
F1.0
sI14
F75.0
sI16
F1.0
sI17
F1.0
sI18
F1.0
sI25
F1.0
sI27
F1.0
ssbsg29
g0
(g30
g2
Ntp1448
Rp1449
(dp1450
g34
I0
sbsba(ics475_types
Instance
p1451
(dp1452
g24
(ics475_types
FeatureVector
p1453
(dp1454
g27
(dp1455
I2
F29.42
sI3
F1.25
sI4
F1.0
sI5
F1.0
sI7
F1.0
sI8
F1.75
sI9
F1.0
sI13
F1.0
sI14
F200.0
sI16
F1.0
sI20
F1.0
sI21
F1.0
sI31
F1.0
ssbsg29
g0
(g30
g2
Ntp1456
Rp1457
(dp1458
g34
I0
sbsba(ics475_types
Instance
p1459
(dp1460
g24
(ics475_types
FeatureVector
p1461
(dp1462
g27
(dp1463
I2
F41.17
sI3
F1.335
sI4
F1.0
sI5
F1.0
sI7
F1.0
sI8
F0.165
sI9
F1.0
sI13
F1.0
sI14
F168.0
sI16
F1.0
sI34
F1.0
sI20
F1.0
sI21
F1.0
ssbsg29
g0
(g30
g2
Ntp1464
Rp1465
(dp1466
g34
I0
sbsba(ics475_types
Instance
p1467
(dp1468
g24
(ics475_types
FeatureVector
p1469
(dp1470
g27
(dp1471
I2
F20.0
sI34
F1.0
sI4
F1.0
sI5
F1.0
sI7
F1.0
sI8
F0.5
sI9
F1.0
sI13
F1.0
sI14
F144.0
sI16
F1.0
sI20
F1.0
sI21
F1.0
ssbsg29
g0
(g30
g2
Ntp1472
Rp1473
(dp1474
g34
I0
sbsba(ics475_types
Instance
p1475
(dp1476
g24
(ics475_types
FeatureVector
p1477
(dp1478
g27
(dp1479
I1
F1.0
sI2
F28.5
sI3
F1.0
sI4
F1.0
sI5
F1.0
sI7
F1.0
sI8
F1.0
sI10
F1.0
sI11
F2.0
sI12
F1.0
sI13
F1.0
sI14
F167.0
sI15
F500.0
sI33
F1.0
sI30
F1.0
ssbsg29
g0
(g30
g2
Ntp1480
Rp1481
(dp1482
g34
I0
sbsba(ics475_types
Instance
p1483
(dp1484
g24
(ics475_types
FeatureVector
p1485
(dp1486
g27
(dp1487
I1
F1.0
sI2
F22.92
sI3
F1.25
sI4
F1.0
sI5
F1.0
sI7
F1.0
sI8
F0.25
sI9
F1.0
sI12
F1.0
sI13
F1.0
sI14
F120.0
sI15
F809.0
sI20
F1.0
sI30
F1.0
ssbsg29
g0
(g30
g2
Ntp1488
Rp1489
(dp1490
g34
I0
sbsba(ics475_types
Instance
p1491
(dp1492
g24
(ics475_types
FeatureVector
p1493
(dp1494
g27
(dp1495
I1
F1.0
sI2
F58.67
sI3
F4.46
sI4
F1.0
sI5
F1.0
sI33
F1.0
sI8
F3.04
sI10
F1.0
sI11
F6.0
sI13
F1.0
sI14
F43.0
sI15
F560.0
sI21
F1.0
sI27
F1.0
sI30
F1.0
ssbsg29
g0
(g30
g2
Ntp1496
Rp1497
(dp1498
g34
I1
sbsba(ics475_types
Instance
p1499
(dp1500
g24
(ics475_types
FeatureVector
p1501
(dp1502
g27
(dp1503
I33
F1.0
sI2
F23.42
sI3
F0.585
sI4
F1.0
sI5
F1.0
sI6
F1.0
sI8
F0.085
sI13
F1.0
sI14
F180.0
sI16
F1.0
sI20
F1.0
sI21
F1.0
sI27
F1.0
ssbsg29
g0
(g30
g2
Ntp1504
Rp1505
(dp1506
g34
I0
sbsba(ics475_types
Instance
p1507
(dp1508
g24
(ics475_types
FeatureVector
p1509
(dp1510
g27
(dp1511
I1
F1.0
sI2
F16.5
sI3
F1.25
sI4
F1.0
sI5
F1.0
sI7
F1.0
sI8
F0.25
sI9
F1.0
sI10
F1.0
sI11
F1.0
sI13
F1.0
sI14
F108.0
sI15
F98.0
sI21
F1.0
sI30
F1.0
ssbsg29
g0
(g30
g2
Ntp1512
Rp1513
(dp1514
g34
I0
sbsba(ics475_types
Instance
p1515
(dp1516
g24
(ics475_types
FeatureVector
p1517
(dp1518
g27
(dp1519
I1
F1.0
sI2
F21.67
sI3
F11.5
sI33
F1.0
sI10
F1.0
sI11
F11.0
sI12
F1.0
sI13
F1.0
sI17
F1.0
sI18
F1.0
sI28
F1.0
sI29
F1.0
ssbsg29
g0
(g30
g2
Ntp1520
Rp1521
(dp1522
g34
I1
sbsba(ics475_types
Instance
p1523
(dp1524
g24
(ics475_types
FeatureVector
p1525
(dp1526
g27
(dp1527
I1
F1.0
sI2
F22.92
sI3
F11.585
sI4
F1.0
sI5
F1.0
sI7
F1.0
sI8
F0.04
sI13
F1.0
sI14
F80.0
sI15
F1349.0
sI20
F1.0
sI21
F1.0
sI36
F1.0
sI33
F1.0
ssbsg29
g0
(g30
g2
Ntp1528
Rp1529
(dp1530
g34
I1
sbsba(ics475_types
Instance
p1531
(dp1532
g24
(ics475_types
FeatureVector
p1533
(dp1534
g27
(dp1535
I33
F1.0
sI2
F42.5
sI3
F4.915
sI7
F1.0
sI8
F3.165
sI12
F1.0
sI13
F1.0
sI14
F52.0
sI15
F1442.0
sI16
F1.0
sI17
F1.0
sI18
F1.0
sI20
F1.0
sI31
F1.0
ssbsg29
g0
(g30
g2
Ntp1536
Rp1537
(dp1538
g34
I1
sbsba(ics475_types
Instance
p1539
(dp1540
g24
(ics475_types
FeatureVector
p1541
(dp1542
g27
(dp1543
I2
F30.58
sI3
F2.71
sI7
F1.0
sI8
F0.125
sI9
F1.0
sI12
F1.0
sI14
F80.0
sI16
F1.0
sI17
F1.0
sI18
F1.0
sI35
F1.0
sI20
F1.0
sI22
F1.0
ssbsg29
g0
(g30
g2
Ntp1544
Rp1545
(dp1546
g34
I0
sbsba(ics475_types
Instance
p1547
(dp1548
g24
(ics475_types
FeatureVector
p1549
(dp1550
g27
(dp1551
I33
F1.0
sI2
F39.83
sI3
F0.5
sI4
F1.0
sI5
F1.0
sI7
F1.0
sI8
F0.25
sI14
F288.0
sI16
F1.0
sI35
F1.0
sI20
F1.0
sI21
F1.0
sI22
F1.0
ssbsg29
g0
(g30
g2
Ntp1552
Rp1553
(dp1554
g34
I0
sbsba(ics475_types
Instance
p1555
(dp1556
g24
(ics475_types
FeatureVector
p1557
(dp1558
g27
(dp1559
I32
F1.0
sI1
F1.0
sI2
F24.33
sI3
F2.5
sI8
F4.5
sI9
F1.0
sI13
F1.0
sI14
F200.0
sI15
F456.0
sI17
F1.0
sI18
F1.0
sI20
F1.0
sI21
F1.0
sI25
F1.0
ssbsg29
g0
(g30
g2
Ntp1560
Rp1561
(dp1562
g34
I0
sbsba(ics475_types
Instance
p1563
(dp1564
g24
(ics475_types
FeatureVector
p1565
(dp1566
g27
(dp1567
I2
F28.17
sI3
F0.125
sI7
F1.0
sI8
F0.085
sI9
F1.0
sI13
F1.0
sI14
F216.0
sI15
F2100.0
sI16
F1.0
sI17
F1.0
sI18
F1.0
sI19
F1.0
sI20
F1.0
sI21
F1.0
ssbsg29
g0
(g30
g2
Ntp1568
Rp1569
(dp1570
g34
I0
sbsba(ics475_types
Instance
p1571
(dp1572
g24
(ics475_types
FeatureVector
p1573
(dp1574
g27
(dp1575
I2
F23.08
sI3
F2.5
sI4
F1.0
sI5
F1.0
sI8
F0.085
sI9
F1.0
sI12
F1.0
sI13
F1.0
sI14
F100.0
sI15
F4208.0
sI16
F1.0
sI20
F1.0
sI23
F1.0
sI24
F1.0
ssbsg29
g0
(g30
g2
Ntp1576
Rp1577
(dp1578
g34
I0
sbsba(ics475_types
Instance
p1579
(dp1580
g24
(ics475_types
FeatureVector
p1581
(dp1582
g27
(dp1583
I1
F1.0
sI2
F19.5
sI3
F0.165
sI4
F1.0
sI5
F1.0
sI7
F1.0
sI8
F0.04
sI9
F1.0
sI12
F1.0
sI13
F1.0
sI14
F380.0
sI20
F1.0
sI30
F1.0
ssbsg29
g0
(g30
g2
Ntp1584
Rp1585
(dp1586
g34
I0
sbsba(ics475_types
Instance
p1587
(dp1588
g24
(ics475_types
FeatureVector
p1589
(dp1590
g27
(dp1591
I1
F1.0
sI2
F52.5
sI3
F7.0
sI4
F1.0
sI5
F1.0
sI8
F3.0
sI9
F1.0
sI13
F1.0
sI20
F1.0
sI21
F1.0
sI27
F1.0
sI37
F1.0
ssbsg29
g0
(g30
g2
Ntp1592
Rp1593
(dp1594
g34
I0
sbsba(ics475_types
Instance
p1595
(dp1596
g24
(ics475_types
FeatureVector
p1597
(dp1598
g27
(dp1599
I33
F1.0
sI2
F29.25
sI3
F14.79
sI4
F1.0
sI5
F1.0
sI7
F1.0
sI8
F5.04
sI10
F1.0
sI11
F5.0
sI12
F1.0
sI13
F1.0
sI14
F168.0
sI16
F1.0
sI37
F1.0
ssbsg29
g0
(g30
g2
Ntp1600
Rp1601
(dp1602
g34
I1
sbsba(ics475_types
Instance
p1603
(dp1604
g24
(ics475_types
FeatureVector
p1605
(dp1606
g27
(dp1607
I2
F26.17
sI3
F0.835
sI4
F1.0
sI5
F1.0
sI7
F1.0
sI8
F1.165
sI9
F1.0
sI13
F1.0
sI14
F100.0
sI16
F1.0
sI20
F1.0
sI21
F1.0
sI36
F1.0
ssbsg29
g0
(g30
g2
Ntp1608
Rp1609
(dp1610
g34
I0
sbsba(ics475_types
Instance
p1611
(dp1612
g24
(ics475_types
FeatureVector
p1613
(dp1614
g27
(dp1615
I33
F1.0
sI2
F38.58
sI3
F3.335
sI4
F1.0
sI5
F1.0
sI7
F1.0
sI8
F4.0
sI10
F1.0
sI11
F14.0
sI13
F1.0
sI14
F383.0
sI15
F1344.0
sI16
F1.0
sI21
F1.0
sI31
F1.0
ssbsg29
g0
(g30
g2
Ntp1616
Rp1617
(dp1618
g34
I1
sbsba(ics475_types
Instance
p1619
(dp1620
g24
(ics475_types
FeatureVector
p1621
(dp1622
g27
(dp1623
I33
F1.0
sI2
F32.25
sI3
F0.165
sI6
F1.0
sI8
F3.25
sI10
F1.0
sI11
F1.0
sI12
F1.0
sI13
F1.0
sI14
F432.0
sI15
F8000.0
sI16
F1.0
sI17
F1.0
sI18
F1.0
sI27
F1.0
ssbsg29
g0
(g30
g2
Ntp1624
Rp1625
(dp1626
g34
I1
sbsba(ics475_types
Instance
p1627
(dp1628
g24
(ics475_types
FeatureVector
p1629
(dp1630
g27
(dp1631
I2
F32.42
sI3
F2.165
sI9
F1.0
sI13
F1.0
sI14
F120.0
sI16
F1.0
sI17
F1.0
sI18
F1.0
sI19
F1.0
sI20
F1.0
sI21
F1.0
sI24
F1.0
ssbsg29
g0
(g30
g2
Ntp1632
Rp1633
(dp1634
g34
I0
sbsba(ics475_types
Instance
p1635
(dp1636
g24
(ics475_types
FeatureVector
p1637
(dp1638
g27
(dp1639
I33
F1.0
sI2
F20.67
sI3
F1.25
sI6
F1.0
sI8
F1.375
sI10
F1.0
sI11
F3.0
sI12
F1.0
sI13
F1.0
sI14
F140.0
sI15
F210.0
sI16
F1.0
sI17
F1.0
sI18
F1.0
sI27
F1.0
ssbsg29
g0
(g30
g2
Ntp1640
Rp1641
(dp1642
g34
I0
sbsba(ics475_types
Instance
p1643
(dp1644
g24
(ics475_types
FeatureVector
p1645
(dp1646
g27
(dp1647
I33
F1.0
sI2
F39.17
sI3
F1.625
sI4
F1.0
sI5
F1.0
sI6
F1.0
sI7
F1.0
sI8
F1.5
sI10
F1.0
sI11
F10.0
sI13
F1.0
sI14
F186.0
sI15
F4700.0
sI16
F1.0
sI21
F1.0
ssbsg29
g0
(g30
g2
Ntp1648
Rp1649
(dp1650
g34
I1
sbsba(ics475_types
Instance
p1651
(dp1652
g24
(ics475_types
FeatureVector
p1653
(dp1654
g27
(dp1655
I2
F21.17
sI3
F0.25
sI6
F1.0
sI8
F0.25
sI9
F1.0
sI13
F1.0
sI14
F280.0
sI15
F204.0
sI16
F1.0
sI17
F1.0
sI18
F1.0
sI20
F1.0
sI21
F1.0
sI27
F1.0
ssbsg29
g0
(g30
g2
Ntp1656
Rp1657
(dp1658
g34
I0
sbsba(ics475_types
Instance
p1659
(dp1660
g24
(ics475_types
FeatureVector
p1661
(dp1662
g27
(dp1663
I2
F17.08
sI3
F0.25
sI4
F1.0
sI5
F1.0
sI7
F1.0
sI8
F0.335
sI9
F1.0
sI10
F1.0
sI11
F4.0
sI13
F1.0
sI14
F160.0
sI15
F8.0
sI16
F1.0
sI21
F1.0
sI30
F1.0
ssbsg29
g0
(g30
g2
Ntp1664
Rp1665
(dp1666
g34
I0
sbsba(ics475_types
Instance
p1667
(dp1668
g24
(ics475_types
FeatureVector
p1669
(dp1670
g27
(dp1671
I33
F1.0
sI2
F33.17
sI3
F3.04
sI6
F1.0
sI8
F2.04
sI10
F1.0
sI11
F1.0
sI12
F1.0
sI13
F1.0
sI14
F180.0
sI15
F18027.0
sI16
F1.0
sI17
F1.0
sI18
F1.0
sI27
F1.0
ssbsg29
g0
(g30
g2
Ntp1672
Rp1673
(dp1674
g34
I1
sbsba(ics475_types
Instance
p1675
(dp1676
g24
(ics475_types
FeatureVector
p1677
(dp1678
g27
(dp1679
I1
F1.0
sI2
F38.33
sI3
F4.415
sI4
F1.0
sI5
F1.0
sI6
F1.0
sI7
F1.0
sI8
F0.125
sI9
F1.0
sI13
F1.0
sI14
F160.0
sI20
F1.0
sI21
F1.0
ssbsg29
g0
(g30
g2
Ntp1680
Rp1681
(dp1682
g34
I0
sbsba(ics475_types
Instance
p1683
(dp1684
g24
(ics475_types
FeatureVector
p1685
(dp1686
g27
(dp1687
I1
F1.0
sI2
F33.25
sI3
F3.0
sI37
F1.0
sI7
F1.0
sI8
F2.0
sI9
F1.0
sI13
F1.0
sI14
F180.0
sI17
F1.0
sI18
F1.0
sI20
F1.0
sI21
F1.0
ssbsg29
g0
(g30
g2
Ntp1688
Rp1689
(dp1690
g34
I0
sbsba(ics475_types
Instance
p1691
(dp1692
g24
(ics475_types
FeatureVector
p1693
(dp1694
g27
(dp1695
I2
F19.5
sI3
F9.585
sI4
F1.0
sI5
F1.0
sI7
F1.0
sI8
F0.79
sI9
F1.0
sI13
F1.0
sI14
F80.0
sI15
F350.0
sI16
F1.0
sI20
F1.0
sI21
F1.0
sI37
F1.0
ssbsg29
g0
(g30
g2
Ntp1696
Rp1697
(dp1698
g34
I0
sbsba(ics475_types
Instance
p1699
(dp1700
g24
(ics475_types
FeatureVector
p1701
(dp1702
g27
(dp1703
I1
F1.0
sI2
F37.75
sI3
F5.5
sI4
F1.0
sI5
F1.0
sI7
F1.0
sI8
F0.125
sI12
F1.0
sI13
F1.0
sI14
F228.0
sI20
F1.0
sI33
F1.0
sI30
F1.0
ssbsg29
g0
(g30
g2
Ntp1704
Rp1705
(dp1706
g34
I1
sbsba(ics475_types
Instance
p1707
(dp1708
g24
(ics475_types
FeatureVector
p1709
(dp1710
g27
(dp1711
I2
F29.25
sI3
F13.0
sI4
F1.0
sI5
F1.0
sI8
F0.5
sI9
F1.0
sI13
F1.0
sI14
F228.0
sI16
F1.0
sI34
F1.0
sI20
F1.0
sI21
F1.0
sI27
F1.0
ssbsg29
g0
(g30
g2
Ntp1712
Rp1713
(dp1714
g34
I0
sbsba(ics475_types
Instance
p1715
(dp1716
g24
(ics475_types
FeatureVector
p1717
(dp1718
g27
(dp1719
I1
F1.0
sI2
F19.17
sI3
F8.585
sI4
F1.0
sI5
F1.0
sI33
F1.0
sI8
F0.75
sI10
F1.0
sI11
F7.0
sI13
F1.0
sI14
F96.0
sI21
F1.0
sI36
F1.0
sI27
F1.0
ssbsg29
g0
(g30
g2
Ntp1720
Rp1721
(dp1722
g34
I1
sbsba(ics475_types
Instance
p1723
(dp1724
g24
(ics475_types
FeatureVector
p1725
(dp1726
g27
(dp1727
I2
F20.75
sI3
F5.085
sI7
F1.0
sI8
F0.29
sI9
F1.0
sI13
F1.0
sI14
F140.0
sI15
F184.0
sI16
F1.0
sI17
F1.0
sI18
F1.0
sI20
F1.0
sI21
F1.0
sI28
F1.0
ssbsg29
g0
(g30
g2
Ntp1728
Rp1729
(dp1730
g34
I0
sbsba(ics475_types
Instance
p1731
(dp1732
g24
(ics475_types
FeatureVector
p1733
(dp1734
g27
(dp1735
I1
F1.0
sI2
F27.67
sI3
F1.5
sI4
F1.0
sI5
F1.0
sI7
F1.0
sI8
F2.0
sI14
F368.0
sI35
F1.0
sI20
F1.0
sI21
F1.0
sI22
F1.0
sI33
F1.0
ssbsg29
g0
(g30
g2
Ntp1736
Rp1737
(dp1738
g34
I0
sbsba(ics475_types
Instance
p1739
(dp1740
g24
(ics475_types
FeatureVector
p1741
(dp1742
g27
(dp1743
I33
F1.0
sI2
F39.08
sI3
F6.0
sI4
F1.0
sI5
F1.0
sI7
F1.0
sI8
F1.29
sI10
F1.0
sI11
F5.0
sI12
F1.0
sI13
F1.0
sI14
F108.0
sI15
F1097.0
sI16
F1.0
sI35
F1.0
ssbsg29
g0
(g30
g2
Ntp1744
Rp1745
(dp1746
g34
I1
sbsba(ics475_types
Instance
p1747
(dp1748
g24
(ics475_types
FeatureVector
p1749
(dp1750
g27
(dp1751
I33
F1.0
sI2
F52.5
sI3
F6.5
sI4
F1.0
sI5
F1.0
sI7
F1.0
sI8
F6.29
sI10
F1.0
sI11
F15.0
sI13
F1.0
sI15
F11202.0
sI16
F1.0
sI19
F1.0
sI21
F1.0
ssbsg29
g0
(g30
g2
Ntp1752
Rp1753
(dp1754
g34
I1
sbsba(ics475_types
Instance
p1755
(dp1756
g24
(ics475_types
FeatureVector
p1757
(dp1758
g27
(dp1759
I1
F1.0
sI2
F46.67
sI3
F0.46
sI4
F1.0
sI5
F1.0
sI33
F1.0
sI8
F0.415
sI10
F1.0
sI11
F11.0
sI12
F1.0
sI13
F1.0
sI14
F440.0
sI15
F6.0
sI36
F1.0
sI27
F1.0
ssbsg29
g0
(g30
g2
Ntp1760
Rp1761
(dp1762
g34
I1
sbsba(ics475_types
Instance
p1763
(dp1764
g24
(ics475_types
FeatureVector
p1765
(dp1766
g27
(dp1767
I2
F29.83
sI3
F2.04
sI39
F1.0
sI8
F0.04
sI9
F1.0
sI13
F1.0
sI14
F128.0
sI15
F1.0
sI16
F1.0
sI17
F1.0
sI18
F1.0
sI20
F1.0
sI21
F1.0
sI27
F1.0
ssbsg29
g0
(g30
g2
Ntp1768
Rp1769
(dp1770
g34
I0
sbsba(ics475_types
Instance
p1771
(dp1772
g24
(ics475_types
FeatureVector
p1773
(dp1774
g27
(dp1775
I1
F1.0
sI2
F38.25
sI3
F6.0
sI4
F1.0
sI5
F1.0
sI7
F1.0
sI8
F1.0
sI12
F1.0
sI13
F1.0
sI19
F1.0
sI20
F1.0
sI33
F1.0
ssbsg29
g0
(g30
g2
Ntp1776
Rp1777
(dp1778
g34
I1
sbsba(ics475_types
Instance
p1779
(dp1780
g24
(ics475_types
FeatureVector
p1781
(dp1782
g27
(dp1783
I1
F1.0
sI2
F34.83
sI3
F1.25
sI8
F0.5
sI9
F1.0
sI12
F1.0
sI13
F1.0
sI14
F160.0
sI17
F1.0
sI18
F1.0
sI20
F1.0
sI25
F1.0
sI27
F1.0
ssbsg29
g0
(g30
g2
Ntp1784
Rp1785
(dp1786
g34
I0
sbsba(ics475_types
Instance
p1787
(dp1788
g24
(ics475_types
FeatureVector
p1789
(dp1790
g27
(dp1791
I1
F1.0
sI2
F44.33
sI4
F1.0
sI5
F1.0
sI6
F1.0
sI7
F1.0
sI8
F2.5
sI13
F1.0
sI20
F1.0
sI21
F1.0
sI33
F1.0
ssbsg29
g0
(g30
g2
Ntp1792
Rp1793
(dp1794
g34
I1
sbsba(ics475_types
Instance
p1795
(dp1796
g24
(ics475_types
FeatureVector
p1797
(dp1798
g27
(dp1799
I33
F1.0
sI2
F26.75
sI3
F1.125
sI4
F1.0
sI5
F1.0
sI39
F1.0
sI8
F1.25
sI13
F1.0
sI15
F5298.0
sI16
F1.0
sI20
F1.0
sI21
F1.0
sI27
F1.0
ssbsg29
g0
(g30
g2
Ntp1800
Rp1801
(dp1802
g34
I1
sbsba(ics475_types
Instance
p1803
(dp1804
g24
(ics475_types
FeatureVector
p1805
(dp1806
g27
(dp1807
I33
F1.0
sI2
F23.0
sI3
F0.625
sI37
F1.0
sI7
F1.0
sI8
F0.125
sI13
F1.0
sI14
F180.0
sI15
F1.0
sI16
F1.0
sI17
F1.0
sI18
F1.0
sI20
F1.0
sI21
F1.0
ssbsg29
g0
(g30
g2
Ntp1808
Rp1809
(dp1810
g34
I0
sbsba(ics475_types
Instance
p1811
(dp1812
g24
(ics475_types
FeatureVector
p1813
(dp1814
g27
(dp1815
I32
F1.0
sI1
F1.0
sI2
F58.42
sI3
F21.0
sI4
F1.0
sI5
F1.0
sI33
F1.0
sI8
F10.0
sI10
F1.0
sI11
F13.0
sI13
F1.0
sI15
F6700.0
sI21
F1.0
sI25
F1.0
ssbsg29
g0
(g30
g2
Ntp1816
Rp1817
(dp1818
g34
I1
sbsba(ics475_types
Instance
p1819
(dp1820
g24
(ics475_types
FeatureVector
p1821
(dp1822
g27
(dp1823
I1
F1.0
sI2
F28.58
sI3
F1.665
sI4
F1.0
sI5
F1.0
sI7
F1.0
sI8
F2.415
sI12
F1.0
sI13
F1.0
sI14
F440.0
sI20
F1.0
sI33
F1.0
sI30
F1.0
ssbsg29
g0
(g30
g2
Ntp1824
Rp1825
(dp1826
g34
I0
sbsba(ics475_types
Instance
p1827
(dp1828
g24
(ics475_types
FeatureVector
p1829
(dp1830
g27
(dp1831
I2
F20.0
sI3
F7.0
sI4
F1.0
sI5
F1.0
sI6
F1.0
sI7
F1.0
sI8
F0.5
sI9
F1.0
sI13
F1.0
sI16
F1.0
sI20
F1.0
sI21
F1.0
ssbsg29
g0
(g30
g2
Ntp1832
Rp1833
(dp1834
g34
I0
sbsba(ics475_types
Instance
p1835
(dp1836
g24
(ics475_types
FeatureVector
p1837
(dp1838
g27
(dp1839
I1
F1.0
sI2
F48.17
sI3
F1.335
sI4
F1.0
sI5
F1.0
sI8
F0.335
sI9
F1.0
sI13
F1.0
sI15
F120.0
sI20
F1.0
sI21
F1.0
sI25
F1.0
sI26
F1.0
ssbsg29
g0
(g30
g2
Ntp1840
Rp1841
(dp1842
g34
I0
sbsba(ics475_types
Instance
p1843
(dp1844
g24
(ics475_types
FeatureVector
p1845
(dp1846
g27
(dp1847
I33
F1.0
sI2
F22.33
sI3
F11.0
sI4
F1.0
sI5
F1.0
sI7
F1.0
sI8
F2.0
sI10
F1.0
sI11
F1.0
sI13
F1.0
sI14
F80.0
sI15
F278.0
sI16
F1.0
sI21
F1.0
sI31
F1.0
ssbsg29
g0
(g30
g2
Ntp1848
Rp1849
(dp1850
g34
I1
sbsba(ics475_types
Instance
p1851
(dp1852
g24
(ics475_types
FeatureVector
p1853
(dp1854
g27
(dp1855
I2
F21.92
sI3
F0.5
sI4
F1.0
sI5
F1.0
sI6
F1.0
sI7
F1.0
sI8
F0.125
sI9
F1.0
sI13
F1.0
sI14
F360.0
sI16
F1.0
sI20
F1.0
sI21
F1.0
ssbsg29
g0
(g30
g2
Ntp1856
Rp1857
(dp1858
g34
I0
sbsba(ics475_types
Instance
p1859
(dp1860
g24
(ics475_types
FeatureVector
p1861
(dp1862
g27
(dp1863
I1
F1.0
sI2
F23.75
sI3
F0.71
sI4
F1.0
sI5
F1.0
sI7
F1.0
sI8
F0.25
sI9
F1.0
sI10
F1.0
sI11
F1.0
sI12
F1.0
sI13
F1.0
sI14
F240.0
sI15
F4.0
sI31
F1.0
ssbsg29
g0
(g30
g2
Ntp1864
Rp1865
(dp1866
g34
I0
sbsba(ics475_types
Instance
p1867
(dp1868
g24
(ics475_types
FeatureVector
p1869
(dp1870
g27
(dp1871
I33
F1.0
sI2
F33.17
sI3
F1.0
sI4
F1.0
sI5
F1.0
sI7
F1.0
sI8
F0.75
sI10
F1.0
sI11
F7.0
sI12
F1.0
sI13
F1.0
sI14
F340.0
sI15
F4071.0
sI16
F1.0
sI39
F1.0
ssbsg29
g0
(g30
g2
Ntp1872
Rp1873
(dp1874
g34
I1
sbsba(ics475_types
Instance
p1875
(dp1876
g24
(ics475_types
FeatureVector
p1877
(dp1878
g27
(dp1879
I1
F1.0
sI2
F27.33
sI3
F1.665
sI4
F1.0
sI5
F1.0
sI9
F1.0
sI13
F1.0
sI14
F340.0
sI15
F1.0
sI20
F1.0
sI21
F1.0
sI23
F1.0
sI24
F1.0
ssbsg29
g0
(g30
g2
Ntp1880
Rp1881
(dp1882
g34
I0
sbsba(ics475_types
Instance
p1883
(dp1884
g24
(ics475_types
FeatureVector
p1885
(dp1886
g27
(dp1887
I1
F1.0
sI2
F25.25
sI3
F13.5
sI8
F2.0
sI9
F1.0
sI10
F1.0
sI11
F1.0
sI12
F1.0
sI13
F1.0
sI14
F200.0
sI15
F1.0
sI17
F1.0
sI18
F1.0
sI23
F1.0
sI24
F1.0
ssbsg29
g0
(g30
g2
Ntp1888
Rp1889
(dp1890
g34
I0
sbsba(ics475_types
Instance
p1891
(dp1892
g24
(ics475_types
FeatureVector
p1893
(dp1894
g27
(dp1895
I2
F21.83
sI3
F1.54
sI4
F1.0
sI5
F1.0
sI7
F1.0
sI8
F0.085
sI9
F1.0
sI12
F1.0
sI13
F1.0
sI14
F356.0
sI16
F1.0
sI19
F1.0
sI20
F1.0
ssbsg29
g0
(g30
g2
Ntp1896
Rp1897
(dp1898
g34
I0
sbsba(ics475_types
Instance
p1899
(dp1900
g24
(ics475_types
FeatureVector
p1901
(dp1902
g27
(dp1903
I2
F22.08
sI3
F0.83
sI4
F1.0
sI5
F1.0
sI6
F1.0
sI8
F2.165
sI9
F1.0
sI12
F1.0
sI13
F1.0
sI14
F128.0
sI16
F1.0
sI20
F1.0
sI27
F1.0
ssbsg29
g0
(g30
g2
Ntp1904
Rp1905
(dp1906
g34
I1
sbsba(ics475_types
Instance
p1907
(dp1908
g24
(ics475_types
FeatureVector
p1909
(dp1910
g27
(dp1911
I33
F1.0
sI2
F19.33
sI3
F9.5
sI4
F1.0
sI5
F1.0
sI7
F1.0
sI8
F1.0
sI12
F1.0
sI13
F1.0
sI14
F60.0
sI15
F400.0
sI16
F1.0
sI20
F1.0
sI30
F1.0
ssbsg29
g0
(g30
g2
Ntp1912
Rp1913
(dp1914
g34
I1
sbsba(ics475_types
Instance
p1915
(dp1916
g24
(ics475_types
FeatureVector
p1917
(dp1918
g27
(dp1919
I2
F49.17
sI3
F2.29
sI4
F1.0
sI5
F1.0
sI8
F0.29
sI9
F1.0
sI13
F1.0
sI14
F200.0
sI15
F3.0
sI16
F1.0
sI20
F1.0
sI21
F1.0
sI23
F1.0
sI24
F1.0
ssbsg29
g0
(g30
g2
Ntp1920
Rp1921
(dp1922
g34
I0
sbsba(ics475_types
Instance
p1923
(dp1924
g24
(ics475_types
FeatureVector
p1925
(dp1926
g27
(dp1927
I33
F1.0
sI2
F23.08
sI3
F11.5
sI4
F1.0
sI5
F1.0
sI7
F1.0
sI8
F3.5
sI10
F1.0
sI11
F9.0
sI13
F1.0
sI14
F56.0
sI15
F742.0
sI16
F1.0
sI21
F1.0
sI25
F1.0
ssbsg29
g0
(g30
g2
Ntp1928
Rp1929
(dp1930
g34
I1
sbsba(ics475_types
Instance
p1931
(dp1932
g24
(ics475_types
FeatureVector
p1933
(dp1934
g27
(dp1935
I1
F1.0
sI2
F60.58
sI3
F16.5
sI4
F1.0
sI5
F1.0
sI7
F1.0
sI8
F11.0
sI12
F1.0
sI13
F1.0
sI14
F21.0
sI15
F10561.0
sI20
F1.0
sI33
F1.0
sI30
F1.0
ssbsg29
g0
(g30
g2
Ntp1936
Rp1937
(dp1938
g34
I1
sbsba(ics475_types
Instance
p1939
(dp1940
g24
(ics475_types
FeatureVector
p1941
(dp1942
g27
(dp1943
I33
F1.0
sI2
F19.67
sI3
F0.375
sI4
F1.0
sI5
F1.0
sI7
F1.0
sI8
F2.0
sI10
F1.0
sI11
F2.0
sI12
F1.0
sI13
F1.0
sI14
F80.0
sI16
F1.0
sI30
F1.0
ssbsg29
g0
(g30
g2
Ntp1944
Rp1945
(dp1946
g34
I1
sbsba(ics475_types
Instance
p1947
(dp1948
g24
(ics475_types
FeatureVector
p1949
(dp1950
g27
(dp1951
I33
F1.0
sI2
F20.17
sI3
F8.17
sI4
F1.0
sI5
F1.0
sI7
F1.0
sI8
F1.96
sI10
F1.0
sI11
F14.0
sI13
F1.0
sI14
F60.0
sI15
F158.0
sI16
F1.0
sI21
F1.0
sI37
F1.0
ssbsg29
g0
(g30
g2
Ntp1952
Rp1953
(dp1954
g34
I1
sbsba(ics475_types
Instance
p1955
(dp1956
g24
(ics475_types
FeatureVector
p1957
(dp1958
g27
(dp1959
I33
F1.0
sI2
F34.25
sI3
F3.0
sI4
F1.0
sI5
F1.0
sI8
F7.415
sI12
F1.0
sI13
F1.0
sI16
F1.0
sI20
F1.0
sI36
F1.0
sI27
F1.0
ssbsg29
g0
(g30
g2
Ntp1960
Rp1961
(dp1962
g34
I1
sbsba(ics475_types
Instance
p1963
(dp1964
g24
(ics475_types
FeatureVector
p1965
(dp1966
g27
(dp1967
I2
F18.17
sI3
F2.46
sI4
F1.0
sI5
F1.0
sI6
F1.0
sI8
F0.96
sI9
F1.0
sI10
F1.0
sI11
F2.0
sI12
F1.0
sI13
F1.0
sI14
F160.0
sI15
F587.0
sI16
F1.0
sI40
F1.0
ssbsg29
g0
(g30
g2
Ntp1968
Rp1969
(dp1970
g34
I0
sbsba(ics475_types
Instance
p1971
(dp1972
g24
(ics475_types
FeatureVector
p1973
(dp1974
g27
(dp1975
I33
F1.0
sI2
F27.67
sI3
F2.0
sI4
F1.0
sI5
F1.0
sI39
F1.0
sI8
F1.0
sI10
F1.0
sI11
F4.0
sI13
F1.0
sI14
F140.0
sI15
F7544.0
sI16
F1.0
sI21
F1.0
sI27
F1.0
ssbsg29
g0
(g30
g2
Ntp1976
Rp1977
(dp1978
g34
I1
sbsba(ics475_types
Instance
p1979
(dp1980
g24
(ics475_types
FeatureVector
p1981
(dp1982
g27
(dp1983
I33
F1.0
sI2
F36.33
sI3
F2.125
sI7
F1.0
sI8
F0.085
sI10
F1.0
sI11
F1.0
sI13
F1.0
sI14
F50.0
sI15
F1187.0
sI16
F1.0
sI17
F1.0
sI18
F1.0
sI21
F1.0
sI31
F1.0
ssbsg29
g0
(g30
g2
Ntp1984
Rp1985
(dp1986
g34
I1
sbsba(ics475_types
Instance
p1987
(dp1988
g24
(ics475_types
FeatureVector
p1989
(dp1990
g27
(dp1991
I2
F20.0
sI3
F1.25
sI7
F1.0
sI8
F0.125
sI9
F1.0
sI13
F1.0
sI14
F140.0
sI15
F4.0
sI16
F1.0
sI17
F1.0
sI18
F1.0
sI19
F1.0
sI20
F1.0
sI21
F1.0
ssbsg29
g0
(g30
g2
Ntp1992
Rp1993
(dp1994
g34
I0
sbsba(ics475_types
Instance
p1995
(dp1996
g24
(ics475_types
FeatureVector
p1997
(dp1998
g27
(dp1999
I1
F1.0
sI2
F22.67
sI3
F0.75
sI4
F1.0
sI5
F1.0
sI6
F1.0
sI7
F1.0
sI8
F2.0
sI9
F1.0
sI10
F1.0
sI11
F2.0
sI12
F1.0
sI13
F1.0
sI14
F200.0
sI15
F394.0
ssbsg29
g0
(g30
g2
Ntp2000
Rp2001
(dp2002
g34
I0
sbsba(ics475_types
Instance
p2003
(dp2004
g24
(ics475_types
FeatureVector
p2005
(dp2006
g27
(dp2007
I2
F21.42
sI3
F0.75
sI38
F1.0
sI8
F0.75
sI9
F1.0
sI12
F1.0
sI13
F1.0
sI14
F132.0
sI15
F2.0
sI16
F1.0
sI17
F1.0
sI18
F1.0
sI20
F1.0
sI40
F1.0
ssbsg29
g0
(g30
g2
Ntp2008
Rp2009
(dp2010
g34
I0
sbsba(ics475_types
Instance
p2011
(dp2012
g24
(ics475_types
FeatureVector
p2013
(dp2014
g27
(dp2015
I2
F18.0
sI3
F0.165
sI4
F1.0
sI5
F1.0
sI8
F0.21
sI9
F1.0
sI13
F1.0
sI14
F200.0
sI15
F40.0
sI16
F1.0
sI40
F1.0
sI20
F1.0
sI21
F1.0
sI30
F1.0
ssbsg29
g0
(g30
g2
Ntp2016
Rp2017
(dp2018
g34
I1
sbsba(ics475_types
Instance
p2019
(dp2020
g24
(ics475_types
FeatureVector
p2021
(dp2022
g27
(dp2023
I2
F23.5
sI3
F3.165
sI7
F1.0
sI8
F0.415
sI9
F1.0
sI10
F1.0
sI11
F1.0
sI12
F1.0
sI13
F1.0
sI14
F280.0
sI15
F80.0
sI16
F1.0
sI17
F1.0
sI18
F1.0
sI19
F1.0
ssbsg29
g0
(g30
g2
Ntp2024
Rp2025
(dp2026
g34
I0
sbsba(ics475_types
Instance
p2027
(dp2028
g24
(ics475_types
FeatureVector
p2029
(dp2030
g27
(dp2031
I1
F1.0
sI2
F24.75
sI3
F12.5
sI4
F1.0
sI5
F1.0
sI7
F1.0
sI8
F1.5
sI10
F1.0
sI11
F12.0
sI12
F1.0
sI13
F1.0
sI14
F120.0
sI15
F567.0
sI33
F1.0
sI37
F1.0
ssbsg29
g0
(g30
g2
Ntp2032
Rp2033
(dp2034
g34
I1
sbsba(ics475_types
Instance
p2035
(dp2036
g24
(ics475_types
FeatureVector
p2037
(dp2038
g27
(dp2039
I2
F24.08
sI3
F9.0
sI4
F1.0
sI5
F1.0
sI7
F1.0
sI8
F0.25
sI9
F1.0
sI12
F1.0
sI13
F1.0
sI16
F1.0
sI20
F1.0
sI37
F1.0
ssbsg29
g0
(g30
g2
Ntp2040
Rp2041
(dp2042
g34
I0
sbsba(ics475_types
Instance
p2043
(dp2044
g24
(ics475_types
FeatureVector
p2045
(dp2046
g27
(dp2047
I33
F1.0
sI2
F48.58
sI3
F0.205
sI7
F1.0
sI8
F0.25
sI10
F1.0
sI11
F11.0
sI13
F1.0
sI14
F380.0
sI15
F2732.0
sI16
F1.0
sI17
F1.0
sI18
F1.0
sI19
F1.0
sI21
F1.0
ssbsg29
g0
(g30
g2
Ntp2048
Rp2049
(dp2050
g34
I1
sbsba(ics475_types
Instance
p2051
(dp2052
g24
(ics475_types
FeatureVector
p2053
(dp2054
g27
(dp2055
I33
F1.0
sI2
F52.33
sI3
F1.375
sI6
F1.0
sI8
F9.46
sI12
F1.0
sI13
F1.0
sI14
F200.0
sI15
F100.0
sI16
F1.0
sI17
F1.0
sI18
F1.0
sI20
F1.0
sI27
F1.0
ssbsg29
g0
(g30
g2
Ntp2056
Rp2057
(dp2058
g34
I0
sbsba(ics475_types
Instance
p2059
(dp2060
g24
(ics475_types
FeatureVector
p2061
(dp2062
g27
(dp2063
I2
F25.67
sI3
F3.25
sI4
F1.0
sI5
F1.0
sI6
F1.0
sI8
F2.29
sI9
F1.0
sI10
F1.0
sI11
F1.0
sI12
F1.0
sI13
F1.0
sI14
F416.0
sI15
F21.0
sI16
F1.0
sI27
F1.0
ssbsg29
g0
(g30
g2
Ntp2064
Rp2065
(dp2066
g34
I0
sbsba(ics475_types
Instance
p2067
(dp2068
g24
(ics475_types
FeatureVector
p2069
(dp2070
g27
(dp2071
I1
F1.0
sI2
F21.08
sI3
F5.0
sI9
F1.0
sI13
F1.0
sI17
F1.0
sI18
F1.0
sI20
F1.0
sI21
F1.0
sI23
F1.0
sI24
F1.0
ssbsg29
g0
(g30
g2
Ntp2072
Rp2073
(dp2074
g34
I0
sbsba(ics475_types
Instance
p2075
(dp2076
g24
(ics475_types
FeatureVector
p2077
(dp2078
g27
(dp2079
I33
F1.0
sI2
F26.0
sI3
F1.0
sI4
F1.0
sI5
F1.0
sI7
F1.0
sI8
F1.75
sI12
F1.0
sI13
F1.0
sI14
F280.0
sI16
F1.0
sI20
F1.0
sI30
F1.0
ssbsg29
g0
(g30
g2
Ntp2080
Rp2081
(dp2082
g34
I1
sbsba(ics475_types
Instance
p2083
(dp2084
g24
(ics475_types
FeatureVector
p2085
(dp2086
g27
(dp2087
I2
F69.17
sI3
F9.0
sI4
F1.0
sI5
F1.0
sI8
F4.0
sI9
F1.0
sI10
F1.0
sI11
F1.0
sI13
F1.0
sI14
F70.0
sI15
F6.0
sI16
F1.0
sI21
F1.0
sI23
F1.0
sI24
F1.0
ssbsg29
g0
(g30
g2
Ntp2088
Rp2089
(dp2090
g34
I0
sbsba(ics475_types
Instance
p2091
(dp2092
g24
(ics475_types
FeatureVector
p2093
(dp2094
g27
(dp2095
I33
F1.0
sI2
F20.17
sI3
F5.625
sI4
F1.0
sI5
F1.0
sI7
F1.0
sI8
F1.71
sI14
F120.0
sI16
F1.0
sI20
F1.0
sI21
F1.0
sI22
F1.0
sI31
F1.0
ssbsg29
g0
(g30
g2
Ntp2096
Rp2097
(dp2098
g34
I1
sbsba(ics475_types
Instance
p2099
(dp2100
g24
(ics475_types
FeatureVector
p2101
(dp2102
g27
(dp2103
I33
F1.0
sI2
F25.67
sI3
F12.5
sI4
F1.0
sI5
F1.0
sI7
F1.0
sI8
F1.21
sI10
F1.0
sI11
F67.0
sI12
F1.0
sI13
F1.0
sI14
F140.0
sI15
F258.0
sI16
F1.0
sI36
F1.0
ssbsg29
g0
(g30
g2
Ntp2104
Rp2105
(dp2106
g34
I1
sbsba(ics475_types
Instance
p2107
(dp2108
g24
(ics475_types
FeatureVector
p2109
(dp2110
g27
(dp2111
I1
F1.0
sI2
F20.33
sI3
F10.0
sI4
F1.0
sI5
F1.0
sI6
F1.0
sI33
F1.0
sI8
F1.0
sI10
F1.0
sI11
F4.0
sI13
F1.0
sI14
F50.0
sI15
F1465.0
sI21
F1.0
sI27
F1.0
ssbsg29
g0
(g30
g2
Ntp2112
Rp2113
(dp2114
g34
I1
sbsba(ics475_types
Instance
p2115
(dp2116
g24
(ics475_types
FeatureVector
p2117
(dp2118
g27
(dp2119
I2
F74.83
sI3
F19.0
sI8
F0.04
sI9
F1.0
sI10
F1.0
sI11
F2.0
sI13
F1.0
sI15
F351.0
sI16
F1.0
sI17
F1.0
sI18
F1.0
sI21
F1.0
sI23
F1.0
sI24
F1.0
ssbsg29
g0
(g30
g2
Ntp2120
Rp2121
(dp2122
g34
I0
sbsba(ics475_types
Instance
p2123
(dp2124
g24
(ics475_types
FeatureVector
p2125
(dp2126
g27
(dp2127
I32
F1.0
sI33
F1.0
sI2
F32.33
sI3
F7.5
sI4
F1.0
sI5
F1.0
sI8
F1.585
sI41
F1.0
sI12
F1.0
sI14
F420.0
sI16
F1.0
sI20
F1.0
sI22
F1.0
ssbsg29
g0
(g30
g2
Ntp2128
Rp2129
(dp2130
g34
I0
sbsba(ics475_types
Instance
p2131
(dp2132
g24
(ics475_types
FeatureVector
p2133
(dp2134
g27
(dp2135
I2
F35.17
sI3
F4.5
sI4
F1.0
sI5
F1.0
sI39
F1.0
sI8
F5.75
sI9
F1.0
sI12
F1.0
sI14
F711.0
sI16
F1.0
sI20
F1.0
sI22
F1.0
sI27
F1.0
ssbsg29
g0
(g30
g2
Ntp2136
Rp2137
(dp2138
g34
I1
sbsba(ics475_types
Instance
p2139
(dp2140
g24
(ics475_types
FeatureVector
p2141
(dp2142
g27
(dp2143
I33
F1.0
sI2
F27.83
sI3
F1.5
sI4
F1.0
sI5
F1.0
sI7
F1.0
sI8
F2.0
sI10
F1.0
sI11
F11.0
sI12
F1.0
sI13
F1.0
sI14
F434.0
sI15
F35.0
sI16
F1.0
sI31
F1.0
ssbsg29
g0
(g30
g2
Ntp2144
Rp2145
(dp2146
g34
I1
sbsba(ics475_types
Instance
p2147
(dp2148
g24
(ics475_types
FeatureVector
p2149
(dp2150
g27
(dp2151
I2
F42.83
sI3
F1.25
sI4
F1.0
sI5
F1.0
sI7
F1.0
sI8
F13.875
sI9
F1.0
sI10
F1.0
sI11
F1.0
sI12
F1.0
sI13
F1.0
sI14
F352.0
sI15
F112.0
sI16
F1.0
sI35
F1.0
ssbsg29
g0
(g30
g2
Ntp2152
Rp2153
(dp2154
g34
I0
sbsba(ics475_types
Instance
p2155
(dp2156
g24
(ics475_types
FeatureVector
p2157
(dp2158
g27
(dp2159
I1
F1.0
sI2
F56.5
sI3
F16.0
sI4
F1.0
sI5
F1.0
sI33
F1.0
sI10
F1.0
sI11
F15.0
sI13
F1.0
sI15
F247.0
sI21
F1.0
sI24
F1.0
sI28
F1.0
ssbsg29
g0
(g30
g2
Ntp2160
Rp2161
(dp2162
g34
I1
sbsba(ics475_types
Instance
p2163
(dp2164
g24
(ics475_types
FeatureVector
p2165
(dp2166
g27
(dp2167
I2
F26.75
sI3
F2.0
sI4
F1.0
sI5
F1.0
sI7
F1.0
sI8
F0.75
sI9
F1.0
sI12
F1.0
sI13
F1.0
sI14
F80.0
sI16
F1.0
sI34
F1.0
sI20
F1.0
ssbsg29
g0
(g30
g2
Ntp2168
Rp2169
(dp2170
g34
I0
sbsba(ics475_types
Instance
p2171
(dp2172
g24
(ics475_types
FeatureVector
p2173
(dp2174
g27
(dp2175
I2
F33.67
sI3
F1.25
sI4
F1.0
sI5
F1.0
sI7
F1.0
sI8
F1.165
sI9
F1.0
sI13
F1.0
sI14
F120.0
sI16
F1.0
sI20
F1.0
sI21
F1.0
sI31
F1.0
ssbsg29
g0
(g30
g2
Ntp2176
Rp2177
(dp2178
g34
I0
sbsba(ics475_types
Instance
p2179
(dp2180
g24
(ics475_types
FeatureVector
p2181
(dp2182
g27
(dp2183
I1
F1.0
sI2
F57.58
sI3
F2.0
sI4
F1.0
sI5
F1.0
sI8
F6.5
sI9
F1.0
sI10
F1.0
sI11
F1.0
sI13
F1.0
sI15
F10.0
sI21
F1.0
sI23
F1.0
sI24
F1.0
ssbsg29
g0
(g30
g2
Ntp2184
Rp2185
(dp2186
g34
I0
sbsba(ics475_types
Instance
p2187
(dp2188
g24
(ics475_types
FeatureVector
p2189
(dp2190
g27
(dp2191
I1
F1.0
sI2
F16.0
sI3
F0.165
sI4
F1.0
sI5
F1.0
sI7
F1.0
sI8
F1.0
sI9
F1.0
sI10
F1.0
sI11
F2.0
sI12
F1.0
sI13
F1.0
sI14
F320.0
sI15
F1.0
sI37
F1.0
ssbsg29
g0
(g30
g2
Ntp2192
Rp2193
(dp2194
g34
I0
sbsba(ics475_types
Instance
p2195
(dp2196
g24
(ics475_types
FeatureVector
p2197
(dp2198
g27
(dp2199
I32
F1.0
sI2
F48.08
sI3
F3.75
sI4
F1.0
sI5
F1.0
sI8
F1.0
sI9
F1.0
sI13
F1.0
sI14
F100.0
sI15
F2.0
sI16
F1.0
sI20
F1.0
sI21
F1.0
sI25
F1.0
ssbsg29
g0
(g30
g2
Ntp2200
Rp2201
(dp2202
g34
I0
sbsba(ics475_types
Instance
p2203
(dp2204
g24
(ics475_types
FeatureVector
p2205
(dp2206
g27
(dp2207
I33
F1.0
sI2
F25.08
sI3
F1.71
sI4
F1.0
sI5
F1.0
sI7
F1.0
sI8
F1.665
sI10
F1.0
sI11
F1.0
sI12
F1.0
sI13
F1.0
sI14
F395.0
sI15
F20.0
sI16
F1.0
sI39
F1.0
ssbsg29
g0
(g30
g2
Ntp2208
Rp2209
(dp2210
g34
I1
sbsba(ics475_types
Instance
p2211
(dp2212
g24
(ics475_types
FeatureVector
p2213
(dp2214
g27
(dp2215
I1
F1.0
sI2
F19.17
sI3
F0.585
sI33
F1.0
sI7
F1.0
sI8
F0.585
sI12
F1.0
sI13
F1.0
sI14
F160.0
sI17
F1.0
sI18
F1.0
sI20
F1.0
sI37
F1.0
ssbsg29
g0
(g30
g2
Ntp2216
Rp2217
(dp2218
g34
I0
sbsba(ics475_types
Instance
p2219
(dp2220
g24
(ics475_types
FeatureVector
p2221
(dp2222
g27
(dp2223
I1
F1.0
sI2
F19.67
sI3
F0.21
sI4
F1.0
sI5
F1.0
sI33
F1.0
sI8
F0.29
sI10
F1.0
sI11
F11.0
sI13
F1.0
sI14
F80.0
sI15
F99.0
sI21
F1.0
sI27
F1.0
sI30
F1.0
ssbsg29
g0
(g30
g2
Ntp2224
Rp2225
(dp2226
g34
I1
sbsba(ics475_types
Instance
p2227
(dp2228
g24
(ics475_types
FeatureVector
p2229
(dp2230
g27
(dp2231
I33
F1.0
sI2
F56.42
sI3
F28.0
sI6
F1.0
sI7
F1.0
sI8
F28.5
sI10
F1.0
sI11
F40.0
sI13
F1.0
sI15
F15.0
sI16
F1.0
sI17
F1.0
sI18
F1.0
sI21
F1.0
ssbsg29
g0
(g30
g2
Ntp2232
Rp2233
(dp2234
g34
I1
sbsba(ics475_types
Instance
p2235
(dp2236
g24
(ics475_types
FeatureVector
p2237
(dp2238
g27
(dp2239
I33
F1.0
sI2
F28.75
sI3
F1.165
sI4
F1.0
sI5
F1.0
sI7
F1.0
sI8
F0.5
sI14
F280.0
sI16
F1.0
sI19
F1.0
sI20
F1.0
sI21
F1.0
sI22
F1.0
ssbsg29
g0
(g30
g2
Ntp2240
Rp2241
(dp2242
g34
I0
sbsba(ics475_types
Instance
p2243
(dp2244
g24
(ics475_types
FeatureVector
p2245
(dp2246
g27
(dp2247
I2
F36.5
sI3
F4.25
sI4
F1.0
sI5
F1.0
sI7
F1.0
sI8
F3.5
sI9
F1.0
sI13
F1.0
sI14
F454.0
sI15
F50.0
sI16
F1.0
sI20
F1.0
sI21
F1.0
sI30
F1.0
ssbsg29
g0
(g30
g2
Ntp2248
Rp2249
(dp2250
g34
I0
sbsba(ics475_types
Instance
p2251
(dp2252
g24
(ics475_types
FeatureVector
p2253
(dp2254
g27
(dp2255
I33
F1.0
sI2
F24.42
sI3
F12.335
sI4
F1.0
sI5
F1.0
sI8
F1.585
sI12
F1.0
sI13
F1.0
sI14
F120.0
sI16
F1.0
sI20
F1.0
sI27
F1.0
sI30
F1.0
ssbsg29
g0
(g30
g2
Ntp2256
Rp2257
(dp2258
g34
I1
sbsba(ics475_types
Instance
p2259
(dp2260
g24
(ics475_types
FeatureVector
p2261
(dp2262
g27
(dp2263
I2
F62.75
sI3
F7.0
sI4
F1.0
sI5
F1.0
sI9
F1.0
sI42
F1.0
sI13
F1.0
sI15
F12.0
sI16
F1.0
sI20
F1.0
sI21
F1.0
sI41
F1.0
ssbsg29
g0
(g30
g2
Ntp2264
Rp2265
(dp2266
g34
I0
sbsba(ics475_types
Instance
p2267
(dp2268
g24
(ics475_types
FeatureVector
p2269
(dp2270
g27
(dp2271
I1
F1.0
sI2
F15.83
sI3
F7.625
sI4
F1.0
sI5
F1.0
sI7
F1.0
sI8
F0.125
sI9
F1.0
sI10
F1.0
sI11
F1.0
sI12
F1.0
sI13
F1.0
sI15
F160.0
sI30
F1.0
ssbsg29
g0
(g30
g2
Ntp2272
Rp2273
(dp2274
g34
I0
sbsba(ics475_types
Instance
p2275
(dp2276
g24
(ics475_types
FeatureVector
p2277
(dp2278
g27
(dp2279
I32
F1.0
sI1
F1.0
sI2
F51.92
sI3
F6.5
sI4
F1.0
sI5
F1.0
sI8
F3.085
sI9
F1.0
sI12
F1.0
sI13
F1.0
sI14
F73.0
sI20
F1.0
sI25
F1.0
ssbsg29
g0
(g30
g2
Ntp2280
Rp2281
(dp2282
g34
I0
sbsba(ics475_types
Instance
p2283
(dp2284
g24
(ics475_types
FeatureVector
p2285
(dp2286
g27
(dp2287
I1
F1.0
sI2
F26.58
sI3
F2.54
sI9
F1.0
sI12
F1.0
sI13
F1.0
sI14
F180.0
sI15
F60.0
sI17
F1.0
sI18
F1.0
sI20
F1.0
sI23
F1.0
sI24
F1.0
ssbsg29
g0
(g30
g2
Ntp2288
Rp2289
(dp2290
g34
I0
sbsba(ics475_types
Instance
p2291
(dp2292
g24
(ics475_types
FeatureVector
p2293
(dp2294
g27
(dp2295
I33
F1.0
sI2
F44.33
sI3
F0.5
sI4
F1.0
sI5
F1.0
sI8
F5.0
sI12
F1.0
sI13
F1.0
sI14
F320.0
sI16
F1.0
sI20
F1.0
sI25
F1.0
sI27
F1.0
ssbsg29
g0
(g30
g2
Ntp2296
Rp2297
(dp2298
g34
I1
sbsba(ics475_types
Instance
p2299
(dp2300
g24
(ics475_types
FeatureVector
p2301
(dp2302
g27
(dp2303
I1
F1.0
sI2
F29.5
sI3
F1.085
sI7
F1.0
sI8
F1.0
sI9
F1.0
sI39
F1.0
sI13
F1.0
sI14
F280.0
sI15
F13.0
sI17
F1.0
sI18
F1.0
sI20
F1.0
sI21
F1.0
ssbsg29
g0
(g30
g2
Ntp2304
Rp2305
(dp2306
g34
I0
sbsba(ics475_types
Instance
p2307
(dp2308
g24
(ics475_types
FeatureVector
p2309
(dp2310
g27
(dp2311
I2
F20.67
sI3
F0.835
sI6
F1.0
sI7
F1.0
sI8
F2.0
sI9
F1.0
sI12
F1.0
sI14
F240.0
sI16
F1.0
sI17
F1.0
sI18
F1.0
sI20
F1.0
sI22
F1.0
ssbsg29
g0
(g30
g2
Ntp2312
Rp2313
(dp2314
g34
I0
sbsba(ics475_types
Instance
p2315
(dp2316
g24
(ics475_types
FeatureVector
p2317
(dp2318
g27
(dp2319
I32
F1.0
sI33
F1.0
sI2
F42.75
sI3
F3.0
sI4
F1.0
sI5
F1.0
sI8
F1.0
sI13
F1.0
sI15
F200.0
sI16
F1.0
sI20
F1.0
sI21
F1.0
sI25
F1.0
ssbsg29
g0
(g30
g2
Ntp2320
Rp2321
(dp2322
g34
I0
sbsba(ics475_types
Instance
p2323
(dp2324
g24
(ics475_types
FeatureVector
p2325
(dp2326
g27
(dp2327
I33
F1.0
sI2
F24.17
sI3
F0.875
sI4
F1.0
sI5
F1.0
sI7
F1.0
sI8
F4.625
sI10
F1.0
sI11
F2.0
sI12
F1.0
sI13
F1.0
sI14
F520.0
sI15
F2000.0
sI16
F1.0
sI30
F1.0
ssbsg29
g0
(g30
g2
Ntp2328
Rp2329
(dp2330
g34
I1
sbsba(ics475_types
Instance
p2331
(dp2332
g24
(ics475_types
FeatureVector
p2333
(dp2334
g27
(dp2335
I33
F1.0
sI2
F60.08
sI3
F14.5
sI4
F1.0
sI5
F1.0
sI8
F18.0
sI10
F1.0
sI11
F15.0
sI12
F1.0
sI13
F1.0
sI15
F1000.0
sI16
F1.0
sI23
F1.0
sI24
F1.0
ssbsg29
g0
(g30
g2
Ntp2336
Rp2337
(dp2338
g34
I1
sbsba(ics475_types
Instance
p2339
(dp2340
g24
(ics475_types
FeatureVector
p2341
(dp2342
g27
(dp2343
I33
F1.0
sI2
F34.08
sI3
F6.5
sI4
F1.0
sI5
F1.0
sI7
F1.0
sI8
F0.125
sI12
F1.0
sI13
F1.0
sI14
F443.0
sI16
F1.0
sI20
F1.0
sI37
F1.0
ssbsg29
g0
(g30
g2
Ntp2344
Rp2345
(dp2346
g34
I0
sbsba(ics475_types
Instance
p2347
(dp2348
g24
(ics475_types
FeatureVector
p2349
(dp2350
g27
(dp2351
I32
F1.0
sI2
F34.0
sI3
F5.085
sI8
F1.085
sI9
F1.0
sI12
F1.0
sI13
F1.0
sI14
F480.0
sI16
F1.0
sI17
F1.0
sI18
F1.0
sI20
F1.0
sI25
F1.0
ssbsg29
g0
(g30
g2
Ntp2352
Rp2353
(dp2354
g34
I0
sbsba(ics475_types
Instance
p2355
(dp2356
g24
(ics475_types
FeatureVector
p2357
(dp2358
g27
(dp2359
I33
F1.0
sI2
F41.75
sI3
F0.96
sI4
F1.0
sI5
F1.0
sI7
F1.0
sI8
F2.5
sI39
F1.0
sI13
F1.0
sI14
F510.0
sI15
F600.0
sI16
F1.0
sI20
F1.0
sI21
F1.0
ssbsg29
g0
(g30
g2
Ntp2360
Rp2361
(dp2362
g34
I1
sbsba(ics475_types
Instance
p2363
(dp2364
g24
(ics475_types
FeatureVector
p2365
(dp2366
g27
(dp2367
I33
F1.0
sI2
F19.42
sI3
F6.5
sI4
F1.0
sI5
F1.0
sI8
F1.46
sI10
F1.0
sI11
F7.0
sI13
F1.0
sI14
F80.0
sI15
F2954.0
sI16
F1.0
sI21
F1.0
sI27
F1.0
sI31
F1.0
ssbsg29
g0
(g30
g2
Ntp2368
Rp2369
(dp2370
g34
I1
sbsba(ics475_types
Instance
p2371
(dp2372
g24
(ics475_types
FeatureVector
p2373
(dp2374
g27
(dp2375
I1
F1.0
sI2
F25.33
sI3
F2.085
sI4
F1.0
sI5
F1.0
sI6
F1.0
sI33
F1.0
sI8
F2.75
sI12
F1.0
sI13
F1.0
sI14
F360.0
sI15
F1.0
sI20
F1.0
sI27
F1.0
ssbsg29
g0
(g30
g2
Ntp2376
Rp2377
(dp2378
g34
I0
sbsba(ics475_types
Instance
p2379
(dp2380
g24
(ics475_types
FeatureVector
p2381
(dp2382
g27
(dp2383
I33
F1.0
sI2
F30.17
sI3
F0.5
sI4
F1.0
sI5
F1.0
sI6
F1.0
sI7
F1.0
sI8
F1.75
sI10
F1.0
sI11
F11.0
sI13
F1.0
sI14
F32.0
sI15
F540.0
sI16
F1.0
sI21
F1.0
ssbsg29
g0
(g30
g2
Ntp2384
Rp2385
(dp2386
g34
I1
sbsba(ics475_types
Instance
p2387
(dp2388
g24
(ics475_types
FeatureVector
p2389
(dp2390
g27
(dp2391
I2
F32.92
sI3
F2.5
sI4
F1.0
sI5
F1.0
sI7
F1.0
sI8
F1.75
sI9
F1.0
sI10
F1.0
sI11
F2.0
sI12
F1.0
sI13
F1.0
sI14
F720.0
sI16
F1.0
sI37
F1.0
ssbsg29
g0
(g30
g2
Ntp2392
Rp2393
(dp2394
g34
I0
sbsba(ics475_types
Instance
p2395
(dp2396
g24
(ics475_types
FeatureVector
p2397
(dp2398
g27
(dp2399
I2
F34.0
sI3
F5.5
sI6
F1.0
sI7
F1.0
sI8
F1.5
sI9
F1.0
sI12
F1.0
sI13
F1.0
sI14
F60.0
sI16
F1.0
sI17
F1.0
sI18
F1.0
sI20
F1.0
ssbsg29
g0
(g30
g2
Ntp2400
Rp2401
(dp2402
g34
I0
sbsba(ics475_types
Instance
p2403
(dp2404
g24
(ics475_types
FeatureVector
p2405
(dp2406
g27
(dp2407
I33
F1.0
sI2
F45.0
sI3
F8.5
sI4
F1.0
sI5
F1.0
sI8
F14.0
sI10
F1.0
sI11
F1.0
sI12
F1.0
sI13
F1.0
sI14
F88.0
sI15
F2000.0
sI16
F1.0
sI36
F1.0
sI27
F1.0
ssbsg29
g0
(g30
g2
Ntp2408
Rp2409
(dp2410
g34
I1
sbsba(ics475_types
Instance
p2411
(dp2412
g24
(ics475_types
FeatureVector
p2413
(dp2414
g27
(dp2415
I2
F17.5
sI3
F22.0
sI9
F1.0
sI12
F1.0
sI45
F1.0
sI14
F450.0
sI15
F100000.0
sI16
F1.0
sI20
F1.0
sI46
F1.0
sI23
F1.0
sI26
F1.0
sI44
F1.0
ssbsg29
g0
(g30
g2
Ntp2416
Rp2417
(dp2418
g34
I1
sbsba(ics475_types
Instance
p2419
(dp2420
g24
(ics475_types
FeatureVector
p2421
(dp2422
g27
(dp2423
I1
F1.0
sI2
F23.5
sI3
F9.0
sI4
F1.0
sI5
F1.0
sI7
F1.0
sI8
F8.5
sI10
F1.0
sI11
F5.0
sI12
F1.0
sI13
F1.0
sI14
F120.0
sI33
F1.0
sI30
F1.0
ssbsg29
g0
(g30
g2
Ntp2424
Rp2425
(dp2426
g34
I1
sbsba(ics475_types
Instance
p2427
(dp2428
g24
(ics475_types
FeatureVector
p2429
(dp2430
g27
(dp2431
I1
F1.0
sI2
F22.42
sI3
F5.665
sI4
F1.0
sI5
F1.0
sI7
F1.0
sI8
F2.585
sI10
F1.0
sI11
F7.0
sI13
F1.0
sI14
F129.0
sI15
F3257.0
sI21
F1.0
sI33
F1.0
sI30
F1.0
ssbsg29
g0
(g30
g2
Ntp2432
Rp2433
(dp2434
g34
I1
sbsba(ics475_types
Instance
p2435
(dp2436
g24
(ics475_types
FeatureVector
p2437
(dp2438
g27
(dp2439
I2
F41.0
sI3
F0.04
sI4
F1.0
sI5
F1.0
sI7
F1.0
sI8
F0.04
sI9
F1.0
sI10
F1.0
sI11
F1.0
sI14
F560.0
sI16
F1.0
sI21
F1.0
sI22
F1.0
sI41
F1.0
ssbsg29
g0
(g30
g2
Ntp2440
Rp2441
(dp2442
g34
I1
sbsba(ics475_types
Instance
p2443
(dp2444
g24
(ics475_types
FeatureVector
p2445
(dp2446
g27
(dp2447
I33
F1.0
sI2
F41.17
sI3
F4.04
sI4
F1.0
sI5
F1.0
sI8
F7.0
sI10
F1.0
sI11
F8.0
sI13
F1.0
sI14
F320.0
sI16
F1.0
sI21
F1.0
sI36
F1.0
sI27
F1.0
ssbsg29
g0
(g30
g2
Ntp2448
Rp2449
(dp2450
g34
I1
sbsba(ics475_types
Instance
p2451
(dp2452
g24
(ics475_types
FeatureVector
p2453
(dp2454
g27
(dp2455
I1
F1.0
sI2
F24.75
sI3
F13.665
sI4
F1.0
sI5
F1.0
sI8
F1.5
sI9
F1.0
sI13
F1.0
sI14
F280.0
sI15
F1.0
sI20
F1.0
sI21
F1.0
sI27
F1.0
sI30
F1.0
ssbsg29
g0
(g30
g2
Ntp2456
Rp2457
(dp2458
g34
I0
sbsba(ics475_types
Instance
p2459
(dp2460
g24
(ics475_types
FeatureVector
p2461
(dp2462
g27
(dp2463
I33
F1.0
sI2
F41.42
sI3
F5.0
sI4
F1.0
sI5
F1.0
sI8
F5.0
sI10
F1.0
sI11
F6.0
sI12
F1.0
sI13
F1.0
sI14
F470.0
sI16
F1.0
sI27
F1.0
sI30
F1.0
ssbsg29
g0
(g30
g2
Ntp2464
Rp2465
(dp2466
g34
I1
sbsba(ics475_types
Instance
p2467
(dp2468
g24
(ics475_types
FeatureVector
p2469
(dp2470
g27
(dp2471
I33
F1.0
sI2
F48.17
sI3
F3.5
sI4
F1.0
sI5
F1.0
sI7
F1.0
sI8
F3.5
sI14
F230.0
sI16
F1.0
sI20
F1.0
sI21
F1.0
sI22
F1.0
sI37
F1.0
ssbsg29
g0
(g30
g2
Ntp2472
Rp2473
(dp2474
g34
I1
sbsba(ics475_types
Instance
p2475
(dp2476
g24
(ics475_types
FeatureVector
p2477
(dp2478
g27
(dp2479
I32
F1.0
sI2
F36.17
sI3
F5.5
sI4
F1.0
sI5
F1.0
sI8
F5.0
sI9
F1.0
sI13
F1.0
sI14
F210.0
sI15
F687.0
sI16
F1.0
sI20
F1.0
sI21
F1.0
sI25
F1.0
ssbsg29
g0
(g30
g2
Ntp2480
Rp2481
(dp2482
g34
I0
sbsba(ics475_types
Instance
p2483
(dp2484
g24
(ics475_types
FeatureVector
p2485
(dp2486
g27
(dp2487
I2
F24.58
sI3
F1.25
sI4
F1.0
sI5
F1.0
sI6
F1.0
sI7
F1.0
sI8
F0.25
sI9
F1.0
sI13
F1.0
sI14
F110.0
sI16
F1.0
sI20
F1.0
sI21
F1.0
ssbsg29
g0
(g30
g2
Ntp2488
Rp2489
(dp2490
g34
I0
sbsba(ics475_types
Instance
p2491
(dp2492
g24
(ics475_types
FeatureVector
p2493
(dp2494
g27
(dp2495
I1
F1.0
sI2
F52.17
sI9
F1.0
sI13
F1.0
sI17
F1.0
sI18
F1.0
sI20
F1.0
sI21
F1.0
sI23
F1.0
sI24
F1.0
ssbsg29
g0
(g30
g2
Ntp2496
Rp2497
(dp2498
g34
I0
sbsba(ics475_types
Instance
p2499
(dp2500
g24
(ics475_types
FeatureVector
p2501
(dp2502
g27
(dp2503
I1
F1.0
sI2
F18.25
sI3
F10.0
sI4
F1.0
sI5
F1.0
sI7
F1.0
sI8
F1.0
sI9
F1.0
sI10
F1.0
sI11
F1.0
sI13
F1.0
sI14
F120.0
sI15
F1.0
sI21
F1.0
sI31
F1.0
ssbsg29
g0
(g30
g2
Ntp2504
Rp2505
(dp2506
g34
I0
sbsba(ics475_types
Instance
p2507
(dp2508
g24
(ics475_types
FeatureVector
p2509
(dp2510
g27
(dp2511
I33
F1.0
sI2
F54.58
sI3
F9.415
sI4
F1.0
sI5
F1.0
sI8
F14.415
sI10
F1.0
sI11
F11.0
sI12
F1.0
sI13
F1.0
sI14
F30.0
sI15
F300.0
sI16
F1.0
sI23
F1.0
sI24
F1.0
ssbsg29
g0
(g30
g2
Ntp2512
Rp2513
(dp2514
g34
I1
sbsba(ics475_types
Instance
p2515
(dp2516
g24
(ics475_types
FeatureVector
p2517
(dp2518
g27
(dp2519
I2
F17.67
sI3
F4.46
sI4
F1.0
sI5
F1.0
sI6
F1.0
sI7
F1.0
sI8
F0.25
sI9
F1.0
sI14
F80.0
sI16
F1.0
sI20
F1.0
sI21
F1.0
sI22
F1.0
ssbsg29
g0
(g30
g2
Ntp2520
Rp2521
(dp2522
g34
I0
sbsba(ics475_types
Instance
p2523
(dp2524
g24
(ics475_types
FeatureVector
p2525
(dp2526
g27
(dp2527
I33
F1.0
sI2
F27.0
sI3
F0.75
sI4
F1.0
sI5
F1.0
sI6
F1.0
sI8
F4.25
sI10
F1.0
sI11
F3.0
sI12
F1.0
sI13
F1.0
sI14
F312.0
sI15
F150.0
sI16
F1.0
sI27
F1.0
ssbsg29
g0
(g30
g2
Ntp2528
Rp2529
(dp2530
g34
I1
sbsba(ics475_types
Instance
p2531
(dp2532
g24
(ics475_types
FeatureVector
p2533
(dp2534
g27
(dp2535
I33
F1.0
sI2
F59.5
sI3
F2.75
sI4
F1.0
sI5
F1.0
sI7
F1.0
sI8
F1.75
sI10
F1.0
sI11
F5.0
sI12
F1.0
sI13
F1.0
sI14
F60.0
sI15
F58.0
sI16
F1.0
sI31
F1.0
ssbsg29
g0
(g30
g2
Ntp2536
Rp2537
(dp2538
g34
I1
sbsba(ics475_types
Instance
p2539
(dp2540
g24
(ics475_types
FeatureVector
p2541
(dp2542
g27
(dp2543
I33
F1.0
sI2
F48.17
sI3
F7.625
sI4
F1.0
sI5
F1.0
sI8
F15.5
sI10
F1.0
sI11
F12.0
sI13
F1.0
sI15
F790.0
sI16
F1.0
sI21
F1.0
sI27
F1.0
sI31
F1.0
ssbsg29
g0
(g30
g2
Ntp2544
Rp2545
(dp2546
g34
I1
sbsba(ics475_types
Instance
p2547
(dp2548
g24
(ics475_types
FeatureVector
p2549
(dp2550
g27
(dp2551
I1
F1.0
sI2
F15.75
sI3
F0.375
sI4
F1.0
sI5
F1.0
sI6
F1.0
sI7
F1.0
sI8
F1.0
sI9
F1.0
sI13
F1.0
sI14
F120.0
sI15
F18.0
sI20
F1.0
sI21
F1.0
ssbsg29
g0
(g30
g2
Ntp2552
Rp2553
(dp2554
g34
I0
sbsba(ics475_types
Instance
p2555
(dp2556
g24
(ics475_types
FeatureVector
p2557
(dp2558
g27
(dp2559
I33
F1.0
sI2
F30.83
sI4
F1.0
sI5
F1.0
sI7
F1.0
sI8
F1.25
sI10
F1.0
sI11
F1.0
sI13
F1.0
sI14
F202.0
sI16
F1.0
sI21
F1.0
sI31
F1.0
ssbsg29
g0
(g30
g2
Ntp2560
Rp2561
(dp2562
g34
I1
sbsba(ics475_types
Instance
p2563
(dp2564
g24
(ics475_types
FeatureVector
p2565
(dp2566
g27
(dp2567
I2
F21.17
sI4
F1.0
sI5
F1.0
sI6
F1.0
sI7
F1.0
sI8
F0.5
sI9
F1.0
sI12
F1.0
sI16
F1.0
sI20
F1.0
sI22
F1.0
ssbsg29
g0
(g30
g2
Ntp2568
Rp2569
(dp2570
g34
I0
sbsba(ics475_types
Instance
p2571
(dp2572
g24
(ics475_types
FeatureVector
p2573
(dp2574
g27
(dp2575
I33
F1.0
sI2
F28.67
sI3
F9.335
sI4
F1.0
sI5
F1.0
sI8
F5.665
sI10
F1.0
sI11
F6.0
sI13
F1.0
sI14
F381.0
sI15
F168.0
sI16
F1.0
sI21
F1.0
sI27
F1.0
sI30
F1.0
ssbsg29
g0
(g30
g2
Ntp2576
Rp2577
(dp2578
g34
I1
sbsba(ics475_types
Instance
p2579
(dp2580
g24
(ics475_types
FeatureVector
p2581
(dp2582
g27
(dp2583
I2
F22.17
sI3
F2.25
sI4
F1.0
sI5
F1.0
sI7
F1.0
sI8
F0.125
sI9
F1.0
sI13
F1.0
sI14
F160.0
sI15
F10.0
sI16
F1.0
sI20
F1.0
sI21
F1.0
sI25
F1.0
ssbsg29
g0
(g30
g2
Ntp2584
Rp2585
(dp2586
g34
I0
sbsba(ics475_types
Instance
p2587
(dp2588
g24
(ics475_types
FeatureVector
p2589
(dp2590
g27
(dp2591
I33
F1.0
sI2
F44.0
sI3
F2.0
sI4
F1.0
sI5
F1.0
sI7
F1.0
sI8
F1.75
sI10
F1.0
sI11
F2.0
sI12
F1.0
sI13
F1.0
sI15
F15.0
sI16
F1.0
sI35
F1.0
ssbsg29
g0
(g30
g2
Ntp2592
Rp2593
(dp2594
g34
I1
sbsba(ics475_types
Instance
p2595
(dp2596
g24
(ics475_types
FeatureVector
p2597
(dp2598
g27
(dp2599
I1
F1.0
sI2
F33.67
sI3
F0.375
sI4
F1.0
sI5
F1.0
sI7
F1.0
sI8
F0.375
sI9
F1.0
sI13
F1.0
sI14
F300.0
sI15
F44.0
sI20
F1.0
sI21
F1.0
sI36
F1.0
ssbsg29
g0
(g30
g2
Ntp2600
Rp2601
(dp2602
g34
I1
sbsba(ics475_types
Instance
p2603
(dp2604
g24
(ics475_types
FeatureVector
p2605
(dp2606
g27
(dp2607
I1
F1.0
sI2
F56.83
sI3
F4.25
sI8
F5.0
sI9
F1.0
sI12
F1.0
sI13
F1.0
sI15
F4.0
sI17
F1.0
sI18
F1.0
sI20
F1.0
sI23
F1.0
sI24
F1.0
ssbsg29
g0
(g30
g2
Ntp2608
Rp2609
(dp2610
g34
I0
sbsba(ics475_types
Instance
p2611
(dp2612
g24
(ics475_types
FeatureVector
p2613
(dp2614
g27
(dp2615
I33
F1.0
sI2
F31.67
sI3
F0.83
sI4
F1.0
sI5
F1.0
sI7
F1.0
sI8
F1.335
sI10
F1.0
sI11
F8.0
sI12
F1.0
sI13
F1.0
sI14
F303.0
sI15
F3290.0
sI16
F1.0
sI39
F1.0
ssbsg29
g0
(g30
g2
Ntp2616
Rp2617
(dp2618
g34
I1
sbsba(ics475_types
Instance
p2619
(dp2620
g24
(ics475_types
FeatureVector
p2621
(dp2622
g27
(dp2623
I33
F1.0
sI2
F20.42
sI3
F7.0
sI4
F1.0
sI5
F1.0
sI6
F1.0
sI7
F1.0
sI8
F1.625
sI10
F1.0
sI11
F3.0
sI13
F1.0
sI14
F200.0
sI15
F1391.0
sI16
F1.0
sI21
F1.0
ssbsg29
g0
(g30
g2
Ntp2624
Rp2625
(dp2626
g34
I1
sbsba(ics475_types
Instance
p2627
(dp2628
g24
(ics475_types
FeatureVector
p2629
(dp2630
g27
(dp2631
I33
F1.0
sI2
F21.0
sI3
F3.0
sI7
F1.0
sI8
F1.085
sI10
F1.0
sI11
F8.0
sI12
F1.0
sI13
F1.0
sI14
F160.0
sI15
F1.0
sI16
F1.0
sI17
F1.0
sI18
F1.0
sI34
F1.0
ssbsg29
g0
(g30
g2
Ntp2632
Rp2633
(dp2634
g34
I1
sbsba(ics475_types
Instance
p2635
(dp2636
g24
(ics475_types
FeatureVector
p2637
(dp2638
g27
(dp2639
I32
F1.0
sI2
F39.92
sI3
F5.0
sI4
F1.0
sI5
F1.0
sI8
F0.21
sI9
F1.0
sI13
F1.0
sI14
F550.0
sI16
F1.0
sI20
F1.0
sI21
F1.0
sI25
F1.0
ssbsg29
g0
(g30
g2
Ntp2640
Rp2641
(dp2642
g34
I0
sbsba(ics475_types
Instance
p2643
(dp2644
g24
(ics475_types
FeatureVector
p2645
(dp2646
g27
(dp2647
I33
F1.0
sI2
F65.42
sI3
F11.0
sI4
F1.0
sI5
F1.0
sI8
F20.0
sI41
F1.0
sI10
F1.0
sI11
F7.0
sI12
F1.0
sI13
F1.0
sI14
F22.0
sI16
F1.0
sI42
F1.0
ssbsg29
g0
(g30
g2
Ntp2648
Rp2649
(dp2650
g34
I1
sbsba(ics475_types
Instance
p2651
(dp2652
g24
(ics475_types
FeatureVector
p2653
(dp2654
g27
(dp2655
I33
F1.0
sI2
F43.08
sI3
F0.375
sI6
F1.0
sI7
F1.0
sI8
F0.375
sI10
F1.0
sI11
F8.0
sI12
F1.0
sI13
F1.0
sI14
F300.0
sI15
F162.0
sI16
F1.0
sI17
F1.0
sI18
F1.0
ssbsg29
g0
(g30
g2
Ntp2656
Rp2657
(dp2658
g34
I1
sbsba(ics475_types
Instance
p2659
(dp2660
g24
(ics475_types
FeatureVector
p2661
(dp2662
g27
(dp2663
I2
F31.0
sI3
F2.085
sI4
F1.0
sI5
F1.0
sI6
F1.0
sI7
F1.0
sI8
F0.085
sI9
F1.0
sI13
F1.0
sI14
F300.0
sI16
F1.0
sI20
F1.0
sI21
F1.0
ssbsg29
g0
(g30
g2
Ntp2664
Rp2665
(dp2666
g34
I0
sbsba(ics475_types
Instance
p2667
(dp2668
g24
(ics475_types
FeatureVector
p2669
(dp2670
g27
(dp2671
I1
F1.0
sI2
F22.42
sI3
F11.25
sI33
F1.0
sI8
F0.75
sI10
F1.0
sI11
F4.0
sI13
F1.0
sI15
F321.0
sI17
F1.0
sI18
F1.0
sI21
F1.0
sI39
F1.0
sI27
F1.0
ssbsg29
g0
(g30
g2
Ntp2672
Rp2673
(dp2674
g34
I1
sbsba(ics475_types
Instance
p2675
(dp2676
g24
(ics475_types
FeatureVector
p2677
(dp2678
g27
(dp2679
I2
F22.17
sI3
F12.125
sI4
F1.0
sI5
F1.0
sI6
F1.0
sI7
F1.0
sI8
F3.335
sI9
F1.0
sI10
F1.0
sI11
F2.0
sI12
F1.0
sI13
F1.0
sI14
F180.0
sI15
F173.0
sI16
F1.0
ssbsg29
g0
(g30
g2
Ntp2680
Rp2681
(dp2682
g34
I0
sbsba(ics475_types
Instance
p2683
(dp2684
g24
(ics475_types
FeatureVector
p2685
(dp2686
g27
(dp2687
I1
F1.0
sI2
F20.83
sI3
F0.5
sI8
F1.0
sI9
F1.0
sI43
F1.0
sI13
F1.0
sI14
F260.0
sI17
F1.0
sI18
F1.0
sI20
F1.0
sI21
F1.0
sI41
F1.0
ssbsg29
g0
(g30
g2
Ntp2688
Rp2689
(dp2690
g34
I0
sbsba(ics475_types
Instance
p2691
(dp2692
g24
(ics475_types
FeatureVector
p2693
(dp2694
g27
(dp2695
I1
F1.0
sI2
F40.33
sI3
F7.54
sI33
F1.0
sI8
F8.0
sI10
F1.0
sI11
F14.0
sI13
F1.0
sI15
F2300.0
sI17
F1.0
sI18
F1.0
sI21
F1.0
sI27
F1.0
sI30
F1.0
ssbsg29
g0
(g30
g2
Ntp2696
Rp2697
(dp2698
g34
I1
sbsba(ics475_types
Instance
p2699
(dp2700
g24
(ics475_types
FeatureVector
p2701
(dp2702
g27
(dp2703
I32
F1.0
sI33
F1.0
sI2
F23.25
sI3
F4.0
sI4
F1.0
sI5
F1.0
sI6
F1.0
sI8
F0.25
sI12
F1.0
sI13
F1.0
sI14
F160.0
sI16
F1.0
sI20
F1.0
ssbsg29
g0
(g30
g2
Ntp2704
Rp2705
(dp2706
g34
I1
sbsba(ics475_types
Instance
p2707
(dp2708
g24
(ics475_types
FeatureVector
p2709
(dp2710
g27
(dp2711
I2
F16.17
sI3
F0.04
sI4
F1.0
sI5
F1.0
sI6
F1.0
sI7
F1.0
sI8
F0.04
sI9
F1.0
sI13
F1.0
sI16
F1.0
sI20
F1.0
sI21
F1.0
ssbsg29
g0
(g30
g2
Ntp2712
Rp2713
(dp2714
g34
I1
sbsba(ics475_types
Instance
p2715
(dp2716
g24
(ics475_types
FeatureVector
p2717
(dp2718
g27
(dp2719
I1
F1.0
sI2
F19.75
sI3
F0.75
sI4
F1.0
sI5
F1.0
sI6
F1.0
sI7
F1.0
sI8
F0.795
sI10
F1.0
sI11
F5.0
sI12
F1.0
sI13
F1.0
sI14
F140.0
sI15
F5.0
sI33
F1.0
ssbsg29
g0
(g30
g2
Ntp2720
Rp2721
(dp2722
g34
I0
sbsba(ics475_types
Instance
p2723
(dp2724
g24
(ics475_types
FeatureVector
p2725
(dp2726
g27
(dp2727
I33
F1.0
sI2
F39.58
sI3
F13.915
sI4
F1.0
sI5
F1.0
sI7
F1.0
sI8
F8.625
sI10
F1.0
sI11
F6.0
sI12
F1.0
sI13
F1.0
sI14
F70.0
sI16
F1.0
sI31
F1.0
ssbsg29
g0
(g30
g2
Ntp2728
Rp2729
(dp2730
g34
I1
sbsba(ics475_types
Instance
p2731
(dp2732
g24
(ics475_types
FeatureVector
p2733
(dp2734
g27
(dp2735
I33
F1.0
sI2
F21.92
sI3
F0.54
sI7
F1.0
sI8
F0.04
sI10
F1.0
sI11
F1.0
sI12
F1.0
sI13
F1.0
sI14
F840.0
sI15
F59.0
sI16
F1.0
sI17
F1.0
sI18
F1.0
sI39
F1.0
ssbsg29
g0
(g30
g2
Ntp2736
Rp2737
(dp2738
g34
I1
sbsba(ics475_types
Instance
p2739
(dp2740
g24
(ics475_types
FeatureVector
p2741
(dp2742
g27
(dp2743
I2
F23.42
sI3
F1.0
sI4
F1.0
sI5
F1.0
sI6
F1.0
sI7
F1.0
sI8
F0.5
sI9
F1.0
sI12
F1.0
sI14
F280.0
sI16
F1.0
sI20
F1.0
sI22
F1.0
ssbsg29
g0
(g30
g2
Ntp2744
Rp2745
(dp2746
g34
I0
sbsba(ics475_types
Instance
p2747
(dp2748
g24
(ics475_types
FeatureVector
p2749
(dp2750
g27
(dp2751
I33
F1.0
sI2
F27.25
sI3
F1.585
sI4
F1.0
sI5
F1.0
sI8
F1.835
sI10
F1.0
sI11
F12.0
sI12
F1.0
sI13
F1.0
sI14
F583.0
sI15
F713.0
sI16
F1.0
sI36
F1.0
sI27
F1.0
ssbsg29
g0
(g30
g2
Ntp2752
Rp2753
(dp2754
g34
I1
sbsba(ics475_types
Instance
p2755
(dp2756
g24
(ics475_types
FeatureVector
p2757
(dp2758
g27
(dp2759
I33
F1.0
sI2
F64.08
sI3
F20.0
sI4
F1.0
sI5
F1.0
sI39
F1.0
sI8
F17.5
sI10
F1.0
sI11
F9.0
sI12
F1.0
sI13
F1.0
sI15
F1000.0
sI16
F1.0
sI27
F1.0
ssbsg29
g0
(g30
g2
Ntp2760
Rp2761
(dp2762
g34
I1
sbsba(ics475_types
Instance
p2763
(dp2764
g24
(ics475_types
FeatureVector
p2765
(dp2766
g27
(dp2767
I33
F1.0
sI2
F16.08
sI3
F0.75
sI4
F1.0
sI5
F1.0
sI6
F1.0
sI7
F1.0
sI8
F1.75
sI10
F1.0
sI11
F5.0
sI12
F1.0
sI13
F1.0
sI14
F352.0
sI15
F690.0
sI16
F1.0
ssbsg29
g0
(g30
g2
Ntp2768
Rp2769
(dp2770
g34
I1
sbsba(ics475_types
Instance
p2771
(dp2772
g24
(ics475_types
FeatureVector
p2773
(dp2774
g27
(dp2775
I2
F31.58
sI3
F0.75
sI37
F1.0
sI7
F1.0
sI8
F3.5
sI9
F1.0
sI12
F1.0
sI13
F1.0
sI14
F320.0
sI16
F1.0
sI17
F1.0
sI18
F1.0
sI20
F1.0
ssbsg29
g0
(g30
g2
Ntp2776
Rp2777
(dp2778
g34
I0
sbsba(ics475_types
Instance
p2779
(dp2780
g24
(ics475_types
FeatureVector
p2781
(dp2782
g27
(dp2783
I33
F1.0
sI2
F25.17
sI3
F3.5
sI4
F1.0
sI5
F1.0
sI7
F1.0
sI8
F0.625
sI10
F1.0
sI11
F7.0
sI13
F1.0
sI15
F7059.0
sI16
F1.0
sI21
F1.0
sI36
F1.0
ssbsg29
g0
(g30
g2
Ntp2784
Rp2785
(dp2786
g34
I1
sbsba(ics475_types
Instance
p2787
(dp2788
g24
(ics475_types
FeatureVector
p2789
(dp2790
g27
(dp2791
I33
F1.0
sI2
F20.5
sI3
F2.415
sI4
F1.0
sI5
F1.0
sI6
F1.0
sI7
F1.0
sI8
F2.0
sI10
F1.0
sI11
F11.0
sI12
F1.0
sI13
F1.0
sI14
F200.0
sI15
F3000.0
sI16
F1.0
ssbsg29
g0
(g30
g2
Ntp2792
Rp2793
(dp2794
g34
I1
sbsba(ics475_types
Instance
p2795
(dp2796
g24
(ics475_types
FeatureVector
p2797
(dp2798
g27
(dp2799
I32
F1.0
sI1
F1.0
sI2
F28.58
sI3
F3.54
sI4
F1.0
sI5
F1.0
sI33
F1.0
sI8
F0.5
sI12
F1.0
sI13
F1.0
sI14
F171.0
sI20
F1.0
sI25
F1.0
ssbsg29
g0
(g30
g2
Ntp2800
Rp2801
(dp2802
g34
I0
sbsba(ics475_types
Instance
p2803
(dp2804
g24
(ics475_types
FeatureVector
p2805
(dp2806
g27
(dp2807
I2
F16.33
sI3
F4.085
sI4
F1.0
sI5
F1.0
sI8
F0.415
sI9
F1.0
sI12
F1.0
sI13
F1.0
sI14
F120.0
sI16
F1.0
sI20
F1.0
sI25
F1.0
sI27
F1.0
ssbsg29
g0
(g30
g2
Ntp2808
Rp2809
(dp2810
g34
I0
sbsba(ics475_types
Instance
p2811
(dp2812
g24
(ics475_types
FeatureVector
p2813
(dp2814
g27
(dp2815
I2
F22.67
sI3
F0.165
sI4
F1.0
sI5
F1.0
sI6
F1.0
sI8
F2.25
sI9
F1.0
sI12
F1.0
sI16
F1.0
sI20
F1.0
sI22
F1.0
sI29
F1.0
ssbsg29
g0
(g30
g2
Ntp2816
Rp2817
(dp2818
g34
I1
sbsba(ics475_types
Instance
p2819
(dp2820
g24
(ics475_types
FeatureVector
p2821
(dp2822
g27
(dp2823
I2
F18.83
sI4
F1.0
sI5
F1.0
sI7
F1.0
sI8
F0.665
sI9
F1.0
sI13
F1.0
sI14
F160.0
sI15
F1.0
sI16
F1.0
sI20
F1.0
sI21
F1.0
sI30
F1.0
ssbsg29
g0
(g30
g2
Ntp2824
Rp2825
(dp2826
g34
I0
sbsba(ics475_types
Instance
p2827
(dp2828
g24
(ics475_types
FeatureVector
p2829
(dp2830
g27
(dp2831
I1
F1.0
sI2
F16.33
sI3
F0.21
sI4
F1.0
sI5
F1.0
sI7
F1.0
sI8
F0.125
sI9
F1.0
sI13
F1.0
sI14
F200.0
sI15
F1.0
sI20
F1.0
sI21
F1.0
sI37
F1.0
ssbsg29
g0
(g30
g2
Ntp2832
Rp2833
(dp2834
g34
I0
sbsba(ics475_types
Instance
p2835
(dp2836
g24
(ics475_types
FeatureVector
p2837
(dp2838
g27
(dp2839
I1
F1.0
sI2
F64.08
sI3
F0.165
sI4
F1.0
sI5
F1.0
sI33
F1.0
sI10
F1.0
sI11
F1.0
sI13
F1.0
sI14
F232.0
sI15
F100.0
sI21
F1.0
sI23
F1.0
sI24
F1.0
ssbsg29
g0
(g30
g2
Ntp2840
Rp2841
(dp2842
g34
I1
sbsba(ics475_types
Instance
p2843
(dp2844
g24
(ics475_types
FeatureVector
p2845
(dp2846
g27
(dp2847
I1
F1.0
sI2
F37.33
sI3
F2.5
sI4
F1.0
sI5
F1.0
sI8
F0.21
sI9
F1.0
sI13
F1.0
sI14
F260.0
sI15
F246.0
sI20
F1.0
sI21
F1.0
sI25
F1.0
sI27
F1.0
ssbsg29
g0
(g30
g2
Ntp2848
Rp2849
(dp2850
g34
I0
sbsba(ics475_types
Instance
p2851
(dp2852
g24
(ics475_types
FeatureVector
p2853
(dp2854
g27
(dp2855
I33
F1.0
sI2
F32.83
sI3
F2.5
sI4
F1.0
sI5
F1.0
sI8
F2.75
sI10
F1.0
sI11
F6.0
sI13
F1.0
sI14
F160.0
sI15
F2072.0
sI16
F1.0
sI21
F1.0
sI36
F1.0
sI27
F1.0
ssbsg29
g0
(g30
g2
Ntp2856
Rp2857
(dp2858
g34
I1
sbsba(ics475_types
Instance
p2859
(dp2860
g24
(ics475_types
FeatureVector
p2861
(dp2862
g27
(dp2863
I32
F1.0
sI33
F1.0
sI2
F47.67
sI3
F2.5
sI4
F1.0
sI5
F1.0
sI8
F2.5
sI10
F1.0
sI11
F12.0
sI12
F1.0
sI13
F1.0
sI14
F410.0
sI15
F2510.0
sI16
F1.0
sI35
F1.0
ssbsg29
g0
(g30
g2
Ntp2864
Rp2865
(dp2866
g34
I1
sbsba(ics475_types
Instance
p2867
(dp2868
g24
(ics475_types
FeatureVector
p2869
(dp2870
g27
(dp2871
I1
F1.0
sI2
F50.08
sI3
F12.54
sI4
F1.0
sI5
F1.0
sI7
F1.0
sI8
F2.29
sI10
F1.0
sI11
F3.0
sI12
F1.0
sI13
F1.0
sI14
F156.0
sI33
F1.0
sI37
F1.0
ssbsg29
g0
(g30
g2
Ntp2872
Rp2873
(dp2874
g34
I1
sbsba(ics475_types
Instance
p2875
(dp2876
g24
(ics475_types
FeatureVector
p2877
(dp2878
g27
(dp2879
I33
F1.0
sI2
F28.33
sI3
F5.0
sI4
F1.0
sI5
F1.0
sI7
F1.0
sI8
F11.0
sI12
F1.0
sI13
F1.0
sI14
F70.0
sI16
F1.0
sI20
F1.0
sI31
F1.0
ssbsg29
g0
(g30
g2
Ntp2880
Rp2881
(dp2882
g34
I1
sbsba(ics475_types
Instance
p2883
(dp2884
g24
(ics475_types
FeatureVector
p2885
(dp2886
g27
(dp2887
I33
F1.0
sI2
F29.67
sI3
F1.415
sI4
F1.0
sI5
F1.0
sI8
F0.75
sI10
F1.0
sI11
F1.0
sI13
F1.0
sI14
F240.0
sI15
F100.0
sI16
F1.0
sI21
F1.0
sI27
F1.0
sI31
F1.0
ssbsg29
g0
(g30
g2
Ntp2888
Rp2889
(dp2890
g34
I1
sbsba(ics475_types
Instance
p2891
(dp2892
g24
(ics475_types
FeatureVector
p2893
(dp2894
g27
(dp2895
I33
F1.0
sI2
F42.83
sI3
F4.625
sI4
F1.0
sI5
F1.0
sI7
F1.0
sI8
F4.58
sI16
F1.0
sI20
F1.0
sI21
F1.0
sI22
F1.0
sI30
F1.0
ssbsg29
g0
(g30
g2
Ntp2896
Rp2897
(dp2898
g34
I1
sbsba(ics475_types
Instance
p2899
(dp2900
g24
(ics475_types
FeatureVector
p2901
(dp2902
g27
(dp2903
I1
F1.0
sI2
F28.5
sI3
F3.04
sI33
F1.0
sI8
F2.54
sI10
F1.0
sI11
F1.0
sI13
F1.0
sI14
F70.0
sI17
F1.0
sI18
F1.0
sI21
F1.0
sI39
F1.0
sI27
F1.0
ssbsg29
g0
(g30
g2
Ntp2904
Rp2905
(dp2906
g34
I1
sbsba(ics475_types
Instance
p2907
(dp2908
g24
(ics475_types
FeatureVector
p2909
(dp2910
g27
(dp2911
I2
F23.25
sI3
F12.625
sI4
F1.0
sI5
F1.0
sI6
F1.0
sI7
F1.0
sI8
F0.125
sI9
F1.0
sI10
F1.0
sI11
F2.0
sI13
F1.0
sI15
F5552.0
sI16
F1.0
sI21
F1.0
ssbsg29
g0
(g30
g2
Ntp2912
Rp2913
(dp2914
g34
I0
sbsba(ics475_types
Instance
p2915
(dp2916
g24
(ics475_types
FeatureVector
p2917
(dp2918
g27
(dp2919
I2
F47.33
sI3
F6.5
sI4
F1.0
sI5
F1.0
sI6
F1.0
sI7
F1.0
sI8
F1.0
sI9
F1.0
sI12
F1.0
sI13
F1.0
sI15
F228.0
sI16
F1.0
sI20
F1.0
ssbsg29
g0
(g30
g2
Ntp2920
Rp2921
(dp2922
g34
I0
sbsba(ics475_types
Instance
p2923
(dp2924
g24
(ics475_types
FeatureVector
p2925
(dp2926
g27
(dp2927
I2
F16.5
sI3
F0.125
sI4
F1.0
sI5
F1.0
sI6
F1.0
sI7
F1.0
sI8
F0.165
sI9
F1.0
sI13
F1.0
sI14
F132.0
sI16
F1.0
sI20
F1.0
sI21
F1.0
ssbsg29
g0
(g30
g2
Ntp2928
Rp2929
(dp2930
g34
I0
sbsba(ics475_types
Instance
p2931
(dp2932
g24
(ics475_types
FeatureVector
p2933
(dp2934
g27
(dp2935
I2
F33.0
sI3
F2.5
sI7
F1.0
sI8
F7.0
sI9
F1.0
sI12
F1.0
sI13
F1.0
sI14
F280.0
sI16
F1.0
sI17
F1.0
sI18
F1.0
sI20
F1.0
sI31
F1.0
ssbsg29
g0
(g30
g2
Ntp2936
Rp2937
(dp2938
g34
I0
sbsba(ics475_types
Instance
p2939
(dp2940
g24
(ics475_types
FeatureVector
p2941
(dp2942
g27
(dp2943
I33
F1.0
sI2
F27.83
sI3
F1.54
sI4
F1.0
sI5
F1.0
sI7
F1.0
sI8
F3.75
sI10
F1.0
sI11
F5.0
sI12
F1.0
sI13
F1.0
sI14
F100.0
sI15
F3.0
sI16
F1.0
sI31
F1.0
ssbsg29
g0
(g30
g2
Ntp2944
Rp2945
(dp2946
g34
I1
sbsba(ics475_types
Instance
p2947
(dp2948
g24
(ics475_types
FeatureVector
p2949
(dp2950
g27
(dp2951
I2
F21.17
sI3
F0.875
sI6
F1.0
sI8
F0.25
sI9
F1.0
sI13
F1.0
sI14
F280.0
sI15
F204.0
sI16
F1.0
sI17
F1.0
sI18
F1.0
sI20
F1.0
sI21
F1.0
sI27
F1.0
ssbsg29
g0
(g30
g2
Ntp2952
Rp2953
(dp2954
g34
I0
sbsba(ics475_types
Instance
p2955
(dp2956
g24
(ics475_types
FeatureVector
p2957
(dp2958
g27
(dp2959
I33
F1.0
sI2
F22.67
sI3
F2.54
sI6
F1.0
sI8
F2.585
sI13
F1.0
sI16
F1.0
sI17
F1.0
sI18
F1.0
sI20
F1.0
sI21
F1.0
sI27
F1.0
ssbsg29
g0
(g30
g2
Ntp2960
Rp2961
(dp2962
g34
I1
sbsba(ics475_types
Instance
p2963
(dp2964
g24
(ics475_types
FeatureVector
p2965
(dp2966
g27
(dp2967
I2
F19.0
sI9
F1.0
sI10
F1.0
sI11
F4.0
sI13
F1.0
sI14
F45.0
sI15
F1.0
sI16
F1.0
sI17
F1.0
sI18
F1.0
sI21
F1.0
sI23
F1.0
sI24
F1.0
ssbsg29
g0
(g30
g2
Ntp2968
Rp2969
(dp2970
g34
I0
sbsba(ics475_types
Instance
p2971
(dp2972
g24
(ics475_types
FeatureVector
p2973
(dp2974
g27
(dp2975
I33
F1.0
sI2
F39.17
sI3
F1.71
sI4
F1.0
sI5
F1.0
sI7
F1.0
sI8
F0.125
sI10
F1.0
sI11
F5.0
sI12
F1.0
sI13
F1.0
sI14
F480.0
sI16
F1.0
sI39
F1.0
ssbsg29
g0
(g30
g2
Ntp2976
Rp2977
(dp2978
g34
I1
sbsba(ics475_types
Instance
p2979
(dp2980
g24
(ics475_types
FeatureVector
p2981
(dp2982
g27
(dp2983
I2
F19.58
sI3
F0.585
sI4
F1.0
sI5
F1.0
sI9
F1.0
sI10
F1.0
sI11
F3.0
sI13
F1.0
sI14
F350.0
sI15
F769.0
sI16
F1.0
sI21
F1.0
sI23
F1.0
sI24
F1.0
ssbsg29
g0
(g30
g2
Ntp2984
Rp2985
(dp2986
g34
I0
sbsba(ics475_types
Instance
p2987
(dp2988
g24
(ics475_types
FeatureVector
p2989
(dp2990
g27
(dp2991
I33
F1.0
sI2
F42.17
sI3
F5.04
sI4
F1.0
sI5
F1.0
sI8
F12.75
sI12
F1.0
sI13
F1.0
sI14
F92.0
sI16
F1.0
sI20
F1.0
sI27
F1.0
sI30
F1.0
ssbsg29
g0
(g30
g2
Ntp2992
Rp2993
(dp2994
g34
I1
sbsba(ics475_types
Instance
p2995
(dp2996
g24
(ics475_types
FeatureVector
p2997
(dp2998
g27
(dp2999
I33
F1.0
sI2
F54.83
sI3
F15.5
sI4
F1.0
sI5
F1.0
sI41
F1.0
sI10
F1.0
sI11
F20.0
sI13
F1.0
sI14
F152.0
sI15
F130.0
sI16
F1.0
sI21
F1.0
sI42
F1.0
ssbsg29
g0
(g30
g2
Ntp3000
Rp3001
(dp3002
g34
I0
sbsba(ics475_types
Instance
p3003
(dp3004
g24
(ics475_types
FeatureVector
p3005
(dp3006
g27
(dp3007
I1
F1.0
sI2
F36.58
sI3
F0.29
sI4
F1.0
sI5
F1.0
sI9
F1.0
sI10
F1.0
sI11
F10.0
sI13
F1.0
sI14
F200.0
sI15
F18.0
sI21
F1.0
sI23
F1.0
sI24
F1.0
ssbsg29
g0
(g30
g2
Ntp3008
Rp3009
(dp3010
g34
I0
sbsba(ics475_types
Instance
p3011
(dp3012
g24
(ics475_types
FeatureVector
p3013
(dp3014
g27
(dp3015
I2
F18.33
sI3
F1.21
sI9
F1.0
sI43
F1.0
sI13
F1.0
sI14
F100.0
sI16
F1.0
sI17
F1.0
sI18
F1.0
sI20
F1.0
sI21
F1.0
sI41
F1.0
ssbsg29
g0
(g30
g2
Ntp3016
Rp3017
(dp3018
g34
I0
sbsba(ics475_types
Instance
p3019
(dp3020
g24
(ics475_types
FeatureVector
p3021
(dp3022
g27
(dp3023
I2
F34.08
sI3
F2.5
sI4
F1.0
sI5
F1.0
sI6
F1.0
sI7
F1.0
sI8
F1.0
sI9
F1.0
sI13
F1.0
sI14
F460.0
sI15
F16.0
sI16
F1.0
sI20
F1.0
sI21
F1.0
ssbsg29
g0
(g30
g2
Ntp3024
Rp3025
(dp3026
g34
I0
sbsba(ics475_types
Instance
p3027
(dp3028
g24
(ics475_types
FeatureVector
p3029
(dp3030
g27
(dp3031
I2
F25.25
sI3
F1.0
sI4
F1.0
sI5
F1.0
sI7
F1.0
sI8
F0.5
sI9
F1.0
sI13
F1.0
sI14
F200.0
sI16
F1.0
sI20
F1.0
sI21
F1.0
sI37
F1.0
ssbsg29
g0
(g30
g2
Ntp3032
Rp3033
(dp3034
g34
I0
sbsba(ics475_types
Instance
p3035
(dp3036
g24
(ics475_types
FeatureVector
p3037
(dp3038
g27
(dp3039
I33
F1.0
sI2
F39.25
sI3
F9.5
sI4
F1.0
sI5
F1.0
sI7
F1.0
sI8
F6.5
sI10
F1.0
sI11
F14.0
sI13
F1.0
sI14
F240.0
sI15
F4607.0
sI16
F1.0
sI35
F1.0
sI21
F1.0
ssbsg29
g0
(g30
g2
Ntp3040
Rp3041
(dp3042
g34
I1
sbsba(ics475_types
Instance
p3043
(dp3044
g24
(ics475_types
FeatureVector
p3045
(dp3046
g27
(dp3047
I2
F20.0
sI3
F11.045
sI4
F1.0
sI5
F1.0
sI6
F1.0
sI7
F1.0
sI8
F2.0
sI9
F1.0
sI12
F1.0
sI13
F1.0
sI14
F136.0
sI16
F1.0
sI20
F1.0
ssbsg29
g0
(g30
g2
Ntp3048
Rp3049
(dp3050
g34
I0
sbsba(ics475_types
Instance
p3051
(dp3052
g24
(ics475_types
FeatureVector
p3053
(dp3054
g27
(dp3055
I1
F1.0
sI2
F24.5
sI3
F0.5
sI4
F1.0
sI5
F1.0
sI33
F1.0
sI8
F1.5
sI13
F1.0
sI14
F280.0
sI15
F824.0
sI20
F1.0
sI21
F1.0
sI27
F1.0
sI30
F1.0
ssbsg29
g0
(g30
g2
Ntp3056
Rp3057
(dp3058
g34
I1
sbsba(ics475_types
Instance
p3059
(dp3060
g24
(ics475_types
FeatureVector
p3061
(dp3062
g27
(dp3063
I2
F23.75
sI3
F0.415
sI6
F1.0
sI7
F1.0
sI8
F0.04
sI9
F1.0
sI10
F1.0
sI11
F2.0
sI13
F1.0
sI14
F128.0
sI15
F6.0
sI16
F1.0
sI17
F1.0
sI18
F1.0
sI21
F1.0
ssbsg29
g0
(g30
g2
Ntp3064
Rp3065
(dp3066
g34
I0
sbsba(ics475_types
Instance
p3067
(dp3068
g24
(ics475_types
FeatureVector
p3069
(dp3070
g27
(dp3071
I33
F1.0
sI2
F21.33
sI3
F7.5
sI4
F1.0
sI5
F1.0
sI7
F1.0
sI8
F1.415
sI10
F1.0
sI11
F1.0
sI13
F1.0
sI14
F80.0
sI15
F9800.0
sI16
F1.0
sI21
F1.0
sI37
F1.0
ssbsg29
g0
(g30
g2
Ntp3072
Rp3073
(dp3074
g34
I1
sbsba(ics475_types
Instance
p3075
(dp3076
g24
(ics475_types
FeatureVector
p3077
(dp3078
g27
(dp3079
I1
F1.0
sI2
F30.58
sI3
F10.665
sI4
F1.0
sI5
F1.0
sI8
F0.085
sI9
F1.0
sI10
F1.0
sI11
F12.0
sI12
F1.0
sI13
F1.0
sI14
F129.0
sI15
F3.0
sI27
F1.0
sI30
F1.0
ssbsg29
g0
(g30
g2
Ntp3080
Rp3081
(dp3082
g34
I0
sbsba(ics475_types
Instance
p3083
(dp3084
g24
(ics475_types
FeatureVector
p3085
(dp3086
g27
(dp3087
I2
F40.58
sI3
F3.29
sI4
F1.0
sI5
F1.0
sI7
F1.0
sI8
F3.5
sI9
F1.0
sI12
F1.0
sI14
F400.0
sI16
F1.0
sI35
F1.0
sI20
F1.0
sI22
F1.0
ssbsg29
g0
(g30
g2
Ntp3088
Rp3089
(dp3090
g34
I0
sbsba(ics475_types
Instance
p3091
(dp3092
g24
(ics475_types
FeatureVector
p3093
(dp3094
g27
(dp3095
I2
F31.08
sI3
F3.085
sI4
F1.0
sI5
F1.0
sI6
F1.0
sI7
F1.0
sI8
F2.5
sI9
F1.0
sI10
F1.0
sI11
F2.0
sI12
F1.0
sI13
F1.0
sI14
F160.0
sI15
F41.0
sI16
F1.0
ssbsg29
g0
(g30
g2
Ntp3096
Rp3097
(dp3098
g34
I0
sbsba(ics475_types
Instance
p3099
(dp3100
g24
(ics475_types
FeatureVector
p3101
(dp3102
g27
(dp3103
I1
F1.0
sI2
F17.67
sI9
F1.0
sI13
F1.0
sI14
F86.0
sI17
F1.0
sI18
F1.0
sI20
F1.0
sI21
F1.0
sI24
F1.0
sI28
F1.0
ssbsg29
g0
(g30
g2
Ntp3104
Rp3105
(dp3106
g34
I0
sbsba(ics475_types
Instance
p3107
(dp3108
g24
(ics475_types
FeatureVector
p3109
(dp3110
g27
(dp3111
I32
F1.0
sI33
F1.0
sI2
F40.0
sI3
F6.5
sI4
F1.0
sI5
F1.0
sI8
F3.5
sI10
F1.0
sI11
F1.0
sI13
F1.0
sI15
F500.0
sI16
F1.0
sI21
F1.0
sI37
F1.0
ssbsg29
g0
(g30
g2
Ntp3112
Rp3113
(dp3114
g34
I1
sbsba(ics475_types
Instance
p3115
(dp3116
g24
(ics475_types
FeatureVector
p3117
(dp3118
g27
(dp3119
I1
F1.0
sI2
F16.08
sI3
F0.335
sI4
F1.0
sI5
F1.0
sI9
F1.0
sI10
F1.0
sI11
F1.0
sI13
F1.0
sI14
F160.0
sI15
F126.0
sI21
F1.0
sI23
F1.0
sI24
F1.0
ssbsg29
g0
(g30
g2
Ntp3120
Rp3121
(dp3122
g34
I0
sbsba(ics475_types
Instance
p3123
(dp3124
g24
(ics475_types
FeatureVector
p3125
(dp3126
g27
(dp3127
I33
F1.0
sI2
F44.25
sI3
F0.5
sI4
F1.0
sI5
F1.0
sI7
F1.0
sI8
F10.75
sI14
F400.0
sI16
F1.0
sI35
F1.0
sI20
F1.0
sI21
F1.0
sI22
F1.0
ssbsg29
g0
(g30
g2
Ntp3128
Rp3129
(dp3130
g34
I0
sbsba(ics475_types
Instance
p3131
(dp3132
g24
(ics475_types
FeatureVector
p3133
(dp3134
g27
(dp3135
I32
F1.0
sI33
F1.0
sI2
F34.25
sI3
F1.75
sI4
F1.0
sI5
F1.0
sI8
F0.25
sI12
F1.0
sI13
F1.0
sI14
F163.0
sI16
F1.0
sI20
F1.0
sI31
F1.0
ssbsg29
g0
(g30
g2
Ntp3136
Rp3137
(dp3138
g34
I0
sbsba(ics475_types
Instance
p3139
(dp3140
g24
(ics475_types
FeatureVector
p3141
(dp3142
g27
(dp3143
I2
F22.0
sI3
F0.79
sI4
F1.0
sI5
F1.0
sI7
F1.0
sI8
F0.29
sI9
F1.0
sI10
F1.0
sI11
F1.0
sI13
F1.0
sI14
F420.0
sI15
F283.0
sI16
F1.0
sI21
F1.0
sI31
F1.0
ssbsg29
g0
(g30
g2
Ntp3144
Rp3145
(dp3146
g34
I0
sbsba(ics475_types
Instance
p3147
(dp3148
g24
(ics475_types
FeatureVector
p3149
(dp3150
g27
(dp3151
I33
F1.0
sI2
F13.75
sI3
F4.0
sI7
F1.0
sI8
F1.75
sI10
F1.0
sI11
F2.0
sI12
F1.0
sI13
F1.0
sI14
F120.0
sI15
F1000.0
sI16
F1.0
sI17
F1.0
sI18
F1.0
sI31
F1.0
ssbsg29
g0
(g30
g2
Ntp3152
Rp3153
(dp3154
g34
I1
sbsba(ics475_types
Instance
p3155
(dp3156
g24
(ics475_types
FeatureVector
p3157
(dp3158
g27
(dp3159
I2
F19.17
sI3
F4.0
sI7
F1.0
sI8
F1.0
sI9
F1.0
sI12
F1.0
sI13
F1.0
sI14
F360.0
sI15
F1000.0
sI16
F1.0
sI17
F1.0
sI18
F1.0
sI20
F1.0
sI25
F1.0
ssbsg29
g0
(g30
g2
Ntp3160
Rp3161
(dp3162
g34
I0
sbsba(ics475_types
Instance
p3163
(dp3164
g24
(ics475_types
FeatureVector
p3165
(dp3166
g27
(dp3167
I1
F1.0
sI2
F28.58
sI3
F3.75
sI4
F1.0
sI5
F1.0
sI6
F1.0
sI7
F1.0
sI8
F0.25
sI9
F1.0
sI10
F1.0
sI11
F1.0
sI12
F1.0
sI13
F1.0
sI14
F40.0
sI15
F154.0
ssbsg29
g0
(g30
g2
Ntp3168
Rp3169
(dp3170
g34
I0
sbsba(ics475_types
Instance
p3171
(dp3172
g24
(ics475_types
FeatureVector
p3173
(dp3174
g27
(dp3175
I33
F1.0
sI2
F43.25
sI3
F3.0
sI4
F1.0
sI5
F1.0
sI8
F6.0
sI10
F1.0
sI11
F11.0
sI13
F1.0
sI14
F80.0
sI16
F1.0
sI21
F1.0
sI27
F1.0
sI30
F1.0
ssbsg29
g0
(g30
g2
Ntp3176
Rp3177
(dp3178
g34
I1
sbsba(ics475_types
Instance
p3179
(dp3180
g24
(ics475_types
FeatureVector
p3181
(dp3182
g27
(dp3183
I33
F1.0
sI2
F63.33
sI3
F0.54
sI4
F1.0
sI5
F1.0
sI6
F1.0
sI7
F1.0
sI8
F0.585
sI10
F1.0
sI11
F3.0
sI12
F1.0
sI13
F1.0
sI14
F180.0
sI16
F1.0
ssbsg29
g0
(g30
g2
Ntp3184
Rp3185
(dp3186
g34
I0
sbsba(ics475_types
Instance
p3187
(dp3188
g24
(ics475_types
FeatureVector
p3189
(dp3190
g27
(dp3191
I1
F1.0
sI2
F18.92
sI3
F9.0
sI4
F1.0
sI5
F1.0
sI7
F1.0
sI8
F0.75
sI10
F1.0
sI11
F2.0
sI13
F1.0
sI14
F88.0
sI15
F591.0
sI21
F1.0
sI33
F1.0
sI37
F1.0
ssbsg29
g0
(g30
g2
Ntp3192
Rp3193
(dp3194
g34
I1
sbsba(ics475_types
Instance
p3195
(dp3196
g24
(ics475_types
FeatureVector
p3197
(dp3198
g27
(dp3199
I33
F1.0
sI2
F31.67
sI3
F16.165
sI4
F1.0
sI5
F1.0
sI7
F1.0
sI8
F3.0
sI10
F1.0
sI11
F9.0
sI13
F1.0
sI14
F250.0
sI15
F730.0
sI16
F1.0
sI34
F1.0
sI21
F1.0
ssbsg29
g0
(g30
g2
Ntp3200
Rp3201
(dp3202
g34
I1
sbsba(ics475_types
Instance
p3203
(dp3204
g24
(ics475_types
FeatureVector
p3205
(dp3206
g27
(dp3207
I1
F1.0
sI2
F35.17
sI3
F3.75
sI4
F1.0
sI5
F1.0
sI9
F1.0
sI10
F1.0
sI11
F6.0
sI13
F1.0
sI15
F200.0
sI21
F1.0
sI23
F1.0
sI24
F1.0
ssbsg29
g0
(g30
g2
Ntp3208
Rp3209
(dp3210
g34
I0
sbsba(ics475_types
Instance
p3211
(dp3212
g24
(ics475_types
FeatureVector
p3213
(dp3214
g27
(dp3215
I2
F30.75
sI3
F1.585
sI4
F1.0
sI5
F1.0
sI7
F1.0
sI8
F0.585
sI9
F1.0
sI12
F1.0
sI34
F1.0
sI16
F1.0
sI20
F1.0
sI22
F1.0
ssbsg29
g0
(g30
g2
Ntp3216
Rp3217
(dp3218
g34
I0
sbsba(ics475_types
Instance
p3219
(dp3220
g24
(ics475_types
FeatureVector
p3221
(dp3222
g27
(dp3223
I1
F1.0
sI2
F25.25
sI3
F12.5
sI4
F1.0
sI5
F1.0
sI7
F1.0
sI8
F1.0
sI9
F1.0
sI12
F1.0
sI13
F1.0
sI14
F180.0
sI15
F1062.0
sI34
F1.0
sI20
F1.0
ssbsg29
g0
(g30
g2
Ntp3224
Rp3225
(dp3226
g34
I0
sbsba(ics475_types
Instance
p3227
(dp3228
g24
(ics475_types
FeatureVector
p3229
(dp3230
g27
(dp3231
I2
F36.17
sI3
F0.42
sI7
F1.0
sI8
F0.29
sI9
F1.0
sI12
F1.0
sI13
F1.0
sI14
F309.0
sI15
F2.0
sI16
F1.0
sI17
F1.0
sI18
F1.0
sI20
F1.0
sI31
F1.0
ssbsg29
g0
(g30
g2
Ntp3232
Rp3233
(dp3234
g34
I0
sbsba(ics475_types
Instance
p3235
(dp3236
g24
(ics475_types
FeatureVector
p3237
(dp3238
g27
(dp3239
I33
F1.0
sI2
F20.5
sI3
F10.0
sI6
F1.0
sI7
F1.0
sI8
F2.5
sI14
F40.0
sI16
F1.0
sI17
F1.0
sI18
F1.0
sI20
F1.0
sI21
F1.0
sI22
F1.0
ssbsg29
g0
(g30
g2
Ntp3240
Rp3241
(dp3242
g34
I1
sbsba(ics475_types
Instance
p3243
(dp3244
g24
(ics475_types
FeatureVector
p3245
(dp3246
g27
(dp3247
I33
F1.0
sI2
F37.75
sI3
F7.0
sI4
F1.0
sI5
F1.0
sI8
F11.5
sI10
F1.0
sI11
F7.0
sI12
F1.0
sI13
F1.0
sI14
F300.0
sI15
F5.0
sI16
F1.0
sI27
F1.0
sI30
F1.0
ssbsg29
g0
(g30
g2
Ntp3248
Rp3249
(dp3250
g34
I0
sbsba(ics475_types
Instance
p3251
(dp3252
g24
(ics475_types
FeatureVector
p3253
(dp3254
g27
(dp3255
I1
F1.0
sI2
F27.67
sI3
F2.04
sI4
F1.0
sI5
F1.0
sI7
F1.0
sI8
F0.25
sI9
F1.0
sI12
F1.0
sI13
F1.0
sI14
F180.0
sI15
F50.0
sI20
F1.0
sI31
F1.0
ssbsg29
g0
(g30
g2
Ntp3256
Rp3257
(dp3258
g34
I0
sbsba(ics475_types
Instance
p3259
(dp3260
g24
(ics475_types
FeatureVector
p3261
(dp3262
g27
(dp3263
I2
F20.67
sI3
F0.415
sI4
F1.0
sI5
F1.0
sI6
F1.0
sI7
F1.0
sI8
F0.125
sI9
F1.0
sI13
F1.0
sI15
F44.0
sI16
F1.0
sI20
F1.0
sI21
F1.0
ssbsg29
g0
(g30
g2
Ntp3264
Rp3265
(dp3266
g34
I0
sbsba(ics475_types
Instance
p3267
(dp3268
g24
(ics475_types
FeatureVector
p3269
(dp3270
g27
(dp3271
I2
F32.33
sI3
F3.5
sI4
F1.0
sI5
F1.0
sI7
F1.0
sI8
F0.5
sI9
F1.0
sI12
F1.0
sI13
F1.0
sI14
F232.0
sI16
F1.0
sI19
F1.0
sI20
F1.0
ssbsg29
g0
(g30
g2
Ntp3272
Rp3273
(dp3274
g34
I0
sbsba(ics475_types
Instance
p3275
(dp3276
g24
(ics475_types
FeatureVector
p3277
(dp3278
g27
(dp3279
I2
F22.25
sI3
F0.46
sI4
F1.0
sI5
F1.0
sI7
F1.0
sI8
F0.125
sI9
F1.0
sI12
F1.0
sI13
F1.0
sI14
F280.0
sI15
F55.0
sI16
F1.0
sI19
F1.0
sI20
F1.0
ssbsg29
g0
(g30
g2
Ntp3280
Rp3281
(dp3282
g34
I0
sbsba(ics475_types
Instance
p3283
(dp3284
g24
(ics475_types
FeatureVector
p3285
(dp3286
g27
(dp3287
I32
F1.0
sI1
F1.0
sI2
F21.25
sI3
F2.335
sI4
F1.0
sI5
F1.0
sI33
F1.0
sI8
F0.5
sI10
F1.0
sI11
F4.0
sI14
F80.0
sI21
F1.0
sI22
F1.0
sI25
F1.0
ssbsg29
g0
(g30
g2
Ntp3288
Rp3289
(dp3290
g34
I1
sbsba(ics475_types
Instance
p3291
(dp3292
g24
(ics475_types
FeatureVector
p3293
(dp3294
g27
(dp3295
I33
F1.0
sI2
F25.0
sI3
F12.0
sI4
F1.0
sI5
F1.0
sI7
F1.0
sI8
F2.25
sI10
F1.0
sI11
F2.0
sI12
F1.0
sI13
F1.0
sI14
F120.0
sI15
F5.0
sI16
F1.0
sI19
F1.0
ssbsg29
g0
(g30
g2
Ntp3296
Rp3297
(dp3298
g34
I0
sbsba(ics475_types
Instance
p3299
(dp3300
g24
(ics475_types
FeatureVector
p3301
(dp3302
g27
(dp3303
I33
F1.0
sI2
F38.67
sI3
F0.21
sI4
F1.0
sI5
F1.0
sI7
F1.0
sI8
F0.085
sI12
F1.0
sI13
F1.0
sI14
F280.0
sI16
F1.0
sI19
F1.0
sI20
F1.0
ssbsg29
g0
(g30
g2
Ntp3304
Rp3305
(dp3306
g34
I1
sbsba(ics475_types
Instance
p3307
(dp3308
g24
(ics475_types
FeatureVector
p3309
(dp3310
g27
(dp3311
I33
F1.0
sI2
F56.0
sI3
F12.5
sI4
F1.0
sI5
F1.0
sI8
F8.0
sI12
F1.0
sI13
F1.0
sI14
F24.0
sI15
F2028.0
sI16
F1.0
sI19
F1.0
sI20
F1.0
sI27
F1.0
ssbsg29
g0
(g30
g2
Ntp3312
Rp3313
(dp3314
g34
I1
sbsba(ics475_types
Instance
p3315
(dp3316
g24
(ics475_types
FeatureVector
p3317
(dp3318
g27
(dp3319
I1
F1.0
sI2
F19.58
sI3
F0.665
sI4
F1.0
sI5
F1.0
sI7
F1.0
sI8
F1.665
sI9
F1.0
sI13
F1.0
sI14
F220.0
sI15
F5.0
sI20
F1.0
sI21
F1.0
sI31
F1.0
ssbsg29
g0
(g30
g2
Ntp3320
Rp3321
(dp3322
g34
I0
sbsba(ics475_types
Instance
p3323
(dp3324
g24
(ics475_types
FeatureVector
p3325
(dp3326
g27
(dp3327
I2
F29.83
sI3
F3.5
sI4
F1.0
sI5
F1.0
sI6
F1.0
sI7
F1.0
sI8
F0.165
sI9
F1.0
sI13
F1.0
sI14
F216.0
sI16
F1.0
sI20
F1.0
sI21
F1.0
ssbsg29
g0
(g30
g2
Ntp3328
Rp3329
(dp3330
g34
I0
sbsba(ics475_types
Instance
p3331
(dp3332
g24
(ics475_types
FeatureVector
p3333
(dp3334
g27
(dp3335
I33
F1.0
sI2
F23.08
sI3
F2.5
sI4
F1.0
sI5
F1.0
sI6
F1.0
sI7
F1.0
sI8
F1.085
sI10
F1.0
sI11
F11.0
sI12
F1.0
sI13
F1.0
sI14
F60.0
sI15
F2184.0
sI16
F1.0
ssbsg29
g0
(g30
g2
Ntp3336
Rp3337
(dp3338
g34
I1
sbsba(ics475_types
Instance
p3339
(dp3340
g24
(ics475_types
FeatureVector
p3341
(dp3342
g27
(dp3343
I1
F1.0
sI2
F38.92
sI3
F1.665
sI4
F1.0
sI5
F1.0
sI7
F1.0
sI8
F0.25
sI9
F1.0
sI13
F1.0
sI15
F390.0
sI20
F1.0
sI21
F1.0
sI37
F1.0
ssbsg29
g0
(g30
g2
Ntp3344
Rp3345
(dp3346
g34
I0
sbsba(ics475_types
Instance
p3347
(dp3348
g24
(ics475_types
FeatureVector
p3349
(dp3350
g27
(dp3351
I2
F39.17
sI3
F2.5
sI8
F10.0
sI9
F1.0
sI12
F1.0
sI14
F200.0
sI16
F1.0
sI17
F1.0
sI18
F1.0
sI20
F1.0
sI22
F1.0
sI25
F1.0
sI27
F1.0
ssbsg29
g0
(g30
g2
Ntp3352
Rp3353
(dp3354
g34
I0
sbsba(ics475_types
Instance
p3355
(dp3356
g24
(ics475_types
FeatureVector
p3357
(dp3358
g27
(dp3359
I2
F29.42
sI3
F1.25
sI4
F1.0
sI5
F1.0
sI6
F1.0
sI8
F0.25
sI9
F1.0
sI10
F1.0
sI11
F2.0
sI12
F1.0
sI13
F1.0
sI14
F400.0
sI15
F108.0
sI16
F1.0
sI27
F1.0
ssbsg29
g0
(g30
g2
Ntp3360
Rp3361
(dp3362
g34
I0
sbsba(ics475_types
Instance
p3363
(dp3364
g24
(ics475_types
FeatureVector
p3365
(dp3366
g27
(dp3367
I2
F23.08
sI4
F1.0
sI5
F1.0
sI7
F1.0
sI8
F1.0
sI9
F1.0
sI10
F1.0
sI11
F11.0
sI16
F1.0
sI19
F1.0
sI21
F1.0
sI22
F1.0
ssbsg29
g0
(g30
g2
Ntp3368
Rp3369
(dp3370
g34
I0
sbsba(ics475_types
Instance
p3371
(dp3372
g24
(ics475_types
FeatureVector
p3373
(dp3374
g27
(dp3375
I33
F1.0
sI2
F22.08
sI3
F11.0
sI4
F1.0
sI5
F1.0
sI7
F1.0
sI8
F0.665
sI13
F1.0
sI14
F100.0
sI16
F1.0
sI20
F1.0
sI21
F1.0
sI36
F1.0
ssbsg29
g0
(g30
g2
Ntp3376
Rp3377
(dp3378
g34
I1
sbsba(ics475_types
Instance
p3379
(dp3380
g24
(ics475_types
FeatureVector
p3381
(dp3382
g27
(dp3383
I33
F1.0
sI2
F21.67
sI3
F1.165
sI7
F1.0
sI8
F2.5
sI10
F1.0
sI11
F1.0
sI13
F1.0
sI14
F180.0
sI15
F20.0
sI16
F1.0
sI17
F1.0
sI18
F1.0
sI19
F1.0
sI21
F1.0
ssbsg29
g0
(g30
g2
Ntp3384
Rp3385
(dp3386
g34
I0
sbsba(ics475_types
Instance
p3387
(dp3388
g24
(ics475_types
FeatureVector
p3389
(dp3390
g27
(dp3391
I33
F1.0
sI2
F23.25
sI3
F1.5
sI4
F1.0
sI5
F1.0
sI7
F1.0
sI8
F2.375
sI10
F1.0
sI11
F3.0
sI12
F1.0
sI13
F1.0
sI15
F582.0
sI16
F1.0
sI30
F1.0
ssbsg29
g0
(g30
g2
Ntp3392
Rp3393
(dp3394
g34
I1
sbsba(ics475_types
Instance
p3395
(dp3396
g24
(ics475_types
FeatureVector
p3397
(dp3398
g27
(dp3399
I1
F1.0
sI2
F40.83
sI3
F10.0
sI4
F1.0
sI5
F1.0
sI33
F1.0
sI8
F1.75
sI13
F1.0
sI14
F29.0
sI15
F837.0
sI20
F1.0
sI21
F1.0
sI27
F1.0
sI30
F1.0
ssbsg29
g0
(g30
g2
Ntp3400
Rp3401
(dp3402
g34
I1
sbsba(ics475_types
Instance
p3403
(dp3404
g24
(ics475_types
FeatureVector
p3405
(dp3406
g27
(dp3407
I33
F1.0
sI2
F27.25
sI3
F0.625
sI4
F1.0
sI5
F1.0
sI7
F1.0
sI8
F0.455
sI12
F1.0
sI13
F1.0
sI14
F200.0
sI16
F1.0
sI20
F1.0
sI37
F1.0
ssbsg29
g0
(g30
g2
Ntp3408
Rp3409
(dp3410
g34
I0
sbsba(ics475_types
Instance
p3411
(dp3412
g24
(ics475_types
FeatureVector
p3413
(dp3414
g27
(dp3415
I1
F1.0
sI2
F21.75
sI3
F11.75
sI4
F1.0
sI5
F1.0
sI6
F1.0
sI7
F1.0
sI8
F0.25
sI9
F1.0
sI12
F1.0
sI13
F1.0
sI14
F180.0
sI20
F1.0
ssbsg29
g0
(g30
g2
Ntp3416
Rp3417
(dp3418
g34
I0
sbsba(ics475_types
Instance
p3419
(dp3420
g24
(ics475_types
FeatureVector
p3421
(dp3422
g27
(dp3423
I1
F1.0
sI2
F21.92
sI3
F11.665
sI4
F1.0
sI5
F1.0
sI8
F0.085
sI9
F1.0
sI13
F1.0
sI14
F320.0
sI15
F5.0
sI19
F1.0
sI20
F1.0
sI21
F1.0
sI27
F1.0
ssbsg29
g0
(g30
g2
Ntp3424
Rp3425
(dp3426
g34
I0
sbsba(ics475_types
Instance
p3427
(dp3428
g24
(ics475_types
FeatureVector
p3429
(dp3430
g27
(dp3431
I1
F1.0
sI2
F31.92
sI3
F3.125
sI4
F1.0
sI5
F1.0
sI8
F3.04
sI9
F1.0
sI10
F1.0
sI11
F2.0
sI12
F1.0
sI13
F1.0
sI14
F200.0
sI15
F4.0
sI23
F1.0
sI24
F1.0
ssbsg29
g0
(g30
g2
Ntp3432
Rp3433
(dp3434
g34
I0
sbsba(ics475_types
Instance
p3435
(dp3436
g24
(ics475_types
FeatureVector
p3437
(dp3438
g27
(dp3439
I33
F1.0
sI2
F29.92
sI3
F1.835
sI4
F1.0
sI5
F1.0
sI6
F1.0
sI8
F4.335
sI13
F1.0
sI14
F260.0
sI15
F200.0
sI16
F1.0
sI20
F1.0
sI21
F1.0
sI27
F1.0
ssbsg29
g0
(g30
g2
Ntp3440
Rp3441
(dp3442
g34
I1
sbsba(ics475_types
Instance
p3443
(dp3444
g24
(ics475_types
FeatureVector
p3445
(dp3446
g27
(dp3447
I1
F1.0
sI2
F21.75
sI3
F1.75
sI9
F1.0
sI13
F1.0
sI14
F160.0
sI17
F1.0
sI18
F1.0
sI20
F1.0
sI21
F1.0
sI28
F1.0
sI29
F1.0
ssbsg29
g0
(g30
g2
Ntp3448
Rp3449
(dp3450
g34
I0
sbsba(ics475_types
Instance
p3451
(dp3452
g24
(ics475_types
FeatureVector
p3453
(dp3454
g27
(dp3455
I2
F37.33
sI3
F2.665
sI4
F1.0
sI5
F1.0
sI7
F1.0
sI8
F0.165
sI9
F1.0
sI12
F1.0
sI13
F1.0
sI15
F501.0
sI16
F1.0
sI20
F1.0
sI36
F1.0
ssbsg29
g0
(g30
g2
Ntp3456
Rp3457
(dp3458
g34
I0
sbsba(ics475_types
Instance
p3459
(dp3460
g24
(ics475_types
FeatureVector
p3461
(dp3462
g27
(dp3463
I1
F1.0
sI2
F47.75
sI3
F8.0
sI4
F1.0
sI5
F1.0
sI6
F1.0
sI7
F1.0
sI8
F7.875
sI10
F1.0
sI11
F6.0
sI12
F1.0
sI13
F1.0
sI15
F1260.0
sI33
F1.0
ssbsg29
g0
(g30
g2
Ntp3464
Rp3465
(dp3466
g34
I1
sbsba(ics475_types
Instance
p3467
(dp3468
g24
(ics475_types
FeatureVector
p3469
(dp3470
g27
(dp3471
I1
F1.0
sI2
F22.5
sI3
F11.0
sI33
F1.0
sI7
F1.0
sI8
F3.0
sI12
F1.0
sI13
F1.0
sI14
F268.0
sI17
F1.0
sI18
F1.0
sI20
F1.0
sI30
F1.0
ssbsg29
g0
(g30
g2
Ntp3472
Rp3473
(dp3474
g34
I0
sbsba(ics475_types
Instance
p3475
(dp3476
g24
(ics475_types
FeatureVector
p3477
(dp3478
g27
(dp3479
I2
F29.5
sI3
F0.58
sI4
F1.0
sI5
F1.0
sI7
F1.0
sI8
F0.29
sI9
F1.0
sI10
F1.0
sI11
F1.0
sI13
F1.0
sI14
F340.0
sI15
F2803.0
sI16
F1.0
sI21
F1.0
sI31
F1.0
ssbsg29
g0
(g30
g2
Ntp3480
Rp3481
(dp3482
g34
I0
sbsba(ics475_types
Instance
p3483
(dp3484
g24
(ics475_types
FeatureVector
p3485
(dp3486
g27
(dp3487
I32
F1.0
sI33
F1.0
sI2
F51.33
sI3
F10.0
sI4
F1.0
sI5
F1.0
sI10
F1.0
sI11
F11.0
sI13
F1.0
sI15
F1249.0
sI16
F1.0
sI21
F1.0
sI25
F1.0
ssbsg29
g0
(g30
g2
Ntp3488
Rp3489
(dp3490
g34
I1
sbsba(ics475_types
Instance
p3491
(dp3492
g24
(ics475_types
FeatureVector
p3493
(dp3494
g27
(dp3495
I2
F24.08
sI3
F0.875
sI4
F1.0
sI5
F1.0
sI7
F1.0
sI8
F0.085
sI9
F1.0
sI10
F1.0
sI11
F4.0
sI13
F1.0
sI14
F254.0
sI15
F1950.0
sI16
F1.0
sI35
F1.0
sI21
F1.0
ssbsg29
g0
(g30
g2
Ntp3496
Rp3497
(dp3498
g34
I0
sbsba(ics475_types
Instance
p3499
(dp3500
g24
(ics475_types
FeatureVector
p3501
(dp3502
g27
(dp3503
I32
F1.0
sI2
F47.83
sI3
F4.165
sI4
F1.0
sI5
F1.0
sI39
F1.0
sI8
F0.085
sI9
F1.0
sI12
F1.0
sI13
F1.0
sI14
F520.0
sI16
F1.0
sI20
F1.0
ssbsg29
g0
(g30
g2
Ntp3504
Rp3505
(dp3506
g34
I0
sbsba(ics475_types
Instance
p3507
(dp3508
g24
(ics475_types
FeatureVector
p3509
(dp3510
g27
(dp3511
I2
F18.25
sI3
F0.165
sI4
F1.0
sI5
F1.0
sI7
F1.0
sI8
F0.25
sI9
F1.0
sI12
F1.0
sI34
F1.0
sI14
F280.0
sI16
F1.0
sI20
F1.0
sI22
F1.0
ssbsg29
g0
(g30
g2
Ntp3512
Rp3513
(dp3514
g34
I0
sbsba(ics475_types
Instance
p3515
(dp3516
g24
(ics475_types
FeatureVector
p3517
(dp3518
g27
(dp3519
I33
F1.0
sI2
F48.75
sI3
F26.335
sI12
F1.0
sI13
F1.0
sI16
F1.0
sI17
F1.0
sI18
F1.0
sI20
F1.0
sI23
F1.0
sI24
F1.0
ssbsg29
g0
(g30
g2
Ntp3520
Rp3521
(dp3522
g34
I0
sbsba(ics475_types
Instance
p3523
(dp3524
g24
(ics475_types
FeatureVector
p3525
(dp3526
g27
(dp3527
I33
F1.0
sI2
F34.75
sI3
F15.0
sI4
F1.0
sI5
F1.0
sI38
F1.0
sI8
F5.375
sI10
F1.0
sI11
F9.0
sI12
F1.0
sI13
F1.0
sI15
F134.0
sI16
F1.0
sI40
F1.0
ssbsg29
g0
(g30
g2
Ntp3528
Rp3529
(dp3530
g34
I1
sbsba(ics475_types
Instance
p3531
(dp3532
g24
(ics475_types
FeatureVector
p3533
(dp3534
g27
(dp3535
I1
F1.0
sI2
F18.83
sI3
F4.415
sI6
F1.0
sI33
F1.0
sI8
F3.0
sI13
F1.0
sI14
F240.0
sI17
F1.0
sI18
F1.0
sI20
F1.0
sI21
F1.0
sI27
F1.0
ssbsg29
g0
(g30
g2
Ntp3536
Rp3537
(dp3538
g34
I1
sbsba(ics475_types
Instance
p3539
(dp3540
g24
(ics475_types
FeatureVector
p3541
(dp3542
g27
(dp3543
I2
F21.25
sI3
F1.5
sI4
F1.0
sI5
F1.0
sI7
F1.0
sI8
F1.5
sI9
F1.0
sI13
F1.0
sI14
F150.0
sI15
F8.0
sI16
F1.0
sI20
F1.0
sI21
F1.0
sI31
F1.0
ssbsg29
g0
(g30
g2
Ntp3544
Rp3545
(dp3546
g34
I1
sbsba(ics475_types
Instance
p3547
(dp3548
g24
(ics475_types
FeatureVector
p3549
(dp3550
g27
(dp3551
I33
F1.0
sI2
F48.58
sI3
F6.5
sI4
F1.0
sI5
F1.0
sI8
F6.0
sI12
F1.0
sI13
F1.0
sI14
F350.0
sI16
F1.0
sI20
F1.0
sI27
F1.0
sI30
F1.0
ssbsg29
g0
(g30
g2
Ntp3552
Rp3553
(dp3554
g34
I1
sbsba(ics475_types
Instance
p3555
(dp3556
g24
(ics475_types
FeatureVector
p3557
(dp3558
g27
(dp3559
I32
F1.0
sI33
F1.0
sI2
F25.75
sI3
F0.75
sI4
F1.0
sI5
F1.0
sI6
F1.0
sI8
F0.25
sI13
F1.0
sI14
F349.0
sI15
F23.0
sI16
F1.0
sI20
F1.0
sI21
F1.0
ssbsg29
g0
(g30
g2
Ntp3560
Rp3561
(dp3562
g34
I1
sbsba(ics475_types
Instance
p3563
(dp3564
g24
(ics475_types
FeatureVector
p3565
(dp3566
g27
(dp3567
I1
F1.0
sI2
F46.08
sI3
F3.0
sI4
F1.0
sI5
F1.0
sI6
F1.0
sI7
F1.0
sI8
F2.375
sI10
F1.0
sI11
F8.0
sI12
F1.0
sI13
F1.0
sI14
F396.0
sI15
F4159.0
sI33
F1.0
ssbsg29
g0
(g30
g2
Ntp3568
Rp3569
(dp3570
g34
I1
sbsba(ics475_types
Instance
p3571
(dp3572
g24
(ics475_types
FeatureVector
p3573
(dp3574
g27
(dp3575
I2
F30.33
sI3
F0.5
sI4
F1.0
sI5
F1.0
sI8
F0.085
sI9
F1.0
sI12
F1.0
sI34
F1.0
sI14
F252.0
sI16
F1.0
sI20
F1.0
sI22
F1.0
sI27
F1.0
ssbsg29
g0
(g30
g2
Ntp3576
Rp3577
(dp3578
g34
I0
sbsba(ics475_types
Instance
p3579
(dp3580
g24
(ics475_types
FeatureVector
p3581
(dp3582
g27
(dp3583
I33
F1.0
sI2
F34.0
sI3
F4.5
sI4
F1.0
sI5
F1.0
sI7
F1.0
sI8
F1.0
sI12
F1.0
sI13
F1.0
sI14
F240.0
sI16
F1.0
sI20
F1.0
sI37
F1.0
ssbsg29
g0
(g30
g2
Ntp3584
Rp3585
(dp3586
g34
I0
sbsba(ics475_types
Instance
p3587
(dp3588
g24
(ics475_types
FeatureVector
p3589
(dp3590
g27
(dp3591
I33
F1.0
sI2
F24.58
sI3
F12.5
sI4
F1.0
sI5
F1.0
sI7
F1.0
sI8
F0.875
sI12
F1.0
sI13
F1.0
sI14
F260.0
sI16
F1.0
sI20
F1.0
sI31
F1.0
ssbsg29
g0
(g30
g2
Ntp3592
Rp3593
(dp3594
g34
I0
sbsba(ics475_types
Instance
p3595
(dp3596
g24
(ics475_types
FeatureVector
p3597
(dp3598
g27
(dp3599
I2
F32.33
sI3
F2.5
sI4
F1.0
sI5
F1.0
sI6
F1.0
sI7
F1.0
sI8
F1.25
sI9
F1.0
sI12
F1.0
sI13
F1.0
sI14
F280.0
sI16
F1.0
sI20
F1.0
ssbsg29
g0
(g30
g2
Ntp3600
Rp3601
(dp3602
g34
I0
sbsba(ics475_types
Instance
p3603
(dp3604
g24
(ics475_types
FeatureVector
p3605
(dp3606
g27
(dp3607
I33
F1.0
sI2
F20.42
sI3
F1.835
sI4
F1.0
sI5
F1.0
sI6
F1.0
sI7
F1.0
sI8
F2.25
sI10
F1.0
sI11
F1.0
sI13
F1.0
sI14
F100.0
sI15
F150.0
sI16
F1.0
sI21
F1.0
ssbsg29
g0
(g30
g2
Ntp3608
Rp3609
(dp3610
g34
I1
sbsba(ics475_types
Instance
p3611
(dp3612
g24
(ics475_types
FeatureVector
p3613
(dp3614
g27
(dp3615
I33
F1.0
sI2
F29.17
sI3
F3.5
sI4
F1.0
sI5
F1.0
sI7
F1.0
sI8
F3.5
sI10
F1.0
sI11
F3.0
sI12
F1.0
sI13
F1.0
sI14
F329.0
sI16
F1.0
sI31
F1.0
ssbsg29
g0
(g30
g2
Ntp3616
Rp3617
(dp3618
g34
I0
sbsba(ics475_types
Instance
p3619
(dp3620
g24
(ics475_types
FeatureVector
p3621
(dp3622
g27
(dp3623
I2
F51.83
sI3
F3.0
sI8
F1.5
sI9
F1.0
sI13
F1.0
sI14
F180.0
sI15
F4.0
sI16
F1.0
sI17
F1.0
sI18
F1.0
sI20
F1.0
sI21
F1.0
sI23
F1.0
sI24
F1.0
ssbsg29
g0
(g30
g2
Ntp3624
Rp3625
(dp3626
g34
I0
sbsba(ics475_types
Instance
p3627
(dp3628
g24
(ics475_types
FeatureVector
p3629
(dp3630
g27
(dp3631
I1
F1.0
sI2
F29.5
sI3
F0.46
sI4
F1.0
sI5
F1.0
sI7
F1.0
sI8
F0.54
sI10
F1.0
sI11
F4.0
sI13
F1.0
sI14
F380.0
sI15
F500.0
sI19
F1.0
sI21
F1.0
sI33
F1.0
ssbsg29
g0
(g30
g2
Ntp3632
Rp3633
(dp3634
g34
I1
sbsba(ics475_types
Instance
p3635
(dp3636
g24
(ics475_types
FeatureVector
p3637
(dp3638
g27
(dp3639
I2
F33.58
sI3
F0.335
sI36
F1.0
sI7
F1.0
sI8
F0.085
sI9
F1.0
sI13
F1.0
sI14
F180.0
sI16
F1.0
sI17
F1.0
sI18
F1.0
sI20
F1.0
sI21
F1.0
ssbsg29
g0
(g30
g2
Ntp3640
Rp3641
(dp3642
g34
I0
sbsba(ics475_types
Instance
p3643
(dp3644
g24
(ics475_types
FeatureVector
p3645
(dp3646
g27
(dp3647
I1
F1.0
sI2
F45.83
sI3
F10.5
sI4
F1.0
sI5
F1.0
sI7
F1.0
sI8
F5.0
sI10
F1.0
sI11
F7.0
sI12
F1.0
sI13
F1.0
sI33
F1.0
sI30
F1.0
ssbsg29
g0
(g30
g2
Ntp3648
Rp3649
(dp3650
g34
I1
sbsba(ics475_types
Instance
p3651
(dp3652
g24
(ics475_types
FeatureVector
p3653
(dp3654
g27
(dp3655
I2
F48.08
sI3
F6.04
sI4
F1.0
sI5
F1.0
sI7
F1.0
sI8
F0.04
sI9
F1.0
sI13
F1.0
sI15
F2690.0
sI16
F1.0
sI19
F1.0
sI20
F1.0
sI21
F1.0
ssbsg29
g0
(g30
g2
Ntp3656
Rp3657
(dp3658
g34
I1
sbsba(ics475_types
Instance
p3659
(dp3660
g24
(ics475_types
FeatureVector
p3661
(dp3662
g27
(dp3663
I32
F1.0
sI2
F33.58
sI3
F0.25
sI4
F1.0
sI5
F1.0
sI8
F4.0
sI9
F1.0
sI12
F1.0
sI14
F420.0
sI16
F1.0
sI20
F1.0
sI22
F1.0
sI25
F1.0
ssbsg29
g0
(g30
g2
Ntp3664
Rp3665
(dp3666
g34
I0
sbsba(ics475_types
Instance
p3667
(dp3668
g24
(ics475_types
FeatureVector
p3669
(dp3670
g27
(dp3671
I32
F1.0
sI2
F34.42
sI3
F1.335
sI4
F1.0
sI5
F1.0
sI8
F0.125
sI9
F1.0
sI12
F1.0
sI13
F1.0
sI14
F440.0
sI15
F4500.0
sI16
F1.0
sI20
F1.0
sI25
F1.0
ssbsg29
g0
(g30
g2
Ntp3672
Rp3673
(dp3674
g34
I0
sbsba(ics475_types
Instance
p3675
(dp3676
g24
(ics475_types
FeatureVector
p3677
(dp3678
g27
(dp3679
I2
F22.5
sI3
F0.125
sI7
F1.0
sI8
F0.125
sI9
F1.0
sI13
F1.0
sI14
F200.0
sI15
F70.0
sI16
F1.0
sI17
F1.0
sI18
F1.0
sI19
F1.0
sI20
F1.0
sI21
F1.0
ssbsg29
g0
(g30
g2
Ntp3680
Rp3681
(dp3682
g34
I0
sbsba(ics475_types
Instance
p3683
(dp3684
g24
(ics475_types
FeatureVector
p3685
(dp3686
g27
(dp3687
I1
F1.0
sI2
F68.67
sI3
F15.0
sI4
F1.0
sI5
F1.0
sI33
F1.0
sI41
F1.0
sI10
F1.0
sI11
F14.0
sI13
F1.0
sI15
F3376.0
sI21
F1.0
sI42
F1.0
ssbsg29
g0
(g30
g2
Ntp3688
Rp3689
(dp3690
g34
I1
sbsba(ics475_types
Instance
p3691
(dp3692
g24
(ics475_types
FeatureVector
p3693
(dp3694
g27
(dp3695
I1
F1.0
sI2
F30.25
sI3
F5.5
sI4
F1.0
sI5
F1.0
sI7
F1.0
sI8
F5.5
sI9
F1.0
sI12
F1.0
sI14
F100.0
sI19
F1.0
sI20
F1.0
sI22
F1.0
ssbsg29
g0
(g30
g2
Ntp3696
Rp3697
(dp3698
g34
I0
sbsba(ics475_types
Instance
p3699
(dp3700
g24
(ics475_types
FeatureVector
p3701
(dp3702
g27
(dp3703
I32
F1.0
sI2
F19.17
sI35
F1.0
sI9
F1.0
sI12
F1.0
sI14
F500.0
sI15
F1.0
sI16
F1.0
sI17
F1.0
sI18
F1.0
sI20
F1.0
sI22
F1.0
ssbsg29
g0
(g30
g2
Ntp3704
Rp3705
(dp3706
g34
I1
sbsba(ics475_types
Instance
p3707
(dp3708
g24
(ics475_types
FeatureVector
p3709
(dp3710
g27
(dp3711
I33
F1.0
sI2
F28.25
sI3
F5.125
sI4
F1.0
sI5
F1.0
sI7
F1.0
sI8
F4.75
sI10
F1.0
sI11
F2.0
sI13
F1.0
sI14
F420.0
sI15
F7.0
sI16
F1.0
sI21
F1.0
sI39
F1.0
ssbsg29
g0
(g30
g2
Ntp3712
Rp3713
(dp3714
g34
I1
sbsba(ics475_types
Instance
p3715
(dp3716
g24
(ics475_types
FeatureVector
p3717
(dp3718
g27
(dp3719
I33
F1.0
sI2
F23.92
sI3
F1.5
sI4
F1.0
sI5
F1.0
sI8
F1.875
sI10
F1.0
sI11
F6.0
sI13
F1.0
sI14
F200.0
sI15
F327.0
sI16
F1.0
sI34
F1.0
sI21
F1.0
sI27
F1.0
ssbsg29
g0
(g30
g2
Ntp3720
Rp3721
(dp3722
g34
I1
sbsba(ics475_types
Instance
p3723
(dp3724
g24
(ics475_types
FeatureVector
p3725
(dp3726
g27
(dp3727
I2
F25.58
sI3
F0.335
sI4
F1.0
sI5
F1.0
sI8
F3.5
sI9
F1.0
sI12
F1.0
sI13
F1.0
sI14
F340.0
sI16
F1.0
sI19
F1.0
sI20
F1.0
sI27
F1.0
ssbsg29
g0
(g30
g2
Ntp3728
Rp3729
(dp3730
g34
I0
sbsba(ics475_types
Instance
p3731
(dp3732
g24
(ics475_types
FeatureVector
p3733
(dp3734
g27
(dp3735
I33
F1.0
sI2
F51.42
sI3
F0.04
sI4
F1.0
sI5
F1.0
sI39
F1.0
sI8
F0.04
sI13
F1.0
sI15
F3000.0
sI16
F1.0
sI20
F1.0
sI21
F1.0
sI27
F1.0
ssbsg29
g0
(g30
g2
Ntp3736
Rp3737
(dp3738
g34
I1
sbsba(ics475_types
Instance
p3739
(dp3740
g24
(ics475_types
FeatureVector
p3741
(dp3742
g27
(dp3743
I1
F1.0
sI2
F23.58
sI3
F0.585
sI8
F0.125
sI9
F1.0
sI13
F1.0
sI14
F120.0
sI15
F87.0
sI17
F1.0
sI18
F1.0
sI20
F1.0
sI21
F1.0
sI23
F1.0
sI24
F1.0
ssbsg29
g0
(g30
g2
Ntp3744
Rp3745
(dp3746
g34
I0
sbsba(ics475_types
Instance
p3747
(dp3748
g24
(ics475_types
FeatureVector
p3749
(dp3750
g27
(dp3751
I33
F1.0
sI2
F36.67
sI3
F4.415
sI7
F1.0
sI8
F0.25
sI10
F1.0
sI11
F10.0
sI12
F1.0
sI13
F1.0
sI14
F320.0
sI16
F1.0
sI17
F1.0
sI18
F1.0
sI19
F1.0
ssbsg29
g0
(g30
g2
Ntp3752
Rp3753
(dp3754
g34
I1
sbsba(ics475_types
Instance
p3755
(dp3756
g24
(ics475_types
FeatureVector
p3757
(dp3758
g27
(dp3759
I2
F30.17
sI3
F1.085
sI6
F1.0
sI7
F1.0
sI8
F0.04
sI9
F1.0
sI13
F1.0
sI14
F170.0
sI15
F179.0
sI16
F1.0
sI17
F1.0
sI18
F1.0
sI20
F1.0
sI21
F1.0
ssbsg29
g0
(g30
g2
Ntp3760
Rp3761
(dp3762
g34
I0
sbsba(ics475_types
Instance
p3763
(dp3764
g24
(ics475_types
FeatureVector
p3765
(dp3766
g27
(dp3767
I2
F50.75
sI3
F0.585
sI4
F1.0
sI5
F1.0
sI9
F1.0
sI13
F1.0
sI14
F145.0
sI16
F1.0
sI20
F1.0
sI21
F1.0
sI23
F1.0
sI24
F1.0
ssbsg29
g0
(g30
g2
Ntp3768
Rp3769
(dp3770
g34
I0
sbsba(ics475_types
Instance
p3771
(dp3772
g24
(ics475_types
FeatureVector
p3773
(dp3774
g27
(dp3775
I1
F1.0
sI2
F20.75
sI3
F9.54
sI4
F1.0
sI5
F1.0
sI7
F1.0
sI8
F0.04
sI9
F1.0
sI13
F1.0
sI14
F200.0
sI15
F1000.0
sI20
F1.0
sI21
F1.0
sI25
F1.0
ssbsg29
g0
(g30
g2
Ntp3776
Rp3777
(dp3778
g34
I0
sbsba(ics475_types
Instance
p3779
(dp3780
g24
(ics475_types
FeatureVector
p3781
(dp3782
g27
(dp3783
I33
F1.0
sI2
F49.58
sI3
F19.0
sI4
F1.0
sI5
F1.0
sI10
F1.0
sI11
F1.0
sI13
F1.0
sI14
F94.0
sI16
F1.0
sI21
F1.0
sI23
F1.0
sI24
F1.0
ssbsg29
g0
(g30
g2
Ntp3784
Rp3785
(dp3786
g34
I0
sbsba(ics475_types
Instance
p3787
(dp3788
g24
(ics475_types
FeatureVector
p3789
(dp3790
g27
(dp3791
I2
F39.5
sI3
F1.625
sI4
F1.0
sI5
F1.0
sI6
F1.0
sI7
F1.0
sI8
F1.5
sI9
F1.0
sI13
F1.0
sI15
F316.0
sI16
F1.0
sI20
F1.0
sI21
F1.0
ssbsg29
g0
(g30
g2
Ntp3792
Rp3793
(dp3794
g34
I0
sbsba(ics475_types
Instance
p3795
(dp3796
g24
(ics475_types
FeatureVector
p3797
(dp3798
g27
(dp3799
I1
F1.0
sI2
F23.0
sI3
F11.75
sI4
F1.0
sI5
F1.0
sI33
F1.0
sI8
F0.5
sI10
F1.0
sI11
F2.0
sI12
F1.0
sI13
F1.0
sI14
F300.0
sI15
F551.0
sI39
F1.0
sI27
F1.0
ssbsg29
g0
(g30
g2
Ntp3800
Rp3801
(dp3802
g34
I1
sbsba(ics475_types
Instance
p3803
(dp3804
g24
(ics475_types
FeatureVector
p3805
(dp3806
g27
(dp3807
I1
F1.0
sI2
F36.75
sI3
F5.125
sI4
F1.0
sI5
F1.0
sI7
F1.0
sI8
F5.0
sI41
F1.0
sI12
F1.0
sI13
F1.0
sI15
F4000.0
sI20
F1.0
sI33
F1.0
ssbsg29
g0
(g30
g2
Ntp3808
Rp3809
(dp3810
g34
I1
sbsba(ics475_types
Instance
p3811
(dp3812
g24
(ics475_types
FeatureVector
p3813
(dp3814
g27
(dp3815
I2
F36.75
sI3
F0.125
sI6
F1.0
sI7
F1.0
sI8
F1.5
sI9
F1.0
sI12
F1.0
sI13
F1.0
sI14
F232.0
sI15
F113.0
sI16
F1.0
sI17
F1.0
sI18
F1.0
sI20
F1.0
ssbsg29
g0
(g30
g2
Ntp3816
Rp3817
(dp3818
g34
I1
sbsba(ics475_types
Instance
p3819
(dp3820
g24
(ics475_types
FeatureVector
p3821
(dp3822
g27
(dp3823
I2
F22.75
sI3
F11.5
sI4
F1.0
sI5
F1.0
sI7
F1.0
sI8
F0.415
sI9
F1.0
sI13
F1.0
sI16
F1.0
sI20
F1.0
sI21
F1.0
sI25
F1.0
ssbsg29
g0
(g30
g2
Ntp3824
Rp3825
(dp3826
g34
I0
sbsba(ics475_types
Instance
p3827
(dp3828
g24
(ics475_types
FeatureVector
p3829
(dp3830
g27
(dp3831
I33
F1.0
sI2
F37.33
sI3
F6.5
sI4
F1.0
sI5
F1.0
sI8
F4.25
sI10
F1.0
sI11
F12.0
sI12
F1.0
sI13
F1.0
sI14
F93.0
sI16
F1.0
sI35
F1.0
sI27
F1.0
ssbsg29
g0
(g30
g2
Ntp3832
Rp3833
(dp3834
g34
I1
sbsba(ics475_types
Instance
p3835
(dp3836
g24
(ics475_types
FeatureVector
p3837
(dp3838
g27
(dp3839
I33
F1.0
sI2
F23.58
sI3
F0.46
sI7
F1.0
sI8
F2.625
sI10
F1.0
sI11
F6.0
sI12
F1.0
sI13
F1.0
sI14
F208.0
sI15
F347.0
sI16
F1.0
sI17
F1.0
sI18
F1.0
sI31
F1.0
ssbsg29
g0
(g30
g2
Ntp3840
Rp3841
(dp3842
g34
I0
sbsba(ics475_types
Instance
p3843
(dp3844
g24
(ics475_types
FeatureVector
p3845
(dp3846
g27
(dp3847
I2
F22.5
sI3
F11.5
sI7
F1.0
sI8
F1.5
sI9
F1.0
sI12
F1.0
sI13
F1.0
sI15
F4000.0
sI16
F1.0
sI17
F1.0
sI18
F1.0
sI35
F1.0
sI20
F1.0
ssbsg29
g0
(g30
g2
Ntp3848
Rp3849
(dp3850
g34
I0
sbsba(ics475_types
Instance
p3851
(dp3852
g24
(ics475_types
FeatureVector
p3853
(dp3854
g27
(dp3855
I1
F1.0
sI2
F18.58
sI3
F10.0
sI4
F1.0
sI5
F1.0
sI7
F1.0
sI8
F0.415
sI9
F1.0
sI13
F1.0
sI14
F80.0
sI15
F42.0
sI34
F1.0
sI20
F1.0
sI21
F1.0
ssbsg29
g0
(g30
g2
Ntp3856
Rp3857
(dp3858
g34
I0
sbsba(ics475_types
Instance
p3859
(dp3860
g24
(ics475_types
FeatureVector
p3861
(dp3862
g27
(dp3863
I32
F1.0
sI1
F1.0
sI2
F33.75
sI3
F0.75
sI4
F1.0
sI5
F1.0
sI33
F1.0
sI8
F1.0
sI10
F1.0
sI11
F3.0
sI12
F1.0
sI13
F1.0
sI14
F212.0
sI19
F1.0
ssbsg29
g0
(g30
g2
Ntp3864
Rp3865
(dp3866
g34
I0
sbsba(ics475_types
Instance
p3867
(dp3868
g24
(ics475_types
FeatureVector
p3869
(dp3870
g27
(dp3871
I1
F1.0
sI2
F36.0
sI3
F1.0
sI4
F1.0
sI5
F1.0
sI6
F1.0
sI7
F1.0
sI8
F2.0
sI10
F1.0
sI11
F11.0
sI13
F1.0
sI15
F456.0
sI21
F1.0
sI33
F1.0
ssbsg29
g0
(g30
g2
Ntp3872
Rp3873
(dp3874
g34
I1
sbsba(ics475_types
Instance
p3875
(dp3876
g24
(ics475_types
FeatureVector
p3877
(dp3878
g27
(dp3879
I2
F31.83
sI3
F0.04
sI7
F1.0
sI8
F0.04
sI9
F1.0
sI13
F1.0
sI16
F1.0
sI17
F1.0
sI18
F1.0
sI35
F1.0
sI20
F1.0
sI21
F1.0
ssbsg29
g0
(g30
g2
Ntp3880
Rp3881
(dp3882
g34
I0
sbsba(ics475_types
Instance
p3883
(dp3884
g24
(ics475_types
FeatureVector
p3885
(dp3886
g27
(dp3887
I33
F1.0
sI2
F59.67
sI3
F1.54
sI4
F1.0
sI5
F1.0
sI7
F1.0
sI8
F0.125
sI12
F1.0
sI13
F1.0
sI14
F260.0
sI16
F1.0
sI20
F1.0
sI30
F1.0
ssbsg29
g0
(g30
g2
Ntp3888
Rp3889
(dp3890
g34
I1
sbsba(ics475_types
Instance
p3891
(dp3892
g24
(ics475_types
FeatureVector
p3893
(dp3894
g27
(dp3895
I2
F42.75
sI3
F4.085
sI4
F1.0
sI5
F1.0
sI7
F1.0
sI8
F0.04
sI9
F1.0
sI13
F1.0
sI14
F108.0
sI15
F100.0
sI16
F1.0
sI20
F1.0
sI21
F1.0
sI37
F1.0
ssbsg29
g0
(g30
g2
Ntp3896
Rp3897
(dp3898
g34
I0
sbsba(ics475_types
Instance
p3899
(dp3900
g24
(ics475_types
FeatureVector
p3901
(dp3902
g27
(dp3903
I33
F1.0
sI2
F76.75
sI3
F22.29
sI4
F1.0
sI5
F1.0
sI8
F12.75
sI41
F1.0
sI10
F1.0
sI11
F1.0
sI12
F1.0
sI13
F1.0
sI15
F109.0
sI16
F1.0
sI42
F1.0
ssbsg29
g0
(g30
g2
Ntp3904
Rp3905
(dp3906
g34
I1
sbsba(ics475_types
Instance
p3907
(dp3908
g24
(ics475_types
FeatureVector
p3909
(dp3910
g27
(dp3911
I33
F1.0
sI2
F21.33
sI3
F10.5
sI4
F1.0
sI5
F1.0
sI6
F1.0
sI7
F1.0
sI8
F3.0
sI12
F1.0
sI13
F1.0
sI16
F1.0
sI20
F1.0
ssbsg29
g0
(g30
g2
Ntp3912
Rp3913
(dp3914
g34
I1
sbsba(ics475_types
Instance
p3915
(dp3916
g24
(ics475_types
FeatureVector
p3917
(dp3918
g27
(dp3919
I33
F1.0
sI2
F30.17
sI3
F6.5
sI4
F1.0
sI5
F1.0
sI7
F1.0
sI8
F3.125
sI10
F1.0
sI11
F8.0
sI13
F1.0
sI14
F330.0
sI15
F1200.0
sI16
F1.0
sI21
F1.0
sI36
F1.0
ssbsg29
g0
(g30
g2
Ntp3920
Rp3921
(dp3922
g34
I1
sbsba(ics475_types
Instance
p3923
(dp3924
g24
(ics475_types
FeatureVector
p3925
(dp3926
g27
(dp3927
I1
F1.0
sI2
F26.92
sI3
F13.5
sI4
F1.0
sI5
F1.0
sI33
F1.0
sI8
F5.0
sI10
F1.0
sI11
F2.0
sI13
F1.0
sI15
F5000.0
sI21
F1.0
sI27
F1.0
sI30
F1.0
ssbsg29
g0
(g30
g2
Ntp3928
Rp3929
(dp3930
g34
I1
sbsba(ics475_types
Instance
p3931
(dp3932
g24
(ics475_types
FeatureVector
p3933
(dp3934
g27
(dp3935
I32
F1.0
sI33
F1.0
sI2
F49.5
sI3
F7.585
sI4
F1.0
sI5
F1.0
sI8
F7.585
sI10
F1.0
sI11
F15.0
sI12
F1.0
sI13
F1.0
sI15
F5000.0
sI16
F1.0
sI25
F1.0
ssbsg29
g0
(g30
g2
Ntp3936
Rp3937
(dp3938
g34
I1
sbsba(ics475_types
Instance
p3939
(dp3940
g24
(ics475_types
FeatureVector
p3941
(dp3942
g27
(dp3943
I1
F1.0
sI2
F38.58
sI3
F5.0
sI4
F1.0
sI5
F1.0
sI7
F1.0
sI8
F13.5
sI12
F1.0
sI13
F1.0
sI14
F980.0
sI20
F1.0
sI36
F1.0
sI33
F1.0
ssbsg29
g0
(g30
g2
Ntp3944
Rp3945
(dp3946
g34
I0
sbsba(ics475_types
Instance
p3947
(dp3948
g24
(ics475_types
FeatureVector
p3949
(dp3950
g27
(dp3951
I2
F33.67
sI3
F2.165
sI4
F1.0
sI5
F1.0
sI6
F1.0
sI7
F1.0
sI8
F1.5
sI9
F1.0
sI46
F1.0
sI14
F120.0
sI16
F1.0
sI20
F1.0
sI21
F1.0
ssbsg29
g0
(g30
g2
Ntp3952
Rp3953
(dp3954
g34
I0
sbsba(ics475_types
Instance
p3955
(dp3956
g24
(ics475_types
FeatureVector
p3957
(dp3958
g27
(dp3959
I2
F19.5
sI3
F0.29
sI4
F1.0
sI5
F1.0
sI7
F1.0
sI8
F0.29
sI9
F1.0
sI13
F1.0
sI14
F280.0
sI15
F364.0
sI16
F1.0
sI19
F1.0
sI20
F1.0
sI21
F1.0
ssbsg29
g0
(g30
g2
Ntp3960
Rp3961
(dp3962
g34
I0
sbsba(ics475_types
Instance
p3963
(dp3964
g24
(ics475_types
FeatureVector
p3965
(dp3966
g27
(dp3967
I32
F1.0
sI33
F1.0
sI2
F28.25
sI3
F5.04
sI6
F1.0
sI8
F1.5
sI10
F1.0
sI11
F8.0
sI12
F1.0
sI13
F1.0
sI14
F144.0
sI15
F7.0
sI16
F1.0
sI17
F1.0
sI18
F1.0
ssbsg29
g0
(g30
g2
Ntp3968
Rp3969
(dp3970
g34
I1
sbsba(ics475_types
Instance
p3971
(dp3972
g24
(ics475_types
FeatureVector
p3973
(dp3974
g27
(dp3975
I1
F1.0
sI2
F22.67
sI3
F7.0
sI4
F1.0
sI5
F1.0
sI6
F1.0
sI7
F1.0
sI8
F0.165
sI9
F1.0
sI13
F1.0
sI14
F160.0
sI20
F1.0
sI21
F1.0
ssbsg29
g0
(g30
g2
Ntp3976
Rp3977
(dp3978
g34
I0
sbsba(ics475_types
Instance
p3979
(dp3980
g24
(ics475_types
FeatureVector
p3981
(dp3982
g27
(dp3983
I2
F36.17
sI3
F18.125
sI4
F1.0
sI5
F1.0
sI7
F1.0
sI8
F0.085
sI9
F1.0
sI13
F1.0
sI14
F320.0
sI15
F3552.0
sI16
F1.0
sI20
F1.0
sI21
F1.0
sI31
F1.0
ssbsg29
g0
(g30
g2
Ntp3984
Rp3985
(dp3986
g34
I0
sbsba(ics475_types
Instance
p3987
(dp3988
g24
(ics475_types
FeatureVector
p3989
(dp3990
g27
(dp3991
I33
F1.0
sI2
F45.17
sI3
F1.5
sI4
F1.0
sI5
F1.0
sI6
F1.0
sI7
F1.0
sI8
F2.5
sI12
F1.0
sI13
F1.0
sI14
F140.0
sI16
F1.0
sI20
F1.0
ssbsg29
g0
(g30
g2
Ntp3992
Rp3993
(dp3994
g34
I0
sbsba(ics475_types
Instance
p3995
(dp3996
g24
(ics475_types
FeatureVector
p3997
(dp3998
g27
(dp3999
I2
F52.42
sI3
F1.5
sI4
F1.0
sI5
F1.0
sI7
F1.0
sI8
F3.75
sI9
F1.0
sI12
F1.0
sI13
F1.0
sI15
F350.0
sI16
F1.0
sI34
F1.0
sI20
F1.0
ssbsg29
g0
(g30
g2
Ntp4000
Rp4001
(dp4002
g34
I0
sbsba(ics475_types
Instance
p4003
(dp4004
g24
(ics475_types
FeatureVector
p4005
(dp4006
g27
(dp4007
I2
F29.67
sI3
F0.75
sI6
F1.0
sI7
F1.0
sI8
F0.04
sI9
F1.0
sI13
F1.0
sI14
F240.0
sI16
F1.0
sI17
F1.0
sI18
F1.0
sI20
F1.0
sI21
F1.0
ssbsg29
g0
(g30
g2
Ntp4008
Rp4009
(dp4010
g34
I0
sbsba(ics475_types
Instance
p4011
(dp4012
g24
(ics475_types
FeatureVector
p4013
(dp4014
g27
(dp4015
I33
F1.0
sI2
F56.75
sI3
F12.25
sI4
F1.0
sI5
F1.0
sI7
F1.0
sI8
F1.25
sI10
F1.0
sI11
F4.0
sI12
F1.0
sI13
F1.0
sI14
F200.0
sI16
F1.0
sI35
F1.0
ssbsg29
g0
(g30
g2
Ntp4016
Rp4017
(dp4018
g34
I1
sbsba(ics475_types
Instance
p4019
(dp4020
g24
(ics475_types
FeatureVector
p4021
(dp4022
g27
(dp4023
I33
F1.0
sI2
F26.67
sI3
F4.25
sI4
F1.0
sI5
F1.0
sI7
F1.0
sI8
F4.29
sI10
F1.0
sI11
F1.0
sI12
F1.0
sI13
F1.0
sI14
F120.0
sI16
F1.0
sI36
F1.0
ssbsg29
g0
(g30
g2
Ntp4024
Rp4025
(dp4026
g34
I1
sbsba(ics475_types
Instance
p4027
(dp4028
g24
(ics475_types
FeatureVector
p4029
(dp4030
g27
(dp4031
I1
F1.0
sI2
F35.75
sI3
F0.915
sI4
F1.0
sI5
F1.0
sI7
F1.0
sI8
F0.75
sI10
F1.0
sI11
F4.0
sI13
F1.0
sI15
F1583.0
sI21
F1.0
sI33
F1.0
sI37
F1.0
ssbsg29
g0
(g30
g2
Ntp4032
Rp4033
(dp4034
g34
I1
sbsba(ics475_types
Instance
p4035
(dp4036
g24
(ics475_types
FeatureVector
p4037
(dp4038
g27
(dp4039
I2
F41.17
sI3
F1.25
sI7
F1.0
sI8
F0.25
sI9
F1.0
sI13
F1.0
sI15
F195.0
sI16
F1.0
sI17
F1.0
sI18
F1.0
sI20
F1.0
sI21
F1.0
sI31
F1.0
ssbsg29
g0
(g30
g2
Ntp4040
Rp4041
(dp4042
g34
I0
sbsba(ics475_types
Instance
p4043
(dp4044
g24
(ics475_types
FeatureVector
p4045
(dp4046
g27
(dp4047
I1
F1.0
sI2
F23.25
sI3
F5.875
sI4
F1.0
sI5
F1.0
sI7
F1.0
sI8
F3.17
sI10
F1.0
sI11
F10.0
sI13
F1.0
sI14
F120.0
sI15
F245.0
sI21
F1.0
sI33
F1.0
sI30
F1.0
ssbsg29
g0
(g30
g2
Ntp4048
Rp4049
(dp4050
g34
I1
sbsba(ics475_types
Instance
p4051
(dp4052
g24
(ics475_types
FeatureVector
p4053
(dp4054
g27
(dp4055
I2
F28.0
sI3
F3.0
sI4
F1.0
sI5
F1.0
sI7
F1.0
sI8
F0.75
sI9
F1.0
sI12
F1.0
sI13
F1.0
sI14
F300.0
sI15
F67.0
sI16
F1.0
sI20
F1.0
sI31
F1.0
ssbsg29
g0
(g30
g2
Ntp4056
Rp4057
(dp4058
g34
I0
sbsba(ics475_types
Instance
p4059
(dp4060
g24
(ics475_types
FeatureVector
p4061
(dp4062
g27
(dp4063
I2
F16.25
sI37
F1.0
sI7
F1.0
sI8
F0.25
sI9
F1.0
sI13
F1.0
sI14
F60.0
sI16
F1.0
sI17
F1.0
sI18
F1.0
sI20
F1.0
sI21
F1.0
ssbsg29
g0
(g30
g2
Ntp4064
Rp4065
(dp4066
g34
I0
sbsba(ics475_types
Instance
p4067
(dp4068
g24
(ics475_types
FeatureVector
p4069
(dp4070
g27
(dp4071
I1
F1.0
sI2
F23.0
sI3
F1.835
sI4
F1.0
sI5
F1.0
sI9
F1.0
sI10
F1.0
sI11
F1.0
sI13
F1.0
sI14
F200.0
sI15
F53.0
sI21
F1.0
sI28
F1.0
sI29
F1.0
ssbsg29
g0
(g30
g2
Ntp4072
Rp4073
(dp4074
g34
I0
sbsba(ics475_types
Instance
p4075
(dp4076
g24
(ics475_types
FeatureVector
p4077
(dp4078
g27
(dp4079
I33
F1.0
sI2
F23.33
sI3
F1.5
sI4
F1.0
sI5
F1.0
sI6
F1.0
sI8
F1.415
sI13
F1.0
sI14
F422.0
sI15
F200.0
sI16
F1.0
sI20
F1.0
sI21
F1.0
sI27
F1.0
ssbsg29
g0
(g30
g2
Ntp4080
Rp4081
(dp4082
g34
I1
sbsba(ics475_types
Instance
p4083
(dp4084
g24
(ics475_types
FeatureVector
p4085
(dp4086
g27
(dp4087
I1
F1.0
sI2
F18.08
sI3
F0.375
sI36
F1.0
sI8
F10.0
sI9
F1.0
sI12
F1.0
sI45
F1.0
sI14
F300.0
sI44
F1.0
sI20
F1.0
sI22
F1.0
sI24
F1.0
ssbsg29
g0
(g30
g2
Ntp4088
Rp4089
(dp4090
g34
I1
sbsba(ics475_types
Instance
p4091
(dp4092
g24
(ics475_types
FeatureVector
p4093
(dp4094
g27
(dp4095
I33
F1.0
sI2
F35.25
sI3
F3.165
sI4
F1.0
sI5
F1.0
sI39
F1.0
sI8
F3.75
sI12
F1.0
sI13
F1.0
sI14
F680.0
sI16
F1.0
sI20
F1.0
sI27
F1.0
ssbsg29
g0
(g30
g2
Ntp4096
Rp4097
(dp4098
g34
I0
sbsba(ics475_types
Instance
p4099
(dp4100
g24
(ics475_types
FeatureVector
p4101
(dp4102
g27
(dp4103
I2
F34.83
sI3
F2.5
sI7
F1.0
sI8
F3.0
sI9
F1.0
sI14
F200.0
sI16
F1.0
sI17
F1.0
sI18
F1.0
sI20
F1.0
sI21
F1.0
sI22
F1.0
sI31
F1.0
ssbsg29
g0
(g30
g2
Ntp4104
Rp4105
(dp4106
g34
I0
sbsba(ics475_types
Instance
p4107
(dp4108
g24
(ics475_types
FeatureVector
p4109
(dp4110
g27
(dp4111
I33
F1.0
sI2
F73.42
sI3
F17.75
sI4
F1.0
sI5
F1.0
sI12
F1.0
sI13
F1.0
sI16
F1.0
sI20
F1.0
sI23
F1.0
sI24
F1.0
ssbsg29
g0
(g30
g2
Ntp4112
Rp4113
(dp4114
g34
I1
sbsba(ics475_types
Instance
p4115
(dp4116
g24
(ics475_types
FeatureVector
p4117
(dp4118
g27
(dp4119
I2
F23.0
sI3
F0.75
sI4
F1.0
sI5
F1.0
sI7
F1.0
sI8
F0.5
sI9
F1.0
sI12
F1.0
sI14
F320.0
sI16
F1.0
sI35
F1.0
sI20
F1.0
sI22
F1.0
ssbsg29
g0
(g30
g2
Ntp4120
Rp4121
(dp4122
g34
I0
sbsba(ics475_types
Instance
p4123
(dp4124
g24
(ics475_types
FeatureVector
p4125
(dp4126
g27
(dp4127
I1
F1.0
sI2
F28.17
sI3
F0.375
sI4
F1.0
sI5
F1.0
sI7
F1.0
sI8
F0.585
sI10
F1.0
sI11
F4.0
sI13
F1.0
sI14
F80.0
sI21
F1.0
sI33
F1.0
sI30
F1.0
ssbsg29
g0
(g30
g2
Ntp4128
Rp4129
(dp4130
g34
I1
sbsba(ics475_types
Instance
p4131
(dp4132
g24
(ics475_types
FeatureVector
p4133
(dp4134
g27
(dp4135
I2
F18.08
sI3
F6.75
sI7
F1.0
sI8
F0.04
sI9
F1.0
sI13
F1.0
sI14
F140.0
sI16
F1.0
sI17
F1.0
sI18
F1.0
sI35
F1.0
sI20
F1.0
sI21
F1.0
ssbsg29
g0
(g30
g2
Ntp4136
Rp4137
(dp4138
g34
I0
sbsba(ics475_types
Instance
p4139
(dp4140
g24
(ics475_types
FeatureVector
p4141
(dp4142
g27
(dp4143
I33
F1.0
sI2
F21.5
sI3
F9.75
sI4
F1.0
sI5
F1.0
sI6
F1.0
sI7
F1.0
sI8
F0.25
sI13
F1.0
sI14
F140.0
sI16
F1.0
sI20
F1.0
sI21
F1.0
ssbsg29
g0
(g30
g2
Ntp4144
Rp4145
(dp4146
g34
I0
sbsba(ics475_types
Instance
p4147
(dp4148
g24
(ics475_types
FeatureVector
p4149
(dp4150
g27
(dp4151
I2
F39.58
sI3
F5.0
sI4
F1.0
sI5
F1.0
sI9
F1.0
sI10
F1.0
sI11
F2.0
sI13
F1.0
sI14
F17.0
sI15
F1.0
sI16
F1.0
sI21
F1.0
sI23
F1.0
sI24
F1.0
ssbsg29
g0
(g30
g2
Ntp4152
Rp4153
(dp4154
g34
I0
sbsba(ics475_types
Instance
p4155
(dp4156
g24
(ics475_types
FeatureVector
p4157
(dp4158
g27
(dp4159
I1
F1.0
sI2
F28.75
sI3
F3.75
sI4
F1.0
sI5
F1.0
sI6
F1.0
sI7
F1.0
sI8
F1.085
sI10
F1.0
sI11
F1.0
sI12
F1.0
sI13
F1.0
sI14
F371.0
sI33
F1.0
ssbsg29
g0
(g30
g2
Ntp4160
Rp4161
(dp4162
g34
I1
sbsba(ics475_types
Instance
p4163
(dp4164
g24
(ics475_types
FeatureVector
p4165
(dp4166
g27
(dp4167
I1
F1.0
sI2
F20.08
sI3
F1.25
sI4
F1.0
sI5
F1.0
sI6
F1.0
sI7
F1.0
sI9
F1.0
sI13
F1.0
sI20
F1.0
sI21
F1.0
ssbsg29
g0
(g30
g2
Ntp4168
Rp4169
(dp4170
g34
I0
sbsba(ics475_types
Instance
p4171
(dp4172
g24
(ics475_types
FeatureVector
p4173
(dp4174
g27
(dp4175
I32
F1.0
sI2
F41.5
sI3
F1.54
sI4
F1.0
sI5
F1.0
sI8
F3.5
sI9
F1.0
sI13
F1.0
sI14
F216.0
sI16
F1.0
sI20
F1.0
sI21
F1.0
sI25
F1.0
ssbsg29
g0
(g30
g2
Ntp4176
Rp4177
(dp4178
g34
I1
sbsba(ics475_types
Instance
p4179
(dp4180
g24
(ics475_types
FeatureVector
p4181
(dp4182
g27
(dp4183
I2
F23.58
sI3
F0.835
sI4
F1.0
sI5
F1.0
sI8
F0.085
sI9
F1.0
sI12
F1.0
sI13
F1.0
sI14
F220.0
sI15
F5.0
sI16
F1.0
sI20
F1.0
sI25
F1.0
sI27
F1.0
ssbsg29
g0
(g30
g2
Ntp4184
Rp4185
(dp4186
g34
I0
sbsba(ics475_types
Instance
p4187
(dp4188
g24
(ics475_types
FeatureVector
p4189
(dp4190
g27
(dp4191
I2
F37.5
sI3
F0.835
sI4
F1.0
sI5
F1.0
sI7
F1.0
sI8
F0.04
sI9
F1.0
sI13
F1.0
sI14
F120.0
sI15
F5.0
sI16
F1.0
sI20
F1.0
sI21
F1.0
sI41
F1.0
ssbsg29
g0
(g30
g2
Ntp4192
Rp4193
(dp4194
g34
I0
sbsba(ics475_types
Instance
p4195
(dp4196
g24
(ics475_types
FeatureVector
p4197
(dp4198
g27
(dp4199
I33
F1.0
sI2
F48.33
sI3
F12.0
sI4
F1.0
sI5
F1.0
sI7
F1.0
sI8
F16.0
sI14
F110.0
sI16
F1.0
sI35
F1.0
sI20
F1.0
sI21
F1.0
sI22
F1.0
ssbsg29
g0
(g30
g2
Ntp4200
Rp4201
(dp4202
g34
I1
sbsba(ics475_types
Instance
p4203
(dp4204
g24
(ics475_types
FeatureVector
p4205
(dp4206
g27
(dp4207
I1
F1.0
sI2
F49.0
sI3
F1.5
sI4
F1.0
sI5
F1.0
sI33
F1.0
sI12
F1.0
sI13
F1.0
sI14
F100.0
sI15
F27.0
sI20
F1.0
sI28
F1.0
sI29
F1.0
ssbsg29
g0
(g30
g2
Ntp4208
Rp4209
(dp4210
g34
I0
sbsba(ics475_types
Instance
p4211
(dp4212
g24
(ics475_types
FeatureVector
p4213
(dp4214
g27
(dp4215
I1
F1.0
sI2
F28.67
sI3
F1.04
sI4
F1.0
sI5
F1.0
sI6
F1.0
sI7
F1.0
sI8
F2.5
sI10
F1.0
sI11
F5.0
sI12
F1.0
sI13
F1.0
sI14
F300.0
sI15
F1430.0
sI33
F1.0
ssbsg29
g0
(g30
g2
Ntp4216
Rp4217
(dp4218
g34
I1
sbsba(ics475_types
Instance
p4219
(dp4220
g24
(ics475_types
FeatureVector
p4221
(dp4222
g27
(dp4223
I1
F1.0
sI2
F22.75
sI3
F6.165
sI4
F1.0
sI5
F1.0
sI7
F1.0
sI8
F0.165
sI9
F1.0
sI13
F1.0
sI14
F220.0
sI15
F1000.0
sI20
F1.0
sI21
F1.0
sI37
F1.0
ssbsg29
g0
(g30
g2
Ntp4224
Rp4225
(dp4226
g34
I0
sbsba(ics475_types
Instance
p4227
(dp4228
g24
(ics475_types
FeatureVector
p4229
(dp4230
g27
(dp4231
I1
F1.0
sI2
F16.92
sI3
F0.5
sI4
F1.0
sI5
F1.0
sI7
F1.0
sI8
F0.165
sI9
F1.0
sI10
F1.0
sI11
F6.0
sI12
F1.0
sI13
F1.0
sI14
F240.0
sI15
F35.0
sI25
F1.0
ssbsg29
g0
(g30
g2
Ntp4232
Rp4233
(dp4234
g34
I0
sbsba(ics475_types
Instance
p4235
(dp4236
g24
(ics475_types
FeatureVector
p4237
(dp4238
g27
(dp4239
I1
F1.0
sI2
F20.42
sI3
F10.5
sI39
F1.0
sI9
F1.0
sI12
F1.0
sI13
F1.0
sI14
F154.0
sI15
F32.0
sI17
F1.0
sI18
F1.0
sI20
F1.0
sI27
F1.0
ssbsg29
g0
(g30
g2
Ntp4240
Rp4241
(dp4242
g34
I0
sbsba(ics475_types
Instance
p4243
(dp4244
g24
(ics475_types
FeatureVector
p4245
(dp4246
g27
(dp4247
I32
F1.0
sI2
F40.58
sI3
F1.5
sI4
F1.0
sI5
F1.0
sI9
F1.0
sI14
F300.0
sI16
F1.0
sI20
F1.0
sI21
F1.0
sI22
F1.0
sI25
F1.0
ssbsg29
g0
(g30
g2
Ntp4248
Rp4249
(dp4250
g34
I0
sbsba(ics475_types
Instance
p4251
(dp4252
g24
(ics475_types
FeatureVector
p4253
(dp4254
g27
(dp4255
I33
F1.0
sI2
F55.92
sI3
F11.5
sI4
F1.0
sI5
F1.0
sI8
F5.0
sI10
F1.0
sI11
F5.0
sI13
F1.0
sI15
F8851.0
sI16
F1.0
sI21
F1.0
sI23
F1.0
sI24
F1.0
ssbsg29
g0
(g30
g2
Ntp4256
Rp4257
(dp4258
g34
I1
sbsba(ics475_types
Instance
p4259
(dp4260
g24
(ics475_types
FeatureVector
p4261
(dp4262
g27
(dp4263
I32
F1.0
sI33
F1.0
sI2
F34.08
sI3
F0.08
sI8
F0.04
sI10
F1.0
sI11
F1.0
sI12
F1.0
sI13
F1.0
sI14
F280.0
sI15
F2000.0
sI16
F1.0
sI17
F1.0
sI18
F1.0
sI35
F1.0
ssbsg29
g0
(g30
g2
Ntp4264
Rp4265
(dp4266
g34
I1
sbsba(ics475_types
Instance
p4267
(dp4268
g24
(ics475_types
FeatureVector
p4269
(dp4270
g27
(dp4271
I32
F1.0
sI2
F43.17
sI3
F5.0
sI4
F1.0
sI5
F1.0
sI8
F2.25
sI9
F1.0
sI12
F1.0
sI13
F1.0
sI14
F141.0
sI16
F1.0
sI20
F1.0
sI25
F1.0
ssbsg29
g0
(g30
g2
Ntp4272
Rp4273
(dp4274
g34
I0
sbsba(ics475_types
Instance
p4275
(dp4276
g24
(ics475_types
FeatureVector
p4277
(dp4278
g27
(dp4279
I2
F29.58
sI3
F4.75
sI4
F1.0
sI5
F1.0
sI7
F1.0
sI8
F2.0
sI9
F1.0
sI10
F1.0
sI11
F1.0
sI12
F1.0
sI13
F1.0
sI14
F460.0
sI15
F68.0
sI16
F1.0
sI35
F1.0
ssbsg29
g0
(g30
g2
Ntp4280
Rp4281
(dp4282
g34
I0
sbsba(ics475_types
Instance
p4283
(dp4284
g24
(ics475_types
FeatureVector
p4285
(dp4286
g27
(dp4287
I1
F1.0
sI2
F41.58
sI3
F1.04
sI4
F1.0
sI5
F1.0
sI7
F1.0
sI8
F0.665
sI9
F1.0
sI13
F1.0
sI14
F240.0
sI15
F237.0
sI20
F1.0
sI21
F1.0
sI37
F1.0
ssbsg29
g0
(g30
g2
Ntp4288
Rp4289
(dp4290
g34
I0
sbsba(ics475_types
Instance
p4291
(dp4292
g24
(ics475_types
FeatureVector
p4293
(dp4294
g27
(dp4295
I2
F22.08
sI3
F2.335
sI4
F1.0
sI5
F1.0
sI7
F1.0
sI8
F0.75
sI9
F1.0
sI13
F1.0
sI14
F180.0
sI16
F1.0
sI19
F1.0
sI20
F1.0
sI21
F1.0
ssbsg29
g0
(g30
g2
Ntp4296
Rp4297
(dp4298
g34
I0
sbsba(ics475_types
Instance
p4299
(dp4300
g24
(ics475_types
FeatureVector
p4301
(dp4302
g27
(dp4303
I2
F26.33
sI3
F13.0
sI4
F1.0
sI5
F1.0
sI9
F1.0
sI43
F1.0
sI12
F1.0
sI13
F1.0
sI14
F140.0
sI15
F1110.0
sI16
F1.0
sI20
F1.0
sI41
F1.0
ssbsg29
g0
(g30
g2
Ntp4304
Rp4305
(dp4306
g34
I0
sbsba(ics475_types
Instance
p4307
(dp4308
g24
(ics475_types
FeatureVector
p4309
(dp4310
g27
(dp4311
I33
F1.0
sI2
F62.5
sI3
F12.75
sI6
F1.0
sI8
F5.0
sI13
F1.0
sI14
F112.0
sI16
F1.0
sI17
F1.0
sI18
F1.0
sI20
F1.0
sI21
F1.0
sI27
F1.0
ssbsg29
g0
(g30
g2
Ntp4312
Rp4313
(dp4314
g34
I0
sbsba(ics475_types
Instance
p4315
(dp4316
g24
(ics475_types
FeatureVector
p4317
(dp4318
g27
(dp4319
I33
F1.0
sI2
F40.25
sI3
F21.5
sI4
F1.0
sI5
F1.0
sI8
F20.0
sI41
F1.0
sI10
F1.0
sI11
F11.0
sI13
F1.0
sI15
F1200.0
sI16
F1.0
sI21
F1.0
sI42
F1.0
ssbsg29
g0
(g30
g2
Ntp4320
Rp4321
(dp4322
g34
I1
sbsba(ics475_types
Instance
p4323
(dp4324
g24
(ics475_types
FeatureVector
p4325
(dp4326
g27
(dp4327
I32
F1.0
sI1
F1.0
sI2
F47.0
sI3
F13.0
sI4
F1.0
sI5
F1.0
sI33
F1.0
sI8
F5.165
sI10
F1.0
sI11
F9.0
sI12
F1.0
sI13
F1.0
sI25
F1.0
ssbsg29
g0
(g30
g2
Ntp4328
Rp4329
(dp4330
g34
I1
sbsba(ics475_types
Instance
p4331
(dp4332
g24
(ics475_types
FeatureVector
p4333
(dp4334
g27
(dp4335
I1
F1.0
sI2
F25.75
sI3
F0.5
sI4
F1.0
sI5
F1.0
sI6
F1.0
sI33
F1.0
sI8
F0.875
sI12
F1.0
sI13
F1.0
sI14
F491.0
sI20
F1.0
sI27
F1.0
ssbsg29
g0
(g30
g2
Ntp4336
Rp4337
(dp4338
g34
I1
sbsba(ics475_types
Instance
p4339
(dp4340
g24
(ics475_types
FeatureVector
p4341
(dp4342
g27
(dp4343
I2
F16.33
sI3
F2.75
sI4
F1.0
sI5
F1.0
sI7
F1.0
sI8
F0.665
sI9
F1.0
sI10
F1.0
sI11
F1.0
sI13
F1.0
sI14
F80.0
sI15
F21.0
sI16
F1.0
sI21
F1.0
sI37
F1.0
ssbsg29
g0
(g30
g2
Ntp4344
Rp4345
(dp4346
g34
I0
sbsba(ics475_types
Instance
p4347
(dp4348
g24
(ics475_types
FeatureVector
p4349
(dp4350
g27
(dp4351
I33
F1.0
sI2
F25.75
sI3
F0.5
sI4
F1.0
sI5
F1.0
sI6
F1.0
sI7
F1.0
sI8
F1.46
sI10
F1.0
sI11
F5.0
sI12
F1.0
sI13
F1.0
sI14
F312.0
sI16
F1.0
ssbsg29
g0
(g30
g2
Ntp4352
Rp4353
(dp4354
g34
I1
sbsba(ics475_types
Instance
p4355
(dp4356
g24
(ics475_types
FeatureVector
p4357
(dp4358
g27
(dp4359
I2
F24.75
sI3
F0.54
sI4
F1.0
sI5
F1.0
sI7
F1.0
sI8
F1.0
sI9
F1.0
sI12
F1.0
sI13
F1.0
sI14
F120.0
sI15
F1.0
sI16
F1.0
sI35
F1.0
sI20
F1.0
ssbsg29
g0
(g30
g2
Ntp4360
Rp4361
(dp4362
g34
I0
sbsba(ics475_types
Instance
p4363
(dp4364
g24
(ics475_types
FeatureVector
p4365
(dp4366
g27
(dp4367
I33
F1.0
sI2
F21.0
sI3
F4.79
sI7
F1.0
sI8
F2.25
sI10
F1.0
sI11
F1.0
sI12
F1.0
sI13
F1.0
sI14
F80.0
sI15
F300.0
sI16
F1.0
sI17
F1.0
sI18
F1.0
sI31
F1.0
ssbsg29
g0
(g30
g2
Ntp4368
Rp4369
(dp4370
g34
I1
sbsba(ics475_types
Instance
p4371
(dp4372
g24
(ics475_types
FeatureVector
p4373
(dp4374
g27
(dp4375
I2
F21.08
sI3
F4.125
sI8
F0.04
sI9
F1.0
sI13
F1.0
sI14
F140.0
sI15
F100.0
sI16
F1.0
sI17
F1.0
sI18
F1.0
sI20
F1.0
sI21
F1.0
sI25
F1.0
sI27
F1.0
ssbsg29
g0
(g30
g2
Ntp4376
Rp4377
(dp4378
g34
I0
sbsba(ics475_types
Instance
p4379
(dp4380
g24
(ics475_types
FeatureVector
p4381
(dp4382
g27
(dp4383
I33
F1.0
sI2
F24.33
sI3
F6.625
sI7
F1.0
sI8
F5.5
sI12
F1.0
sI34
F1.0
sI14
F100.0
sI16
F1.0
sI17
F1.0
sI18
F1.0
sI20
F1.0
sI22
F1.0
ssbsg29
g0
(g30
g2
Ntp4384
Rp4385
(dp4386
g34
I1
sbsba(ics475_types
Instance
p4387
(dp4388
g24
(ics475_types
FeatureVector
p4389
(dp4390
g27
(dp4391
I2
F27.83
sI3
F1.5
sI4
F1.0
sI5
F1.0
sI7
F1.0
sI8
F2.25
sI9
F1.0
sI10
F1.0
sI11
F1.0
sI12
F1.0
sI13
F1.0
sI14
F100.0
sI15
F3.0
sI16
F1.0
sI31
F1.0
ssbsg29
g0
(g30
g2
Ntp4392
Rp4393
(dp4394
g34
I0
sbsba(ics475_types
Instance
p4395
(dp4396
g24
(ics475_types
FeatureVector
p4397
(dp4398
g27
(dp4399
I33
F1.0
sI2
F28.92
sI3
F15.0
sI4
F1.0
sI5
F1.0
sI6
F1.0
sI8
F5.335
sI10
F1.0
sI11
F11.0
sI13
F1.0
sI15
F2283.0
sI16
F1.0
sI21
F1.0
sI27
F1.0
ssbsg29
g0
(g30
g2
Ntp4400
Rp4401
(dp4402
g34
I1
sbsba(ics475_types
Instance
p4403
(dp4404
g24
(ics475_types
FeatureVector
p4405
(dp4406
g27
(dp4407
I1
F1.0
sI2
F33.08
sI3
F1.625
sI4
F1.0
sI5
F1.0
sI7
F1.0
sI8
F0.54
sI9
F1.0
sI12
F1.0
sI13
F1.0
sI34
F1.0
sI20
F1.0
ssbsg29
g0
(g30
g2
Ntp4408
Rp4409
(dp4410
g34
I0
sbsba(ics475_types
Instance
p4411
(dp4412
g24
(ics475_types
FeatureVector
p4413
(dp4414
g27
(dp4415
I32
F1.0
sI2
F26.75
sI3
F4.5
sI6
F1.0
sI8
F2.5
sI9
F1.0
sI13
F1.0
sI14
F200.0
sI15
F1210.0
sI16
F1.0
sI17
F1.0
sI18
F1.0
sI20
F1.0
sI21
F1.0
ssbsg29
g0
(g30
g2
Ntp4416
Rp4417
(dp4418
g34
I0
sbsba(ics475_types
Instance
p4419
(dp4420
g24
(ics475_types
FeatureVector
p4421
(dp4422
g27
(dp4423
I32
F1.0
sI33
F1.0
sI2
F56.58
sI3
F18.5
sI4
F1.0
sI5
F1.0
sI8
F15.0
sI10
F1.0
sI11
F17.0
sI12
F1.0
sI13
F1.0
sI16
F1.0
sI34
F1.0
ssbsg29
g0
(g30
g2
Ntp4424
Rp4425
(dp4426
g34
I1
sbsbasS'S'
p4427
(dp4428
I1
F0.0021324391455538948
sI2
F1.4620777829574423
sI3
F0.25638429866616996
sI4
F0.001749428713363132
sI5
F0.001749428713363132
sI6
F0.0016246398410332942
sI7
F0.0024079814538830765
sI8
F0.12125208945520802
sI9
F0.002482165921510167
sI10
F0.0024662692498758055
sI11
F0.24464742507037515
sI12
F0.002493823480708738
sI13
F0.0007526080476900096
sI14
F294.30092336479595
sI15
F304169.9948599417
sI16
F0.0021324391455539078
sI17
F0.0017292929292929168
sI18
F0.0017292929292929168
sI19
F0.0006600099354197677
sI20
F0.002466269249875803
sI21
F0.0024938234807087368
sI22
F0.0007220069547938412
sI23
F0.0006911409173704212
sI24
F0.000752608047690011
sI25
F0.0007980129160456955
sI26
F3.629740023182656e-05
sI27
F0.0016029143897996424
sI28
F0.0001435999337638695
sI29
F0.00010809736711376139
sI30
F0.001002020202020201
sI31
F0.0009016393442622868
sI32
F0.0007220069547938412
sI33
F0.002482165921510185
sI34
F0.0003171385991058118
sI35
F0.0005650273224043637
sI36
F0.0005328365623447624
sI37
F0.0007980129160456927
sI38
F3.629740023182656e-05
sI39
F0.0005810233482364587
sI40
F7.232985593641366e-05
sI41
F0.0003341281669150534
sI42
F0.00014359993376386886
sI43
F5.434674615002439e-05
sI44
F3.629740023182654e-05
sI45
F3.629740023182654e-05
sI46
F3.629740023182654e-05
ssS'T'
p4429
I10
sS'clusters'
p4430
(dp4431
I0
(lp4432
(I0
g28
tp4433
a(I12
g127
tp4434
a(I30
g271
tp4435
a(I42
g367
tp4436
a(I57
g487
tp4437
a(I60
g511
tp4438
a(I66
g559
tp4439
a(I69
g583
tp4440
a(I72
g607
tp4441
a(I84
g703
tp4442
a(I111
g919
tp4443
a(I123
g1015
tp4444
a(I135
g1111
tp4445
a(I138
g1135
tp4446
a(I171
g1399
tp4447
a(I180
g1471
tp4448
a(I186
g1519
tp4449
a(I189
g1543
tp4450
a(I210
g1711
tp4451
a(I213
g1735
tp4452
a(I231
g1879
tp4453
a(I255
g2071
tp4454
a(I261
g2119
tp4455
a(I267
g2167
tp4456
a(I282
g2287
tp4457
a(I348
g2815
tp4458
a(I351
g2839
tp4459
a(I354
g2863
tp4460
a(I369
g2983
tp4461
a(I372
g3007
tp4462
a(I384
g3103
tp4463
a(I387
g3127
tp4464
a(I396
g3199
tp4465
a(I399
g3223
tp4466
a(I435
g3511
tp4467
a(I459
g3703
tp4468
a(I477
g3847
tp4469
a(I498
g4015
tp4470
a(I507
g4087
tp4471
a(I510
g4111
tp4472
a(I513
g4135
tp4473
a(I522
g4207
tp4474
a(I528
g4255
tp4475
a(I531
g4279
tp4476
a(I534
g4303
tp4477
a(I1
g39
tp4478
a(I11
g119
tp4479
a(I35
g311
tp4480
a(I41
g359
tp4481
a(I58
g495
tp4482
a(I71
g599
tp4483
a(I77
g647
tp4484
a(I79
g663
tp4485
a(I82
g687
tp4486
a(I91
g759
tp4487
a(I125
g1031
tp4488
a(I143
g1175
tp4489
a(I179
g1463
tp4490
a(I190
g1551
tp4491
a(I212
g1727
tp4492
a(I214
g1743
tp4493
a(I232
g1887
tp4494
a(I236
g1919
tp4495
a(I257
g2087
tp4496
a(I262
g2127
tp4497
a(I266
g2159
tp4498
a(I269
g2183
tp4499
a(I301
g2439
tp4500
a(I308
g2495
tp4501
a(I320
g2591
tp4502
a(I322
g2607
tp4503
a(I325
g2631
tp4504
a(I332
g2687
tp4505
a(I367
g2967
tp4506
a(I373
g3015
tp4507
a(I376
g3039
tp4508
a(I382
g3087
tp4509
a(I386
g3119
tp4510
a(I397
g3207
tp4511
a(I398
g3215
tp4512
a(I425
g3431
tp4513
a(I427
g3447
tp4514
a(I433
g3495
tp4515
a(I436
g3519
tp4516
a(I443
g3575
tp4517
a(I449
g3623
tp4518
a(I461
g3719
tp4519
a(I464
g3743
tp4520
a(I467
g3767
tp4521
a(I469
g3783
tp4522
a(I475
g3831
tp4523
a(I478
g3855
tp4524
a(I481
g3879
tp4525
a(I496
g3999
tp4526
a(I505
g4071
tp4527
a(I511
g4119
tp4528
a(I515
g4151
tp4529
a(I521
g4199
tp4530
a(I529
g4263
tp4531
a(I541
g4359
tp4532
a(I544
g4383
tp4533
a(I547
g4407
tp4534
a(I32
g287
tp4535
a(I193
g1575
tp4536
a(I265
g2151
tp4537
a(I288
g2335
tp4538
a(I310
g2511
tp4539
a(I549
g4423
tp4540
asI1
(lp4541
(I226
g1839
tp4542
a(I259
g2103
tp4543
a(I298
g2415
tp4544
a(I457
g3687
tp4545
a(I490
g3951
tp4546
a(I65
g551
tp4547
a(I93
g775
tp4548
a(I137
g1127
tp4549
a(I371
g2999
tp4550
a(I45
g391
tp4551
a(I110
g911
tp4552
a(I115
g951
tp4553
a(I223
g1815
tp4554
a(I279
g2263
tp4555
a(I327
g2647
tp4556
a(I344
g2783
tp4557
a(I432
g3487
tp4558
a(I472
g3807
tp4559
a(I484
g3903
tp4560
a(I520
g4191
tp4561
a(I536
g4319
tp4562
a(I275
g2231
tp4563
a(I488
g3935
tp4564
a(I489
g3943
tp4565
a(I537
g4327
tp4566
a(I20
g191
tp4567
a(I68
g575
tp4568
a(I166
g1359
tp4569
a(I136
g1119
tp4570
asI2
(lp4571
(I2
g47
tp4572
a(I5
g71
tp4573
a(I8
g95
tp4574
a(I14
g143
tp4575
a(I17
g167
tp4576
a(I23
g215
tp4577
a(I26
g239
tp4578
a(I29
g263
tp4579
a(I38
g335
tp4580
a(I44
g383
tp4581
a(I47
g407
tp4582
a(I50
g431
tp4583
a(I53
g455
tp4584
a(I56
g479
tp4585
a(I59
g503
tp4586
a(I62
g527
tp4587
a(I74
g623
tp4588
a(I80
g671
tp4589
a(I83
g695
tp4590
a(I86
g719
tp4591
a(I89
g743
tp4592
a(I92
g767
tp4593
a(I95
g791
tp4594
a(I98
g815
tp4595
a(I101
g839
tp4596
a(I104
g863
tp4597
a(I107
g887
tp4598
a(I113
g935
tp4599
a(I116
g959
tp4600
a(I119
g983
tp4601
a(I122
g1007
tp4602
a(I128
g1055
tp4603
a(I131
g1079
tp4604
a(I134
g1103
tp4605
a(I140
g1151
tp4606
a(I146
g1199
tp4607
a(I149
g1223
tp4608
a(I152
g1247
tp4609
a(I155
g1271
tp4610
a(I158
g1295
tp4611
a(I161
g1319
tp4612
a(I164
g1343
tp4613
a(I167
g1367
tp4614
a(I170
g1391
tp4615
a(I173
g1415
tp4616
a(I176
g1439
tp4617
a(I182
g1487
tp4618
a(I185
g1511
tp4619
a(I188
g1535
tp4620
a(I191
g1559
tp4621
a(I194
g1583
tp4622
a(I197
g1607
tp4623
a(I200
g1631
tp4624
a(I203
g1655
tp4625
a(I206
g1679
tp4626
a(I209
g1703
tp4627
a(I215
g1751
tp4628
a(I218
g1775
tp4629
a(I221
g1799
tp4630
a(I224
g1823
tp4631
a(I227
g1847
tp4632
a(I230
g1871
tp4633
a(I233
g1895
tp4634
a(I239
g1943
tp4635
a(I242
g1967
tp4636
a(I245
g1991
tp4637
a(I248
g2015
tp4638
a(I251
g2039
tp4639
a(I254
g2063
tp4640
a(I260
g2111
tp4641
a(I263
g2135
tp4642
a(I272
g2207
tp4643
a(I278
g2255
tp4644
a(I281
g2279
tp4645
a(I284
g2303
tp4646
a(I287
g2327
tp4647
a(I290
g2351
tp4648
a(I293
g2375
tp4649
a(I296
g2399
tp4650
a(I299
g2423
tp4651
a(I302
g2447
tp4652
a(I311
g2519
tp4653
a(I314
g2543
tp4654
a(I317
g2567
tp4655
a(I323
g2615
tp4656
a(I326
g2639
tp4657
a(I329
g2663
tp4658
a(I335
g2711
tp4659
a(I338
g2735
tp4660
a(I341
g2759
tp4661
a(I347
g2807
tp4662
a(I350
g2831
tp4663
a(I353
g2855
tp4664
a(I356
g2879
tp4665
a(I359
g2903
tp4666
a(I362
g2927
tp4667
a(I365
g2951
tp4668
a(I368
g2975
tp4669
a(I374
g3023
tp4670
a(I377
g3047
tp4671
a(I380
g3071
tp4672
a(I383
g3095
tp4673
a(I389
g3143
tp4674
a(I392
g3167
tp4675
a(I404
g3263
tp4676
a(I407
g3287
tp4677
a(I410
g3311
tp4678
a(I413
g3335
tp4679
a(I416
g3359
tp4680
a(I419
g3383
tp4681
a(I422
g3407
tp4682
a(I428
g3455
tp4683
a(I431
g3479
tp4684
a(I434
g3503
tp4685
a(I437
g3527
tp4686
a(I440
g3551
tp4687
a(I446
g3599
tp4688
a(I452
g3647
tp4689
a(I455
g3671
tp4690
a(I458
g3695
tp4691
a(I470
g3791
tp4692
a(I473
g3815
tp4693
a(I476
g3839
tp4694
a(I479
g3863
tp4695
a(I482
g3887
tp4696
a(I485
g3911
tp4697
a(I491
g3959
tp4698
a(I494
g3983
tp4699
a(I497
g4007
tp4700
a(I500
g4031
tp4701
a(I503
g4055
tp4702
a(I506
g4079
tp4703
a(I512
g4127
tp4704
a(I518
g4175
tp4705
a(I524
g4223
tp4706
a(I527
g4247
tp4707
a(I530
g4271
tp4708
a(I533
g4295
tp4709
a(I539
g4343
tp4710
a(I542
g4367
tp4711
a(I545
g4391
tp4712
a(I548
g4415
tp4713
a(I3
g55
tp4714
a(I4
g63
tp4715
a(I7
g87
tp4716
a(I9
g103
tp4717
a(I13
g135
tp4718
a(I15
g151
tp4719
a(I16
g159
tp4720
a(I18
g175
tp4721
a(I19
g183
tp4722
a(I21
g199
tp4723
a(I22
g207
tp4724
a(I24
g223
tp4725
a(I25
g231
tp4726
a(I27
g247
tp4727
a(I28
g255
tp4728
a(I31
g279
tp4729
a(I33
g295
tp4730
a(I34
g303
tp4731
a(I36
g319
tp4732
a(I39
g343
tp4733
a(I40
g351
tp4734
a(I43
g375
tp4735
a(I46
g399
tp4736
a(I48
g415
tp4737
a(I49
g423
tp4738
a(I51
g439
tp4739
a(I52
g447
tp4740
a(I54
g463
tp4741
a(I55
g471
tp4742
a(I61
g519
tp4743
a(I63
g535
tp4744
a(I64
g543
tp4745
a(I67
g567
tp4746
a(I70
g591
tp4747
a(I73
g615
tp4748
a(I75
g631
tp4749
a(I76
g639
tp4750
a(I78
g655
tp4751
a(I81
g679
tp4752
a(I85
g711
tp4753
a(I87
g727
tp4754
a(I88
g735
tp4755
a(I90
g751
tp4756
a(I94
g783
tp4757
a(I96
g799
tp4758
a(I97
g807
tp4759
a(I99
g823
tp4760
a(I100
g831
tp4761
a(I102
g847
tp4762
a(I103
g855
tp4763
a(I105
g871
tp4764
a(I106
g879
tp4765
a(I108
g895
tp4766
a(I109
g903
tp4767
a(I112
g927
tp4768
a(I118
g975
tp4769
a(I121
g999
tp4770
a(I124
g1023
tp4771
a(I126
g1039
tp4772
a(I127
g1047
tp4773
a(I129
g1063
tp4774
a(I130
g1071
tp4775
a(I132
g1087
tp4776
a(I133
g1095
tp4777
a(I139
g1143
tp4778
a(I141
g1159
tp4779
a(I142
g1167
tp4780
a(I144
g1183
tp4781
a(I145
g1191
tp4782
a(I147
g1207
tp4783
a(I148
g1215
tp4784
a(I150
g1231
tp4785
a(I151
g1239
tp4786
a(I153
g1255
tp4787
a(I154
g1263
tp4788
a(I156
g1279
tp4789
a(I157
g1287
tp4790
a(I159
g1303
tp4791
a(I160
g1311
tp4792
a(I162
g1327
tp4793
a(I163
g1335
tp4794
a(I165
g1351
tp4795
a(I168
g1375
tp4796
a(I169
g1383
tp4797
a(I172
g1407
tp4798
a(I174
g1423
tp4799
a(I175
g1431
tp4800
a(I177
g1447
tp4801
a(I178
g1455
tp4802
a(I181
g1479
tp4803
a(I183
g1495
tp4804
a(I184
g1503
tp4805
a(I187
g1527
tp4806
a(I192
g1567
tp4807
a(I195
g1591
tp4808
a(I196
g1599
tp4809
a(I198
g1615
tp4810
a(I199
g1623
tp4811
a(I201
g1639
tp4812
a(I202
g1647
tp4813
a(I204
g1663
tp4814
a(I205
g1671
tp4815
a(I208
g1695
tp4816
a(I211
g1719
tp4817
a(I216
g1759
tp4818
a(I217
g1767
tp4819
a(I219
g1783
tp4820
a(I220
g1791
tp4821
a(I225
g1831
tp4822
a(I228
g1855
tp4823
a(I229
g1863
tp4824
a(I234
g1903
tp4825
a(I235
g1911
tp4826
a(I237
g1927
tp4827
a(I238
g1935
tp4828
a(I240
g1951
tp4829
a(I241
g1959
tp4830
a(I243
g1975
tp4831
a(I244
g1983
tp4832
a(I246
g1999
tp4833
a(I247
g2007
tp4834
a(I249
g2023
tp4835
a(I250
g2031
tp4836
a(I252
g2047
tp4837
a(I253
g2055
tp4838
a(I256
g2079
tp4839
a(I258
g2095
tp4840
a(I264
g2143
tp4841
a(I268
g2175
tp4842
a(I270
g2191
tp4843
a(I271
g2199
tp4844
a(I274
g2223
tp4845
a(I276
g2239
tp4846
a(I277
g2247
tp4847
a(I280
g2271
tp4848
a(I283
g2295
tp4849
a(I285
g2311
tp4850
a(I286
g2319
tp4851
a(I289
g2343
tp4852
a(I291
g2359
tp4853
a(I292
g2367
tp4854
a(I294
g2383
tp4855
a(I295
g2391
tp4856
a(I297
g2407
tp4857
a(I300
g2431
tp4858
a(I303
g2455
tp4859
a(I304
g2463
tp4860
a(I306
g2479
tp4861
a(I307
g2487
tp4862
a(I309
g2503
tp4863
a(I312
g2527
tp4864
a(I313
g2535
tp4865
a(I315
g2551
tp4866
a(I316
g2559
tp4867
a(I318
g2575
tp4868
a(I319
g2583
tp4869
a(I321
g2599
tp4870
a(I324
g2623
tp4871
a(I328
g2655
tp4872
a(I330
g2671
tp4873
a(I331
g2679
tp4874
a(I333
g2695
tp4875
a(I334
g2703
tp4876
a(I336
g2719
tp4877
a(I337
g2727
tp4878
a(I339
g2743
tp4879
a(I340
g2751
tp4880
a(I342
g2767
tp4881
a(I343
g2775
tp4882
a(I345
g2791
tp4883
a(I346
g2799
tp4884
a(I349
g2823
tp4885
a(I352
g2847
tp4886
a(I357
g2887
tp4887
a(I358
g2895
tp4888
a(I360
g2911
tp4889
a(I361
g2919
tp4890
a(I363
g2935
tp4891
a(I364
g2943
tp4892
a(I366
g2959
tp4893
a(I370
g2991
tp4894
a(I375
g3031
tp4895
a(I378
g3055
tp4896
a(I379
g3063
tp4897
a(I381
g3079
tp4898
a(I385
g3111
tp4899
a(I388
g3135
tp4900
a(I390
g3151
tp4901
a(I391
g3159
tp4902
a(I393
g3175
tp4903
a(I394
g3183
tp4904
a(I400
g3231
tp4905
a(I402
g3247
tp4906
a(I403
g3255
tp4907
a(I405
g3271
tp4908
a(I406
g3279
tp4909
a(I408
g3295
tp4910
a(I409
g3303
tp4911
a(I411
g3319
tp4912
a(I412
g3327
tp4913
a(I414
g3343
tp4914
a(I415
g3351
tp4915
a(I417
g3367
tp4916
a(I418
g3375
tp4917
a(I420
g3391
tp4918
a(I421
g3399
tp4919
a(I423
g3415
tp4920
a(I424
g3423
tp4921
a(I426
g3439
tp4922
a(I429
g3463
tp4923
a(I430
g3471
tp4924
a(I438
g3535
tp4925
a(I439
g3543
tp4926
a(I441
g3559
tp4927
a(I442
g3567
tp4928
a(I444
g3583
tp4929
a(I445
g3591
tp4930
a(I447
g3607
tp4931
a(I448
g3615
tp4932
a(I450
g3631
tp4933
a(I451
g3639
tp4934
a(I453
g3655
tp4935
a(I454
g3663
tp4936
a(I456
g3679
tp4937
a(I460
g3711
tp4938
a(I462
g3727
tp4939
a(I463
g3735
tp4940
a(I465
g3751
tp4941
a(I466
g3759
tp4942
a(I468
g3775
tp4943
a(I471
g3799
tp4944
a(I474
g3823
tp4945
a(I480
g3871
tp4946
a(I483
g3895
tp4947
a(I486
g3919
tp4948
a(I487
g3927
tp4949
a(I492
g3967
tp4950
a(I493
g3975
tp4951
a(I495
g3991
tp4952
a(I499
g4023
tp4953
a(I501
g4039
tp4954
a(I502
g4047
tp4955
a(I508
g4095
tp4956
a(I514
g4143
tp4957
a(I516
g4159
tp4958
a(I517
g4167
tp4959
a(I519
g4183
tp4960
a(I523
g4215
tp4961
a(I525
g4231
tp4962
a(I526
g4239
tp4963
a(I532
g4287
tp4964
a(I535
g4311
tp4965
a(I538
g4335
tp4966
a(I540
g4351
tp4967
a(I543
g4375
tp4968
a(I546
g4399
tp4969
a(I10
g111
tp4970
a(I37
g327
tp4971
a(I114
g943
tp4972
a(I117
g967
tp4973
a(I120
g991
tp4974
a(I222
g1807
tp4975
a(I273
g2215
tp4976
a(I355
g2871
tp4977
a(I395
g3191
tp4978
a(I401
g3239
tp4979
a(I509
g4103
tp4980
a(I6
g79
tp4981
a(I207
g1687
tp4982
a(I305
g2471
tp4983
a(I504
g4063
tp4984
assS'all_features'
p4985
(lp4986
I1
aI2
aI3
aI8
aI9
aI13
aI14
aI17
aI18
aI20
aI21
aI23
aI24
aI33
aI4
aI5
aI7
aI16
aI35
aI22
aI10
aI11
aI12
aI15
aI19
aI27
aI6
aI30
aI37
aI34
aI39
aI32
aI36
aI31
aI25
aI41
aI28
aI29
aI42
aI26
aI40
aI38
aI45
aI46
aI44
aI43
asb.