ccopy_reg
_reconstructor
p0
(cpredictor_subclasses
NaiveBayes
p1
c__builtin__
object
p2
Ntp3
Rp4
(dp5
S'mu_vector'
p6
(dp7
I0
(dp8
I1
F0.30727272727272725
sI2
F31.78374545454548
sI3
F4.793736363636363
sI4
F0.7745454545454545
sI5
F0.7745454545454545
sI6
F0.20363636363636364
sI7
F0.5981818181818181
sI8
F2.2633272727272713
sI9
F0.4527272727272727
sI10
F0.4381818181818182
sI11
F2.4345454545454546
sI12
F0.4672727272727273
sI13
F0.9181818181818182
sI14
F180.02363636363637
sI15
F1043.6327272727274
sI16
F0.6927272727272727
sI17
F0.22181818181818183
sI18
F0.22181818181818183
sI19
F0.07090909090909091
sI20
F0.5618181818181818
sI21
F0.5327272727272727
sI22
F0.07818181818181819
sI23
F0.07454545454545454
sI24
F0.08181818181818182
sI25
F0.08727272727272728
sI26
F0.0036363636363636364
sI27
F0.2
sI28
F0.014545454545454545
sI29
F0.01090909090909091
sI30
F0.11272727272727273
sI31
F0.1
sI32
F0.07818181818181819
sI33
F0.5472727272727272
sI34
F0.03272727272727273
sI35
F0.06
sI36
F0.056363636363636366
sI37
F0.08727272727272728
sI38
F0.0036363636363636364
sI39
F0.06181818181818182
sI40
F0.007272727272727273
sI41
F0.034545454545454546
sI42
F0.014545454545454545
sI43
F0.005454545454545455
sI44
F0.0036363636363636364
sI45
F0.0036363636363636364
sI46
F0.0036363636363636364
ssI1
(dp9
I1
F0.0
sI2
F0.0
sI3
F0.0
sI4
F0.0
sI5
F0.0
sI6
F0.0
sI7
F0.0
sI8
F0.0
sI9
F0.0
sI10
F0.0
sI11
F0.0
sI12
F0.0
sI13
F0.0
sI14
F0.0
sI15
F0.0
sI16
F0.0
sI17
F0.0
sI18
F0.0
sI19
F0.0
sI20
F0.0
sI21
F0.0
sI22
F0.0
sI23
F0.0
sI24
F0.0
sI25
F0.0
sI26
F0.0
sI27
F0.0
sI28
F0.0
sI29
F0.0
sI30
F0.0
sI31
F0.0
sI32
F0.0
sI33
F0.0
sI34
F0.0
sI35
F0.0
sI36
F0.0
sI37
F0.0
sI38
F0.0
sI39
F0.0
sI40
F0.0
sI41
F0.0
sI42
F0.0
sI43
F0.0
sI44
F0.0
sI45
F0.0
sI46
F0.0
ssI2
(dp10
I1
F0.0
sI2
F0.0
sI3
F0.0
sI4
F0.0
sI5
F0.0
sI6
F0.0
sI7
F0.0
sI8
F0.0
sI9
F0.0
sI10
F0.0
sI11
F0.0
sI12
F0.0
sI13
F0.0
sI14
F0.0
sI15
F0.0
sI16
F0.0
sI17
F0.0
sI18
F0.0
sI19
F0.0
sI20
F0.0
sI21
F0.0
sI22
F0.0
sI23
F0.0
sI24
F0.0
sI25
F0.0
sI26
F0.0
sI27
F0.0
sI28
F0.0
sI29
F0.0
sI30
F0.0
sI31
F0.0
sI32
F0.0
sI33
F0.0
sI34
F0.0
sI35
F0.0
sI36
F0.0
sI37
F0.0
sI38
F0.0
sI39
F0.0
sI40
F0.0
sI41
F0.0
sI42
F0.0
sI43
F0.0
sI44
F0.0
sI45
F0.0
sI46
F0.0
sssS'sigma_vector'
p11
(dp12
I0
(dp13
I1
F0.1477198753556429
sI2
F146.2077782957443
sI3
F25.09427903198555
sI4
F0.039441665537641585
sI5
F0.039441665537641585
sI6
F0.12938040915865065
sI7
F0.09675707296512054
sI8
F11.66799607333485
sI9
F0.13584217134083
sI10
F0.13855949058393124
sI11
F21.12877424618765
sI12
F0.13285277815411883
sI13
F0.006157702208372775
sI14
F22995.615921534263
sI15
F29956731.233701374
sI16
F0.06552403919974742
sI17
F0.1345704315886135
sI18
F0.1345704315886135
sI19
F0.061320923090818796
sI20
F0.10806743440364841
sI21
F0.11652956991675319
sI22
F0.06655591383281394
sI23
F0.06396195035300846
sI24
F0.0691031025606287
sI25
F0.0728368152463532
sI26
F0.003616540968552891
sI27
F0.12823315118397094
sI28
F0.014151120745457558
sI29
F0.010691812310888317
sI30
F0.08890651974288327
sI31
F0.08114754098360659
sI32
F0.06655591383281394
sI33
F0.11237442081018807
sI34
F0.030675951768053104
sI35
F0.053112568306010945
sI36
F0.05028039561035093
sI37
F0.0728368152463532
sI38
F0.003616540968552891
sI39
F0.05451055412545727
sI40
F0.007180382062051212
sI41
F0.03225855575125322
sI42
F0.014151120745457558
sI43
F0.005405030935284287
sI44
F0.003616540968552891
sI45
F0.003616540968552891
sI46
F0.003616540968552891
ssI1
(dp14
I1
F0.001675250351350998
sI2
F1.4620782463350785
sI3
F0.2538657037974461
sI4
F0.0003172039036714937
sI5
F0.0003172039036714937
sI6
F0.0012111047963388015
sI7
F0.0009536018705214966
sI8
F0.11624352177311473
sI9
F0.001097008119622344
sI10
F0.0014728355193269283
sI11
F0.21886276879323235
sI12
F0.001208994977063676
sI13
F5.383601749229966e-05
sI14
F224.04992857780417
sI15
F300057.5058230815
sI16
F0.00047745552858315235
sI17
F0.0014144611331747422
sI18
F0.0014144611331747422
sI19
F0.0005915929984023793
sI20
F0.000996472701989906
sI21
F0.001290856943973279
sI22
F0.0006679859700009698
sI23
F0.0006520810111859583
sI24
F0.0006990550848847359
sI25
F0.0007107790226201015
sI26
F3.6429872495446266e-05
sI27
F0.0013282832559923306
sI28
F0.00014255176957488308
sI29
F0.0001092896174863388
sI30
F0.0008959677432075279
sI31
F0.0008342978182597658
sI32
F0.0006367395410971742
sI33
F0.0014159824439539566
sI34
F0.0003101972803401556
sI35
F0.0005559871465828355
sI36
F0.0005046373327272026
sI37
F0.0007545092287868122
sI38
F3.603281962850972e-05
sI39
F0.0005095896154031708
sI40
F7.049048158215886e-05
sI41
F0.0003311197907955639
sI42
F0.00014098096316431772
sI43
F5.404922944276458e-05
sI44
F3.6429872495446266e-05
sI45
F3.6429872495446266e-05
sI46
F3.6429872495446266e-05
ssI2
g14
ssS'y_vector'
p15
(lp16
I-1
aI-1
aI-1
aI-1
aI-1
aI-1
aI-1
aI-1
aI-1
aI-1
aI-1
aI-1
aI-1
aI-1
aI-1
aI-1
aI-1
aI-1
aI-1
aI-1
aI-1
aI-1
aI-1
aI-1
aI-1
aI-1
aI-1
aI-1
aI-1
aI-1
aI-1
aI-1
aI-1
aI-1
aI-1
aI-1
aI-1
aI-1
aI-1
aI-1
aI-1
aI-1
aI-1
aI-1
aI-1
aI-1
aI-1
aI-1
aI-1
aI-1
aI-1
aI-1
aI-1
aI-1
aI-1
aI-1
aI-1
aI-1
aI-1
aI-1
aI-1
aI-1
aI-1
aI-1
aI-1
aI-1
aI-1
aI-1
aI-1
aI-1
aI-1
aI-1
aI-1
aI-1
aI-1
aI-1
aI-1
aI-1
aI-1
aI-1
aI-1
aI-1
aI-1
aI-1
aI-1
aI-1
aI-1
aI-1
aI-1
aI-1
aI-1
aI-1
aI-1
aI-1
aI-1
aI-1
aI-1
aI-1
aI-1
aI-1
aI-1
aI-1
aI-1
aI-1
aI-1
aI-1
aI-1
aI-1
aI-1
aI-1
aI-1
aI-1
aI-1
aI-1
aI-1
aI-1
aI-1
aI-1
aI-1
aI-1
aI-1
aI-1
aI-1
aI-1
aI-1
aI-1
aI-1
aI-1
aI-1
aI-1
aI-1
aI-1
aI-1
aI-1
aI-1
aI-1
aI-1
aI-1
aI-1
aI-1
aI-1
aI-1
aI-1
aI-1
aI-1
aI-1
aI-1
aI-1
aI-1
aI-1
aI-1
aI-1
aI-1
aI-1
aI-1
aI-1
aI-1
aI-1
aI-1
aI-1
aI-1
aI-1
aI-1
aI-1
aI-1
aI-1
aI-1
aI-1
aI-1
aI-1
aI-1
aI-1
aI-1
aI-1
aI-1
aI-1
aI-1
aI-1
aI-1
aI-1
aI-1
aI-1
aI-1
aI-1
aI-1
aI-1
aI-1
aI-1
aI-1
aI-1
aI-1
aI-1
aI-1
aI-1
aI-1
aI-1
aI-1
aI-1
aI-1
aI-1
aI-1
aI-1
aI-1
aI-1
aI-1
aI-1
aI-1
aI-1
aI-1
aI-1
aI-1
aI-1
aI-1
aI-1
aI-1
aI-1
aI-1
aI-1
aI-1
aI-1
aI-1
aI-1
aI-1
aI-1
aI-1
aI-1
aI-1
aI-1
aI-1
aI-1
aI-1
aI-1
aI-1
aI-1
aI-1
aI-1
aI-1
aI-1
aI-1
aI-1
aI-1
aI-1
aI-1
aI-1
aI-1
aI-1
aI-1
aI-1
aI-1
aI-1
aI-1
aI-1
aI-1
aI-1
aI-1
aI-1
aI-1
aI-1
aI-1
aI-1
aI-1
aI-1
aI-1
aI-1
aI-1
aI-1
aI-1
aI-1
aI-1
aI-1
aI-1
aI-1
aI-1
aI-1
aI-1
aI-1
aI-1
aI-1
aI-1
aI-1
aI-1
aI-1
aI-1
aI-1
aI-1
aI-1
aI-1
aI-1
aI-1
aI-1
aI-1
aI-1
aI-1
aI-1
aI-1
aI-1
aI-1
aI-1
aI-1
aI-1
aI-1
aI-1
aI-1
aI-1
aI-1
aI-1
aI-1
aI-1
aI-1
aI-1
aI-1
aI-1
aI-1
aI-1
aI-1
aI-1
aI-1
aI-1
aI-1
aI-1
aI-1
aI-1
aI-1
aI-1
aI-1
aI-1
aI-1
aI-1
aI-1
aI-1
aI-1
aI-1
aI-1
aI-1
aI-1
aI-1
aI-1
aI-1
aI-1
aI-1
aI-1
aI-1
aI-1
aI-1
aI-1
aI-1
aI-1
aI-1
aI-1
aI-1
aI-1
aI-1
aI-1
aI-1
aI-1
aI-1
aI-1
aI-1
aI-1
aI-1
aI-1
aI-1
aI-1
aI-1
aI-1
aI-1
aI-1
aI-1
aI-1
aI-1
aI-1
aI-1
aI-1
aI-1
aI-1
aI-1
aI-1
aI-1
aI-1
aI-1
aI-1
aI-1
aI-1
aI-1
aI-1
aI-1
aI-1
aI-1
aI-1
aI-1
aI-1
aI-1
aI-1
aI-1
aI-1
aI-1
aI-1
aI-1
aI-1
aI-1
aI-1
aI-1
aI-1
aI-1
aI-1
aI-1
aI-1
aI-1
aI-1
aI-1
aI-1
aI-1
aI-1
aI-1
aI-1
aI-1
aI-1
aI-1
aI-1
aI-1
aI-1
aI-1
aI-1
aI-1
aI-1
aI-1
aI-1
aI-1
aI-1
aI-1
aI-1
aI-1
aI-1
aI-1
aI-1
aI-1
aI-1
aI-1
aI-1
aI-1
aI-1
aI-1
aI-1
aI-1
aI-1
aI-1
aI-1
aI-1
aI-1
aI-1
aI-1
aI-1
aI-1
aI-1
aI-1
aI-1
aI-1
aI-1
aI-1
aI-1
aI-1
aI-1
aI-1
aI-1
aI-1
aI-1
aI-1
aI-1
aI-1
aI-1
aI-1
aI-1
aI-1
aI-1
aI-1
aI-1
aI-1
aI-1
aI-1
aI-1
aI-1
aI-1
aI-1
aI-1
aI-1
aI-1
aI-1
aI-1
aI-1
aI-1
aI-1
aI-1
aI-1
aI-1
aI-1
aI-1
aI-1
aI-1
aI-1
aI-1
aI-1
aI-1
aI-1
aI-1
aI-1
aI-1
aI-1
aI-1
aI-1
aI-1
aI-1
aI-1
aI-1
aI-1
aI-1
aI-1
aI-1
aI-1
aI-1
aI-1
aI-1
aI-1
aI-1
aI-1
aI-1
aI-1
aI-1
aI-1
aI-1
aI-1
aI-1
aI-1
aI-1
aI-1
aI-1
aI-1
aI-1
aI-1
aI-1
aI-1
aI-1
aI-1
aI-1
aI-1
aI-1
aI-1
aI-1
aI-1
aI-1
aI-1
asS'K'
p17
I3
sS'phi_vector'
p18
(dp19
I0
F1.0
sI1
F0.0
sI2
F0.0
ssS'N'
p20
F550.0
sS'instances'
p21
(lp22
(ics475_types
Instance
p23
(dp24
S'_feature_vector'
p25
(ics475_types
FeatureVector
p26
(dp27
S'feature_vector'
p28
(dp29
I1
F1.0
sI2
F22.25
sI3
F1.25
sI8
F3.25
sI9
F1.0
sI13
F1.0
sI14
F280.0
sI17
F1.0
sI18
F1.0
sI20
F1.0
sI21
F1.0
sI23
F1.0
sI24
F1.0
ssbsS'_label'
p30
g0
(ccs475_types
ClassificationLabel
p31
g2
Ntp32
Rp33
(dp34
S'label'
p35
I0
sbsba(ics475_types
Instance
p36
(dp37
g25
(ics475_types
FeatureVector
p38
(dp39
g28
(dp40
I33
F1.0
sI2
F16.25
sI3
F0.835
sI4
F1.0
sI5
F1.0
sI7
F1.0
sI8
F0.085
sI14
F200.0
sI16
F1.0
sI35
F1.0
sI20
F1.0
sI21
F1.0
sI22
F1.0
ssbsg30
g0
(g31
g2
Ntp41
Rp42
(dp43
g35
I0
sbsba(ics475_types
Instance
p44
(dp45
g25
(ics475_types
FeatureVector
p46
(dp47
g28
(dp48
I1
F1.0
sI2
F55.75
sI3
F7.08
sI4
F1.0
sI5
F1.0
sI33
F1.0
sI8
F6.75
sI10
F1.0
sI11
F3.0
sI12
F1.0
sI13
F1.0
sI14
F100.0
sI15
F50.0
sI19
F1.0
sI27
F1.0
ssbsg30
g0
(g31
g2
Ntp49
Rp50
(dp51
g35
I0
sbsba(ics475_types
Instance
p52
(dp53
g25
(ics475_types
FeatureVector
p54
(dp55
g28
(dp56
I2
F44.83
sI3
F7.0
sI6
F1.0
sI7
F1.0
sI8
F1.625
sI9
F1.0
sI13
F1.0
sI14
F160.0
sI15
F2.0
sI16
F1.0
sI17
F1.0
sI18
F1.0
sI20
F1.0
sI21
F1.0
ssbsg30
g0
(g31
g2
Ntp57
Rp58
(dp59
g35
I0
sbsba(ics475_types
Instance
p60
(dp61
g25
(ics475_types
FeatureVector
p62
(dp63
g28
(dp64
I1
F1.0
sI2
F24.08
sI3
F0.5
sI4
F1.0
sI5
F1.0
sI33
F1.0
sI8
F1.25
sI10
F1.0
sI11
F1.0
sI13
F1.0
sI15
F678.0
sI21
F1.0
sI27
F1.0
sI30
F1.0
ssbsg30
g0
(g31
g2
Ntp65
Rp66
(dp67
g35
I1
sbsba(ics475_types
Instance
p68
(dp69
g25
(ics475_types
FeatureVector
p70
(dp71
g28
(dp72
I33
F1.0
sI2
F40.58
sI3
F5.0
sI4
F1.0
sI5
F1.0
sI6
F1.0
sI7
F1.0
sI8
F5.0
sI10
F1.0
sI11
F7.0
sI13
F1.0
sI15
F3065.0
sI16
F1.0
sI21
F1.0
ssbsg30
g0
(g31
g2
Ntp73
Rp74
(dp75
g35
I1
sbsba(ics475_types
Instance
p76
(dp77
g25
(ics475_types
FeatureVector
p78
(dp79
g28
(dp80
I33
F1.0
sI2
F25.0
sI3
F12.5
sI4
F1.0
sI5
F1.0
sI7
F1.0
sI8
F3.0
sI12
F1.0
sI14
F20.0
sI16
F1.0
sI20
F1.0
sI22
F1.0
sI37
F1.0
ssbsg30
g0
(g31
g2
Ntp81
Rp82
(dp83
g35
I1
sbsba(ics475_types
Instance
p84
(dp85
g25
(ics475_types
FeatureVector
p86
(dp87
g28
(dp88
I2
F29.83
sI3
F1.25
sI7
F1.0
sI8
F0.25
sI9
F1.0
sI13
F1.0
sI14
F224.0
sI16
F1.0
sI17
F1.0
sI18
F1.0
sI19
F1.0
sI20
F1.0
sI21
F1.0
ssbsg30
g0
(g31
g2
Ntp89
Rp90
(dp91
g35
I0
sbsba(ics475_types
Instance
p92
(dp93
g25
(ics475_types
FeatureVector
p94
(dp95
g28
(dp96
I2
F23.58
sI3
F1.79
sI4
F1.0
sI5
F1.0
sI6
F1.0
sI7
F1.0
sI8
F0.54
sI9
F1.0
sI12
F1.0
sI13
F1.0
sI14
F136.0
sI15
F1.0
sI16
F1.0
sI20
F1.0
ssbsg30
g0
(g31
g2
Ntp97
Rp98
(dp99
g35
I0
sbsba(ics475_types
Instance
p100
(dp101
g25
(ics475_types
FeatureVector
p102
(dp103
g28
(dp104
I33
F1.0
sI2
F27.58
sI3
F2.04
sI37
F1.0
sI7
F1.0
sI8
F2.0
sI10
F1.0
sI11
F3.0
sI12
F1.0
sI13
F1.0
sI14
F370.0
sI15
F560.0
sI16
F1.0
sI17
F1.0
sI18
F1.0
ssbsg30
g0
(g31
g2
Ntp105
Rp106
(dp107
g35
I1
sbsba(ics475_types
Instance
p108
(dp109
g25
(ics475_types
FeatureVector
p110
(dp111
g28
(dp112
I33
F1.0
sI2
F18.42
sI3
F10.415
sI37
F1.0
sI7
F1.0
sI8
F0.125
sI13
F1.0
sI14
F120.0
sI15
F375.0
sI16
F1.0
sI17
F1.0
sI18
F1.0
sI20
F1.0
sI21
F1.0
ssbsg30
g0
(g31
g2
Ntp113
Rp114
(dp115
g35
I0
sbsba(ics475_types
Instance
p116
(dp117
g25
(ics475_types
FeatureVector
p118
(dp119
g28
(dp120
I33
F1.0
sI2
F32.08
sI3
F4.0
sI4
F1.0
sI5
F1.0
sI7
F1.0
sI8
F2.5
sI12
F1.0
sI13
F1.0
sI14
F360.0
sI16
F1.0
sI35
F1.0
sI20
F1.0
ssbsg30
g0
(g31
g2
Ntp121
Rp122
(dp123
g35
I1
sbsba(ics475_types
Instance
p124
(dp125
g25
(ics475_types
FeatureVector
p126
(dp127
g28
(dp128
I33
F1.0
sI2
F44.25
sI3
F11.0
sI7
F1.0
sI8
F1.5
sI34
F1.0
sI16
F1.0
sI17
F1.0
sI18
F1.0
sI20
F1.0
sI21
F1.0
sI22
F1.0
ssbsg30
g0
(g31
g2
Ntp129
Rp130
(dp131
g35
I0
sbsba(ics475_types
Instance
p132
(dp133
g25
(ics475_types
FeatureVector
p134
(dp135
g28
(dp136
I2
F24.5
sI3
F13.335
sI37
F1.0
sI7
F1.0
sI8
F0.04
sI9
F1.0
sI12
F1.0
sI13
F1.0
sI14
F120.0
sI15
F475.0
sI16
F1.0
sI17
F1.0
sI18
F1.0
sI20
F1.0
ssbsg30
g0
(g31
g2
Ntp137
Rp138
(dp139
g35
I0
sbsba(ics475_types
Instance
p140
(dp141
g25
(ics475_types
FeatureVector
p142
(dp143
g28
(dp144
I33
F1.0
sI2
F42.0
sI3
F9.79
sI4
F1.0
sI5
F1.0
sI39
F1.0
sI8
F7.96
sI10
F1.0
sI11
F8.0
sI13
F1.0
sI16
F1.0
sI21
F1.0
sI27
F1.0
ssbsg30
g0
(g31
g2
Ntp145
Rp146
(dp147
g35
I1
sbsba(ics475_types
Instance
p148
(dp149
g25
(ics475_types
FeatureVector
p150
(dp151
g28
(dp152
I32
F1.0
sI33
F1.0
sI2
F36.25
sI3
F5.0
sI4
F1.0
sI5
F1.0
sI6
F1.0
sI8
F2.5
sI10
F1.0
sI11
F6.0
sI13
F1.0
sI15
F367.0
sI16
F1.0
sI21
F1.0
ssbsg30
g0
(g31
g2
Ntp153
Rp154
(dp155
g35
I1
sbsba(ics475_types
Instance
p156
(dp157
g25
(ics475_types
FeatureVector
p158
(dp159
g28
(dp160
I33
F1.0
sI2
F23.17
sI4
F1.0
sI5
F1.0
sI7
F1.0
sI8
F0.085
sI13
F1.0
sI16
F1.0
sI20
F1.0
sI21
F1.0
sI36
F1.0
ssbsg30
g0
(g31
g2
Ntp161
Rp162
(dp163
g35
I1
sbsba(ics475_types
Instance
p164
(dp165
g25
(ics475_types
FeatureVector
p166
(dp167
g28
(dp168
I2
F34.17
sI3
F5.25
sI4
F1.0
sI5
F1.0
sI7
F1.0
sI8
F0.085
sI9
F1.0
sI12
F1.0
sI13
F1.0
sI14
F290.0
sI15
F6.0
sI16
F1.0
sI20
F1.0
sI31
F1.0
ssbsg30
g0
(g31
g2
Ntp169
Rp170
(dp171
g35
I1
sbsba(ics475_types
Instance
p172
(dp173
g25
(ics475_types
FeatureVector
p174
(dp175
g28
(dp176
I33
F1.0
sI2
F26.67
sI3
F2.71
sI36
F1.0
sI7
F1.0
sI8
F5.25
sI10
F1.0
sI11
F1.0
sI13
F1.0
sI14
F211.0
sI16
F1.0
sI17
F1.0
sI18
F1.0
sI21
F1.0
ssbsg30
g0
(g31
g2
Ntp177
Rp178
(dp179
g35
I1
sbsba(ics475_types
Instance
p180
(dp181
g25
(ics475_types
FeatureVector
p182
(dp183
g28
(dp184
I2
F25.42
sI3
F0.54
sI4
F1.0
sI5
F1.0
sI7
F1.0
sI8
F0.165
sI9
F1.0
sI10
F1.0
sI11
F1.0
sI13
F1.0
sI14
F272.0
sI15
F444.0
sI16
F1.0
sI21
F1.0
sI31
F1.0
ssbsg30
g0
(g31
g2
Ntp185
Rp186
(dp187
g35
I0
sbsba(ics475_types
Instance
p188
(dp189
g25
(ics475_types
FeatureVector
p190
(dp191
g28
(dp192
I1
F1.0
sI2
F19.58
sI3
F0.665
sI6
F1.0
sI7
F1.0
sI8
F1.0
sI9
F1.0
sI10
F1.0
sI11
F1.0
sI13
F1.0
sI14
F2000.0
sI15
F2.0
sI17
F1.0
sI18
F1.0
sI21
F1.0
ssbsg30
g0
(g31
g2
Ntp193
Rp194
(dp195
g35
I0
sbsba(ics475_types
Instance
p196
(dp197
g25
(ics475_types
FeatureVector
p198
(dp199
g28
(dp200
I33
F1.0
sI2
F39.0
sI3
F5.0
sI4
F1.0
sI5
F1.0
sI7
F1.0
sI8
F3.5
sI10
F1.0
sI11
F10.0
sI12
F1.0
sI13
F1.0
sI16
F1.0
sI36
F1.0
ssbsg30
g0
(g31
g2
Ntp201
Rp202
(dp203
g35
I1
sbsba(ics475_types
Instance
p204
(dp205
g25
(ics475_types
FeatureVector
p206
(dp207
g28
(dp208
I1
F1.0
sI2
F30.67
sI3
F12.0
sI4
F1.0
sI5
F1.0
sI6
F1.0
sI7
F1.0
sI8
F2.0
sI10
F1.0
sI11
F1.0
sI13
F1.0
sI14
F220.0
sI15
F19.0
sI21
F1.0
sI33
F1.0
ssbsg30
g0
(g31
g2
Ntp209
Rp210
(dp211
g35
I1
sbsba(ics475_types
Instance
p212
(dp213
g25
(ics475_types
FeatureVector
p214
(dp215
g28
(dp216
I1
F1.0
sI2
F19.17
sI3
F5.415
sI4
F1.0
sI5
F1.0
sI8
F0.29
sI9
F1.0
sI13
F1.0
sI14
F80.0
sI15
F484.0
sI20
F1.0
sI21
F1.0
sI25
F1.0
sI27
F1.0
ssbsg30
g0
(g31
g2
Ntp217
Rp218
(dp219
g35
I0
sbsba(ics475_types
Instance
p220
(dp221
g25
(ics475_types
FeatureVector
p222
(dp223
g28
(dp224
I1
F1.0
sI2
F49.83
sI3
F13.585
sI4
F1.0
sI5
F1.0
sI33
F1.0
sI8
F8.5
sI12
F1.0
sI13
F1.0
sI19
F1.0
sI20
F1.0
sI27
F1.0
ssbsg30
g0
(g31
g2
Ntp225
Rp226
(dp227
g35
I1
sbsba(ics475_types
Instance
p228
(dp229
g25
(ics475_types
FeatureVector
p230
(dp231
g28
(dp232
I1
F1.0
sI2
F18.83
sI3
F9.5
sI4
F1.0
sI5
F1.0
sI7
F1.0
sI8
F1.625
sI10
F1.0
sI11
F6.0
sI12
F1.0
sI13
F1.0
sI14
F40.0
sI15
F600.0
sI33
F1.0
sI31
F1.0
ssbsg30
g0
(g31
g2
Ntp233
Rp234
(dp235
g35
I1
sbsba(ics475_types
Instance
p236
(dp237
g25
(ics475_types
FeatureVector
p238
(dp239
g28
(dp240
I2
F38.42
sI3
F0.705
sI4
F1.0
sI5
F1.0
sI6
F1.0
sI7
F1.0
sI8
F0.375
sI9
F1.0
sI10
F1.0
sI11
F2.0
sI13
F1.0
sI14
F225.0
sI15
F500.0
sI16
F1.0
sI21
F1.0
ssbsg30
g0
(g31
g2
Ntp241
Rp242
(dp243
g35
I0
sbsba(ics475_types
Instance
p244
(dp245
g25
(ics475_types
FeatureVector
p246
(dp247
g28
(dp248
I33
F1.0
sI2
F31.92
sI3
F4.46
sI4
F1.0
sI5
F1.0
sI8
F6.04
sI10
F1.0
sI11
F3.0
sI13
F1.0
sI14
F311.0
sI15
F300.0
sI16
F1.0
sI21
F1.0
sI36
F1.0
sI27
F1.0
ssbsg30
g0
(g31
g2
Ntp249
Rp250
(dp251
g35
I1
sbsba(ics475_types
Instance
p252
(dp253
g25
(ics475_types
FeatureVector
p254
(dp255
g28
(dp256
I1
F1.0
sI2
F22.5
sI3
F8.46
sI7
F1.0
sI8
F2.46
sI9
F1.0
sI39
F1.0
sI13
F1.0
sI14
F164.0
sI17
F1.0
sI18
F1.0
sI20
F1.0
sI21
F1.0
ssbsg30
g0
(g31
g2
Ntp257
Rp258
(dp259
g35
I1
sbsba(ics475_types
Instance
p260
(dp261
g25
(ics475_types
FeatureVector
p262
(dp263
g28
(dp264
I1
F1.0
sI2
F17.58
sI3
F9.0
sI4
F1.0
sI5
F1.0
sI7
F1.0
sI8
F1.375
sI12
F1.0
sI13
F1.0
sI20
F1.0
sI33
F1.0
sI37
F1.0
ssbsg30
g0
(g31
g2
Ntp265
Rp266
(dp267
g35
I1
sbsba(ics475_types
Instance
p268
(dp269
g25
(ics475_types
FeatureVector
p270
(dp271
g28
(dp272
I33
F1.0
sI2
F57.83
sI3
F7.04
sI4
F1.0
sI5
F1.0
sI7
F1.0
sI8
F14.0
sI10
F1.0
sI11
F6.0
sI12
F1.0
sI13
F1.0
sI14
F360.0
sI15
F1332.0
sI16
F1.0
sI35
F1.0
ssbsg30
g0
(g31
g2
Ntp273
Rp274
(dp275
g35
I1
sbsba(ics475_types
Instance
p276
(dp277
g25
(ics475_types
FeatureVector
p278
(dp279
g28
(dp280
I1
F1.0
sI2
F25.17
sI3
F2.875
sI4
F1.0
sI5
F1.0
sI33
F1.0
sI8
F0.875
sI39
F1.0
sI13
F1.0
sI14
F360.0
sI20
F1.0
sI21
F1.0
sI27
F1.0
ssbsg30
g0
(g31
g2
Ntp281
Rp282
(dp283
g35
I1
sbsba(ics475_types
Instance
p284
(dp285
g25
(ics475_types
FeatureVector
p286
(dp287
g28
(dp288
I2
F36.08
sI3
F2.54
sI4
F1.0
sI5
F1.0
sI9
F1.0
sI13
F1.0
sI15
F1000.0
sI16
F1.0
sI20
F1.0
sI21
F1.0
sI23
F1.0
sI24
F1.0
ssbsg30
g0
(g31
g2
Ntp289
Rp290
(dp291
g35
I0
sbsba(ics475_types
Instance
p292
(dp293
g25
(ics475_types
FeatureVector
p294
(dp295
g28
(dp296
I2
F26.25
sI3
F1.54
sI4
F1.0
sI5
F1.0
sI7
F1.0
sI8
F0.125
sI9
F1.0
sI13
F1.0
sI14
F100.0
sI16
F1.0
sI20
F1.0
sI21
F1.0
sI31
F1.0
ssbsg30
g0
(g31
g2
Ntp297
Rp298
(dp299
g35
I0
sbsba(ics475_types
Instance
p300
(dp301
g25
(ics475_types
FeatureVector
p302
(dp303
g28
(dp304
I1
F1.0
sI2
F20.83
sI3
F3.0
sI4
F1.0
sI5
F1.0
sI7
F1.0
sI8
F0.04
sI13
F1.0
sI14
F100.0
sI20
F1.0
sI21
F1.0
sI33
F1.0
sI37
F1.0
ssbsg30
g0
(g31
g2
Ntp305
Rp306
(dp307
g35
I1
sbsba(ics475_types
Instance
p308
(dp309
g25
(ics475_types
FeatureVector
p310
(dp311
g28
(dp312
I33
F1.0
sI2
F48.5
sI3
F4.25
sI4
F1.0
sI5
F1.0
sI7
F1.0
sI8
F0.125
sI12
F1.0
sI13
F1.0
sI14
F225.0
sI16
F1.0
sI35
F1.0
sI20
F1.0
ssbsg30
g0
(g31
g2
Ntp313
Rp314
(dp315
g35
I1
sbsba(ics475_types
Instance
p316
(dp317
g25
(ics475_types
FeatureVector
p318
(dp319
g28
(dp320
I1
F1.0
sI2
F32.17
sI3
F1.46
sI4
F1.0
sI5
F1.0
sI7
F1.0
sI8
F1.085
sI10
F1.0
sI11
F16.0
sI13
F1.0
sI14
F120.0
sI15
F2079.0
sI21
F1.0
sI33
F1.0
sI31
F1.0
ssbsg30
g0
(g31
g2
Ntp321
Rp322
(dp323
g35
I1
sbsba(ics475_types
Instance
p324
(dp325
g25
(ics475_types
FeatureVector
p326
(dp327
g28
(dp328
I1
F1.0
sI2
F25.08
sI3
F2.54
sI33
F1.0
sI7
F1.0
sI8
F0.25
sI12
F1.0
sI13
F1.0
sI14
F370.0
sI17
F1.0
sI18
F1.0
sI20
F1.0
sI37
F1.0
ssbsg30
g0
(g31
g2
Ntp329
Rp330
(dp331
g35
I1
sbsba(ics475_types
Instance
p332
(dp333
g25
(ics475_types
FeatureVector
p334
(dp335
g28
(dp336
I33
F1.0
sI2
F33.5
sI3
F1.75
sI4
F1.0
sI5
F1.0
sI39
F1.0
sI8
F4.5
sI10
F1.0
sI11
F4.0
sI12
F1.0
sI13
F1.0
sI14
F253.0
sI15
F857.0
sI16
F1.0
sI27
F1.0
ssbsg30
g0
(g31
g2
Ntp337
Rp338
(dp339
g35
I1
sbsba(ics475_types
Instance
p340
(dp341
g25
(ics475_types
FeatureVector
p342
(dp343
g28
(dp344
I33
F1.0
sI2
F19.17
sI3
F9.5
sI4
F1.0
sI5
F1.0
sI7
F1.0
sI8
F1.5
sI13
F1.0
sI14
F120.0
sI15
F2206.0
sI16
F1.0
sI20
F1.0
sI21
F1.0
sI31
F1.0
ssbsg30
g0
(g31
g2
Ntp345
Rp346
(dp347
g35
I1
sbsba(ics475_types
Instance
p348
(dp349
g25
(ics475_types
FeatureVector
p350
(dp351
g28
(dp352
I33
F1.0
sI2
F26.67
sI3
F1.75
sI6
F1.0
sI7
F1.0
sI8
F1.0
sI10
F1.0
sI11
F5.0
sI12
F1.0
sI13
F1.0
sI14
F160.0
sI15
F5777.0
sI16
F1.0
sI17
F1.0
sI18
F1.0
ssbsg30
g0
(g31
g2
Ntp353
Rp354
(dp355
g35
I1
sbsba(ics475_types
Instance
p356
(dp357
g25
(ics475_types
FeatureVector
p358
(dp359
g28
(dp360
I33
F1.0
sI2
F23.0
sI3
F0.75
sI4
F1.0
sI5
F1.0
sI7
F1.0
sI8
F0.5
sI12
F1.0
sI14
F320.0
sI16
F1.0
sI35
F1.0
sI20
F1.0
sI22
F1.0
ssbsg30
g0
(g31
g2
Ntp361
Rp362
(dp363
g35
I0
sbsba(ics475_types
Instance
p364
(dp365
g25
(ics475_types
FeatureVector
p366
(dp367
g28
(dp368
I33
F1.0
sI2
F57.42
sI3
F8.5
sI4
F1.0
sI5
F1.0
sI8
F7.0
sI41
F1.0
sI10
F1.0
sI11
F3.0
sI13
F1.0
sI16
F1.0
sI21
F1.0
sI27
F1.0
ssbsg30
g0
(g31
g2
Ntp369
Rp370
(dp371
g35
I1
sbsba(ics475_types
Instance
p372
(dp373
g25
(ics475_types
FeatureVector
p374
(dp375
g28
(dp376
I33
F1.0
sI2
F20.67
sI3
F5.29
sI4
F1.0
sI5
F1.0
sI7
F1.0
sI8
F0.375
sI10
F1.0
sI11
F1.0
sI13
F1.0
sI14
F160.0
sI16
F1.0
sI21
F1.0
sI30
F1.0
ssbsg30
g0
(g31
g2
Ntp377
Rp378
(dp379
g35
I0
sbsba(ics475_types
Instance
p380
(dp381
g25
(ics475_types
FeatureVector
p382
(dp383
g28
(dp384
I33
F1.0
sI2
F21.83
sI3
F11.0
sI4
F1.0
sI5
F1.0
sI7
F1.0
sI8
F0.29
sI10
F1.0
sI11
F6.0
sI13
F1.0
sI14
F121.0
sI16
F1.0
sI21
F1.0
sI39
F1.0
ssbsg30
g0
(g31
g2
Ntp385
Rp386
(dp387
g35
I1
sbsba(ics475_types
Instance
p388
(dp389
g25
(ics475_types
FeatureVector
p390
(dp391
g28
(dp392
I2
F15.17
sI3
F7.0
sI4
F1.0
sI5
F1.0
sI7
F1.0
sI8
F1.0
sI9
F1.0
sI13
F1.0
sI14
F600.0
sI16
F1.0
sI20
F1.0
sI21
F1.0
sI41
F1.0
ssbsg30
g0
(g31
g2
Ntp393
Rp394
(dp395
g35
I0
sbsba(ics475_types
Instance
p396
(dp397
g25
(ics475_types
FeatureVector
p398
(dp399
g28
(dp400
I2
F22.25
sI3
F9.0
sI4
F1.0
sI5
F1.0
sI7
F1.0
sI8
F0.085
sI9
F1.0
sI13
F1.0
sI16
F1.0
sI20
F1.0
sI21
F1.0
sI37
F1.0
ssbsg30
g0
(g31
g2
Ntp401
Rp402
(dp403
g35
I0
sbsba(ics475_types
Instance
p404
(dp405
g25
(ics475_types
FeatureVector
p406
(dp407
g28
(dp408
I33
F1.0
sI2
F25.17
sI3
F6.0
sI4
F1.0
sI5
F1.0
sI6
F1.0
sI7
F1.0
sI8
F1.0
sI10
F1.0
sI11
F3.0
sI13
F1.0
sI16
F1.0
sI21
F1.0
ssbsg30
g0
(g31
g2
Ntp409
Rp410
(dp411
g35
I1
sbsba(ics475_types
Instance
p412
(dp413
g25
(ics475_types
FeatureVector
p414
(dp415
g28
(dp416
I2
F38.92
sI3
F1.75
sI4
F1.0
sI5
F1.0
sI7
F1.0
sI8
F0.5
sI9
F1.0
sI12
F1.0
sI13
F1.0
sI14
F300.0
sI15
F2.0
sI16
F1.0
sI19
F1.0
sI20
F1.0
ssbsg30
g0
(g31
g2
Ntp417
Rp418
(dp419
g35
I0
sbsba(ics475_types
Instance
p420
(dp421
g25
(ics475_types
FeatureVector
p422
(dp423
g28
(dp424
I2
F20.08
sI3
F0.25
sI4
F1.0
sI5
F1.0
sI7
F1.0
sI8
F0.125
sI9
F1.0
sI13
F1.0
sI14
F200.0
sI16
F1.0
sI20
F1.0
sI21
F1.0
sI30
F1.0
ssbsg30
g0
(g31
g2
Ntp425
Rp426
(dp427
g35
I0
sbsba(ics475_types
Instance
p428
(dp429
g25
(ics475_types
FeatureVector
p430
(dp431
g28
(dp432
I2
F22.08
sI3
F11.46
sI4
F1.0
sI5
F1.0
sI7
F1.0
sI8
F1.585
sI9
F1.0
sI12
F1.0
sI13
F1.0
sI14
F100.0
sI15
F1212.0
sI16
F1.0
sI19
F1.0
sI20
F1.0
ssbsg30
g0
(g31
g2
Ntp433
Rp434
(dp435
g35
I0
sbsba(ics475_types
Instance
p436
(dp437
g25
(ics475_types
FeatureVector
p438
(dp439
g28
(dp440
I33
F1.0
sI2
F42.0
sI3
F0.205
sI4
F1.0
sI5
F1.0
sI8
F5.125
sI13
F1.0
sI14
F400.0
sI16
F1.0
sI20
F1.0
sI21
F1.0
sI25
F1.0
sI27
F1.0
ssbsg30
g0
(g31
g2
Ntp441
Rp442
(dp443
g35
I1
sbsba(ics475_types
Instance
p444
(dp445
g25
(ics475_types
FeatureVector
p446
(dp447
g28
(dp448
I2
F26.83
sI3
F0.54
sI4
F1.0
sI5
F1.0
sI9
F1.0
sI13
F1.0
sI14
F100.0
sI16
F1.0
sI19
F1.0
sI20
F1.0
sI21
F1.0
sI24
F1.0
ssbsg30
g0
(g31
g2
Ntp449
Rp450
(dp451
g35
I0
sbsba(ics475_types
Instance
p452
(dp453
g25
(ics475_types
FeatureVector
p454
(dp455
g28
(dp456
I32
F1.0
sI2
F27.42
sI3
F12.5
sI4
F1.0
sI5
F1.0
sI8
F0.25
sI9
F1.0
sI12
F1.0
sI13
F1.0
sI14
F720.0
sI16
F1.0
sI20
F1.0
sI37
F1.0
ssbsg30
g0
(g31
g2
Ntp457
Rp458
(dp459
g35
I0
sbsba(ics475_types
Instance
p460
(dp461
g25
(ics475_types
FeatureVector
p462
(dp463
g28
(dp464
I33
F1.0
sI2
F41.58
sI3
F1.75
sI4
F1.0
sI5
F1.0
sI7
F1.0
sI8
F0.21
sI13
F1.0
sI14
F160.0
sI16
F1.0
sI19
F1.0
sI20
F1.0
sI21
F1.0
ssbsg30
g0
(g31
g2
Ntp465
Rp466
(dp467
g35
I0
sbsba(ics475_types
Instance
p468
(dp469
g25
(ics475_types
FeatureVector
p470
(dp471
g28
(dp472
I1
F1.0
sI2
F39.08
sI3
F4.0
sI4
F1.0
sI5
F1.0
sI6
F1.0
sI7
F1.0
sI8
F3.0
sI9
F1.0
sI13
F1.0
sI14
F480.0
sI20
F1.0
sI21
F1.0
ssbsg30
g0
(g31
g2
Ntp473
Rp474
(dp475
g35
I0
sbsba(ics475_types
Instance
p476
(dp477
g25
(ics475_types
FeatureVector
p478
(dp479
g28
(dp480
I1
F1.0
sI2
F33.25
sI3
F2.5
sI6
F1.0
sI7
F1.0
sI8
F2.5
sI9
F1.0
sI12
F1.0
sI13
F1.0
sI15
F2.0
sI17
F1.0
sI18
F1.0
sI20
F1.0
ssbsg30
g0
(g31
g2
Ntp481
Rp482
(dp483
g35
I0
sbsba(ics475_types
Instance
p484
(dp485
g25
(ics475_types
FeatureVector
p486
(dp487
g28
(dp488
I33
F1.0
sI2
F32.0
sI3
F1.75
sI8
F0.04
sI41
F1.0
sI12
F1.0
sI13
F1.0
sI14
F393.0
sI16
F1.0
sI17
F1.0
sI18
F1.0
sI20
F1.0
sI27
F1.0
ssbsg30
g0
(g31
g2
Ntp489
Rp490
(dp491
g35
I1
sbsba(ics475_types
Instance
p492
(dp493
g25
(ics475_types
FeatureVector
p494
(dp495
g28
(dp496
I1
F1.0
sI2
F36.75
sI3
F4.71
sI4
F1.0
sI5
F1.0
sI9
F1.0
sI13
F1.0
sI14
F160.0
sI20
F1.0
sI21
F1.0
sI23
F1.0
sI24
F1.0
ssbsg30
g0
(g31
g2
Ntp497
Rp498
(dp499
g35
I0
sbsba(ics475_types
Instance
p500
(dp501
g25
(ics475_types
FeatureVector
p502
(dp503
g28
(dp504
I1
F1.0
sI2
F35.42
sI3
F12.0
sI4
F1.0
sI5
F1.0
sI33
F1.0
sI8
F14.0
sI10
F1.0
sI11
F8.0
sI13
F1.0
sI15
F6590.0
sI21
F1.0
sI27
F1.0
sI30
F1.0
ssbsg30
g0
(g31
g2
Ntp505
Rp506
(dp507
g35
I1
sbsba(ics475_types
Instance
p508
(dp509
g25
(ics475_types
FeatureVector
p510
(dp511
g28
(dp512
I1
F1.0
sI2
F26.17
sI3
F2.0
sI4
F1.0
sI5
F1.0
sI9
F1.0
sI12
F1.0
sI13
F1.0
sI14
F276.0
sI15
F1.0
sI20
F1.0
sI28
F1.0
sI29
F1.0
ssbsg30
g0
(g31
g2
Ntp513
Rp514
(dp515
g35
I0
sbsba(ics475_types
Instance
p516
(dp517
g25
(ics475_types
FeatureVector
p518
(dp519
g28
(dp520
I2
F25.83
sI3
F12.835
sI4
F1.0
sI5
F1.0
sI7
F1.0
sI8
F0.5
sI9
F1.0
sI13
F1.0
sI15
F2.0
sI16
F1.0
sI20
F1.0
sI21
F1.0
sI36
F1.0
ssbsg30
g0
(g31
g2
Ntp521
Rp522
(dp523
g35
I0
sbsba(ics475_types
Instance
p524
(dp525
g25
(ics475_types
FeatureVector
p526
(dp527
g28
(dp528
I2
F22.58
sI3
F1.5
sI37
F1.0
sI7
F1.0
sI8
F0.54
sI9
F1.0
sI12
F1.0
sI13
F1.0
sI14
F120.0
sI15
F67.0
sI16
F1.0
sI17
F1.0
sI18
F1.0
sI20
F1.0
ssbsg30
g0
(g31
g2
Ntp529
Rp530
(dp531
g35
I0
sbsba(ics475_types
Instance
p532
(dp533
g25
(ics475_types
FeatureVector
p534
(dp535
g28
(dp536
I33
F1.0
sI2
F22.67
sI3
F10.5
sI4
F1.0
sI5
F1.0
sI8
F1.335
sI13
F1.0
sI14
F100.0
sI16
F1.0
sI20
F1.0
sI21
F1.0
sI27
F1.0
sI30
F1.0
ssbsg30
g0
(g31
g2
Ntp537
Rp538
(dp539
g35
I1
sbsba(ics475_types
Instance
p540
(dp541
g25
(ics475_types
FeatureVector
p542
(dp543
g28
(dp544
I32
F1.0
sI2
F34.17
sI3
F2.75
sI4
F1.0
sI5
F1.0
sI8
F2.5
sI9
F1.0
sI12
F1.0
sI13
F1.0
sI14
F232.0
sI15
F200.0
sI16
F1.0
sI20
F1.0
sI25
F1.0
ssbsg30
g0
(g31
g2
Ntp545
Rp546
(dp547
g35
I0
sbsba(ics475_types
Instance
p548
(dp549
g25
(ics475_types
FeatureVector
p550
(dp551
g28
(dp552
I1
F1.0
sI2
F28.08
sI3
F15.0
sI33
F1.0
sI41
F1.0
sI42
F1.0
sI13
F1.0
sI15
F13212.0
sI17
F1.0
sI18
F1.0
sI20
F1.0
sI21
F1.0
ssbsg30
g0
(g31
g2
Ntp553
Rp554
(dp555
g35
I1
sbsba(ics475_types
Instance
p556
(dp557
g25
(ics475_types
FeatureVector
p558
(dp559
g28
(dp560
I33
F1.0
sI2
F25.5
sI3
F0.375
sI4
F1.0
sI5
F1.0
sI7
F1.0
sI8
F0.25
sI10
F1.0
sI11
F3.0
sI13
F1.0
sI14
F260.0
sI15
F15108.0
sI16
F1.0
sI35
F1.0
sI21
F1.0
ssbsg30
g0
(g31
g2
Ntp561
Rp562
(dp563
g35
I1
sbsba(ics475_types
Instance
p564
(dp565
g25
(ics475_types
FeatureVector
p566
(dp567
g28
(dp568
I2
F17.08
sI3
F0.085
sI6
F1.0
sI7
F1.0
sI8
F0.04
sI9
F1.0
sI13
F1.0
sI14
F140.0
sI15
F722.0
sI16
F1.0
sI17
F1.0
sI18
F1.0
sI20
F1.0
sI21
F1.0
ssbsg30
g0
(g31
g2
Ntp569
Rp570
(dp571
g35
I0
sbsba(ics475_types
Instance
p572
(dp573
g25
(ics475_types
FeatureVector
p574
(dp575
g28
(dp576
I32
F1.0
sI33
F1.0
sI2
F41.33
sI4
F1.0
sI5
F1.0
sI6
F1.0
sI8
F15.0
sI13
F1.0
sI16
F1.0
sI20
F1.0
sI21
F1.0
ssbsg30
g0
(g31
g2
Ntp577
Rp578
(dp579
g35
I1
sbsba(ics475_types
Instance
p580
(dp581
g25
(ics475_types
FeatureVector
p582
(dp583
g28
(dp584
I2
F31.25
sI3
F2.835
sI4
F1.0
sI5
F1.0
sI9
F1.0
sI10
F1.0
sI11
F5.0
sI13
F1.0
sI14
F176.0
sI15
F146.0
sI16
F1.0
sI21
F1.0
sI23
F1.0
sI24
F1.0
ssbsg30
g0
(g31
g2
Ntp585
Rp586
(dp587
g35
I0
sbsba(ics475_types
Instance
p588
(dp589
g25
(ics475_types
FeatureVector
p590
(dp591
g28
(dp592
I33
F1.0
sI2
F31.42
sI3
F15.5
sI4
F1.0
sI5
F1.0
sI6
F1.0
sI7
F1.0
sI8
F0.5
sI13
F1.0
sI14
F120.0
sI16
F1.0
sI20
F1.0
sI21
F1.0
ssbsg30
g0
(g31
g2
Ntp593
Rp594
(dp595
g35
I0
sbsba(ics475_types
Instance
p596
(dp597
g25
(ics475_types
FeatureVector
p598
(dp599
g28
(dp600
I1
F1.0
sI2
F32.0
sI3
F6.0
sI4
F1.0
sI5
F1.0
sI7
F1.0
sI8
F1.25
sI9
F1.0
sI13
F1.0
sI14
F272.0
sI34
F1.0
sI20
F1.0
sI21
F1.0
ssbsg30
g0
(g31
g2
Ntp601
Rp602
(dp603
g35
I0
sbsba(ics475_types
Instance
p604
(dp605
g25
(ics475_types
FeatureVector
p606
(dp607
g28
(dp608
I33
F1.0
sI2
F22.83
sI3
F3.0
sI4
F1.0
sI5
F1.0
sI7
F1.0
sI8
F1.29
sI10
F1.0
sI11
F1.0
sI13
F1.0
sI14
F260.0
sI15
F800.0
sI16
F1.0
sI35
F1.0
sI21
F1.0
ssbsg30
g0
(g31
g2
Ntp609
Rp610
(dp611
g35
I1
sbsba(ics475_types
Instance
p612
(dp613
g25
(ics475_types
FeatureVector
p614
(dp615
g28
(dp616
I33
F1.0
sI2
F23.25
sI3
F1.0
sI4
F1.0
sI5
F1.0
sI6
F1.0
sI7
F1.0
sI8
F0.835
sI14
F300.0
sI16
F1.0
sI20
F1.0
sI21
F1.0
sI22
F1.0
ssbsg30
g0
(g31
g2
Ntp617
Rp618
(dp619
g35
I1
sbsba(ics475_types
Instance
p620
(dp621
g25
(ics475_types
FeatureVector
p622
(dp623
g28
(dp624
I1
F1.0
sI2
F31.25
sI3
F3.75
sI4
F1.0
sI5
F1.0
sI33
F1.0
sI8
F0.625
sI10
F1.0
sI11
F9.0
sI12
F1.0
sI13
F1.0
sI14
F181.0
sI36
F1.0
sI27
F1.0
ssbsg30
g0
(g31
g2
Ntp625
Rp626
(dp627
g35
I1
sbsba(ics475_types
Instance
p628
(dp629
g25
(ics475_types
FeatureVector
p630
(dp631
g28
(dp632
I33
F1.0
sI2
F37.42
sI3
F2.04
sI4
F1.0
sI5
F1.0
sI7
F1.0
sI8
F0.04
sI12
F1.0
sI13
F1.0
sI14
F400.0
sI15
F5800.0
sI16
F1.0
sI20
F1.0
sI31
F1.0
ssbsg30
g0
(g31
g2
Ntp633
Rp634
(dp635
g35
I1
sbsba(ics475_types
Instance
p636
(dp637
g25
(ics475_types
FeatureVector
p638
(dp639
g28
(dp640
I33
F1.0
sI2
F36.67
sI3
F3.25
sI4
F1.0
sI5
F1.0
sI8
F9.0
sI12
F1.0
sI13
F1.0
sI14
F102.0
sI15
F639.0
sI16
F1.0
sI20
F1.0
sI27
F1.0
sI30
F1.0
ssbsg30
g0
(g31
g2
Ntp641
Rp642
(dp643
g35
I1
sbsba(ics475_types
Instance
p644
(dp645
g25
(ics475_types
FeatureVector
p646
(dp647
g28
(dp648
I2
F34.67
sI3
F1.08
sI4
F1.0
sI5
F1.0
sI7
F1.0
sI8
F1.165
sI9
F1.0
sI14
F28.0
sI16
F1.0
sI35
F1.0
sI20
F1.0
sI21
F1.0
sI22
F1.0
ssbsg30
g0
(g31
g2
Ntp649
Rp650
(dp651
g35
I0
sbsba(ics475_types
Instance
p652
(dp653
g25
(ics475_types
FeatureVector
p654
(dp655
g28
(dp656
I1
F1.0
sI2
F33.08
sI3
F4.625
sI4
F1.0
sI5
F1.0
sI33
F1.0
sI8
F1.625
sI10
F1.0
sI11
F2.0
sI13
F1.0
sI21
F1.0
sI27
F1.0
sI30
F1.0
ssbsg30
g0
(g31
g2
Ntp657
Rp658
(dp659
g35
I1
sbsba(ics475_types
Instance
p660
(dp661
g25
(ics475_types
FeatureVector
p662
(dp663
g28
(dp664
I1
F1.0
sI2
F53.33
sI3
F0.165
sI4
F1.0
sI5
F1.0
sI9
F1.0
sI12
F1.0
sI14
F62.0
sI15
F27.0
sI20
F1.0
sI22
F1.0
sI23
F1.0
sI24
F1.0
ssbsg30
g0
(g31
g2
Ntp665
Rp666
(dp667
g35
I0
sbsba(ics475_types
Instance
p668
(dp669
g25
(ics475_types
FeatureVector
p670
(dp671
g28
(dp672
I2
F25.67
sI3
F0.29
sI6
F1.0
sI7
F1.0
sI8
F1.5
sI9
F1.0
sI12
F1.0
sI13
F1.0
sI14
F160.0
sI16
F1.0
sI17
F1.0
sI18
F1.0
sI20
F1.0
ssbsg30
g0
(g31
g2
Ntp673
Rp674
(dp675
g35
I0
sbsba(ics475_types
Instance
p676
(dp677
g25
(ics475_types
FeatureVector
p678
(dp679
g28
(dp680
I33
F1.0
sI2
F22.67
sI3
F1.585
sI7
F1.0
sI8
F3.085
sI10
F1.0
sI11
F6.0
sI13
F1.0
sI14
F80.0
sI16
F1.0
sI17
F1.0
sI18
F1.0
sI21
F1.0
sI31
F1.0
ssbsg30
g0
(g31
g2
Ntp681
Rp682
(dp683
g35
I1
sbsba(ics475_types
Instance
p684
(dp685
g25
(ics475_types
FeatureVector
p686
(dp687
g28
(dp688
I33
F1.0
sI2
F28.25
sI3
F0.875
sI4
F1.0
sI5
F1.0
sI7
F1.0
sI8
F0.96
sI10
F1.0
sI11
F3.0
sI12
F1.0
sI13
F1.0
sI14
F396.0
sI16
F1.0
sI35
F1.0
ssbsg30
g0
(g31
g2
Ntp689
Rp690
(dp691
g35
I1
sbsba(ics475_types
Instance
p692
(dp693
g25
(ics475_types
FeatureVector
p694
(dp695
g28
(dp696
I33
F1.0
sI2
F35.25
sI3
F16.5
sI6
F1.0
sI7
F1.0
sI8
F4.0
sI13
F1.0
sI14
F80.0
sI16
F1.0
sI17
F1.0
sI18
F1.0
sI20
F1.0
sI21
F1.0
ssbsg30
g0
(g31
g2
Ntp697
Rp698
(dp699
g35
I0
sbsba(ics475_types
Instance
p700
(dp701
g25
(ics475_types
FeatureVector
p702
(dp703
g28
(dp704
I2
F51.83
sI3
F2.04
sI8
F1.5
sI9
F1.0
sI13
F1.0
sI14
F120.0
sI15
F1.0
sI16
F1.0
sI17
F1.0
sI18
F1.0
sI20
F1.0
sI21
F1.0
sI23
F1.0
sI24
F1.0
ssbsg30
g0
(g31
g2
Ntp705
Rp706
(dp707
g35
I0
sbsba(ics475_types
Instance
p708
(dp709
g25
(ics475_types
FeatureVector
p710
(dp711
g28
(dp712
I1
F1.0
sI2
F22.83
sI3
F2.29
sI4
F1.0
sI5
F1.0
sI33
F1.0
sI8
F2.29
sI10
F1.0
sI11
F7.0
sI12
F1.0
sI13
F1.0
sI14
F140.0
sI15
F2384.0
sI27
F1.0
sI30
F1.0
ssbsg30
g0
(g31
g2
Ntp713
Rp714
(dp715
g35
I1
sbsba(ics475_types
Instance
p716
(dp717
g25
(ics475_types
FeatureVector
p718
(dp719
g28
(dp720
I2
F36.67
sI3
F2.0
sI4
F1.0
sI5
F1.0
sI7
F1.0
sI8
F0.25
sI9
F1.0
sI12
F1.0
sI13
F1.0
sI14
F221.0
sI16
F1.0
sI20
F1.0
sI25
F1.0
ssbsg30
g0
(g31
g2
Ntp721
Rp722
(dp723
g35
I0
sbsba(ics475_types
Instance
p724
(dp725
g25
(ics475_types
FeatureVector
p726
(dp727
g28
(dp728
I33
F1.0
sI2
F18.08
sI3
F5.5
sI4
F1.0
sI5
F1.0
sI7
F1.0
sI8
F0.5
sI13
F1.0
sI14
F80.0
sI16
F1.0
sI19
F1.0
sI20
F1.0
sI21
F1.0
ssbsg30
g0
(g31
g2
Ntp729
Rp730
(dp731
g35
I1
sbsba(ics475_types
Instance
p732
(dp733
g25
(ics475_types
FeatureVector
p734
(dp735
g28
(dp736
I33
F1.0
sI2
F54.42
sI3
F0.5
sI8
F3.96
sI13
F1.0
sI14
F180.0
sI15
F314.0
sI16
F1.0
sI17
F1.0
sI18
F1.0
sI19
F1.0
sI20
F1.0
sI21
F1.0
sI27
F1.0
ssbsg30
g0
(g31
g2
Ntp737
Rp738
(dp739
g35
I1
sbsba(ics475_types
Instance
p740
(dp741
g25
(ics475_types
FeatureVector
p742
(dp743
g28
(dp744
I2
F35.58
sI3
F0.75
sI4
F1.0
sI5
F1.0
sI7
F1.0
sI8
F1.5
sI9
F1.0
sI12
F1.0
sI13
F1.0
sI14
F231.0
sI16
F1.0
sI19
F1.0
sI20
F1.0
ssbsg30
g0
(g31
g2
Ntp745
Rp746
(dp747
g35
I0
sbsba(ics475_types
Instance
p748
(dp749
g25
(ics475_types
FeatureVector
p750
(dp751
g28
(dp752
I1
F1.0
sI2
F20.42
sI3
F0.835
sI4
F1.0
sI5
F1.0
sI7
F1.0
sI8
F1.585
sI10
F1.0
sI11
F1.0
sI13
F1.0
sI21
F1.0
sI33
F1.0
sI30
F1.0
ssbsg30
g0
(g31
g2
Ntp753
Rp754
(dp755
g35
I1
sbsba(ics475_types
Instance
p756
(dp757
g25
(ics475_types
FeatureVector
p758
(dp759
g28
(dp760
I1
F1.0
sI2
F38.75
sI3
F1.5
sI4
F1.0
sI5
F1.0
sI9
F1.0
sI13
F1.0
sI14
F76.0
sI20
F1.0
sI21
F1.0
sI23
F1.0
sI24
F1.0
ssbsg30
g0
(g31
g2
Ntp761
Rp762
(dp763
g35
I0
sbsba(ics475_types
Instance
p764
(dp765
g25
(ics475_types
FeatureVector
p766
(dp767
g28
(dp768
I1
F1.0
sI2
F25.42
sI3
F1.125
sI4
F1.0
sI5
F1.0
sI7
F1.0
sI8
F1.29
sI10
F1.0
sI11
F2.0
sI13
F1.0
sI14
F200.0
sI21
F1.0
sI33
F1.0
sI30
F1.0
ssbsg30
g0
(g31
g2
Ntp769
Rp770
(dp771
g35
I0
sbsba(ics475_types
Instance
p772
(dp773
g25
(ics475_types
FeatureVector
p774
(dp775
g28
(dp776
I32
F1.0
sI1
F1.0
sI2
F47.42
sI3
F8.0
sI4
F1.0
sI5
F1.0
sI33
F1.0
sI8
F6.5
sI41
F1.0
sI10
F1.0
sI11
F6.0
sI13
F1.0
sI14
F375.0
sI15
F51100.0
sI21
F1.0
ssbsg30
g0
(g31
g2
Ntp777
Rp778
(dp779
g35
I1
sbsba(ics475_types
Instance
p780
(dp781
g25
(ics475_types
FeatureVector
p782
(dp783
g28
(dp784
I33
F1.0
sI2
F36.33
sI3
F3.79
sI4
F1.0
sI5
F1.0
sI7
F1.0
sI8
F1.165
sI12
F1.0
sI13
F1.0
sI14
F200.0
sI16
F1.0
sI20
F1.0
sI31
F1.0
ssbsg30
g0
(g31
g2
Ntp785
Rp786
(dp787
g35
I0
sbsba(ics475_types
Instance
p788
(dp789
g25
(ics475_types
FeatureVector
p790
(dp791
g28
(dp792
I2
F20.42
sI3
F1.085
sI4
F1.0
sI5
F1.0
sI7
F1.0
sI8
F1.5
sI9
F1.0
sI13
F1.0
sI14
F108.0
sI15
F7.0
sI16
F1.0
sI20
F1.0
sI21
F1.0
sI30
F1.0
ssbsg30
g0
(g31
g2
Ntp793
Rp794
(dp795
g35
I0
sbsba(ics475_types
Instance
p796
(dp797
g25
(ics475_types
FeatureVector
p798
(dp799
g28
(dp800
I2
F17.92
sI3
F0.205
sI4
F1.0
sI5
F1.0
sI7
F1.0
sI8
F0.04
sI9
F1.0
sI13
F1.0
sI14
F280.0
sI15
F750.0
sI16
F1.0
sI20
F1.0
sI21
F1.0
sI37
F1.0
ssbsg30
g0
(g31
g2
Ntp801
Rp802
(dp803
g35
I0
sbsba(ics475_types
Instance
p804
(dp805
g25
(ics475_types
FeatureVector
p806
(dp807
g28
(dp808
I2
F35.0
sI3
F2.5
sI4
F1.0
sI5
F1.0
sI7
F1.0
sI8
F1.0
sI9
F1.0
sI12
F1.0
sI13
F1.0
sI14
F210.0
sI16
F1.0
sI20
F1.0
sI25
F1.0
ssbsg30
g0
(g31
g2
Ntp809
Rp810
(dp811
g35
I0
sbsba(ics475_types
Instance
p812
(dp813
g25
(ics475_types
FeatureVector
p814
(dp815
g28
(dp816
I33
F1.0
sI2
F34.92
sI3
F5.0
sI4
F1.0
sI5
F1.0
sI39
F1.0
sI8
F7.5
sI10
F1.0
sI11
F6.0
sI12
F1.0
sI13
F1.0
sI15
F1000.0
sI16
F1.0
sI27
F1.0
ssbsg30
g0
(g31
g2
Ntp817
Rp818
(dp819
g35
I1
sbsba(ics475_types
Instance
p820
(dp821
g25
(ics475_types
FeatureVector
p822
(dp823
g28
(dp824
I1
F1.0
sI2
F18.83
sI3
F9.54
sI4
F1.0
sI5
F1.0
sI7
F1.0
sI8
F0.085
sI13
F1.0
sI14
F100.0
sI20
F1.0
sI21
F1.0
sI33
F1.0
sI37
F1.0
ssbsg30
g0
(g31
g2
Ntp825
Rp826
(dp827
g35
I1
sbsba(ics475_types
Instance
p828
(dp829
g25
(ics475_types
FeatureVector
p830
(dp831
g28
(dp832
I2
F22.67
sI3
F0.75
sI4
F1.0
sI5
F1.0
sI7
F1.0
sI8
F1.585
sI9
F1.0
sI10
F1.0
sI11
F1.0
sI12
F1.0
sI13
F1.0
sI14
F400.0
sI15
F9.0
sI16
F1.0
sI25
F1.0
ssbsg30
g0
(g31
g2
Ntp833
Rp834
(dp835
g35
I0
sbsba(ics475_types
Instance
p836
(dp837
g25
(ics475_types
FeatureVector
p838
(dp839
g28
(dp840
I33
F1.0
sI2
F31.83
sI3
F2.5
sI4
F1.0
sI5
F1.0
sI7
F1.0
sI8
F7.5
sI12
F1.0
sI13
F1.0
sI14
F523.0
sI16
F1.0
sI20
F1.0
sI37
F1.0
ssbsg30
g0
(g31
g2
Ntp841
Rp842
(dp843
g35
I0
sbsba(ics475_types
Instance
p844
(dp845
g25
(ics475_types
FeatureVector
p846
(dp847
g28
(dp848
I33
F1.0
sI2
F23.17
sI3
F11.125
sI4
F1.0
sI5
F1.0
sI39
F1.0
sI8
F0.46
sI10
F1.0
sI11
F1.0
sI13
F1.0
sI14
F100.0
sI16
F1.0
sI21
F1.0
sI27
F1.0
ssbsg30
g0
(g31
g2
Ntp849
Rp850
(dp851
g35
I1
sbsba(ics475_types
Instance
p852
(dp853
g25
(ics475_types
FeatureVector
p854
(dp855
g28
(dp856
I33
F1.0
sI2
F41.92
sI3
F0.42
sI4
F1.0
sI5
F1.0
sI6
F1.0
sI8
F0.21
sI10
F1.0
sI11
F6.0
sI13
F1.0
sI14
F220.0
sI15
F948.0
sI16
F1.0
sI21
F1.0
sI27
F1.0
ssbsg30
g0
(g31
g2
Ntp857
Rp858
(dp859
g35
I1
sbsba(ics475_types
Instance
p860
(dp861
g25
(ics475_types
FeatureVector
p862
(dp863
g28
(dp864
I33
F1.0
sI2
F48.75
sI3
F8.5
sI4
F1.0
sI5
F1.0
sI6
F1.0
sI8
F12.5
sI10
F1.0
sI11
F9.0
sI13
F1.0
sI14
F181.0
sI15
F1655.0
sI16
F1.0
sI21
F1.0
sI27
F1.0
ssbsg30
g0
(g31
g2
Ntp865
Rp866
(dp867
g35
I1
sbsba(ics475_types
Instance
p868
(dp869
g25
(ics475_types
FeatureVector
p870
(dp871
g28
(dp872
I1
F1.0
sI2
F47.25
sI3
F0.75
sI4
F1.0
sI5
F1.0
sI33
F1.0
sI8
F2.75
sI10
F1.0
sI11
F1.0
sI13
F1.0
sI14
F333.0
sI15
F892.0
sI21
F1.0
sI27
F1.0
sI30
F1.0
ssbsg30
g0
(g31
g2
Ntp873
Rp874
(dp875
g35
I1
sbsba(ics475_types
Instance
p876
(dp877
g25
(ics475_types
FeatureVector
p878
(dp879
g28
(dp880
I33
F1.0
sI2
F18.67
sI3
F5.0
sI4
F1.0
sI5
F1.0
sI7
F1.0
sI8
F0.375
sI10
F1.0
sI11
F2.0
sI13
F1.0
sI15
F38.0
sI16
F1.0
sI21
F1.0
sI30
F1.0
ssbsg30
g0
(g31
g2
Ntp881
Rp882
(dp883
g35
I0
sbsba(ics475_types
Instance
p884
(dp885
g25
(ics475_types
FeatureVector
p886
(dp887
g28
(dp888
I1
F1.0
sI2
F29.58
sI3
F1.75
sI7
F1.0
sI8
F1.25
sI9
F1.0
sI12
F1.0
sI13
F1.0
sI14
F280.0
sI17
F1.0
sI18
F1.0
sI19
F1.0
sI20
F1.0
ssbsg30
g0
(g31
g2
Ntp889
Rp890
(dp891
g35
I0
sbsba(ics475_types
Instance
p892
(dp893
g25
(ics475_types
FeatureVector
p894
(dp895
g28
(dp896
I33
F1.0
sI2
F35.17
sI3
F25.125
sI4
F1.0
sI5
F1.0
sI39
F1.0
sI8
F1.625
sI10
F1.0
sI11
F1.0
sI12
F1.0
sI13
F1.0
sI14
F515.0
sI15
F500.0
sI16
F1.0
sI27
F1.0
ssbsg30
g0
(g31
g2
Ntp897
Rp898
(dp899
g35
I1
sbsba(ics475_types
Instance
p900
(dp901
g25
(ics475_types
FeatureVector
p902
(dp903
g28
(dp904
I2
F26.17
sI3
F12.5
sI8
F1.25
sI9
F1.0
sI12
F1.0
sI13
F1.0
sI15
F17.0
sI16
F1.0
sI17
F1.0
sI18
F1.0
sI19
F1.0
sI20
F1.0
sI27
F1.0
ssbsg30
g0
(g31
g2
Ntp905
Rp906
(dp907
g35
I0
sbsba(ics475_types
Instance
p908
(dp909
g25
(ics475_types
FeatureVector
p910
(dp911
g28
(dp912
I1
F1.0
sI2
F32.33
sI3
F0.54
sI4
F1.0
sI5
F1.0
sI7
F1.0
sI8
F0.04
sI13
F1.0
sI14
F440.0
sI15
F11177.0
sI20
F1.0
sI21
F1.0
sI36
F1.0
sI33
F1.0
ssbsg30
g0
(g31
g2
Ntp913
Rp914
(dp915
g35
I1
sbsba(ics475_types
Instance
p916
(dp917
g25
(ics475_types
FeatureVector
p918
(dp919
g28
(dp920
I33
F1.0
sI2
F40.92
sI3
F0.835
sI4
F1.0
sI5
F1.0
sI13
F1.0
sI14
F130.0
sI15
F1.0
sI16
F1.0
sI20
F1.0
sI21
F1.0
sI23
F1.0
sI24
F1.0
ssbsg30
g0
(g31
g2
Ntp921
Rp922
(dp923
g35
I0
sbsba(ics475_types
Instance
p924
(dp925
g25
(ics475_types
FeatureVector
p926
(dp927
g28
(dp928
I33
F1.0
sI2
F21.5
sI3
F11.5
sI4
F1.0
sI5
F1.0
sI7
F1.0
sI8
F0.5
sI12
F1.0
sI13
F1.0
sI14
F100.0
sI15
F68.0
sI16
F1.0
sI20
F1.0
sI25
F1.0
ssbsg30
g0
(g31
g2
Ntp929
Rp930
(dp931
g35
I0
sbsba(ics475_types
Instance
p932
(dp933
g25
(ics475_types
FeatureVector
p934
(dp935
g28
(dp936
I32
F1.0
sI33
F1.0
sI2
F34.5
sI3
F4.04
sI8
F8.5
sI10
F1.0
sI11
F7.0
sI12
F1.0
sI13
F1.0
sI14
F195.0
sI16
F1.0
sI17
F1.0
sI18
F1.0
sI25
F1.0
ssbsg30
g0
(g31
g2
Ntp937
Rp938
(dp939
g35
I1
sbsba(ics475_types
Instance
p940
(dp941
g25
(ics475_types
FeatureVector
p942
(dp943
g28
(dp944
I1
F1.0
sI2
F60.92
sI3
F5.0
sI4
F1.0
sI5
F1.0
sI7
F1.0
sI8
F4.0
sI10
F1.0
sI11
F4.0
sI13
F1.0
sI15
F99.0
sI21
F1.0
sI33
F1.0
sI37
F1.0
ssbsg30
g0
(g31
g2
Ntp945
Rp946
(dp947
g35
I1
sbsba(ics475_types
Instance
p948
(dp949
g25
(ics475_types
FeatureVector
p950
(dp951
g28
(dp952
I33
F1.0
sI2
F67.75
sI3
F5.5
sI4
F1.0
sI5
F1.0
sI8
F13.0
sI41
F1.0
sI10
F1.0
sI11
F1.0
sI12
F1.0
sI13
F1.0
sI16
F1.0
sI42
F1.0
ssbsg30
g0
(g31
g2
Ntp953
Rp954
(dp955
g35
I1
sbsba(ics475_types
Instance
p956
(dp957
g25
(ics475_types
FeatureVector
p958
(dp959
g28
(dp960
I1
F1.0
sI2
F41.17
sI3
F6.5
sI4
F1.0
sI5
F1.0
sI7
F1.0
sI8
F0.5
sI10
F1.0
sI11
F3.0
sI12
F1.0
sI13
F1.0
sI14
F145.0
sI33
F1.0
sI30
F1.0
ssbsg30
g0
(g31
g2
Ntp961
Rp962
(dp963
g35
I1
sbsba(ics475_types
Instance
p964
(dp965
g25
(ics475_types
FeatureVector
p966
(dp967
g28
(dp968
I33
F1.0
sI2
F39.92
sI3
F0.54
sI37
F1.0
sI7
F1.0
sI8
F0.5
sI10
F1.0
sI11
F3.0
sI13
F1.0
sI14
F200.0
sI15
F1000.0
sI16
F1.0
sI17
F1.0
sI18
F1.0
sI21
F1.0
ssbsg30
g0
(g31
g2
Ntp969
Rp970
(dp971
g35
I1
sbsba(ics475_types
Instance
p972
(dp973
g25
(ics475_types
FeatureVector
p974
(dp975
g28
(dp976
I33
F1.0
sI2
F48.25
sI3
F25.085
sI4
F1.0
sI5
F1.0
sI7
F1.0
sI8
F1.75
sI10
F1.0
sI11
F3.0
sI13
F1.0
sI14
F120.0
sI15
F14.0
sI16
F1.0
sI21
F1.0
sI31
F1.0
ssbsg30
g0
(g31
g2
Ntp977
Rp978
(dp979
g35
I1
sbsba(ics475_types
Instance
p980
(dp981
g25
(ics475_types
FeatureVector
p982
(dp983
g28
(dp984
I33
F1.0
sI2
F27.0
sI3
F1.5
sI7
F1.0
sI8
F0.375
sI12
F1.0
sI13
F1.0
sI14
F260.0
sI15
F1065.0
sI16
F1.0
sI17
F1.0
sI18
F1.0
sI20
F1.0
sI31
F1.0
ssbsg30
g0
(g31
g2
Ntp985
Rp986
(dp987
g35
I1
sbsba(ics475_types
Instance
p988
(dp989
g25
(ics475_types
FeatureVector
p990
(dp991
g28
(dp992
I2
F31.08
sI3
F1.5
sI7
F1.0
sI8
F0.04
sI9
F1.0
sI14
F160.0
sI16
F1.0
sI17
F1.0
sI18
F1.0
sI20
F1.0
sI21
F1.0
sI22
F1.0
sI31
F1.0
ssbsg30
g0
(g31
g2
Ntp993
Rp994
(dp995
g35
I0
sbsba(ics475_types
Instance
p996
(dp997
g25
(ics475_types
FeatureVector
p998
(dp999
g28
(dp1000
I1
F1.0
sI2
F22.58
sI3
F10.75
sI4
F1.0
sI5
F1.0
sI7
F1.0
sI8
F0.415
sI10
F1.0
sI11
F5.0
sI12
F1.0
sI13
F1.0
sI15
F560.0
sI33
F1.0
sI30
F1.0
ssbsg30
g0
(g31
g2
Ntp1001
Rp1002
(dp1003
g35
I1
sbsba(ics475_types
Instance
p1004
(dp1005
g25
(ics475_types
FeatureVector
p1006
(dp1007
g28
(dp1008
I2
F17.08
sI3
F3.29
sI4
F1.0
sI5
F1.0
sI7
F1.0
sI8
F0.335
sI9
F1.0
sI12
F1.0
sI13
F1.0
sI14
F140.0
sI15
F2.0
sI16
F1.0
sI20
F1.0
sI25
F1.0
ssbsg30
g0
(g31
g2
Ntp1009
Rp1010
(dp1011
g35
I0
sbsba(ics475_types
Instance
p1012
(dp1013
g25
(ics475_types
FeatureVector
p1014
(dp1015
g28
(dp1016
I1
F1.0
sI2
F69.5
sI3
F6.0
sI4
F1.0
sI5
F1.0
sI9
F1.0
sI20
F1.0
sI21
F1.0
sI22
F1.0
sI23
F1.0
sI24
F1.0
ssbsg30
g0
(g31
g2
Ntp1017
Rp1018
(dp1019
g35
I0
sbsba(ics475_types
Instance
p1020
(dp1021
g25
(ics475_types
FeatureVector
p1022
(dp1023
g28
(dp1024
I1
F1.0
sI2
F47.42
sI3
F3.0
sI4
F1.0
sI5
F1.0
sI7
F1.0
sI8
F13.875
sI10
F1.0
sI11
F2.0
sI12
F1.0
sI13
F1.0
sI14
F519.0
sI15
F1704.0
sI39
F1.0
sI33
F1.0
ssbsg30
g0
(g31
g2
Ntp1025
Rp1026
(dp1027
g35
I1
sbsba(ics475_types
Instance
p1028
(dp1029
g25
(ics475_types
FeatureVector
p1030
(dp1031
g28
(dp1032
I2
F22.17
sI3
F0.585
sI9
F1.0
sI13
F1.0
sI14
F100.0
sI16
F1.0
sI17
F1.0
sI18
F1.0
sI20
F1.0
sI21
F1.0
sI23
F1.0
sI24
F1.0
ssbsg30
g0
(g31
g2
Ntp1033
Rp1034
(dp1035
g35
I0
sbsba(ics475_types
Instance
p1036
(dp1037
g25
(ics475_types
FeatureVector
p1038
(dp1039
g28
(dp1040
I32
F1.0
sI2
F26.67
sI3
F14.585
sI4
F1.0
sI5
F1.0
sI9
F1.0
sI12
F1.0
sI13
F1.0
sI14
F178.0
sI16
F1.0
sI20
F1.0
sI25
F1.0
ssbsg30
g0
(g31
g2
Ntp1041
Rp1042
(dp1043
g35
I0
sbsba(ics475_types
Instance
p1044
(dp1045
g25
(ics475_types
FeatureVector
p1046
(dp1047
g28
(dp1048
I33
F1.0
sI2
F25.33
sI3
F0.58
sI4
F1.0
sI5
F1.0
sI6
F1.0
sI7
F1.0
sI8
F0.29
sI10
F1.0
sI11
F7.0
sI12
F1.0
sI13
F1.0
sI14
F96.0
sI15
F5124.0
sI16
F1.0
ssbsg30
g0
(g31
g2
Ntp1049
Rp1050
(dp1051
g35
I1
sbsba(ics475_types
Instance
p1052
(dp1053
g25
(ics475_types
FeatureVector
p1054
(dp1055
g28
(dp1056
I33
F1.0
sI2
F18.5
sI3
F2.0
sI4
F1.0
sI5
F1.0
sI7
F1.0
sI8
F1.5
sI10
F1.0
sI11
F2.0
sI13
F1.0
sI14
F120.0
sI15
F300.0
sI16
F1.0
sI21
F1.0
sI25
F1.0
ssbsg30
g0
(g31
g2
Ntp1057
Rp1058
(dp1059
g35
I1
sbsba(ics475_types
Instance
p1060
(dp1061
g25
(ics475_types
FeatureVector
p1062
(dp1063
g28
(dp1064
I2
F17.42
sI3
F6.5
sI4
F1.0
sI5
F1.0
sI7
F1.0
sI8
F0.125
sI9
F1.0
sI13
F1.0
sI14
F60.0
sI15
F100.0
sI16
F1.0
sI20
F1.0
sI21
F1.0
sI25
F1.0
ssbsg30
g0
(g31
g2
Ntp1065
Rp1066
(dp1067
g35
I0
sbsba(ics475_types
Instance
p1068
(dp1069
g25
(ics475_types
FeatureVector
p1070
(dp1071
g28
(dp1072
I1
F1.0
sI2
F20.83
sI3
F8.5
sI4
F1.0
sI5
F1.0
sI6
F1.0
sI7
F1.0
sI8
F0.165
sI9
F1.0
sI13
F1.0
sI15
F351.0
sI20
F1.0
sI21
F1.0
ssbsg30
g0
(g31
g2
Ntp1073
Rp1074
(dp1075
g35
I0
sbsba(ics475_types
Instance
p1076
(dp1077
g25
(ics475_types
FeatureVector
p1078
(dp1079
g28
(dp1080
I1
F1.0
sI2
F27.42
sI3
F14.5
sI4
F1.0
sI5
F1.0
sI33
F1.0
sI8
F3.085
sI10
F1.0
sI11
F1.0
sI13
F1.0
sI14
F120.0
sI15
F11.0
sI21
F1.0
sI39
F1.0
sI27
F1.0
ssbsg30
g0
(g31
g2
Ntp1081
Rp1082
(dp1083
g35
I1
sbsba(ics475_types
Instance
p1084
(dp1085
g25
(ics475_types
FeatureVector
p1086
(dp1087
g28
(dp1088
I1
F1.0
sI2
F17.83
sI3
F11.0
sI4
F1.0
sI5
F1.0
sI33
F1.0
sI8
F1.0
sI10
F1.0
sI11
F11.0
sI13
F1.0
sI15
F3000.0
sI21
F1.0
sI39
F1.0
sI27
F1.0
ssbsg30
g0
(g31
g2
Ntp1089
Rp1090
(dp1091
g35
I1
sbsba(ics475_types
Instance
p1092
(dp1093
g25
(ics475_types
FeatureVector
p1094
(dp1095
g28
(dp1096
I1
F1.0
sI2
F24.58
sI3
F0.67
sI4
F1.0
sI5
F1.0
sI33
F1.0
sI8
F1.75
sI13
F1.0
sI14
F400.0
sI20
F1.0
sI21
F1.0
sI27
F1.0
sI37
F1.0
ssbsg30
g0
(g31
g2
Ntp1097
Rp1098
(dp1099
g35
I0
sbsba(ics475_types
Instance
p1100
(dp1101
g25
(ics475_types
FeatureVector
p1102
(dp1103
g28
(dp1104
I33
F1.0
sI2
F29.58
sI3
F4.5
sI4
F1.0
sI5
F1.0
sI7
F1.0
sI8
F7.5
sI10
F1.0
sI11
F2.0
sI12
F1.0
sI13
F1.0
sI14
F330.0
sI16
F1.0
sI31
F1.0
ssbsg30
g0
(g31
g2
Ntp1105
Rp1106
(dp1107
g35
I1
sbsba(ics475_types
Instance
p1108
(dp1109
g25
(ics475_types
FeatureVector
p1110
(dp1111
g28
(dp1112
I1
F1.0
sI2
F24.92
sI3
F1.25
sI4
F1.0
sI5
F1.0
sI33
F1.0
sI13
F1.0
sI14
F80.0
sI20
F1.0
sI21
F1.0
sI23
F1.0
sI24
F1.0
ssbsg30
g0
(g31
g2
Ntp1113
Rp1114
(dp1115
g35
I0
sbsba(ics475_types
Instance
p1116
(dp1117
g25
(ics475_types
FeatureVector
p1118
(dp1119
g28
(dp1120
I1
F1.0
sI2
F57.08
sI3
F19.5
sI4
F1.0
sI5
F1.0
sI6
F1.0
sI7
F1.0
sI8
F5.5
sI10
F1.0
sI11
F7.0
sI13
F1.0
sI15
F3000.0
sI21
F1.0
sI33
F1.0
ssbsg30
g0
(g31
g2
Ntp1121
Rp1122
(dp1123
g35
I1
sbsba(ics475_types
Instance
p1124
(dp1125
g25
(ics475_types
FeatureVector
p1126
(dp1127
g28
(dp1128
I33
F1.0
sI2
F34.17
sI3
F1.54
sI4
F1.0
sI5
F1.0
sI7
F1.0
sI8
F1.54
sI10
F1.0
sI11
F1.0
sI12
F1.0
sI13
F1.0
sI14
F520.0
sI15
F50000.0
sI16
F1.0
sI36
F1.0
ssbsg30
g0
(g31
g2
Ntp1129
Rp1130
(dp1131
g35
I1
sbsba(ics475_types
Instance
p1132
(dp1133
g25
(ics475_types
FeatureVector
p1134
(dp1135
g28
(dp1136
I1
F1.0
sI2
F24.5
sI3
F1.04
sI33
F1.0
sI8
F0.5
sI10
F1.0
sI11
F3.0
sI13
F1.0
sI14
F180.0
sI15
F147.0
sI17
F1.0
sI18
F1.0
sI21
F1.0
sI23
F1.0
sI24
F1.0
ssbsg30
g0
(g31
g2
Ntp1137
Rp1138
(dp1139
g35
I0
sbsba(ics475_types
Instance
p1140
(dp1141
g25
(ics475_types
FeatureVector
p1142
(dp1143
g28
(dp1144
I2
F32.08
sI3
F4.0
sI36
F1.0
sI7
F1.0
sI8
F1.5
sI9
F1.0
sI12
F1.0
sI13
F1.0
sI14
F120.0
sI16
F1.0
sI17
F1.0
sI18
F1.0
sI20
F1.0
ssbsg30
g0
(g31
g2
Ntp1145
Rp1146
(dp1147
g35
I0
sbsba(ics475_types
Instance
p1148
(dp1149
g25
(ics475_types
FeatureVector
p1150
(dp1151
g28
(dp1152
I33
F1.0
sI2
F28.0
sI3
F2.0
sI4
F1.0
sI5
F1.0
sI8
F4.165
sI10
F1.0
sI11
F2.0
sI12
F1.0
sI13
F1.0
sI14
F181.0
sI16
F1.0
sI19
F1.0
sI27
F1.0
ssbsg30
g0
(g31
g2
Ntp1153
Rp1154
(dp1155
g35
I1
sbsba(ics475_types
Instance
p1156
(dp1157
g25
(ics475_types
FeatureVector
p1158
(dp1159
g28
(dp1160
I33
F1.0
sI2
F32.67
sI3
F9.0
sI8
F5.25
sI12
F1.0
sI13
F1.0
sI14
F154.0
sI16
F1.0
sI17
F1.0
sI18
F1.0
sI20
F1.0
sI27
F1.0
sI31
F1.0
ssbsg30
g0
(g31
g2
Ntp1161
Rp1162
(dp1163
g35
I1
sbsba(ics475_types
Instance
p1164
(dp1165
g25
(ics475_types
FeatureVector
p1166
(dp1167
g28
(dp1168
I32
F1.0
sI33
F1.0
sI2
F37.5
sI3
F1.75
sI6
F1.0
sI8
F0.25
sI12
F1.0
sI13
F1.0
sI14
F164.0
sI15
F400.0
sI16
F1.0
sI17
F1.0
sI18
F1.0
sI20
F1.0
ssbsg30
g0
(g31
g2
Ntp1169
Rp1170
(dp1171
g35
I0
sbsba(ics475_types
Instance
p1172
(dp1173
g25
(ics475_types
FeatureVector
p1174
(dp1175
g28
(dp1176
I33
F1.0
sI2
F33.58
sI3
F2.75
sI4
F1.0
sI5
F1.0
sI7
F1.0
sI8
F4.25
sI10
F1.0
sI11
F6.0
sI13
F1.0
sI14
F204.0
sI16
F1.0
sI35
F1.0
sI21
F1.0
ssbsg30
g0
(g31
g2
Ntp1177
Rp1178
(dp1179
g35
I1
sbsba(ics475_types
Instance
p1180
(dp1181
g25
(ics475_types
FeatureVector
p1182
(dp1183
g28
(dp1184
I1
F1.0
sI2
F25.0
sI3
F0.875
sI4
F1.0
sI5
F1.0
sI33
F1.0
sI8
F1.04
sI39
F1.0
sI12
F1.0
sI13
F1.0
sI14
F160.0
sI15
F5860.0
sI20
F1.0
sI27
F1.0
ssbsg30
g0
(g31
g2
Ntp1185
Rp1186
(dp1187
g35
I1
sbsba(ics475_types
Instance
p1188
(dp1189
g25
(ics475_types
FeatureVector
p1190
(dp1191
g28
(dp1192
I1
F1.0
sI2
F23.58
sI3
F0.83
sI4
F1.0
sI5
F1.0
sI7
F1.0
sI8
F0.415
sI9
F1.0
sI10
F1.0
sI11
F1.0
sI12
F1.0
sI13
F1.0
sI14
F200.0
sI15
F11.0
sI30
F1.0
ssbsg30
g0
(g31
g2
Ntp1193
Rp1194
(dp1195
g35
I0
sbsba(ics475_types
Instance
p1196
(dp1197
g25
(ics475_types
FeatureVector
p1198
(dp1199
g28
(dp1200
I33
F1.0
sI2
F27.25
sI3
F1.665
sI4
F1.0
sI5
F1.0
sI8
F5.085
sI10
F1.0
sI11
F9.0
sI13
F1.0
sI14
F399.0
sI15
F827.0
sI16
F1.0
sI21
F1.0
sI36
F1.0
sI27
F1.0
ssbsg30
g0
(g31
g2
Ntp1201
Rp1202
(dp1203
g35
I1
sbsba(ics475_types
Instance
p1204
(dp1205
g25
(ics475_types
FeatureVector
p1206
(dp1207
g28
(dp1208
I33
F1.0
sI2
F23.33
sI3
F11.625
sI7
F1.0
sI8
F0.835
sI12
F1.0
sI13
F1.0
sI14
F160.0
sI15
F300.0
sI16
F1.0
sI17
F1.0
sI18
F1.0
sI20
F1.0
sI31
F1.0
ssbsg30
g0
(g31
g2
Ntp1209
Rp1210
(dp1211
g35
I1
sbsba(ics475_types
Instance
p1212
(dp1213
g25
(ics475_types
FeatureVector
p1214
(dp1215
g28
(dp1216
I33
F1.0
sI2
F27.67
sI3
F13.75
sI4
F1.0
sI5
F1.0
sI7
F1.0
sI8
F5.75
sI12
F1.0
sI13
F1.0
sI14
F487.0
sI15
F500.0
sI16
F1.0
sI20
F1.0
sI31
F1.0
ssbsg30
g0
(g31
g2
Ntp1217
Rp1218
(dp1219
g35
I1
sbsba(ics475_types
Instance
p1220
(dp1221
g25
(ics475_types
FeatureVector
p1222
(dp1223
g28
(dp1224
I33
F1.0
sI2
F34.92
sI3
F2.5
sI4
F1.0
sI5
F1.0
sI7
F1.0
sI12
F1.0
sI13
F1.0
sI14
F239.0
sI15
F200.0
sI16
F1.0
sI20
F1.0
sI31
F1.0
ssbsg30
g0
(g31
g2
Ntp1225
Rp1226
(dp1227
g35
I1
sbsba(ics475_types
Instance
p1228
(dp1229
g25
(ics475_types
FeatureVector
p1230
(dp1231
g28
(dp1232
I2
F18.83
sI3
F0.415
sI6
F1.0
sI7
F1.0
sI8
F0.165
sI9
F1.0
sI10
F1.0
sI11
F1.0
sI13
F1.0
sI14
F200.0
sI15
F1.0
sI16
F1.0
sI17
F1.0
sI18
F1.0
sI21
F1.0
ssbsg30
g0
(g31
g2
Ntp1233
Rp1234
(dp1235
g35
I0
sbsba(ics475_types
Instance
p1236
(dp1237
g25
(ics475_types
FeatureVector
p1238
(dp1239
g28
(dp1240
I1
F1.0
sI2
F20.67
sI3
F3.0
sI4
F1.0
sI5
F1.0
sI7
F1.0
sI8
F0.165
sI10
F1.0
sI11
F3.0
sI13
F1.0
sI14
F100.0
sI15
F6.0
sI21
F1.0
sI33
F1.0
sI30
F1.0
ssbsg30
g0
(g31
g2
Ntp1241
Rp1242
(dp1243
g35
I1
sbsba(ics475_types
Instance
p1244
(dp1245
g25
(ics475_types
FeatureVector
p1246
(dp1247
g28
(dp1248
I33
F1.0
sI2
F39.92
sI3
F6.21
sI4
F1.0
sI5
F1.0
sI7
F1.0
sI8
F0.04
sI10
F1.0
sI11
F1.0
sI13
F1.0
sI14
F200.0
sI15
F300.0
sI16
F1.0
sI21
F1.0
sI30
F1.0
ssbsg30
g0
(g31
g2
Ntp1249
Rp1250
(dp1251
g35
I1
sbsba(ics475_types
Instance
p1252
(dp1253
g25
(ics475_types
FeatureVector
p1254
(dp1255
g28
(dp1256
I32
F1.0
sI2
F33.75
sI3
F2.75
sI4
F1.0
sI5
F1.0
sI9
F1.0
sI13
F1.0
sI14
F180.0
sI16
F1.0
sI20
F1.0
sI21
F1.0
sI25
F1.0
ssbsg30
g0
(g31
g2
Ntp1257
Rp1258
(dp1259
g35
I0
sbsba(ics475_types
Instance
p1260
(dp1261
g25
(ics475_types
FeatureVector
p1262
(dp1263
g28
(dp1264
I2
F16.0
sI3
F3.125
sI4
F1.0
sI5
F1.0
sI7
F1.0
sI8
F0.085
sI9
F1.0
sI10
F1.0
sI11
F1.0
sI13
F1.0
sI15
F6.0
sI16
F1.0
sI21
F1.0
sI31
F1.0
ssbsg30
g0
(g31
g2
Ntp1265
Rp1266
(dp1267
g35
I0
sbsba(ics475_types
Instance
p1268
(dp1269
g25
(ics475_types
FeatureVector
p1270
(dp1271
g28
(dp1272
I2
F23.92
sI3
F0.665
sI4
F1.0
sI5
F1.0
sI6
F1.0
sI7
F1.0
sI8
F0.165
sI9
F1.0
sI13
F1.0
sI14
F100.0
sI16
F1.0
sI20
F1.0
sI21
F1.0
ssbsg30
g0
(g31
g2
Ntp1273
Rp1274
(dp1275
g35
I1
sbsba(ics475_types
Instance
p1276
(dp1277
g25
(ics475_types
FeatureVector
p1278
(dp1279
g28
(dp1280
I1
F1.0
sI2
F58.33
sI3
F10.0
sI4
F1.0
sI5
F1.0
sI7
F1.0
sI8
F4.0
sI10
F1.0
sI11
F14.0
sI13
F1.0
sI15
F1602.0
sI21
F1.0
sI33
F1.0
sI30
F1.0
ssbsg30
g0
(g31
g2
Ntp1281
Rp1282
(dp1283
g35
I1
sbsba(ics475_types
Instance
p1284
(dp1285
g25
(ics475_types
FeatureVector
p1286
(dp1287
g28
(dp1288
I33
F1.0
sI2
F28.75
sI3
F1.5
sI6
F1.0
sI7
F1.0
sI8
F1.5
sI12
F1.0
sI13
F1.0
sI15
F225.0
sI16
F1.0
sI17
F1.0
sI18
F1.0
sI20
F1.0
ssbsg30
g0
(g31
g2
Ntp1289
Rp1290
(dp1291
g35
I0
sbsba(ics475_types
Instance
p1292
(dp1293
g25
(ics475_types
FeatureVector
p1294
(dp1295
g28
(dp1296
I33
F1.0
sI2
F40.92
sI3
F2.25
sI39
F1.0
sI8
F10.0
sI12
F1.0
sI13
F1.0
sI14
F176.0
sI16
F1.0
sI17
F1.0
sI18
F1.0
sI20
F1.0
sI27
F1.0
ssbsg30
g0
(g31
g2
Ntp1297
Rp1298
(dp1299
g35
I0
sbsba(ics475_types
Instance
p1300
(dp1301
g25
(ics475_types
FeatureVector
p1302
(dp1303
g28
(dp1304
I1
F1.0
sI2
F22.67
sI3
F0.335
sI4
F1.0
sI5
F1.0
sI7
F1.0
sI8
F0.75
sI9
F1.0
sI14
F160.0
sI20
F1.0
sI21
F1.0
sI22
F1.0
sI30
F1.0
ssbsg30
g0
(g31
g2
Ntp1305
Rp1306
(dp1307
g35
I0
sbsba(ics475_types
Instance
p1308
(dp1309
g25
(ics475_types
FeatureVector
p1310
(dp1311
g28
(dp1312
I33
F1.0
sI2
F43.0
sI3
F0.29
sI36
F1.0
sI8
F1.75
sI10
F1.0
sI11
F8.0
sI13
F1.0
sI14
F100.0
sI15
F375.0
sI16
F1.0
sI17
F1.0
sI18
F1.0
sI21
F1.0
sI27
F1.0
ssbsg30
g0
(g31
g2
Ntp1313
Rp1314
(dp1315
g35
I1
sbsba(ics475_types
Instance
p1316
(dp1317
g25
(ics475_types
FeatureVector
p1318
(dp1319
g28
(dp1320
I33
F1.0
sI2
F22.75
sI3
F11.0
sI4
F1.0
sI5
F1.0
sI7
F1.0
sI8
F2.5
sI10
F1.0
sI11
F7.0
sI12
F1.0
sI13
F1.0
sI14
F100.0
sI15
F809.0
sI16
F1.0
sI30
F1.0
ssbsg30
g0
(g31
g2
Ntp1321
Rp1322
(dp1323
g35
I1
sbsba(ics475_types
Instance
p1324
(dp1325
g25
(ics475_types
FeatureVector
p1326
(dp1327
g28
(dp1328
I1
F1.0
sI2
F18.42
sI3
F9.25
sI4
F1.0
sI5
F1.0
sI7
F1.0
sI8
F1.21
sI10
F1.0
sI11
F4.0
sI13
F1.0
sI14
F60.0
sI15
F540.0
sI21
F1.0
sI33
F1.0
sI30
F1.0
ssbsg30
g0
(g31
g2
Ntp1329
Rp1330
(dp1331
g35
I1
sbsba(ics475_types
Instance
p1332
(dp1333
g25
(ics475_types
FeatureVector
p1334
(dp1335
g28
(dp1336
I1
F1.0
sI2
F15.83
sI3
F0.585
sI4
F1.0
sI5
F1.0
sI6
F1.0
sI33
F1.0
sI8
F1.5
sI10
F1.0
sI11
F2.0
sI13
F1.0
sI14
F100.0
sI21
F1.0
sI27
F1.0
ssbsg30
g0
(g31
g2
Ntp1337
Rp1338
(dp1339
g35
I1
sbsba(ics475_types
Instance
p1340
(dp1341
g25
(ics475_types
FeatureVector
p1342
(dp1343
g28
(dp1344
I33
F1.0
sI2
F54.33
sI3
F6.75
sI4
F1.0
sI5
F1.0
sI6
F1.0
sI8
F2.625
sI10
F1.0
sI11
F11.0
sI12
F1.0
sI13
F1.0
sI15
F284.0
sI16
F1.0
sI27
F1.0
ssbsg30
g0
(g31
g2
Ntp1345
Rp1346
(dp1347
g35
I1
sbsba(ics475_types
Instance
p1348
(dp1349
g25
(ics475_types
FeatureVector
p1350
(dp1351
g28
(dp1352
I33
F1.0
sI2
F22.58
sI3
F10.04
sI4
F1.0
sI5
F1.0
sI7
F1.0
sI8
F0.04
sI10
F1.0
sI11
F9.0
sI13
F1.0
sI14
F60.0
sI15
F396.0
sI16
F1.0
sI21
F1.0
sI39
F1.0
ssbsg30
g0
(g31
g2
Ntp1353
Rp1354
(dp1355
g35
I1
sbsba(ics475_types
Instance
p1356
(dp1357
g25
(ics475_types
FeatureVector
p1358
(dp1359
g28
(dp1360
I1
F1.0
sI2
F52.83
sI3
F15.0
sI4
F1.0
sI5
F1.0
sI6
F1.0
sI7
F1.0
sI8
F5.5
sI10
F1.0
sI11
F14.0
sI13
F1.0
sI15
F2200.0
sI21
F1.0
sI33
F1.0
ssbsg30
g0
(g31
g2
Ntp1361
Rp1362
(dp1363
g35
I1
sbsba(ics475_types
Instance
p1364
(dp1365
g25
(ics475_types
FeatureVector
p1366
(dp1367
g28
(dp1368
I1
F1.0
sI2
F20.75
sI3
F10.335
sI4
F1.0
sI5
F1.0
sI33
F1.0
sI8
F0.335
sI10
F1.0
sI11
F1.0
sI12
F1.0
sI13
F1.0
sI14
F80.0
sI15
F50.0
sI36
F1.0
sI27
F1.0
ssbsg30
g0
(g31
g2
Ntp1369
Rp1370
(dp1371
g35
I1
sbsba(ics475_types
Instance
p1372
(dp1373
g25
(ics475_types
FeatureVector
p1374
(dp1375
g28
(dp1376
I1
F1.0
sI2
F26.08
sI3
F8.665
sI4
F1.0
sI5
F1.0
sI7
F1.0
sI8
F1.415
sI13
F1.0
sI14
F160.0
sI15
F150.0
sI20
F1.0
sI21
F1.0
sI33
F1.0
sI37
F1.0
ssbsg30
g0
(g31
g2
Ntp1377
Rp1378
(dp1379
g35
I1
sbsba(ics475_types
Instance
p1380
(dp1381
g25
(ics475_types
FeatureVector
p1382
(dp1383
g28
(dp1384
I1
F1.0
sI2
F17.33
sI3
F9.5
sI4
F1.0
sI5
F1.0
sI7
F1.0
sI8
F1.75
sI9
F1.0
sI10
F1.0
sI11
F10.0
sI12
F1.0
sI13
F1.0
sI15
F10.0
sI37
F1.0
ssbsg30
g0
(g31
g2
Ntp1385
Rp1386
(dp1387
g35
I0
sbsba(ics475_types
Instance
p1388
(dp1389
g25
(ics475_types
FeatureVector
p1390
(dp1391
g28
(dp1392
I1
F1.0
sI2
F24.5
sI3
F2.415
sI6
F1.0
sI7
F1.0
sI9
F1.0
sI13
F1.0
sI14
F120.0
sI17
F1.0
sI18
F1.0
sI20
F1.0
sI21
F1.0
ssbsg30
g0
(g31
g2
Ntp1393
Rp1394
(dp1395
g35
I0
sbsba(ics475_types
Instance
p1396
(dp1397
g25
(ics475_types
FeatureVector
p1398
(dp1399
g28
(dp1400
I1
F1.0
sI2
F27.25
sI3
F0.29
sI4
F1.0
sI5
F1.0
sI8
F0.125
sI9
F1.0
sI10
F1.0
sI11
F1.0
sI12
F1.0
sI13
F1.0
sI14
F272.0
sI15
F108.0
sI35
F1.0
sI27
F1.0
ssbsg30
g0
(g31
g2
Ntp1401
Rp1402
(dp1403
g35
I0
sbsba(ics475_types
Instance
p1404
(dp1405
g25
(ics475_types
FeatureVector
p1406
(dp1407
g28
(dp1408
I2
F28.58
sI3
F3.625
sI4
F1.0
sI5
F1.0
sI7
F1.0
sI8
F0.25
sI9
F1.0
sI12
F1.0
sI13
F1.0
sI14
F100.0
sI16
F1.0
sI20
F1.0
sI37
F1.0
ssbsg30
g0
(g31
g2
Ntp1409
Rp1410
(dp1411
g35
I0
sbsba(ics475_types
Instance
p1412
(dp1413
g25
(ics475_types
FeatureVector
p1414
(dp1415
g28
(dp1416
I32
F1.0
sI1
F1.0
sI2
F41.33
sI3
F1.0
sI4
F1.0
sI5
F1.0
sI33
F1.0
sI8
F2.25
sI12
F1.0
sI13
F1.0
sI15
F300.0
sI20
F1.0
sI25
F1.0
ssbsg30
g0
(g31
g2
Ntp1417
Rp1418
(dp1419
g35
I1
sbsba(ics475_types
Instance
p1420
(dp1421
g25
(ics475_types
FeatureVector
p1422
(dp1423
g28
(dp1424
I32
F1.0
sI2
F19.33
sI3
F10.915
sI4
F1.0
sI5
F1.0
sI6
F1.0
sI8
F0.585
sI9
F1.0
sI10
F1.0
sI11
F2.0
sI12
F1.0
sI13
F1.0
sI14
F200.0
sI15
F7.0
sI16
F1.0
ssbsg30
g0
(g31
g2
Ntp1425
Rp1426
(dp1427
g35
I0
sbsba(ics475_types
Instance
p1428
(dp1429
g25
(ics475_types
FeatureVector
p1430
(dp1431
g28
(dp1432
I1
F1.0
sI2
F24.83
sI3
F4.5
sI4
F1.0
sI5
F1.0
sI7
F1.0
sI8
F1.0
sI9
F1.0
sI12
F1.0
sI13
F1.0
sI14
F360.0
sI15
F6.0
sI20
F1.0
sI31
F1.0
ssbsg30
g0
(g31
g2
Ntp1433
Rp1434
(dp1435
g35
I0
sbsba(ics475_types
Instance
p1436
(dp1437
g25
(ics475_types
FeatureVector
p1438
(dp1439
g28
(dp1440
I32
F1.0
sI2
F26.92
sI3
F2.25
sI4
F1.0
sI5
F1.0
sI8
F0.5
sI9
F1.0
sI12
F1.0
sI13
F1.0
sI14
F640.0
sI15
F4000.0
sI16
F1.0
sI20
F1.0
sI25
F1.0
ssbsg30
g0
(g31
g2
Ntp1441
Rp1442
(dp1443
g35
I0
sbsba(ics475_types
Instance
p1444
(dp1445
g25
(ics475_types
FeatureVector
p1446
(dp1447
g28
(dp1448
I33
F1.0
sI2
F27.83
sI3
F4.0
sI8
F5.75
sI10
F1.0
sI11
F2.0
sI12
F1.0
sI13
F1.0
sI14
F75.0
sI16
F1.0
sI17
F1.0
sI18
F1.0
sI25
F1.0
sI27
F1.0
ssbsg30
g0
(g31
g2
Ntp1449
Rp1450
(dp1451
g35
I0
sbsba(ics475_types
Instance
p1452
(dp1453
g25
(ics475_types
FeatureVector
p1454
(dp1455
g28
(dp1456
I2
F29.42
sI3
F1.25
sI4
F1.0
sI5
F1.0
sI7
F1.0
sI8
F1.75
sI9
F1.0
sI13
F1.0
sI14
F200.0
sI16
F1.0
sI20
F1.0
sI21
F1.0
sI31
F1.0
ssbsg30
g0
(g31
g2
Ntp1457
Rp1458
(dp1459
g35
I0
sbsba(ics475_types
Instance
p1460
(dp1461
g25
(ics475_types
FeatureVector
p1462
(dp1463
g28
(dp1464
I2
F41.17
sI3
F1.335
sI4
F1.0
sI5
F1.0
sI7
F1.0
sI8
F0.165
sI9
F1.0
sI13
F1.0
sI14
F168.0
sI16
F1.0
sI34
F1.0
sI20
F1.0
sI21
F1.0
ssbsg30
g0
(g31
g2
Ntp1465
Rp1466
(dp1467
g35
I0
sbsba(ics475_types
Instance
p1468
(dp1469
g25
(ics475_types
FeatureVector
p1470
(dp1471
g28
(dp1472
I2
F20.0
sI34
F1.0
sI4
F1.0
sI5
F1.0
sI7
F1.0
sI8
F0.5
sI9
F1.0
sI13
F1.0
sI14
F144.0
sI16
F1.0
sI20
F1.0
sI21
F1.0
ssbsg30
g0
(g31
g2
Ntp1473
Rp1474
(dp1475
g35
I0
sbsba(ics475_types
Instance
p1476
(dp1477
g25
(ics475_types
FeatureVector
p1478
(dp1479
g28
(dp1480
I1
F1.0
sI2
F28.5
sI3
F1.0
sI4
F1.0
sI5
F1.0
sI7
F1.0
sI8
F1.0
sI10
F1.0
sI11
F2.0
sI12
F1.0
sI13
F1.0
sI14
F167.0
sI15
F500.0
sI33
F1.0
sI30
F1.0
ssbsg30
g0
(g31
g2
Ntp1481
Rp1482
(dp1483
g35
I0
sbsba(ics475_types
Instance
p1484
(dp1485
g25
(ics475_types
FeatureVector
p1486
(dp1487
g28
(dp1488
I1
F1.0
sI2
F22.92
sI3
F1.25
sI4
F1.0
sI5
F1.0
sI7
F1.0
sI8
F0.25
sI9
F1.0
sI12
F1.0
sI13
F1.0
sI14
F120.0
sI15
F809.0
sI20
F1.0
sI30
F1.0
ssbsg30
g0
(g31
g2
Ntp1489
Rp1490
(dp1491
g35
I0
sbsba(ics475_types
Instance
p1492
(dp1493
g25
(ics475_types
FeatureVector
p1494
(dp1495
g28
(dp1496
I1
F1.0
sI2
F58.67
sI3
F4.46
sI4
F1.0
sI5
F1.0
sI33
F1.0
sI8
F3.04
sI10
F1.0
sI11
F6.0
sI13
F1.0
sI14
F43.0
sI15
F560.0
sI21
F1.0
sI27
F1.0
sI30
F1.0
ssbsg30
g0
(g31
g2
Ntp1497
Rp1498
(dp1499
g35
I1
sbsba(ics475_types
Instance
p1500
(dp1501
g25
(ics475_types
FeatureVector
p1502
(dp1503
g28
(dp1504
I33
F1.0
sI2
F23.42
sI3
F0.585
sI4
F1.0
sI5
F1.0
sI6
F1.0
sI8
F0.085
sI13
F1.0
sI14
F180.0
sI16
F1.0
sI20
F1.0
sI21
F1.0
sI27
F1.0
ssbsg30
g0
(g31
g2
Ntp1505
Rp1506
(dp1507
g35
I0
sbsba(ics475_types
Instance
p1508
(dp1509
g25
(ics475_types
FeatureVector
p1510
(dp1511
g28
(dp1512
I1
F1.0
sI2
F16.5
sI3
F1.25
sI4
F1.0
sI5
F1.0
sI7
F1.0
sI8
F0.25
sI9
F1.0
sI10
F1.0
sI11
F1.0
sI13
F1.0
sI14
F108.0
sI15
F98.0
sI21
F1.0
sI30
F1.0
ssbsg30
g0
(g31
g2
Ntp1513
Rp1514
(dp1515
g35
I0
sbsba(ics475_types
Instance
p1516
(dp1517
g25
(ics475_types
FeatureVector
p1518
(dp1519
g28
(dp1520
I1
F1.0
sI2
F21.67
sI3
F11.5
sI33
F1.0
sI10
F1.0
sI11
F11.0
sI12
F1.0
sI13
F1.0
sI17
F1.0
sI18
F1.0
sI28
F1.0
sI29
F1.0
ssbsg30
g0
(g31
g2
Ntp1521
Rp1522
(dp1523
g35
I1
sbsba(ics475_types
Instance
p1524
(dp1525
g25
(ics475_types
FeatureVector
p1526
(dp1527
g28
(dp1528
I1
F1.0
sI2
F22.92
sI3
F11.585
sI4
F1.0
sI5
F1.0
sI7
F1.0
sI8
F0.04
sI13
F1.0
sI14
F80.0
sI15
F1349.0
sI20
F1.0
sI21
F1.0
sI36
F1.0
sI33
F1.0
ssbsg30
g0
(g31
g2
Ntp1529
Rp1530
(dp1531
g35
I1
sbsba(ics475_types
Instance
p1532
(dp1533
g25
(ics475_types
FeatureVector
p1534
(dp1535
g28
(dp1536
I33
F1.0
sI2
F42.5
sI3
F4.915
sI7
F1.0
sI8
F3.165
sI12
F1.0
sI13
F1.0
sI14
F52.0
sI15
F1442.0
sI16
F1.0
sI17
F1.0
sI18
F1.0
sI20
F1.0
sI31
F1.0
ssbsg30
g0
(g31
g2
Ntp1537
Rp1538
(dp1539
g35
I1
sbsba(ics475_types
Instance
p1540
(dp1541
g25
(ics475_types
FeatureVector
p1542
(dp1543
g28
(dp1544
I2
F30.58
sI3
F2.71
sI7
F1.0
sI8
F0.125
sI9
F1.0
sI12
F1.0
sI14
F80.0
sI16
F1.0
sI17
F1.0
sI18
F1.0
sI35
F1.0
sI20
F1.0
sI22
F1.0
ssbsg30
g0
(g31
g2
Ntp1545
Rp1546
(dp1547
g35
I0
sbsba(ics475_types
Instance
p1548
(dp1549
g25
(ics475_types
FeatureVector
p1550
(dp1551
g28
(dp1552
I33
F1.0
sI2
F39.83
sI3
F0.5
sI4
F1.0
sI5
F1.0
sI7
F1.0
sI8
F0.25
sI14
F288.0
sI16
F1.0
sI35
F1.0
sI20
F1.0
sI21
F1.0
sI22
F1.0
ssbsg30
g0
(g31
g2
Ntp1553
Rp1554
(dp1555
g35
I0
sbsba(ics475_types
Instance
p1556
(dp1557
g25
(ics475_types
FeatureVector
p1558
(dp1559
g28
(dp1560
I32
F1.0
sI1
F1.0
sI2
F24.33
sI3
F2.5
sI8
F4.5
sI9
F1.0
sI13
F1.0
sI14
F200.0
sI15
F456.0
sI17
F1.0
sI18
F1.0
sI20
F1.0
sI21
F1.0
sI25
F1.0
ssbsg30
g0
(g31
g2
Ntp1561
Rp1562
(dp1563
g35
I0
sbsba(ics475_types
Instance
p1564
(dp1565
g25
(ics475_types
FeatureVector
p1566
(dp1567
g28
(dp1568
I2
F28.17
sI3
F0.125
sI7
F1.0
sI8
F0.085
sI9
F1.0
sI13
F1.0
sI14
F216.0
sI15
F2100.0
sI16
F1.0
sI17
F1.0
sI18
F1.0
sI19
F1.0
sI20
F1.0
sI21
F1.0
ssbsg30
g0
(g31
g2
Ntp1569
Rp1570
(dp1571
g35
I0
sbsba(ics475_types
Instance
p1572
(dp1573
g25
(ics475_types
FeatureVector
p1574
(dp1575
g28
(dp1576
I2
F23.08
sI3
F2.5
sI4
F1.0
sI5
F1.0
sI8
F0.085
sI9
F1.0
sI12
F1.0
sI13
F1.0
sI14
F100.0
sI15
F4208.0
sI16
F1.0
sI20
F1.0
sI23
F1.0
sI24
F1.0
ssbsg30
g0
(g31
g2
Ntp1577
Rp1578
(dp1579
g35
I0
sbsba(ics475_types
Instance
p1580
(dp1581
g25
(ics475_types
FeatureVector
p1582
(dp1583
g28
(dp1584
I1
F1.0
sI2
F19.5
sI3
F0.165
sI4
F1.0
sI5
F1.0
sI7
F1.0
sI8
F0.04
sI9
F1.0
sI12
F1.0
sI13
F1.0
sI14
F380.0
sI20
F1.0
sI30
F1.0
ssbsg30
g0
(g31
g2
Ntp1585
Rp1586
(dp1587
g35
I0
sbsba(ics475_types
Instance
p1588
(dp1589
g25
(ics475_types
FeatureVector
p1590
(dp1591
g28
(dp1592
I1
F1.0
sI2
F52.5
sI3
F7.0
sI4
F1.0
sI5
F1.0
sI8
F3.0
sI9
F1.0
sI13
F1.0
sI20
F1.0
sI21
F1.0
sI27
F1.0
sI37
F1.0
ssbsg30
g0
(g31
g2
Ntp1593
Rp1594
(dp1595
g35
I0
sbsba(ics475_types
Instance
p1596
(dp1597
g25
(ics475_types
FeatureVector
p1598
(dp1599
g28
(dp1600
I33
F1.0
sI2
F29.25
sI3
F14.79
sI4
F1.0
sI5
F1.0
sI7
F1.0
sI8
F5.04
sI10
F1.0
sI11
F5.0
sI12
F1.0
sI13
F1.0
sI14
F168.0
sI16
F1.0
sI37
F1.0
ssbsg30
g0
(g31
g2
Ntp1601
Rp1602
(dp1603
g35
I1
sbsba(ics475_types
Instance
p1604
(dp1605
g25
(ics475_types
FeatureVector
p1606
(dp1607
g28
(dp1608
I2
F26.17
sI3
F0.835
sI4
F1.0
sI5
F1.0
sI7
F1.0
sI8
F1.165
sI9
F1.0
sI13
F1.0
sI14
F100.0
sI16
F1.0
sI20
F1.0
sI21
F1.0
sI36
F1.0
ssbsg30
g0
(g31
g2
Ntp1609
Rp1610
(dp1611
g35
I0
sbsba(ics475_types
Instance
p1612
(dp1613
g25
(ics475_types
FeatureVector
p1614
(dp1615
g28
(dp1616
I33
F1.0
sI2
F38.58
sI3
F3.335
sI4
F1.0
sI5
F1.0
sI7
F1.0
sI8
F4.0
sI10
F1.0
sI11
F14.0
sI13
F1.0
sI14
F383.0
sI15
F1344.0
sI16
F1.0
sI21
F1.0
sI31
F1.0
ssbsg30
g0
(g31
g2
Ntp1617
Rp1618
(dp1619
g35
I1
sbsba(ics475_types
Instance
p1620
(dp1621
g25
(ics475_types
FeatureVector
p1622
(dp1623
g28
(dp1624
I33
F1.0
sI2
F32.25
sI3
F0.165
sI6
F1.0
sI8
F3.25
sI10
F1.0
sI11
F1.0
sI12
F1.0
sI13
F1.0
sI14
F432.0
sI15
F8000.0
sI16
F1.0
sI17
F1.0
sI18
F1.0
sI27
F1.0
ssbsg30
g0
(g31
g2
Ntp1625
Rp1626
(dp1627
g35
I1
sbsba(ics475_types
Instance
p1628
(dp1629
g25
(ics475_types
FeatureVector
p1630
(dp1631
g28
(dp1632
I2
F32.42
sI3
F2.165
sI9
F1.0
sI13
F1.0
sI14
F120.0
sI16
F1.0
sI17
F1.0
sI18
F1.0
sI19
F1.0
sI20
F1.0
sI21
F1.0
sI24
F1.0
ssbsg30
g0
(g31
g2
Ntp1633
Rp1634
(dp1635
g35
I0
sbsba(ics475_types
Instance
p1636
(dp1637
g25
(ics475_types
FeatureVector
p1638
(dp1639
g28
(dp1640
I33
F1.0
sI2
F20.67
sI3
F1.25
sI6
F1.0
sI8
F1.375
sI10
F1.0
sI11
F3.0
sI12
F1.0
sI13
F1.0
sI14
F140.0
sI15
F210.0
sI16
F1.0
sI17
F1.0
sI18
F1.0
sI27
F1.0
ssbsg30
g0
(g31
g2
Ntp1641
Rp1642
(dp1643
g35
I0
sbsba(ics475_types
Instance
p1644
(dp1645
g25
(ics475_types
FeatureVector
p1646
(dp1647
g28
(dp1648
I33
F1.0
sI2
F39.17
sI3
F1.625
sI4
F1.0
sI5
F1.0
sI6
F1.0
sI7
F1.0
sI8
F1.5
sI10
F1.0
sI11
F10.0
sI13
F1.0
sI14
F186.0
sI15
F4700.0
sI16
F1.0
sI21
F1.0
ssbsg30
g0
(g31
g2
Ntp1649
Rp1650
(dp1651
g35
I1
sbsba(ics475_types
Instance
p1652
(dp1653
g25
(ics475_types
FeatureVector
p1654
(dp1655
g28
(dp1656
I2
F21.17
sI3
F0.25
sI6
F1.0
sI8
F0.25
sI9
F1.0
sI13
F1.0
sI14
F280.0
sI15
F204.0
sI16
F1.0
sI17
F1.0
sI18
F1.0
sI20
F1.0
sI21
F1.0
sI27
F1.0
ssbsg30
g0
(g31
g2
Ntp1657
Rp1658
(dp1659
g35
I0
sbsba(ics475_types
Instance
p1660
(dp1661
g25
(ics475_types
FeatureVector
p1662
(dp1663
g28
(dp1664
I2
F17.08
sI3
F0.25
sI4
F1.0
sI5
F1.0
sI7
F1.0
sI8
F0.335
sI9
F1.0
sI10
F1.0
sI11
F4.0
sI13
F1.0
sI14
F160.0
sI15
F8.0
sI16
F1.0
sI21
F1.0
sI30
F1.0
ssbsg30
g0
(g31
g2
Ntp1665
Rp1666
(dp1667
g35
I0
sbsba(ics475_types
Instance
p1668
(dp1669
g25
(ics475_types
FeatureVector
p1670
(dp1671
g28
(dp1672
I33
F1.0
sI2
F33.17
sI3
F3.04
sI6
F1.0
sI8
F2.04
sI10
F1.0
sI11
F1.0
sI12
F1.0
sI13
F1.0
sI14
F180.0
sI15
F18027.0
sI16
F1.0
sI17
F1.0
sI18
F1.0
sI27
F1.0
ssbsg30
g0
(g31
g2
Ntp1673
Rp1674
(dp1675
g35
I1
sbsba(ics475_types
Instance
p1676
(dp1677
g25
(ics475_types
FeatureVector
p1678
(dp1679
g28
(dp1680
I1
F1.0
sI2
F38.33
sI3
F4.415
sI4
F1.0
sI5
F1.0
sI6
F1.0
sI7
F1.0
sI8
F0.125
sI9
F1.0
sI13
F1.0
sI14
F160.0
sI20
F1.0
sI21
F1.0
ssbsg30
g0
(g31
g2
Ntp1681
Rp1682
(dp1683
g35
I0
sbsba(ics475_types
Instance
p1684
(dp1685
g25
(ics475_types
FeatureVector
p1686
(dp1687
g28
(dp1688
I1
F1.0
sI2
F33.25
sI3
F3.0
sI37
F1.0
sI7
F1.0
sI8
F2.0
sI9
F1.0
sI13
F1.0
sI14
F180.0
sI17
F1.0
sI18
F1.0
sI20
F1.0
sI21
F1.0
ssbsg30
g0
(g31
g2
Ntp1689
Rp1690
(dp1691
g35
I0
sbsba(ics475_types
Instance
p1692
(dp1693
g25
(ics475_types
FeatureVector
p1694
(dp1695
g28
(dp1696
I2
F19.5
sI3
F9.585
sI4
F1.0
sI5
F1.0
sI7
F1.0
sI8
F0.79
sI9
F1.0
sI13
F1.0
sI14
F80.0
sI15
F350.0
sI16
F1.0
sI20
F1.0
sI21
F1.0
sI37
F1.0
ssbsg30
g0
(g31
g2
Ntp1697
Rp1698
(dp1699
g35
I0
sbsba(ics475_types
Instance
p1700
(dp1701
g25
(ics475_types
FeatureVector
p1702
(dp1703
g28
(dp1704
I1
F1.0
sI2
F37.75
sI3
F5.5
sI4
F1.0
sI5
F1.0
sI7
F1.0
sI8
F0.125
sI12
F1.0
sI13
F1.0
sI14
F228.0
sI20
F1.0
sI33
F1.0
sI30
F1.0
ssbsg30
g0
(g31
g2
Ntp1705
Rp1706
(dp1707
g35
I1
sbsba(ics475_types
Instance
p1708
(dp1709
g25
(ics475_types
FeatureVector
p1710
(dp1711
g28
(dp1712
I2
F29.25
sI3
F13.0
sI4
F1.0
sI5
F1.0
sI8
F0.5
sI9
F1.0
sI13
F1.0
sI14
F228.0
sI16
F1.0
sI34
F1.0
sI20
F1.0
sI21
F1.0
sI27
F1.0
ssbsg30
g0
(g31
g2
Ntp1713
Rp1714
(dp1715
g35
I0
sbsba(ics475_types
Instance
p1716
(dp1717
g25
(ics475_types
FeatureVector
p1718
(dp1719
g28
(dp1720
I1
F1.0
sI2
F19.17
sI3
F8.585
sI4
F1.0
sI5
F1.0
sI33
F1.0
sI8
F0.75
sI10
F1.0
sI11
F7.0
sI13
F1.0
sI14
F96.0
sI21
F1.0
sI36
F1.0
sI27
F1.0
ssbsg30
g0
(g31
g2
Ntp1721
Rp1722
(dp1723
g35
I1
sbsba(ics475_types
Instance
p1724
(dp1725
g25
(ics475_types
FeatureVector
p1726
(dp1727
g28
(dp1728
I2
F20.75
sI3
F5.085
sI7
F1.0
sI8
F0.29
sI9
F1.0
sI13
F1.0
sI14
F140.0
sI15
F184.0
sI16
F1.0
sI17
F1.0
sI18
F1.0
sI20
F1.0
sI21
F1.0
sI28
F1.0
ssbsg30
g0
(g31
g2
Ntp1729
Rp1730
(dp1731
g35
I0
sbsba(ics475_types
Instance
p1732
(dp1733
g25
(ics475_types
FeatureVector
p1734
(dp1735
g28
(dp1736
I1
F1.0
sI2
F27.67
sI3
F1.5
sI4
F1.0
sI5
F1.0
sI7
F1.0
sI8
F2.0
sI14
F368.0
sI35
F1.0
sI20
F1.0
sI21
F1.0
sI22
F1.0
sI33
F1.0
ssbsg30
g0
(g31
g2
Ntp1737
Rp1738
(dp1739
g35
I0
sbsba(ics475_types
Instance
p1740
(dp1741
g25
(ics475_types
FeatureVector
p1742
(dp1743
g28
(dp1744
I33
F1.0
sI2
F39.08
sI3
F6.0
sI4
F1.0
sI5
F1.0
sI7
F1.0
sI8
F1.29
sI10
F1.0
sI11
F5.0
sI12
F1.0
sI13
F1.0
sI14
F108.0
sI15
F1097.0
sI16
F1.0
sI35
F1.0
ssbsg30
g0
(g31
g2
Ntp1745
Rp1746
(dp1747
g35
I1
sbsba(ics475_types
Instance
p1748
(dp1749
g25
(ics475_types
FeatureVector
p1750
(dp1751
g28
(dp1752
I33
F1.0
sI2
F52.5
sI3
F6.5
sI4
F1.0
sI5
F1.0
sI7
F1.0
sI8
F6.29
sI10
F1.0
sI11
F15.0
sI13
F1.0
sI15
F11202.0
sI16
F1.0
sI19
F1.0
sI21
F1.0
ssbsg30
g0
(g31
g2
Ntp1753
Rp1754
(dp1755
g35
I1
sbsba(ics475_types
Instance
p1756
(dp1757
g25
(ics475_types
FeatureVector
p1758
(dp1759
g28
(dp1760
I1
F1.0
sI2
F46.67
sI3
F0.46
sI4
F1.0
sI5
F1.0
sI33
F1.0
sI8
F0.415
sI10
F1.0
sI11
F11.0
sI12
F1.0
sI13
F1.0
sI14
F440.0
sI15
F6.0
sI36
F1.0
sI27
F1.0
ssbsg30
g0
(g31
g2
Ntp1761
Rp1762
(dp1763
g35
I1
sbsba(ics475_types
Instance
p1764
(dp1765
g25
(ics475_types
FeatureVector
p1766
(dp1767
g28
(dp1768
I2
F29.83
sI3
F2.04
sI39
F1.0
sI8
F0.04
sI9
F1.0
sI13
F1.0
sI14
F128.0
sI15
F1.0
sI16
F1.0
sI17
F1.0
sI18
F1.0
sI20
F1.0
sI21
F1.0
sI27
F1.0
ssbsg30
g0
(g31
g2
Ntp1769
Rp1770
(dp1771
g35
I0
sbsba(ics475_types
Instance
p1772
(dp1773
g25
(ics475_types
FeatureVector
p1774
(dp1775
g28
(dp1776
I1
F1.0
sI2
F38.25
sI3
F6.0
sI4
F1.0
sI5
F1.0
sI7
F1.0
sI8
F1.0
sI12
F1.0
sI13
F1.0
sI19
F1.0
sI20
F1.0
sI33
F1.0
ssbsg30
g0
(g31
g2
Ntp1777
Rp1778
(dp1779
g35
I1
sbsba(ics475_types
Instance
p1780
(dp1781
g25
(ics475_types
FeatureVector
p1782
(dp1783
g28
(dp1784
I1
F1.0
sI2
F34.83
sI3
F1.25
sI8
F0.5
sI9
F1.0
sI12
F1.0
sI13
F1.0
sI14
F160.0
sI17
F1.0
sI18
F1.0
sI20
F1.0
sI25
F1.0
sI27
F1.0
ssbsg30
g0
(g31
g2
Ntp1785
Rp1786
(dp1787
g35
I0
sbsba(ics475_types
Instance
p1788
(dp1789
g25
(ics475_types
FeatureVector
p1790
(dp1791
g28
(dp1792
I1
F1.0
sI2
F44.33
sI4
F1.0
sI5
F1.0
sI6
F1.0
sI7
F1.0
sI8
F2.5
sI13
F1.0
sI20
F1.0
sI21
F1.0
sI33
F1.0
ssbsg30
g0
(g31
g2
Ntp1793
Rp1794
(dp1795
g35
I1
sbsba(ics475_types
Instance
p1796
(dp1797
g25
(ics475_types
FeatureVector
p1798
(dp1799
g28
(dp1800
I33
F1.0
sI2
F26.75
sI3
F1.125
sI4
F1.0
sI5
F1.0
sI39
F1.0
sI8
F1.25
sI13
F1.0
sI15
F5298.0
sI16
F1.0
sI20
F1.0
sI21
F1.0
sI27
F1.0
ssbsg30
g0
(g31
g2
Ntp1801
Rp1802
(dp1803
g35
I1
sbsba(ics475_types
Instance
p1804
(dp1805
g25
(ics475_types
FeatureVector
p1806
(dp1807
g28
(dp1808
I33
F1.0
sI2
F23.0
sI3
F0.625
sI37
F1.0
sI7
F1.0
sI8
F0.125
sI13
F1.0
sI14
F180.0
sI15
F1.0
sI16
F1.0
sI17
F1.0
sI18
F1.0
sI20
F1.0
sI21
F1.0
ssbsg30
g0
(g31
g2
Ntp1809
Rp1810
(dp1811
g35
I0
sbsba(ics475_types
Instance
p1812
(dp1813
g25
(ics475_types
FeatureVector
p1814
(dp1815
g28
(dp1816
I32
F1.0
sI1
F1.0
sI2
F58.42
sI3
F21.0
sI4
F1.0
sI5
F1.0
sI33
F1.0
sI8
F10.0
sI10
F1.0
sI11
F13.0
sI13
F1.0
sI15
F6700.0
sI21
F1.0
sI25
F1.0
ssbsg30
g0
(g31
g2
Ntp1817
Rp1818
(dp1819
g35
I1
sbsba(ics475_types
Instance
p1820
(dp1821
g25
(ics475_types
FeatureVector
p1822
(dp1823
g28
(dp1824
I1
F1.0
sI2
F28.58
sI3
F1.665
sI4
F1.0
sI5
F1.0
sI7
F1.0
sI8
F2.415
sI12
F1.0
sI13
F1.0
sI14
F440.0
sI20
F1.0
sI33
F1.0
sI30
F1.0
ssbsg30
g0
(g31
g2
Ntp1825
Rp1826
(dp1827
g35
I0
sbsba(ics475_types
Instance
p1828
(dp1829
g25
(ics475_types
FeatureVector
p1830
(dp1831
g28
(dp1832
I2
F20.0
sI3
F7.0
sI4
F1.0
sI5
F1.0
sI6
F1.0
sI7
F1.0
sI8
F0.5
sI9
F1.0
sI13
F1.0
sI16
F1.0
sI20
F1.0
sI21
F1.0
ssbsg30
g0
(g31
g2
Ntp1833
Rp1834
(dp1835
g35
I0
sbsba(ics475_types
Instance
p1836
(dp1837
g25
(ics475_types
FeatureVector
p1838
(dp1839
g28
(dp1840
I1
F1.0
sI2
F48.17
sI3
F1.335
sI4
F1.0
sI5
F1.0
sI8
F0.335
sI9
F1.0
sI13
F1.0
sI15
F120.0
sI20
F1.0
sI21
F1.0
sI25
F1.0
sI26
F1.0
ssbsg30
g0
(g31
g2
Ntp1841
Rp1842
(dp1843
g35
I0
sbsba(ics475_types
Instance
p1844
(dp1845
g25
(ics475_types
FeatureVector
p1846
(dp1847
g28
(dp1848
I33
F1.0
sI2
F22.33
sI3
F11.0
sI4
F1.0
sI5
F1.0
sI7
F1.0
sI8
F2.0
sI10
F1.0
sI11
F1.0
sI13
F1.0
sI14
F80.0
sI15
F278.0
sI16
F1.0
sI21
F1.0
sI31
F1.0
ssbsg30
g0
(g31
g2
Ntp1849
Rp1850
(dp1851
g35
I1
sbsba(ics475_types
Instance
p1852
(dp1853
g25
(ics475_types
FeatureVector
p1854
(dp1855
g28
(dp1856
I2
F21.92
sI3
F0.5
sI4
F1.0
sI5
F1.0
sI6
F1.0
sI7
F1.0
sI8
F0.125
sI9
F1.0
sI13
F1.0
sI14
F360.0
sI16
F1.0
sI20
F1.0
sI21
F1.0
ssbsg30
g0
(g31
g2
Ntp1857
Rp1858
(dp1859
g35
I0
sbsba(ics475_types
Instance
p1860
(dp1861
g25
(ics475_types
FeatureVector
p1862
(dp1863
g28
(dp1864
I1
F1.0
sI2
F23.75
sI3
F0.71
sI4
F1.0
sI5
F1.0
sI7
F1.0
sI8
F0.25
sI9
F1.0
sI10
F1.0
sI11
F1.0
sI12
F1.0
sI13
F1.0
sI14
F240.0
sI15
F4.0
sI31
F1.0
ssbsg30
g0
(g31
g2
Ntp1865
Rp1866
(dp1867
g35
I0
sbsba(ics475_types
Instance
p1868
(dp1869
g25
(ics475_types
FeatureVector
p1870
(dp1871
g28
(dp1872
I33
F1.0
sI2
F33.17
sI3
F1.0
sI4
F1.0
sI5
F1.0
sI7
F1.0
sI8
F0.75
sI10
F1.0
sI11
F7.0
sI12
F1.0
sI13
F1.0
sI14
F340.0
sI15
F4071.0
sI16
F1.0
sI39
F1.0
ssbsg30
g0
(g31
g2
Ntp1873
Rp1874
(dp1875
g35
I1
sbsba(ics475_types
Instance
p1876
(dp1877
g25
(ics475_types
FeatureVector
p1878
(dp1879
g28
(dp1880
I1
F1.0
sI2
F27.33
sI3
F1.665
sI4
F1.0
sI5
F1.0
sI9
F1.0
sI13
F1.0
sI14
F340.0
sI15
F1.0
sI20
F1.0
sI21
F1.0
sI23
F1.0
sI24
F1.0
ssbsg30
g0
(g31
g2
Ntp1881
Rp1882
(dp1883
g35
I0
sbsba(ics475_types
Instance
p1884
(dp1885
g25
(ics475_types
FeatureVector
p1886
(dp1887
g28
(dp1888
I1
F1.0
sI2
F25.25
sI3
F13.5
sI8
F2.0
sI9
F1.0
sI10
F1.0
sI11
F1.0
sI12
F1.0
sI13
F1.0
sI14
F200.0
sI15
F1.0
sI17
F1.0
sI18
F1.0
sI23
F1.0
sI24
F1.0
ssbsg30
g0
(g31
g2
Ntp1889
Rp1890
(dp1891
g35
I0
sbsba(ics475_types
Instance
p1892
(dp1893
g25
(ics475_types
FeatureVector
p1894
(dp1895
g28
(dp1896
I2
F21.83
sI3
F1.54
sI4
F1.0
sI5
F1.0
sI7
F1.0
sI8
F0.085
sI9
F1.0
sI12
F1.0
sI13
F1.0
sI14
F356.0
sI16
F1.0
sI19
F1.0
sI20
F1.0
ssbsg30
g0
(g31
g2
Ntp1897
Rp1898
(dp1899
g35
I0
sbsba(ics475_types
Instance
p1900
(dp1901
g25
(ics475_types
FeatureVector
p1902
(dp1903
g28
(dp1904
I2
F22.08
sI3
F0.83
sI4
F1.0
sI5
F1.0
sI6
F1.0
sI8
F2.165
sI9
F1.0
sI12
F1.0
sI13
F1.0
sI14
F128.0
sI16
F1.0
sI20
F1.0
sI27
F1.0
ssbsg30
g0
(g31
g2
Ntp1905
Rp1906
(dp1907
g35
I1
sbsba(ics475_types
Instance
p1908
(dp1909
g25
(ics475_types
FeatureVector
p1910
(dp1911
g28
(dp1912
I33
F1.0
sI2
F19.33
sI3
F9.5
sI4
F1.0
sI5
F1.0
sI7
F1.0
sI8
F1.0
sI12
F1.0
sI13
F1.0
sI14
F60.0
sI15
F400.0
sI16
F1.0
sI20
F1.0
sI30
F1.0
ssbsg30
g0
(g31
g2
Ntp1913
Rp1914
(dp1915
g35
I1
sbsba(ics475_types
Instance
p1916
(dp1917
g25
(ics475_types
FeatureVector
p1918
(dp1919
g28
(dp1920
I2
F49.17
sI3
F2.29
sI4
F1.0
sI5
F1.0
sI8
F0.29
sI9
F1.0
sI13
F1.0
sI14
F200.0
sI15
F3.0
sI16
F1.0
sI20
F1.0
sI21
F1.0
sI23
F1.0
sI24
F1.0
ssbsg30
g0
(g31
g2
Ntp1921
Rp1922
(dp1923
g35
I0
sbsba(ics475_types
Instance
p1924
(dp1925
g25
(ics475_types
FeatureVector
p1926
(dp1927
g28
(dp1928
I33
F1.0
sI2
F23.08
sI3
F11.5
sI4
F1.0
sI5
F1.0
sI7
F1.0
sI8
F3.5
sI10
F1.0
sI11
F9.0
sI13
F1.0
sI14
F56.0
sI15
F742.0
sI16
F1.0
sI21
F1.0
sI25
F1.0
ssbsg30
g0
(g31
g2
Ntp1929
Rp1930
(dp1931
g35
I1
sbsba(ics475_types
Instance
p1932
(dp1933
g25
(ics475_types
FeatureVector
p1934
(dp1935
g28
(dp1936
I1
F1.0
sI2
F60.58
sI3
F16.5
sI4
F1.0
sI5
F1.0
sI7
F1.0
sI8
F11.0
sI12
F1.0
sI13
F1.0
sI14
F21.0
sI15
F10561.0
sI20
F1.0
sI33
F1.0
sI30
F1.0
ssbsg30
g0
(g31
g2
Ntp1937
Rp1938
(dp1939
g35
I1
sbsba(ics475_types
Instance
p1940
(dp1941
g25
(ics475_types
FeatureVector
p1942
(dp1943
g28
(dp1944
I33
F1.0
sI2
F19.67
sI3
F0.375
sI4
F1.0
sI5
F1.0
sI7
F1.0
sI8
F2.0
sI10
F1.0
sI11
F2.0
sI12
F1.0
sI13
F1.0
sI14
F80.0
sI16
F1.0
sI30
F1.0
ssbsg30
g0
(g31
g2
Ntp1945
Rp1946
(dp1947
g35
I1
sbsba(ics475_types
Instance
p1948
(dp1949
g25
(ics475_types
FeatureVector
p1950
(dp1951
g28
(dp1952
I33
F1.0
sI2
F20.17
sI3
F8.17
sI4
F1.0
sI5
F1.0
sI7
F1.0
sI8
F1.96
sI10
F1.0
sI11
F14.0
sI13
F1.0
sI14
F60.0
sI15
F158.0
sI16
F1.0
sI21
F1.0
sI37
F1.0
ssbsg30
g0
(g31
g2
Ntp1953
Rp1954
(dp1955
g35
I1
sbsba(ics475_types
Instance
p1956
(dp1957
g25
(ics475_types
FeatureVector
p1958
(dp1959
g28
(dp1960
I33
F1.0
sI2
F34.25
sI3
F3.0
sI4
F1.0
sI5
F1.0
sI8
F7.415
sI12
F1.0
sI13
F1.0
sI16
F1.0
sI20
F1.0
sI36
F1.0
sI27
F1.0
ssbsg30
g0
(g31
g2
Ntp1961
Rp1962
(dp1963
g35
I1
sbsba(ics475_types
Instance
p1964
(dp1965
g25
(ics475_types
FeatureVector
p1966
(dp1967
g28
(dp1968
I2
F18.17
sI3
F2.46
sI4
F1.0
sI5
F1.0
sI6
F1.0
sI8
F0.96
sI9
F1.0
sI10
F1.0
sI11
F2.0
sI12
F1.0
sI13
F1.0
sI14
F160.0
sI15
F587.0
sI16
F1.0
sI40
F1.0
ssbsg30
g0
(g31
g2
Ntp1969
Rp1970
(dp1971
g35
I0
sbsba(ics475_types
Instance
p1972
(dp1973
g25
(ics475_types
FeatureVector
p1974
(dp1975
g28
(dp1976
I33
F1.0
sI2
F27.67
sI3
F2.0
sI4
F1.0
sI5
F1.0
sI39
F1.0
sI8
F1.0
sI10
F1.0
sI11
F4.0
sI13
F1.0
sI14
F140.0
sI15
F7544.0
sI16
F1.0
sI21
F1.0
sI27
F1.0
ssbsg30
g0
(g31
g2
Ntp1977
Rp1978
(dp1979
g35
I1
sbsba(ics475_types
Instance
p1980
(dp1981
g25
(ics475_types
FeatureVector
p1982
(dp1983
g28
(dp1984
I33
F1.0
sI2
F36.33
sI3
F2.125
sI7
F1.0
sI8
F0.085
sI10
F1.0
sI11
F1.0
sI13
F1.0
sI14
F50.0
sI15
F1187.0
sI16
F1.0
sI17
F1.0
sI18
F1.0
sI21
F1.0
sI31
F1.0
ssbsg30
g0
(g31
g2
Ntp1985
Rp1986
(dp1987
g35
I1
sbsba(ics475_types
Instance
p1988
(dp1989
g25
(ics475_types
FeatureVector
p1990
(dp1991
g28
(dp1992
I2
F20.0
sI3
F1.25
sI7
F1.0
sI8
F0.125
sI9
F1.0
sI13
F1.0
sI14
F140.0
sI15
F4.0
sI16
F1.0
sI17
F1.0
sI18
F1.0
sI19
F1.0
sI20
F1.0
sI21
F1.0
ssbsg30
g0
(g31
g2
Ntp1993
Rp1994
(dp1995
g35
I0
sbsba(ics475_types
Instance
p1996
(dp1997
g25
(ics475_types
FeatureVector
p1998
(dp1999
g28
(dp2000
I1
F1.0
sI2
F22.67
sI3
F0.75
sI4
F1.0
sI5
F1.0
sI6
F1.0
sI7
F1.0
sI8
F2.0
sI9
F1.0
sI10
F1.0
sI11
F2.0
sI12
F1.0
sI13
F1.0
sI14
F200.0
sI15
F394.0
ssbsg30
g0
(g31
g2
Ntp2001
Rp2002
(dp2003
g35
I0
sbsba(ics475_types
Instance
p2004
(dp2005
g25
(ics475_types
FeatureVector
p2006
(dp2007
g28
(dp2008
I2
F21.42
sI3
F0.75
sI38
F1.0
sI8
F0.75
sI9
F1.0
sI12
F1.0
sI13
F1.0
sI14
F132.0
sI15
F2.0
sI16
F1.0
sI17
F1.0
sI18
F1.0
sI20
F1.0
sI40
F1.0
ssbsg30
g0
(g31
g2
Ntp2009
Rp2010
(dp2011
g35
I0
sbsba(ics475_types
Instance
p2012
(dp2013
g25
(ics475_types
FeatureVector
p2014
(dp2015
g28
(dp2016
I2
F18.0
sI3
F0.165
sI4
F1.0
sI5
F1.0
sI8
F0.21
sI9
F1.0
sI13
F1.0
sI14
F200.0
sI15
F40.0
sI16
F1.0
sI40
F1.0
sI20
F1.0
sI21
F1.0
sI30
F1.0
ssbsg30
g0
(g31
g2
Ntp2017
Rp2018
(dp2019
g35
I1
sbsba(ics475_types
Instance
p2020
(dp2021
g25
(ics475_types
FeatureVector
p2022
(dp2023
g28
(dp2024
I2
F23.5
sI3
F3.165
sI7
F1.0
sI8
F0.415
sI9
F1.0
sI10
F1.0
sI11
F1.0
sI12
F1.0
sI13
F1.0
sI14
F280.0
sI15
F80.0
sI16
F1.0
sI17
F1.0
sI18
F1.0
sI19
F1.0
ssbsg30
g0
(g31
g2
Ntp2025
Rp2026
(dp2027
g35
I0
sbsba(ics475_types
Instance
p2028
(dp2029
g25
(ics475_types
FeatureVector
p2030
(dp2031
g28
(dp2032
I1
F1.0
sI2
F24.75
sI3
F12.5
sI4
F1.0
sI5
F1.0
sI7
F1.0
sI8
F1.5
sI10
F1.0
sI11
F12.0
sI12
F1.0
sI13
F1.0
sI14
F120.0
sI15
F567.0
sI33
F1.0
sI37
F1.0
ssbsg30
g0
(g31
g2
Ntp2033
Rp2034
(dp2035
g35
I1
sbsba(ics475_types
Instance
p2036
(dp2037
g25
(ics475_types
FeatureVector
p2038
(dp2039
g28
(dp2040
I2
F24.08
sI3
F9.0
sI4
F1.0
sI5
F1.0
sI7
F1.0
sI8
F0.25
sI9
F1.0
sI12
F1.0
sI13
F1.0
sI16
F1.0
sI20
F1.0
sI37
F1.0
ssbsg30
g0
(g31
g2
Ntp2041
Rp2042
(dp2043
g35
I0
sbsba(ics475_types
Instance
p2044
(dp2045
g25
(ics475_types
FeatureVector
p2046
(dp2047
g28
(dp2048
I33
F1.0
sI2
F48.58
sI3
F0.205
sI7
F1.0
sI8
F0.25
sI10
F1.0
sI11
F11.0
sI13
F1.0
sI14
F380.0
sI15
F2732.0
sI16
F1.0
sI17
F1.0
sI18
F1.0
sI19
F1.0
sI21
F1.0
ssbsg30
g0
(g31
g2
Ntp2049
Rp2050
(dp2051
g35
I1
sbsba(ics475_types
Instance
p2052
(dp2053
g25
(ics475_types
FeatureVector
p2054
(dp2055
g28
(dp2056
I33
F1.0
sI2
F52.33
sI3
F1.375
sI6
F1.0
sI8
F9.46
sI12
F1.0
sI13
F1.0
sI14
F200.0
sI15
F100.0
sI16
F1.0
sI17
F1.0
sI18
F1.0
sI20
F1.0
sI27
F1.0
ssbsg30
g0
(g31
g2
Ntp2057
Rp2058
(dp2059
g35
I0
sbsba(ics475_types
Instance
p2060
(dp2061
g25
(ics475_types
FeatureVector
p2062
(dp2063
g28
(dp2064
I2
F25.67
sI3
F3.25
sI4
F1.0
sI5
F1.0
sI6
F1.0
sI8
F2.29
sI9
F1.0
sI10
F1.0
sI11
F1.0
sI12
F1.0
sI13
F1.0
sI14
F416.0
sI15
F21.0
sI16
F1.0
sI27
F1.0
ssbsg30
g0
(g31
g2
Ntp2065
Rp2066
(dp2067
g35
I0
sbsba(ics475_types
Instance
p2068
(dp2069
g25
(ics475_types
FeatureVector
p2070
(dp2071
g28
(dp2072
I1
F1.0
sI2
F21.08
sI3
F5.0
sI9
F1.0
sI13
F1.0
sI17
F1.0
sI18
F1.0
sI20
F1.0
sI21
F1.0
sI23
F1.0
sI24
F1.0
ssbsg30
g0
(g31
g2
Ntp2073
Rp2074
(dp2075
g35
I0
sbsba(ics475_types
Instance
p2076
(dp2077
g25
(ics475_types
FeatureVector
p2078
(dp2079
g28
(dp2080
I33
F1.0
sI2
F26.0
sI3
F1.0
sI4
F1.0
sI5
F1.0
sI7
F1.0
sI8
F1.75
sI12
F1.0
sI13
F1.0
sI14
F280.0
sI16
F1.0
sI20
F1.0
sI30
F1.0
ssbsg30
g0
(g31
g2
Ntp2081
Rp2082
(dp2083
g35
I1
sbsba(ics475_types
Instance
p2084
(dp2085
g25
(ics475_types
FeatureVector
p2086
(dp2087
g28
(dp2088
I2
F69.17
sI3
F9.0
sI4
F1.0
sI5
F1.0
sI8
F4.0
sI9
F1.0
sI10
F1.0
sI11
F1.0
sI13
F1.0
sI14
F70.0
sI15
F6.0
sI16
F1.0
sI21
F1.0
sI23
F1.0
sI24
F1.0
ssbsg30
g0
(g31
g2
Ntp2089
Rp2090
(dp2091
g35
I0
sbsba(ics475_types
Instance
p2092
(dp2093
g25
(ics475_types
FeatureVector
p2094
(dp2095
g28
(dp2096
I33
F1.0
sI2
F20.17
sI3
F5.625
sI4
F1.0
sI5
F1.0
sI7
F1.0
sI8
F1.71
sI14
F120.0
sI16
F1.0
sI20
F1.0
sI21
F1.0
sI22
F1.0
sI31
F1.0
ssbsg30
g0
(g31
g2
Ntp2097
Rp2098
(dp2099
g35
I1
sbsba(ics475_types
Instance
p2100
(dp2101
g25
(ics475_types
FeatureVector
p2102
(dp2103
g28
(dp2104
I33
F1.0
sI2
F25.67
sI3
F12.5
sI4
F1.0
sI5
F1.0
sI7
F1.0
sI8
F1.21
sI10
F1.0
sI11
F67.0
sI12
F1.0
sI13
F1.0
sI14
F140.0
sI15
F258.0
sI16
F1.0
sI36
F1.0
ssbsg30
g0
(g31
g2
Ntp2105
Rp2106
(dp2107
g35
I1
sbsba(ics475_types
Instance
p2108
(dp2109
g25
(ics475_types
FeatureVector
p2110
(dp2111
g28
(dp2112
I1
F1.0
sI2
F20.33
sI3
F10.0
sI4
F1.0
sI5
F1.0
sI6
F1.0
sI33
F1.0
sI8
F1.0
sI10
F1.0
sI11
F4.0
sI13
F1.0
sI14
F50.0
sI15
F1465.0
sI21
F1.0
sI27
F1.0
ssbsg30
g0
(g31
g2
Ntp2113
Rp2114
(dp2115
g35
I1
sbsba(ics475_types
Instance
p2116
(dp2117
g25
(ics475_types
FeatureVector
p2118
(dp2119
g28
(dp2120
I2
F74.83
sI3
F19.0
sI8
F0.04
sI9
F1.0
sI10
F1.0
sI11
F2.0
sI13
F1.0
sI15
F351.0
sI16
F1.0
sI17
F1.0
sI18
F1.0
sI21
F1.0
sI23
F1.0
sI24
F1.0
ssbsg30
g0
(g31
g2
Ntp2121
Rp2122
(dp2123
g35
I0
sbsba(ics475_types
Instance
p2124
(dp2125
g25
(ics475_types
FeatureVector
p2126
(dp2127
g28
(dp2128
I32
F1.0
sI33
F1.0
sI2
F32.33
sI3
F7.5
sI4
F1.0
sI5
F1.0
sI8
F1.585
sI41
F1.0
sI12
F1.0
sI14
F420.0
sI16
F1.0
sI20
F1.0
sI22
F1.0
ssbsg30
g0
(g31
g2
Ntp2129
Rp2130
(dp2131
g35
I0
sbsba(ics475_types
Instance
p2132
(dp2133
g25
(ics475_types
FeatureVector
p2134
(dp2135
g28
(dp2136
I2
F35.17
sI3
F4.5
sI4
F1.0
sI5
F1.0
sI39
F1.0
sI8
F5.75
sI9
F1.0
sI12
F1.0
sI14
F711.0
sI16
F1.0
sI20
F1.0
sI22
F1.0
sI27
F1.0
ssbsg30
g0
(g31
g2
Ntp2137
Rp2138
(dp2139
g35
I1
sbsba(ics475_types
Instance
p2140
(dp2141
g25
(ics475_types
FeatureVector
p2142
(dp2143
g28
(dp2144
I33
F1.0
sI2
F27.83
sI3
F1.5
sI4
F1.0
sI5
F1.0
sI7
F1.0
sI8
F2.0
sI10
F1.0
sI11
F11.0
sI12
F1.0
sI13
F1.0
sI14
F434.0
sI15
F35.0
sI16
F1.0
sI31
F1.0
ssbsg30
g0
(g31
g2
Ntp2145
Rp2146
(dp2147
g35
I1
sbsba(ics475_types
Instance
p2148
(dp2149
g25
(ics475_types
FeatureVector
p2150
(dp2151
g28
(dp2152
I2
F42.83
sI3
F1.25
sI4
F1.0
sI5
F1.0
sI7
F1.0
sI8
F13.875
sI9
F1.0
sI10
F1.0
sI11
F1.0
sI12
F1.0
sI13
F1.0
sI14
F352.0
sI15
F112.0
sI16
F1.0
sI35
F1.0
ssbsg30
g0
(g31
g2
Ntp2153
Rp2154
(dp2155
g35
I0
sbsba(ics475_types
Instance
p2156
(dp2157
g25
(ics475_types
FeatureVector
p2158
(dp2159
g28
(dp2160
I1
F1.0
sI2
F56.5
sI3
F16.0
sI4
F1.0
sI5
F1.0
sI33
F1.0
sI10
F1.0
sI11
F15.0
sI13
F1.0
sI15
F247.0
sI21
F1.0
sI24
F1.0
sI28
F1.0
ssbsg30
g0
(g31
g2
Ntp2161
Rp2162
(dp2163
g35
I1
sbsba(ics475_types
Instance
p2164
(dp2165
g25
(ics475_types
FeatureVector
p2166
(dp2167
g28
(dp2168
I2
F26.75
sI3
F2.0
sI4
F1.0
sI5
F1.0
sI7
F1.0
sI8
F0.75
sI9
F1.0
sI12
F1.0
sI13
F1.0
sI14
F80.0
sI16
F1.0
sI34
F1.0
sI20
F1.0
ssbsg30
g0
(g31
g2
Ntp2169
Rp2170
(dp2171
g35
I0
sbsba(ics475_types
Instance
p2172
(dp2173
g25
(ics475_types
FeatureVector
p2174
(dp2175
g28
(dp2176
I2
F33.67
sI3
F1.25
sI4
F1.0
sI5
F1.0
sI7
F1.0
sI8
F1.165
sI9
F1.0
sI13
F1.0
sI14
F120.0
sI16
F1.0
sI20
F1.0
sI21
F1.0
sI31
F1.0
ssbsg30
g0
(g31
g2
Ntp2177
Rp2178
(dp2179
g35
I0
sbsba(ics475_types
Instance
p2180
(dp2181
g25
(ics475_types
FeatureVector
p2182
(dp2183
g28
(dp2184
I1
F1.0
sI2
F57.58
sI3
F2.0
sI4
F1.0
sI5
F1.0
sI8
F6.5
sI9
F1.0
sI10
F1.0
sI11
F1.0
sI13
F1.0
sI15
F10.0
sI21
F1.0
sI23
F1.0
sI24
F1.0
ssbsg30
g0
(g31
g2
Ntp2185
Rp2186
(dp2187
g35
I0
sbsba(ics475_types
Instance
p2188
(dp2189
g25
(ics475_types
FeatureVector
p2190
(dp2191
g28
(dp2192
I1
F1.0
sI2
F16.0
sI3
F0.165
sI4
F1.0
sI5
F1.0
sI7
F1.0
sI8
F1.0
sI9
F1.0
sI10
F1.0
sI11
F2.0
sI12
F1.0
sI13
F1.0
sI14
F320.0
sI15
F1.0
sI37
F1.0
ssbsg30
g0
(g31
g2
Ntp2193
Rp2194
(dp2195
g35
I0
sbsba(ics475_types
Instance
p2196
(dp2197
g25
(ics475_types
FeatureVector
p2198
(dp2199
g28
(dp2200
I32
F1.0
sI2
F48.08
sI3
F3.75
sI4
F1.0
sI5
F1.0
sI8
F1.0
sI9
F1.0
sI13
F1.0
sI14
F100.0
sI15
F2.0
sI16
F1.0
sI20
F1.0
sI21
F1.0
sI25
F1.0
ssbsg30
g0
(g31
g2
Ntp2201
Rp2202
(dp2203
g35
I0
sbsba(ics475_types
Instance
p2204
(dp2205
g25
(ics475_types
FeatureVector
p2206
(dp2207
g28
(dp2208
I33
F1.0
sI2
F25.08
sI3
F1.71
sI4
F1.0
sI5
F1.0
sI7
F1.0
sI8
F1.665
sI10
F1.0
sI11
F1.0
sI12
F1.0
sI13
F1.0
sI14
F395.0
sI15
F20.0
sI16
F1.0
sI39
F1.0
ssbsg30
g0
(g31
g2
Ntp2209
Rp2210
(dp2211
g35
I1
sbsba(ics475_types
Instance
p2212
(dp2213
g25
(ics475_types
FeatureVector
p2214
(dp2215
g28
(dp2216
I1
F1.0
sI2
F19.17
sI3
F0.585
sI33
F1.0
sI7
F1.0
sI8
F0.585
sI12
F1.0
sI13
F1.0
sI14
F160.0
sI17
F1.0
sI18
F1.0
sI20
F1.0
sI37
F1.0
ssbsg30
g0
(g31
g2
Ntp2217
Rp2218
(dp2219
g35
I0
sbsba(ics475_types
Instance
p2220
(dp2221
g25
(ics475_types
FeatureVector
p2222
(dp2223
g28
(dp2224
I1
F1.0
sI2
F19.67
sI3
F0.21
sI4
F1.0
sI5
F1.0
sI33
F1.0
sI8
F0.29
sI10
F1.0
sI11
F11.0
sI13
F1.0
sI14
F80.0
sI15
F99.0
sI21
F1.0
sI27
F1.0
sI30
F1.0
ssbsg30
g0
(g31
g2
Ntp2225
Rp2226
(dp2227
g35
I1
sbsba(ics475_types
Instance
p2228
(dp2229
g25
(ics475_types
FeatureVector
p2230
(dp2231
g28
(dp2232
I33
F1.0
sI2
F56.42
sI3
F28.0
sI6
F1.0
sI7
F1.0
sI8
F28.5
sI10
F1.0
sI11
F40.0
sI13
F1.0
sI15
F15.0
sI16
F1.0
sI17
F1.0
sI18
F1.0
sI21
F1.0
ssbsg30
g0
(g31
g2
Ntp2233
Rp2234
(dp2235
g35
I1
sbsba(ics475_types
Instance
p2236
(dp2237
g25
(ics475_types
FeatureVector
p2238
(dp2239
g28
(dp2240
I33
F1.0
sI2
F28.75
sI3
F1.165
sI4
F1.0
sI5
F1.0
sI7
F1.0
sI8
F0.5
sI14
F280.0
sI16
F1.0
sI19
F1.0
sI20
F1.0
sI21
F1.0
sI22
F1.0
ssbsg30
g0
(g31
g2
Ntp2241
Rp2242
(dp2243
g35
I0
sbsba(ics475_types
Instance
p2244
(dp2245
g25
(ics475_types
FeatureVector
p2246
(dp2247
g28
(dp2248
I2
F36.5
sI3
F4.25
sI4
F1.0
sI5
F1.0
sI7
F1.0
sI8
F3.5
sI9
F1.0
sI13
F1.0
sI14
F454.0
sI15
F50.0
sI16
F1.0
sI20
F1.0
sI21
F1.0
sI30
F1.0
ssbsg30
g0
(g31
g2
Ntp2249
Rp2250
(dp2251
g35
I0
sbsba(ics475_types
Instance
p2252
(dp2253
g25
(ics475_types
FeatureVector
p2254
(dp2255
g28
(dp2256
I33
F1.0
sI2
F24.42
sI3
F12.335
sI4
F1.0
sI5
F1.0
sI8
F1.585
sI12
F1.0
sI13
F1.0
sI14
F120.0
sI16
F1.0
sI20
F1.0
sI27
F1.0
sI30
F1.0
ssbsg30
g0
(g31
g2
Ntp2257
Rp2258
(dp2259
g35
I1
sbsba(ics475_types
Instance
p2260
(dp2261
g25
(ics475_types
FeatureVector
p2262
(dp2263
g28
(dp2264
I2
F62.75
sI3
F7.0
sI4
F1.0
sI5
F1.0
sI9
F1.0
sI42
F1.0
sI13
F1.0
sI15
F12.0
sI16
F1.0
sI20
F1.0
sI21
F1.0
sI41
F1.0
ssbsg30
g0
(g31
g2
Ntp2265
Rp2266
(dp2267
g35
I0
sbsba(ics475_types
Instance
p2268
(dp2269
g25
(ics475_types
FeatureVector
p2270
(dp2271
g28
(dp2272
I1
F1.0
sI2
F15.83
sI3
F7.625
sI4
F1.0
sI5
F1.0
sI7
F1.0
sI8
F0.125
sI9
F1.0
sI10
F1.0
sI11
F1.0
sI12
F1.0
sI13
F1.0
sI15
F160.0
sI30
F1.0
ssbsg30
g0
(g31
g2
Ntp2273
Rp2274
(dp2275
g35
I0
sbsba(ics475_types
Instance
p2276
(dp2277
g25
(ics475_types
FeatureVector
p2278
(dp2279
g28
(dp2280
I32
F1.0
sI1
F1.0
sI2
F51.92
sI3
F6.5
sI4
F1.0
sI5
F1.0
sI8
F3.085
sI9
F1.0
sI12
F1.0
sI13
F1.0
sI14
F73.0
sI20
F1.0
sI25
F1.0
ssbsg30
g0
(g31
g2
Ntp2281
Rp2282
(dp2283
g35
I0
sbsba(ics475_types
Instance
p2284
(dp2285
g25
(ics475_types
FeatureVector
p2286
(dp2287
g28
(dp2288
I1
F1.0
sI2
F26.58
sI3
F2.54
sI9
F1.0
sI12
F1.0
sI13
F1.0
sI14
F180.0
sI15
F60.0
sI17
F1.0
sI18
F1.0
sI20
F1.0
sI23
F1.0
sI24
F1.0
ssbsg30
g0
(g31
g2
Ntp2289
Rp2290
(dp2291
g35
I0
sbsba(ics475_types
Instance
p2292
(dp2293
g25
(ics475_types
FeatureVector
p2294
(dp2295
g28
(dp2296
I33
F1.0
sI2
F44.33
sI3
F0.5
sI4
F1.0
sI5
F1.0
sI8
F5.0
sI12
F1.0
sI13
F1.0
sI14
F320.0
sI16
F1.0
sI20
F1.0
sI25
F1.0
sI27
F1.0
ssbsg30
g0
(g31
g2
Ntp2297
Rp2298
(dp2299
g35
I1
sbsba(ics475_types
Instance
p2300
(dp2301
g25
(ics475_types
FeatureVector
p2302
(dp2303
g28
(dp2304
I1
F1.0
sI2
F29.5
sI3
F1.085
sI7
F1.0
sI8
F1.0
sI9
F1.0
sI39
F1.0
sI13
F1.0
sI14
F280.0
sI15
F13.0
sI17
F1.0
sI18
F1.0
sI20
F1.0
sI21
F1.0
ssbsg30
g0
(g31
g2
Ntp2305
Rp2306
(dp2307
g35
I0
sbsba(ics475_types
Instance
p2308
(dp2309
g25
(ics475_types
FeatureVector
p2310
(dp2311
g28
(dp2312
I2
F20.67
sI3
F0.835
sI6
F1.0
sI7
F1.0
sI8
F2.0
sI9
F1.0
sI12
F1.0
sI14
F240.0
sI16
F1.0
sI17
F1.0
sI18
F1.0
sI20
F1.0
sI22
F1.0
ssbsg30
g0
(g31
g2
Ntp2313
Rp2314
(dp2315
g35
I0
sbsba(ics475_types
Instance
p2316
(dp2317
g25
(ics475_types
FeatureVector
p2318
(dp2319
g28
(dp2320
I32
F1.0
sI33
F1.0
sI2
F42.75
sI3
F3.0
sI4
F1.0
sI5
F1.0
sI8
F1.0
sI13
F1.0
sI15
F200.0
sI16
F1.0
sI20
F1.0
sI21
F1.0
sI25
F1.0
ssbsg30
g0
(g31
g2
Ntp2321
Rp2322
(dp2323
g35
I0
sbsba(ics475_types
Instance
p2324
(dp2325
g25
(ics475_types
FeatureVector
p2326
(dp2327
g28
(dp2328
I33
F1.0
sI2
F24.17
sI3
F0.875
sI4
F1.0
sI5
F1.0
sI7
F1.0
sI8
F4.625
sI10
F1.0
sI11
F2.0
sI12
F1.0
sI13
F1.0
sI14
F520.0
sI15
F2000.0
sI16
F1.0
sI30
F1.0
ssbsg30
g0
(g31
g2
Ntp2329
Rp2330
(dp2331
g35
I1
sbsba(ics475_types
Instance
p2332
(dp2333
g25
(ics475_types
FeatureVector
p2334
(dp2335
g28
(dp2336
I33
F1.0
sI2
F60.08
sI3
F14.5
sI4
F1.0
sI5
F1.0
sI8
F18.0
sI10
F1.0
sI11
F15.0
sI12
F1.0
sI13
F1.0
sI15
F1000.0
sI16
F1.0
sI23
F1.0
sI24
F1.0
ssbsg30
g0
(g31
g2
Ntp2337
Rp2338
(dp2339
g35
I1
sbsba(ics475_types
Instance
p2340
(dp2341
g25
(ics475_types
FeatureVector
p2342
(dp2343
g28
(dp2344
I33
F1.0
sI2
F34.08
sI3
F6.5
sI4
F1.0
sI5
F1.0
sI7
F1.0
sI8
F0.125
sI12
F1.0
sI13
F1.0
sI14
F443.0
sI16
F1.0
sI20
F1.0
sI37
F1.0
ssbsg30
g0
(g31
g2
Ntp2345
Rp2346
(dp2347
g35
I0
sbsba(ics475_types
Instance
p2348
(dp2349
g25
(ics475_types
FeatureVector
p2350
(dp2351
g28
(dp2352
I32
F1.0
sI2
F34.0
sI3
F5.085
sI8
F1.085
sI9
F1.0
sI12
F1.0
sI13
F1.0
sI14
F480.0
sI16
F1.0
sI17
F1.0
sI18
F1.0
sI20
F1.0
sI25
F1.0
ssbsg30
g0
(g31
g2
Ntp2353
Rp2354
(dp2355
g35
I0
sbsba(ics475_types
Instance
p2356
(dp2357
g25
(ics475_types
FeatureVector
p2358
(dp2359
g28
(dp2360
I33
F1.0
sI2
F41.75
sI3
F0.96
sI4
F1.0
sI5
F1.0
sI7
F1.0
sI8
F2.5
sI39
F1.0
sI13
F1.0
sI14
F510.0
sI15
F600.0
sI16
F1.0
sI20
F1.0
sI21
F1.0
ssbsg30
g0
(g31
g2
Ntp2361
Rp2362
(dp2363
g35
I1
sbsba(ics475_types
Instance
p2364
(dp2365
g25
(ics475_types
FeatureVector
p2366
(dp2367
g28
(dp2368
I33
F1.0
sI2
F19.42
sI3
F6.5
sI4
F1.0
sI5
F1.0
sI8
F1.46
sI10
F1.0
sI11
F7.0
sI13
F1.0
sI14
F80.0
sI15
F2954.0
sI16
F1.0
sI21
F1.0
sI27
F1.0
sI31
F1.0
ssbsg30
g0
(g31
g2
Ntp2369
Rp2370
(dp2371
g35
I1
sbsba(ics475_types
Instance
p2372
(dp2373
g25
(ics475_types
FeatureVector
p2374
(dp2375
g28
(dp2376
I1
F1.0
sI2
F25.33
sI3
F2.085
sI4
F1.0
sI5
F1.0
sI6
F1.0
sI33
F1.0
sI8
F2.75
sI12
F1.0
sI13
F1.0
sI14
F360.0
sI15
F1.0
sI20
F1.0
sI27
F1.0
ssbsg30
g0
(g31
g2
Ntp2377
Rp2378
(dp2379
g35
I0
sbsba(ics475_types
Instance
p2380
(dp2381
g25
(ics475_types
FeatureVector
p2382
(dp2383
g28
(dp2384
I33
F1.0
sI2
F30.17
sI3
F0.5
sI4
F1.0
sI5
F1.0
sI6
F1.0
sI7
F1.0
sI8
F1.75
sI10
F1.0
sI11
F11.0
sI13
F1.0
sI14
F32.0
sI15
F540.0
sI16
F1.0
sI21
F1.0
ssbsg30
g0
(g31
g2
Ntp2385
Rp2386
(dp2387
g35
I1
sbsba(ics475_types
Instance
p2388
(dp2389
g25
(ics475_types
FeatureVector
p2390
(dp2391
g28
(dp2392
I2
F32.92
sI3
F2.5
sI4
F1.0
sI5
F1.0
sI7
F1.0
sI8
F1.75
sI9
F1.0
sI10
F1.0
sI11
F2.0
sI12
F1.0
sI13
F1.0
sI14
F720.0
sI16
F1.0
sI37
F1.0
ssbsg30
g0
(g31
g2
Ntp2393
Rp2394
(dp2395
g35
I0
sbsba(ics475_types
Instance
p2396
(dp2397
g25
(ics475_types
FeatureVector
p2398
(dp2399
g28
(dp2400
I2
F34.0
sI3
F5.5
sI6
F1.0
sI7
F1.0
sI8
F1.5
sI9
F1.0
sI12
F1.0
sI13
F1.0
sI14
F60.0
sI16
F1.0
sI17
F1.0
sI18
F1.0
sI20
F1.0
ssbsg30
g0
(g31
g2
Ntp2401
Rp2402
(dp2403
g35
I0
sbsba(ics475_types
Instance
p2404
(dp2405
g25
(ics475_types
FeatureVector
p2406
(dp2407
g28
(dp2408
I33
F1.0
sI2
F45.0
sI3
F8.5
sI4
F1.0
sI5
F1.0
sI8
F14.0
sI10
F1.0
sI11
F1.0
sI12
F1.0
sI13
F1.0
sI14
F88.0
sI15
F2000.0
sI16
F1.0
sI36
F1.0
sI27
F1.0
ssbsg30
g0
(g31
g2
Ntp2409
Rp2410
(dp2411
g35
I1
sbsba(ics475_types
Instance
p2412
(dp2413
g25
(ics475_types
FeatureVector
p2414
(dp2415
g28
(dp2416
I2
F17.5
sI3
F22.0
sI9
F1.0
sI12
F1.0
sI45
F1.0
sI14
F450.0
sI15
F100000.0
sI16
F1.0
sI20
F1.0
sI46
F1.0
sI23
F1.0
sI26
F1.0
sI44
F1.0
ssbsg30
g0
(g31
g2
Ntp2417
Rp2418
(dp2419
g35
I1
sbsba(ics475_types
Instance
p2420
(dp2421
g25
(ics475_types
FeatureVector
p2422
(dp2423
g28
(dp2424
I1
F1.0
sI2
F23.5
sI3
F9.0
sI4
F1.0
sI5
F1.0
sI7
F1.0
sI8
F8.5
sI10
F1.0
sI11
F5.0
sI12
F1.0
sI13
F1.0
sI14
F120.0
sI33
F1.0
sI30
F1.0
ssbsg30
g0
(g31
g2
Ntp2425
Rp2426
(dp2427
g35
I1
sbsba(ics475_types
Instance
p2428
(dp2429
g25
(ics475_types
FeatureVector
p2430
(dp2431
g28
(dp2432
I1
F1.0
sI2
F22.42
sI3
F5.665
sI4
F1.0
sI5
F1.0
sI7
F1.0
sI8
F2.585
sI10
F1.0
sI11
F7.0
sI13
F1.0
sI14
F129.0
sI15
F3257.0
sI21
F1.0
sI33
F1.0
sI30
F1.0
ssbsg30
g0
(g31
g2
Ntp2433
Rp2434
(dp2435
g35
I1
sbsba(ics475_types
Instance
p2436
(dp2437
g25
(ics475_types
FeatureVector
p2438
(dp2439
g28
(dp2440
I2
F41.0
sI3
F0.04
sI4
F1.0
sI5
F1.0
sI7
F1.0
sI8
F0.04
sI9
F1.0
sI10
F1.0
sI11
F1.0
sI14
F560.0
sI16
F1.0
sI21
F1.0
sI22
F1.0
sI41
F1.0
ssbsg30
g0
(g31
g2
Ntp2441
Rp2442
(dp2443
g35
I1
sbsba(ics475_types
Instance
p2444
(dp2445
g25
(ics475_types
FeatureVector
p2446
(dp2447
g28
(dp2448
I33
F1.0
sI2
F41.17
sI3
F4.04
sI4
F1.0
sI5
F1.0
sI8
F7.0
sI10
F1.0
sI11
F8.0
sI13
F1.0
sI14
F320.0
sI16
F1.0
sI21
F1.0
sI36
F1.0
sI27
F1.0
ssbsg30
g0
(g31
g2
Ntp2449
Rp2450
(dp2451
g35
I1
sbsba(ics475_types
Instance
p2452
(dp2453
g25
(ics475_types
FeatureVector
p2454
(dp2455
g28
(dp2456
I1
F1.0
sI2
F24.75
sI3
F13.665
sI4
F1.0
sI5
F1.0
sI8
F1.5
sI9
F1.0
sI13
F1.0
sI14
F280.0
sI15
F1.0
sI20
F1.0
sI21
F1.0
sI27
F1.0
sI30
F1.0
ssbsg30
g0
(g31
g2
Ntp2457
Rp2458
(dp2459
g35
I0
sbsba(ics475_types
Instance
p2460
(dp2461
g25
(ics475_types
FeatureVector
p2462
(dp2463
g28
(dp2464
I33
F1.0
sI2
F41.42
sI3
F5.0
sI4
F1.0
sI5
F1.0
sI8
F5.0
sI10
F1.0
sI11
F6.0
sI12
F1.0
sI13
F1.0
sI14
F470.0
sI16
F1.0
sI27
F1.0
sI30
F1.0
ssbsg30
g0
(g31
g2
Ntp2465
Rp2466
(dp2467
g35
I1
sbsba(ics475_types
Instance
p2468
(dp2469
g25
(ics475_types
FeatureVector
p2470
(dp2471
g28
(dp2472
I33
F1.0
sI2
F48.17
sI3
F3.5
sI4
F1.0
sI5
F1.0
sI7
F1.0
sI8
F3.5
sI14
F230.0
sI16
F1.0
sI20
F1.0
sI21
F1.0
sI22
F1.0
sI37
F1.0
ssbsg30
g0
(g31
g2
Ntp2473
Rp2474
(dp2475
g35
I1
sbsba(ics475_types
Instance
p2476
(dp2477
g25
(ics475_types
FeatureVector
p2478
(dp2479
g28
(dp2480
I32
F1.0
sI2
F36.17
sI3
F5.5
sI4
F1.0
sI5
F1.0
sI8
F5.0
sI9
F1.0
sI13
F1.0
sI14
F210.0
sI15
F687.0
sI16
F1.0
sI20
F1.0
sI21
F1.0
sI25
F1.0
ssbsg30
g0
(g31
g2
Ntp2481
Rp2482
(dp2483
g35
I0
sbsba(ics475_types
Instance
p2484
(dp2485
g25
(ics475_types
FeatureVector
p2486
(dp2487
g28
(dp2488
I2
F24.58
sI3
F1.25
sI4
F1.0
sI5
F1.0
sI6
F1.0
sI7
F1.0
sI8
F0.25
sI9
F1.0
sI13
F1.0
sI14
F110.0
sI16
F1.0
sI20
F1.0
sI21
F1.0
ssbsg30
g0
(g31
g2
Ntp2489
Rp2490
(dp2491
g35
I0
sbsba(ics475_types
Instance
p2492
(dp2493
g25
(ics475_types
FeatureVector
p2494
(dp2495
g28
(dp2496
I1
F1.0
sI2
F52.17
sI9
F1.0
sI13
F1.0
sI17
F1.0
sI18
F1.0
sI20
F1.0
sI21
F1.0
sI23
F1.0
sI24
F1.0
ssbsg30
g0
(g31
g2
Ntp2497
Rp2498
(dp2499
g35
I0
sbsba(ics475_types
Instance
p2500
(dp2501
g25
(ics475_types
FeatureVector
p2502
(dp2503
g28
(dp2504
I1
F1.0
sI2
F18.25
sI3
F10.0
sI4
F1.0
sI5
F1.0
sI7
F1.0
sI8
F1.0
sI9
F1.0
sI10
F1.0
sI11
F1.0
sI13
F1.0
sI14
F120.0
sI15
F1.0
sI21
F1.0
sI31
F1.0
ssbsg30
g0
(g31
g2
Ntp2505
Rp2506
(dp2507
g35
I0
sbsba(ics475_types
Instance
p2508
(dp2509
g25
(ics475_types
FeatureVector
p2510
(dp2511
g28
(dp2512
I33
F1.0
sI2
F54.58
sI3
F9.415
sI4
F1.0
sI5
F1.0
sI8
F14.415
sI10
F1.0
sI11
F11.0
sI12
F1.0
sI13
F1.0
sI14
F30.0
sI15
F300.0
sI16
F1.0
sI23
F1.0
sI24
F1.0
ssbsg30
g0
(g31
g2
Ntp2513
Rp2514
(dp2515
g35
I1
sbsba(ics475_types
Instance
p2516
(dp2517
g25
(ics475_types
FeatureVector
p2518
(dp2519
g28
(dp2520
I2
F17.67
sI3
F4.46
sI4
F1.0
sI5
F1.0
sI6
F1.0
sI7
F1.0
sI8
F0.25
sI9
F1.0
sI14
F80.0
sI16
F1.0
sI20
F1.0
sI21
F1.0
sI22
F1.0
ssbsg30
g0
(g31
g2
Ntp2521
Rp2522
(dp2523
g35
I0
sbsba(ics475_types
Instance
p2524
(dp2525
g25
(ics475_types
FeatureVector
p2526
(dp2527
g28
(dp2528
I33
F1.0
sI2
F27.0
sI3
F0.75
sI4
F1.0
sI5
F1.0
sI6
F1.0
sI8
F4.25
sI10
F1.0
sI11
F3.0
sI12
F1.0
sI13
F1.0
sI14
F312.0
sI15
F150.0
sI16
F1.0
sI27
F1.0
ssbsg30
g0
(g31
g2
Ntp2529
Rp2530
(dp2531
g35
I1
sbsba(ics475_types
Instance
p2532
(dp2533
g25
(ics475_types
FeatureVector
p2534
(dp2535
g28
(dp2536
I33
F1.0
sI2
F59.5
sI3
F2.75
sI4
F1.0
sI5
F1.0
sI7
F1.0
sI8
F1.75
sI10
F1.0
sI11
F5.0
sI12
F1.0
sI13
F1.0
sI14
F60.0
sI15
F58.0
sI16
F1.0
sI31
F1.0
ssbsg30
g0
(g31
g2
Ntp2537
Rp2538
(dp2539
g35
I1
sbsba(ics475_types
Instance
p2540
(dp2541
g25
(ics475_types
FeatureVector
p2542
(dp2543
g28
(dp2544
I33
F1.0
sI2
F48.17
sI3
F7.625
sI4
F1.0
sI5
F1.0
sI8
F15.5
sI10
F1.0
sI11
F12.0
sI13
F1.0
sI15
F790.0
sI16
F1.0
sI21
F1.0
sI27
F1.0
sI31
F1.0
ssbsg30
g0
(g31
g2
Ntp2545
Rp2546
(dp2547
g35
I1
sbsba(ics475_types
Instance
p2548
(dp2549
g25
(ics475_types
FeatureVector
p2550
(dp2551
g28
(dp2552
I1
F1.0
sI2
F15.75
sI3
F0.375
sI4
F1.0
sI5
F1.0
sI6
F1.0
sI7
F1.0
sI8
F1.0
sI9
F1.0
sI13
F1.0
sI14
F120.0
sI15
F18.0
sI20
F1.0
sI21
F1.0
ssbsg30
g0
(g31
g2
Ntp2553
Rp2554
(dp2555
g35
I0
sbsba(ics475_types
Instance
p2556
(dp2557
g25
(ics475_types
FeatureVector
p2558
(dp2559
g28
(dp2560
I33
F1.0
sI2
F30.83
sI4
F1.0
sI5
F1.0
sI7
F1.0
sI8
F1.25
sI10
F1.0
sI11
F1.0
sI13
F1.0
sI14
F202.0
sI16
F1.0
sI21
F1.0
sI31
F1.0
ssbsg30
g0
(g31
g2
Ntp2561
Rp2562
(dp2563
g35
I1
sbsba(ics475_types
Instance
p2564
(dp2565
g25
(ics475_types
FeatureVector
p2566
(dp2567
g28
(dp2568
I2
F21.17
sI4
F1.0
sI5
F1.0
sI6
F1.0
sI7
F1.0
sI8
F0.5
sI9
F1.0
sI12
F1.0
sI16
F1.0
sI20
F1.0
sI22
F1.0
ssbsg30
g0
(g31
g2
Ntp2569
Rp2570
(dp2571
g35
I0
sbsba(ics475_types
Instance
p2572
(dp2573
g25
(ics475_types
FeatureVector
p2574
(dp2575
g28
(dp2576
I33
F1.0
sI2
F28.67
sI3
F9.335
sI4
F1.0
sI5
F1.0
sI8
F5.665
sI10
F1.0
sI11
F6.0
sI13
F1.0
sI14
F381.0
sI15
F168.0
sI16
F1.0
sI21
F1.0
sI27
F1.0
sI30
F1.0
ssbsg30
g0
(g31
g2
Ntp2577
Rp2578
(dp2579
g35
I1
sbsba(ics475_types
Instance
p2580
(dp2581
g25
(ics475_types
FeatureVector
p2582
(dp2583
g28
(dp2584
I2
F22.17
sI3
F2.25
sI4
F1.0
sI5
F1.0
sI7
F1.0
sI8
F0.125
sI9
F1.0
sI13
F1.0
sI14
F160.0
sI15
F10.0
sI16
F1.0
sI20
F1.0
sI21
F1.0
sI25
F1.0
ssbsg30
g0
(g31
g2
Ntp2585
Rp2586
(dp2587
g35
I0
sbsba(ics475_types
Instance
p2588
(dp2589
g25
(ics475_types
FeatureVector
p2590
(dp2591
g28
(dp2592
I33
F1.0
sI2
F44.0
sI3
F2.0
sI4
F1.0
sI5
F1.0
sI7
F1.0
sI8
F1.75
sI10
F1.0
sI11
F2.0
sI12
F1.0
sI13
F1.0
sI15
F15.0
sI16
F1.0
sI35
F1.0
ssbsg30
g0
(g31
g2
Ntp2593
Rp2594
(dp2595
g35
I1
sbsba(ics475_types
Instance
p2596
(dp2597
g25
(ics475_types
FeatureVector
p2598
(dp2599
g28
(dp2600
I1
F1.0
sI2
F33.67
sI3
F0.375
sI4
F1.0
sI5
F1.0
sI7
F1.0
sI8
F0.375
sI9
F1.0
sI13
F1.0
sI14
F300.0
sI15
F44.0
sI20
F1.0
sI21
F1.0
sI36
F1.0
ssbsg30
g0
(g31
g2
Ntp2601
Rp2602
(dp2603
g35
I1
sbsba(ics475_types
Instance
p2604
(dp2605
g25
(ics475_types
FeatureVector
p2606
(dp2607
g28
(dp2608
I1
F1.0
sI2
F56.83
sI3
F4.25
sI8
F5.0
sI9
F1.0
sI12
F1.0
sI13
F1.0
sI15
F4.0
sI17
F1.0
sI18
F1.0
sI20
F1.0
sI23
F1.0
sI24
F1.0
ssbsg30
g0
(g31
g2
Ntp2609
Rp2610
(dp2611
g35
I0
sbsba(ics475_types
Instance
p2612
(dp2613
g25
(ics475_types
FeatureVector
p2614
(dp2615
g28
(dp2616
I33
F1.0
sI2
F31.67
sI3
F0.83
sI4
F1.0
sI5
F1.0
sI7
F1.0
sI8
F1.335
sI10
F1.0
sI11
F8.0
sI12
F1.0
sI13
F1.0
sI14
F303.0
sI15
F3290.0
sI16
F1.0
sI39
F1.0
ssbsg30
g0
(g31
g2
Ntp2617
Rp2618
(dp2619
g35
I1
sbsba(ics475_types
Instance
p2620
(dp2621
g25
(ics475_types
FeatureVector
p2622
(dp2623
g28
(dp2624
I33
F1.0
sI2
F20.42
sI3
F7.0
sI4
F1.0
sI5
F1.0
sI6
F1.0
sI7
F1.0
sI8
F1.625
sI10
F1.0
sI11
F3.0
sI13
F1.0
sI14
F200.0
sI15
F1391.0
sI16
F1.0
sI21
F1.0
ssbsg30
g0
(g31
g2
Ntp2625
Rp2626
(dp2627
g35
I1
sbsba(ics475_types
Instance
p2628
(dp2629
g25
(ics475_types
FeatureVector
p2630
(dp2631
g28
(dp2632
I33
F1.0
sI2
F21.0
sI3
F3.0
sI7
F1.0
sI8
F1.085
sI10
F1.0
sI11
F8.0
sI12
F1.0
sI13
F1.0
sI14
F160.0
sI15
F1.0
sI16
F1.0
sI17
F1.0
sI18
F1.0
sI34
F1.0
ssbsg30
g0
(g31
g2
Ntp2633
Rp2634
(dp2635
g35
I1
sbsba(ics475_types
Instance
p2636
(dp2637
g25
(ics475_types
FeatureVector
p2638
(dp2639
g28
(dp2640
I32
F1.0
sI2
F39.92
sI3
F5.0
sI4
F1.0
sI5
F1.0
sI8
F0.21
sI9
F1.0
sI13
F1.0
sI14
F550.0
sI16
F1.0
sI20
F1.0
sI21
F1.0
sI25
F1.0
ssbsg30
g0
(g31
g2
Ntp2641
Rp2642
(dp2643
g35
I0
sbsba(ics475_types
Instance
p2644
(dp2645
g25
(ics475_types
FeatureVector
p2646
(dp2647
g28
(dp2648
I33
F1.0
sI2
F65.42
sI3
F11.0
sI4
F1.0
sI5
F1.0
sI8
F20.0
sI41
F1.0
sI10
F1.0
sI11
F7.0
sI12
F1.0
sI13
F1.0
sI14
F22.0
sI16
F1.0
sI42
F1.0
ssbsg30
g0
(g31
g2
Ntp2649
Rp2650
(dp2651
g35
I1
sbsba(ics475_types
Instance
p2652
(dp2653
g25
(ics475_types
FeatureVector
p2654
(dp2655
g28
(dp2656
I33
F1.0
sI2
F43.08
sI3
F0.375
sI6
F1.0
sI7
F1.0
sI8
F0.375
sI10
F1.0
sI11
F8.0
sI12
F1.0
sI13
F1.0
sI14
F300.0
sI15
F162.0
sI16
F1.0
sI17
F1.0
sI18
F1.0
ssbsg30
g0
(g31
g2
Ntp2657
Rp2658
(dp2659
g35
I1
sbsba(ics475_types
Instance
p2660
(dp2661
g25
(ics475_types
FeatureVector
p2662
(dp2663
g28
(dp2664
I2
F31.0
sI3
F2.085
sI4
F1.0
sI5
F1.0
sI6
F1.0
sI7
F1.0
sI8
F0.085
sI9
F1.0
sI13
F1.0
sI14
F300.0
sI16
F1.0
sI20
F1.0
sI21
F1.0
ssbsg30
g0
(g31
g2
Ntp2665
Rp2666
(dp2667
g35
I0
sbsba(ics475_types
Instance
p2668
(dp2669
g25
(ics475_types
FeatureVector
p2670
(dp2671
g28
(dp2672
I1
F1.0
sI2
F22.42
sI3
F11.25
sI33
F1.0
sI8
F0.75
sI10
F1.0
sI11
F4.0
sI13
F1.0
sI15
F321.0
sI17
F1.0
sI18
F1.0
sI21
F1.0
sI39
F1.0
sI27
F1.0
ssbsg30
g0
(g31
g2
Ntp2673
Rp2674
(dp2675
g35
I1
sbsba(ics475_types
Instance
p2676
(dp2677
g25
(ics475_types
FeatureVector
p2678
(dp2679
g28
(dp2680
I2
F22.17
sI3
F12.125
sI4
F1.0
sI5
F1.0
sI6
F1.0
sI7
F1.0
sI8
F3.335
sI9
F1.0
sI10
F1.0
sI11
F2.0
sI12
F1.0
sI13
F1.0
sI14
F180.0
sI15
F173.0
sI16
F1.0
ssbsg30
g0
(g31
g2
Ntp2681
Rp2682
(dp2683
g35
I0
sbsba(ics475_types
Instance
p2684
(dp2685
g25
(ics475_types
FeatureVector
p2686
(dp2687
g28
(dp2688
I1
F1.0
sI2
F20.83
sI3
F0.5
sI8
F1.0
sI9
F1.0
sI43
F1.0
sI13
F1.0
sI14
F260.0
sI17
F1.0
sI18
F1.0
sI20
F1.0
sI21
F1.0
sI41
F1.0
ssbsg30
g0
(g31
g2
Ntp2689
Rp2690
(dp2691
g35
I0
sbsba(ics475_types
Instance
p2692
(dp2693
g25
(ics475_types
FeatureVector
p2694
(dp2695
g28
(dp2696
I1
F1.0
sI2
F40.33
sI3
F7.54
sI33
F1.0
sI8
F8.0
sI10
F1.0
sI11
F14.0
sI13
F1.0
sI15
F2300.0
sI17
F1.0
sI18
F1.0
sI21
F1.0
sI27
F1.0
sI30
F1.0
ssbsg30
g0
(g31
g2
Ntp2697
Rp2698
(dp2699
g35
I1
sbsba(ics475_types
Instance
p2700
(dp2701
g25
(ics475_types
FeatureVector
p2702
(dp2703
g28
(dp2704
I32
F1.0
sI33
F1.0
sI2
F23.25
sI3
F4.0
sI4
F1.0
sI5
F1.0
sI6
F1.0
sI8
F0.25
sI12
F1.0
sI13
F1.0
sI14
F160.0
sI16
F1.0
sI20
F1.0
ssbsg30
g0
(g31
g2
Ntp2705
Rp2706
(dp2707
g35
I1
sbsba(ics475_types
Instance
p2708
(dp2709
g25
(ics475_types
FeatureVector
p2710
(dp2711
g28
(dp2712
I2
F16.17
sI3
F0.04
sI4
F1.0
sI5
F1.0
sI6
F1.0
sI7
F1.0
sI8
F0.04
sI9
F1.0
sI13
F1.0
sI16
F1.0
sI20
F1.0
sI21
F1.0
ssbsg30
g0
(g31
g2
Ntp2713
Rp2714
(dp2715
g35
I1
sbsba(ics475_types
Instance
p2716
(dp2717
g25
(ics475_types
FeatureVector
p2718
(dp2719
g28
(dp2720
I1
F1.0
sI2
F19.75
sI3
F0.75
sI4
F1.0
sI5
F1.0
sI6
F1.0
sI7
F1.0
sI8
F0.795
sI10
F1.0
sI11
F5.0
sI12
F1.0
sI13
F1.0
sI14
F140.0
sI15
F5.0
sI33
F1.0
ssbsg30
g0
(g31
g2
Ntp2721
Rp2722
(dp2723
g35
I0
sbsba(ics475_types
Instance
p2724
(dp2725
g25
(ics475_types
FeatureVector
p2726
(dp2727
g28
(dp2728
I33
F1.0
sI2
F39.58
sI3
F13.915
sI4
F1.0
sI5
F1.0
sI7
F1.0
sI8
F8.625
sI10
F1.0
sI11
F6.0
sI12
F1.0
sI13
F1.0
sI14
F70.0
sI16
F1.0
sI31
F1.0
ssbsg30
g0
(g31
g2
Ntp2729
Rp2730
(dp2731
g35
I1
sbsba(ics475_types
Instance
p2732
(dp2733
g25
(ics475_types
FeatureVector
p2734
(dp2735
g28
(dp2736
I33
F1.0
sI2
F21.92
sI3
F0.54
sI7
F1.0
sI8
F0.04
sI10
F1.0
sI11
F1.0
sI12
F1.0
sI13
F1.0
sI14
F840.0
sI15
F59.0
sI16
F1.0
sI17
F1.0
sI18
F1.0
sI39
F1.0
ssbsg30
g0
(g31
g2
Ntp2737
Rp2738
(dp2739
g35
I1
sbsba(ics475_types
Instance
p2740
(dp2741
g25
(ics475_types
FeatureVector
p2742
(dp2743
g28
(dp2744
I2
F23.42
sI3
F1.0
sI4
F1.0
sI5
F1.0
sI6
F1.0
sI7
F1.0
sI8
F0.5
sI9
F1.0
sI12
F1.0
sI14
F280.0
sI16
F1.0
sI20
F1.0
sI22
F1.0
ssbsg30
g0
(g31
g2
Ntp2745
Rp2746
(dp2747
g35
I0
sbsba(ics475_types
Instance
p2748
(dp2749
g25
(ics475_types
FeatureVector
p2750
(dp2751
g28
(dp2752
I33
F1.0
sI2
F27.25
sI3
F1.585
sI4
F1.0
sI5
F1.0
sI8
F1.835
sI10
F1.0
sI11
F12.0
sI12
F1.0
sI13
F1.0
sI14
F583.0
sI15
F713.0
sI16
F1.0
sI36
F1.0
sI27
F1.0
ssbsg30
g0
(g31
g2
Ntp2753
Rp2754
(dp2755
g35
I1
sbsba(ics475_types
Instance
p2756
(dp2757
g25
(ics475_types
FeatureVector
p2758
(dp2759
g28
(dp2760
I33
F1.0
sI2
F64.08
sI3
F20.0
sI4
F1.0
sI5
F1.0
sI39
F1.0
sI8
F17.5
sI10
F1.0
sI11
F9.0
sI12
F1.0
sI13
F1.0
sI15
F1000.0
sI16
F1.0
sI27
F1.0
ssbsg30
g0
(g31
g2
Ntp2761
Rp2762
(dp2763
g35
I1
sbsba(ics475_types
Instance
p2764
(dp2765
g25
(ics475_types
FeatureVector
p2766
(dp2767
g28
(dp2768
I33
F1.0
sI2
F16.08
sI3
F0.75
sI4
F1.0
sI5
F1.0
sI6
F1.0
sI7
F1.0
sI8
F1.75
sI10
F1.0
sI11
F5.0
sI12
F1.0
sI13
F1.0
sI14
F352.0
sI15
F690.0
sI16
F1.0
ssbsg30
g0
(g31
g2
Ntp2769
Rp2770
(dp2771
g35
I1
sbsba(ics475_types
Instance
p2772
(dp2773
g25
(ics475_types
FeatureVector
p2774
(dp2775
g28
(dp2776
I2
F31.58
sI3
F0.75
sI37
F1.0
sI7
F1.0
sI8
F3.5
sI9
F1.0
sI12
F1.0
sI13
F1.0
sI14
F320.0
sI16
F1.0
sI17
F1.0
sI18
F1.0
sI20
F1.0
ssbsg30
g0
(g31
g2
Ntp2777
Rp2778
(dp2779
g35
I0
sbsba(ics475_types
Instance
p2780
(dp2781
g25
(ics475_types
FeatureVector
p2782
(dp2783
g28
(dp2784
I33
F1.0
sI2
F25.17
sI3
F3.5
sI4
F1.0
sI5
F1.0
sI7
F1.0
sI8
F0.625
sI10
F1.0
sI11
F7.0
sI13
F1.0
sI15
F7059.0
sI16
F1.0
sI21
F1.0
sI36
F1.0
ssbsg30
g0
(g31
g2
Ntp2785
Rp2786
(dp2787
g35
I1
sbsba(ics475_types
Instance
p2788
(dp2789
g25
(ics475_types
FeatureVector
p2790
(dp2791
g28
(dp2792
I33
F1.0
sI2
F20.5
sI3
F2.415
sI4
F1.0
sI5
F1.0
sI6
F1.0
sI7
F1.0
sI8
F2.0
sI10
F1.0
sI11
F11.0
sI12
F1.0
sI13
F1.0
sI14
F200.0
sI15
F3000.0
sI16
F1.0
ssbsg30
g0
(g31
g2
Ntp2793
Rp2794
(dp2795
g35
I1
sbsba(ics475_types
Instance
p2796
(dp2797
g25
(ics475_types
FeatureVector
p2798
(dp2799
g28
(dp2800
I32
F1.0
sI1
F1.0
sI2
F28.58
sI3
F3.54
sI4
F1.0
sI5
F1.0
sI33
F1.0
sI8
F0.5
sI12
F1.0
sI13
F1.0
sI14
F171.0
sI20
F1.0
sI25
F1.0
ssbsg30
g0
(g31
g2
Ntp2801
Rp2802
(dp2803
g35
I0
sbsba(ics475_types
Instance
p2804
(dp2805
g25
(ics475_types
FeatureVector
p2806
(dp2807
g28
(dp2808
I2
F16.33
sI3
F4.085
sI4
F1.0
sI5
F1.0
sI8
F0.415
sI9
F1.0
sI12
F1.0
sI13
F1.0
sI14
F120.0
sI16
F1.0
sI20
F1.0
sI25
F1.0
sI27
F1.0
ssbsg30
g0
(g31
g2
Ntp2809
Rp2810
(dp2811
g35
I0
sbsba(ics475_types
Instance
p2812
(dp2813
g25
(ics475_types
FeatureVector
p2814
(dp2815
g28
(dp2816
I2
F22.67
sI3
F0.165
sI4
F1.0
sI5
F1.0
sI6
F1.0
sI8
F2.25
sI9
F1.0
sI12
F1.0
sI16
F1.0
sI20
F1.0
sI22
F1.0
sI29
F1.0
ssbsg30
g0
(g31
g2
Ntp2817
Rp2818
(dp2819
g35
I1
sbsba(ics475_types
Instance
p2820
(dp2821
g25
(ics475_types
FeatureVector
p2822
(dp2823
g28
(dp2824
I2
F18.83
sI4
F1.0
sI5
F1.0
sI7
F1.0
sI8
F0.665
sI9
F1.0
sI13
F1.0
sI14
F160.0
sI15
F1.0
sI16
F1.0
sI20
F1.0
sI21
F1.0
sI30
F1.0
ssbsg30
g0
(g31
g2
Ntp2825
Rp2826
(dp2827
g35
I0
sbsba(ics475_types
Instance
p2828
(dp2829
g25
(ics475_types
FeatureVector
p2830
(dp2831
g28
(dp2832
I1
F1.0
sI2
F16.33
sI3
F0.21
sI4
F1.0
sI5
F1.0
sI7
F1.0
sI8
F0.125
sI9
F1.0
sI13
F1.0
sI14
F200.0
sI15
F1.0
sI20
F1.0
sI21
F1.0
sI37
F1.0
ssbsg30
g0
(g31
g2
Ntp2833
Rp2834
(dp2835
g35
I0
sbsba(ics475_types
Instance
p2836
(dp2837
g25
(ics475_types
FeatureVector
p2838
(dp2839
g28
(dp2840
I1
F1.0
sI2
F64.08
sI3
F0.165
sI4
F1.0
sI5
F1.0
sI33
F1.0
sI10
F1.0
sI11
F1.0
sI13
F1.0
sI14
F232.0
sI15
F100.0
sI21
F1.0
sI23
F1.0
sI24
F1.0
ssbsg30
g0
(g31
g2
Ntp2841
Rp2842
(dp2843
g35
I1
sbsba(ics475_types
Instance
p2844
(dp2845
g25
(ics475_types
FeatureVector
p2846
(dp2847
g28
(dp2848
I1
F1.0
sI2
F37.33
sI3
F2.5
sI4
F1.0
sI5
F1.0
sI8
F0.21
sI9
F1.0
sI13
F1.0
sI14
F260.0
sI15
F246.0
sI20
F1.0
sI21
F1.0
sI25
F1.0
sI27
F1.0
ssbsg30
g0
(g31
g2
Ntp2849
Rp2850
(dp2851
g35
I0
sbsba(ics475_types
Instance
p2852
(dp2853
g25
(ics475_types
FeatureVector
p2854
(dp2855
g28
(dp2856
I33
F1.0
sI2
F32.83
sI3
F2.5
sI4
F1.0
sI5
F1.0
sI8
F2.75
sI10
F1.0
sI11
F6.0
sI13
F1.0
sI14
F160.0
sI15
F2072.0
sI16
F1.0
sI21
F1.0
sI36
F1.0
sI27
F1.0
ssbsg30
g0
(g31
g2
Ntp2857
Rp2858
(dp2859
g35
I1
sbsba(ics475_types
Instance
p2860
(dp2861
g25
(ics475_types
FeatureVector
p2862
(dp2863
g28
(dp2864
I32
F1.0
sI33
F1.0
sI2
F47.67
sI3
F2.5
sI4
F1.0
sI5
F1.0
sI8
F2.5
sI10
F1.0
sI11
F12.0
sI12
F1.0
sI13
F1.0
sI14
F410.0
sI15
F2510.0
sI16
F1.0
sI35
F1.0
ssbsg30
g0
(g31
g2
Ntp2865
Rp2866
(dp2867
g35
I1
sbsba(ics475_types
Instance
p2868
(dp2869
g25
(ics475_types
FeatureVector
p2870
(dp2871
g28
(dp2872
I1
F1.0
sI2
F50.08
sI3
F12.54
sI4
F1.0
sI5
F1.0
sI7
F1.0
sI8
F2.29
sI10
F1.0
sI11
F3.0
sI12
F1.0
sI13
F1.0
sI14
F156.0
sI33
F1.0
sI37
F1.0
ssbsg30
g0
(g31
g2
Ntp2873
Rp2874
(dp2875
g35
I1
sbsba(ics475_types
Instance
p2876
(dp2877
g25
(ics475_types
FeatureVector
p2878
(dp2879
g28
(dp2880
I33
F1.0
sI2
F28.33
sI3
F5.0
sI4
F1.0
sI5
F1.0
sI7
F1.0
sI8
F11.0
sI12
F1.0
sI13
F1.0
sI14
F70.0
sI16
F1.0
sI20
F1.0
sI31
F1.0
ssbsg30
g0
(g31
g2
Ntp2881
Rp2882
(dp2883
g35
I1
sbsba(ics475_types
Instance
p2884
(dp2885
g25
(ics475_types
FeatureVector
p2886
(dp2887
g28
(dp2888
I33
F1.0
sI2
F29.67
sI3
F1.415
sI4
F1.0
sI5
F1.0
sI8
F0.75
sI10
F1.0
sI11
F1.0
sI13
F1.0
sI14
F240.0
sI15
F100.0
sI16
F1.0
sI21
F1.0
sI27
F1.0
sI31
F1.0
ssbsg30
g0
(g31
g2
Ntp2889
Rp2890
(dp2891
g35
I1
sbsba(ics475_types
Instance
p2892
(dp2893
g25
(ics475_types
FeatureVector
p2894
(dp2895
g28
(dp2896
I33
F1.0
sI2
F42.83
sI3
F4.625
sI4
F1.0
sI5
F1.0
sI7
F1.0
sI8
F4.58
sI16
F1.0
sI20
F1.0
sI21
F1.0
sI22
F1.0
sI30
F1.0
ssbsg30
g0
(g31
g2
Ntp2897
Rp2898
(dp2899
g35
I1
sbsba(ics475_types
Instance
p2900
(dp2901
g25
(ics475_types
FeatureVector
p2902
(dp2903
g28
(dp2904
I1
F1.0
sI2
F28.5
sI3
F3.04
sI33
F1.0
sI8
F2.54
sI10
F1.0
sI11
F1.0
sI13
F1.0
sI14
F70.0
sI17
F1.0
sI18
F1.0
sI21
F1.0
sI39
F1.0
sI27
F1.0
ssbsg30
g0
(g31
g2
Ntp2905
Rp2906
(dp2907
g35
I1
sbsba(ics475_types
Instance
p2908
(dp2909
g25
(ics475_types
FeatureVector
p2910
(dp2911
g28
(dp2912
I2
F23.25
sI3
F12.625
sI4
F1.0
sI5
F1.0
sI6
F1.0
sI7
F1.0
sI8
F0.125
sI9
F1.0
sI10
F1.0
sI11
F2.0
sI13
F1.0
sI15
F5552.0
sI16
F1.0
sI21
F1.0
ssbsg30
g0
(g31
g2
Ntp2913
Rp2914
(dp2915
g35
I0
sbsba(ics475_types
Instance
p2916
(dp2917
g25
(ics475_types
FeatureVector
p2918
(dp2919
g28
(dp2920
I2
F47.33
sI3
F6.5
sI4
F1.0
sI5
F1.0
sI6
F1.0
sI7
F1.0
sI8
F1.0
sI9
F1.0
sI12
F1.0
sI13
F1.0
sI15
F228.0
sI16
F1.0
sI20
F1.0
ssbsg30
g0
(g31
g2
Ntp2921
Rp2922
(dp2923
g35
I0
sbsba(ics475_types
Instance
p2924
(dp2925
g25
(ics475_types
FeatureVector
p2926
(dp2927
g28
(dp2928
I2
F16.5
sI3
F0.125
sI4
F1.0
sI5
F1.0
sI6
F1.0
sI7
F1.0
sI8
F0.165
sI9
F1.0
sI13
F1.0
sI14
F132.0
sI16
F1.0
sI20
F1.0
sI21
F1.0
ssbsg30
g0
(g31
g2
Ntp2929
Rp2930
(dp2931
g35
I0
sbsba(ics475_types
Instance
p2932
(dp2933
g25
(ics475_types
FeatureVector
p2934
(dp2935
g28
(dp2936
I2
F33.0
sI3
F2.5
sI7
F1.0
sI8
F7.0
sI9
F1.0
sI12
F1.0
sI13
F1.0
sI14
F280.0
sI16
F1.0
sI17
F1.0
sI18
F1.0
sI20
F1.0
sI31
F1.0
ssbsg30
g0
(g31
g2
Ntp2937
Rp2938
(dp2939
g35
I0
sbsba(ics475_types
Instance
p2940
(dp2941
g25
(ics475_types
FeatureVector
p2942
(dp2943
g28
(dp2944
I33
F1.0
sI2
F27.83
sI3
F1.54
sI4
F1.0
sI5
F1.0
sI7
F1.0
sI8
F3.75
sI10
F1.0
sI11
F5.0
sI12
F1.0
sI13
F1.0
sI14
F100.0
sI15
F3.0
sI16
F1.0
sI31
F1.0
ssbsg30
g0
(g31
g2
Ntp2945
Rp2946
(dp2947
g35
I1
sbsba(ics475_types
Instance
p2948
(dp2949
g25
(ics475_types
FeatureVector
p2950
(dp2951
g28
(dp2952
I2
F21.17
sI3
F0.875
sI6
F1.0
sI8
F0.25
sI9
F1.0
sI13
F1.0
sI14
F280.0
sI15
F204.0
sI16
F1.0
sI17
F1.0
sI18
F1.0
sI20
F1.0
sI21
F1.0
sI27
F1.0
ssbsg30
g0
(g31
g2
Ntp2953
Rp2954
(dp2955
g35
I0
sbsba(ics475_types
Instance
p2956
(dp2957
g25
(ics475_types
FeatureVector
p2958
(dp2959
g28
(dp2960
I33
F1.0
sI2
F22.67
sI3
F2.54
sI6
F1.0
sI8
F2.585
sI13
F1.0
sI16
F1.0
sI17
F1.0
sI18
F1.0
sI20
F1.0
sI21
F1.0
sI27
F1.0
ssbsg30
g0
(g31
g2
Ntp2961
Rp2962
(dp2963
g35
I1
sbsba(ics475_types
Instance
p2964
(dp2965
g25
(ics475_types
FeatureVector
p2966
(dp2967
g28
(dp2968
I2
F19.0
sI9
F1.0
sI10
F1.0
sI11
F4.0
sI13
F1.0
sI14
F45.0
sI15
F1.0
sI16
F1.0
sI17
F1.0
sI18
F1.0
sI21
F1.0
sI23
F1.0
sI24
F1.0
ssbsg30
g0
(g31
g2
Ntp2969
Rp2970
(dp2971
g35
I0
sbsba(ics475_types
Instance
p2972
(dp2973
g25
(ics475_types
FeatureVector
p2974
(dp2975
g28
(dp2976
I33
F1.0
sI2
F39.17
sI3
F1.71
sI4
F1.0
sI5
F1.0
sI7
F1.0
sI8
F0.125
sI10
F1.0
sI11
F5.0
sI12
F1.0
sI13
F1.0
sI14
F480.0
sI16
F1.0
sI39
F1.0
ssbsg30
g0
(g31
g2
Ntp2977
Rp2978
(dp2979
g35
I1
sbsba(ics475_types
Instance
p2980
(dp2981
g25
(ics475_types
FeatureVector
p2982
(dp2983
g28
(dp2984
I2
F19.58
sI3
F0.585
sI4
F1.0
sI5
F1.0
sI9
F1.0
sI10
F1.0
sI11
F3.0
sI13
F1.0
sI14
F350.0
sI15
F769.0
sI16
F1.0
sI21
F1.0
sI23
F1.0
sI24
F1.0
ssbsg30
g0
(g31
g2
Ntp2985
Rp2986
(dp2987
g35
I0
sbsba(ics475_types
Instance
p2988
(dp2989
g25
(ics475_types
FeatureVector
p2990
(dp2991
g28
(dp2992
I33
F1.0
sI2
F42.17
sI3
F5.04
sI4
F1.0
sI5
F1.0
sI8
F12.75
sI12
F1.0
sI13
F1.0
sI14
F92.0
sI16
F1.0
sI20
F1.0
sI27
F1.0
sI30
F1.0
ssbsg30
g0
(g31
g2
Ntp2993
Rp2994
(dp2995
g35
I1
sbsba(ics475_types
Instance
p2996
(dp2997
g25
(ics475_types
FeatureVector
p2998
(dp2999
g28
(dp3000
I33
F1.0
sI2
F54.83
sI3
F15.5
sI4
F1.0
sI5
F1.0
sI41
F1.0
sI10
F1.0
sI11
F20.0
sI13
F1.0
sI14
F152.0
sI15
F130.0
sI16
F1.0
sI21
F1.0
sI42
F1.0
ssbsg30
g0
(g31
g2
Ntp3001
Rp3002
(dp3003
g35
I0
sbsba(ics475_types
Instance
p3004
(dp3005
g25
(ics475_types
FeatureVector
p3006
(dp3007
g28
(dp3008
I1
F1.0
sI2
F36.58
sI3
F0.29
sI4
F1.0
sI5
F1.0
sI9
F1.0
sI10
F1.0
sI11
F10.0
sI13
F1.0
sI14
F200.0
sI15
F18.0
sI21
F1.0
sI23
F1.0
sI24
F1.0
ssbsg30
g0
(g31
g2
Ntp3009
Rp3010
(dp3011
g35
I0
sbsba(ics475_types
Instance
p3012
(dp3013
g25
(ics475_types
FeatureVector
p3014
(dp3015
g28
(dp3016
I2
F18.33
sI3
F1.21
sI9
F1.0
sI43
F1.0
sI13
F1.0
sI14
F100.0
sI16
F1.0
sI17
F1.0
sI18
F1.0
sI20
F1.0
sI21
F1.0
sI41
F1.0
ssbsg30
g0
(g31
g2
Ntp3017
Rp3018
(dp3019
g35
I0
sbsba(ics475_types
Instance
p3020
(dp3021
g25
(ics475_types
FeatureVector
p3022
(dp3023
g28
(dp3024
I2
F34.08
sI3
F2.5
sI4
F1.0
sI5
F1.0
sI6
F1.0
sI7
F1.0
sI8
F1.0
sI9
F1.0
sI13
F1.0
sI14
F460.0
sI15
F16.0
sI16
F1.0
sI20
F1.0
sI21
F1.0
ssbsg30
g0
(g31
g2
Ntp3025
Rp3026
(dp3027
g35
I0
sbsba(ics475_types
Instance
p3028
(dp3029
g25
(ics475_types
FeatureVector
p3030
(dp3031
g28
(dp3032
I2
F25.25
sI3
F1.0
sI4
F1.0
sI5
F1.0
sI7
F1.0
sI8
F0.5
sI9
F1.0
sI13
F1.0
sI14
F200.0
sI16
F1.0
sI20
F1.0
sI21
F1.0
sI37
F1.0
ssbsg30
g0
(g31
g2
Ntp3033
Rp3034
(dp3035
g35
I0
sbsba(ics475_types
Instance
p3036
(dp3037
g25
(ics475_types
FeatureVector
p3038
(dp3039
g28
(dp3040
I33
F1.0
sI2
F39.25
sI3
F9.5
sI4
F1.0
sI5
F1.0
sI7
F1.0
sI8
F6.5
sI10
F1.0
sI11
F14.0
sI13
F1.0
sI14
F240.0
sI15
F4607.0
sI16
F1.0
sI35
F1.0
sI21
F1.0
ssbsg30
g0
(g31
g2
Ntp3041
Rp3042
(dp3043
g35
I1
sbsba(ics475_types
Instance
p3044
(dp3045
g25
(ics475_types
FeatureVector
p3046
(dp3047
g28
(dp3048
I2
F20.0
sI3
F11.045
sI4
F1.0
sI5
F1.0
sI6
F1.0
sI7
F1.0
sI8
F2.0
sI9
F1.0
sI12
F1.0
sI13
F1.0
sI14
F136.0
sI16
F1.0
sI20
F1.0
ssbsg30
g0
(g31
g2
Ntp3049
Rp3050
(dp3051
g35
I0
sbsba(ics475_types
Instance
p3052
(dp3053
g25
(ics475_types
FeatureVector
p3054
(dp3055
g28
(dp3056
I1
F1.0
sI2
F24.5
sI3
F0.5
sI4
F1.0
sI5
F1.0
sI33
F1.0
sI8
F1.5
sI13
F1.0
sI14
F280.0
sI15
F824.0
sI20
F1.0
sI21
F1.0
sI27
F1.0
sI30
F1.0
ssbsg30
g0
(g31
g2
Ntp3057
Rp3058
(dp3059
g35
I1
sbsba(ics475_types
Instance
p3060
(dp3061
g25
(ics475_types
FeatureVector
p3062
(dp3063
g28
(dp3064
I2
F23.75
sI3
F0.415
sI6
F1.0
sI7
F1.0
sI8
F0.04
sI9
F1.0
sI10
F1.0
sI11
F2.0
sI13
F1.0
sI14
F128.0
sI15
F6.0
sI16
F1.0
sI17
F1.0
sI18
F1.0
sI21
F1.0
ssbsg30
g0
(g31
g2
Ntp3065
Rp3066
(dp3067
g35
I0
sbsba(ics475_types
Instance
p3068
(dp3069
g25
(ics475_types
FeatureVector
p3070
(dp3071
g28
(dp3072
I33
F1.0
sI2
F21.33
sI3
F7.5
sI4
F1.0
sI5
F1.0
sI7
F1.0
sI8
F1.415
sI10
F1.0
sI11
F1.0
sI13
F1.0
sI14
F80.0
sI15
F9800.0
sI16
F1.0
sI21
F1.0
sI37
F1.0
ssbsg30
g0
(g31
g2
Ntp3073
Rp3074
(dp3075
g35
I1
sbsba(ics475_types
Instance
p3076
(dp3077
g25
(ics475_types
FeatureVector
p3078
(dp3079
g28
(dp3080
I1
F1.0
sI2
F30.58
sI3
F10.665
sI4
F1.0
sI5
F1.0
sI8
F0.085
sI9
F1.0
sI10
F1.0
sI11
F12.0
sI12
F1.0
sI13
F1.0
sI14
F129.0
sI15
F3.0
sI27
F1.0
sI30
F1.0
ssbsg30
g0
(g31
g2
Ntp3081
Rp3082
(dp3083
g35
I0
sbsba(ics475_types
Instance
p3084
(dp3085
g25
(ics475_types
FeatureVector
p3086
(dp3087
g28
(dp3088
I2
F40.58
sI3
F3.29
sI4
F1.0
sI5
F1.0
sI7
F1.0
sI8
F3.5
sI9
F1.0
sI12
F1.0
sI14
F400.0
sI16
F1.0
sI35
F1.0
sI20
F1.0
sI22
F1.0
ssbsg30
g0
(g31
g2
Ntp3089
Rp3090
(dp3091
g35
I0
sbsba(ics475_types
Instance
p3092
(dp3093
g25
(ics475_types
FeatureVector
p3094
(dp3095
g28
(dp3096
I2
F31.08
sI3
F3.085
sI4
F1.0
sI5
F1.0
sI6
F1.0
sI7
F1.0
sI8
F2.5
sI9
F1.0
sI10
F1.0
sI11
F2.0
sI12
F1.0
sI13
F1.0
sI14
F160.0
sI15
F41.0
sI16
F1.0
ssbsg30
g0
(g31
g2
Ntp3097
Rp3098
(dp3099
g35
I0
sbsba(ics475_types
Instance
p3100
(dp3101
g25
(ics475_types
FeatureVector
p3102
(dp3103
g28
(dp3104
I1
F1.0
sI2
F17.67
sI9
F1.0
sI13
F1.0
sI14
F86.0
sI17
F1.0
sI18
F1.0
sI20
F1.0
sI21
F1.0
sI24
F1.0
sI28
F1.0
ssbsg30
g0
(g31
g2
Ntp3105
Rp3106
(dp3107
g35
I0
sbsba(ics475_types
Instance
p3108
(dp3109
g25
(ics475_types
FeatureVector
p3110
(dp3111
g28
(dp3112
I32
F1.0
sI33
F1.0
sI2
F40.0
sI3
F6.5
sI4
F1.0
sI5
F1.0
sI8
F3.5
sI10
F1.0
sI11
F1.0
sI13
F1.0
sI15
F500.0
sI16
F1.0
sI21
F1.0
sI37
F1.0
ssbsg30
g0
(g31
g2
Ntp3113
Rp3114
(dp3115
g35
I1
sbsba(ics475_types
Instance
p3116
(dp3117
g25
(ics475_types
FeatureVector
p3118
(dp3119
g28
(dp3120
I1
F1.0
sI2
F16.08
sI3
F0.335
sI4
F1.0
sI5
F1.0
sI9
F1.0
sI10
F1.0
sI11
F1.0
sI13
F1.0
sI14
F160.0
sI15
F126.0
sI21
F1.0
sI23
F1.0
sI24
F1.0
ssbsg30
g0
(g31
g2
Ntp3121
Rp3122
(dp3123
g35
I0
sbsba(ics475_types
Instance
p3124
(dp3125
g25
(ics475_types
FeatureVector
p3126
(dp3127
g28
(dp3128
I33
F1.0
sI2
F44.25
sI3
F0.5
sI4
F1.0
sI5
F1.0
sI7
F1.0
sI8
F10.75
sI14
F400.0
sI16
F1.0
sI35
F1.0
sI20
F1.0
sI21
F1.0
sI22
F1.0
ssbsg30
g0
(g31
g2
Ntp3129
Rp3130
(dp3131
g35
I0
sbsba(ics475_types
Instance
p3132
(dp3133
g25
(ics475_types
FeatureVector
p3134
(dp3135
g28
(dp3136
I32
F1.0
sI33
F1.0
sI2
F34.25
sI3
F1.75
sI4
F1.0
sI5
F1.0
sI8
F0.25
sI12
F1.0
sI13
F1.0
sI14
F163.0
sI16
F1.0
sI20
F1.0
sI31
F1.0
ssbsg30
g0
(g31
g2
Ntp3137
Rp3138
(dp3139
g35
I0
sbsba(ics475_types
Instance
p3140
(dp3141
g25
(ics475_types
FeatureVector
p3142
(dp3143
g28
(dp3144
I2
F22.0
sI3
F0.79
sI4
F1.0
sI5
F1.0
sI7
F1.0
sI8
F0.29
sI9
F1.0
sI10
F1.0
sI11
F1.0
sI13
F1.0
sI14
F420.0
sI15
F283.0
sI16
F1.0
sI21
F1.0
sI31
F1.0
ssbsg30
g0
(g31
g2
Ntp3145
Rp3146
(dp3147
g35
I0
sbsba(ics475_types
Instance
p3148
(dp3149
g25
(ics475_types
FeatureVector
p3150
(dp3151
g28
(dp3152
I33
F1.0
sI2
F13.75
sI3
F4.0
sI7
F1.0
sI8
F1.75
sI10
F1.0
sI11
F2.0
sI12
F1.0
sI13
F1.0
sI14
F120.0
sI15
F1000.0
sI16
F1.0
sI17
F1.0
sI18
F1.0
sI31
F1.0
ssbsg30
g0
(g31
g2
Ntp3153
Rp3154
(dp3155
g35
I1
sbsba(ics475_types
Instance
p3156
(dp3157
g25
(ics475_types
FeatureVector
p3158
(dp3159
g28
(dp3160
I2
F19.17
sI3
F4.0
sI7
F1.0
sI8
F1.0
sI9
F1.0
sI12
F1.0
sI13
F1.0
sI14
F360.0
sI15
F1000.0
sI16
F1.0
sI17
F1.0
sI18
F1.0
sI20
F1.0
sI25
F1.0
ssbsg30
g0
(g31
g2
Ntp3161
Rp3162
(dp3163
g35
I0
sbsba(ics475_types
Instance
p3164
(dp3165
g25
(ics475_types
FeatureVector
p3166
(dp3167
g28
(dp3168
I1
F1.0
sI2
F28.58
sI3
F3.75
sI4
F1.0
sI5
F1.0
sI6
F1.0
sI7
F1.0
sI8
F0.25
sI9
F1.0
sI10
F1.0
sI11
F1.0
sI12
F1.0
sI13
F1.0
sI14
F40.0
sI15
F154.0
ssbsg30
g0
(g31
g2
Ntp3169
Rp3170
(dp3171
g35
I0
sbsba(ics475_types
Instance
p3172
(dp3173
g25
(ics475_types
FeatureVector
p3174
(dp3175
g28
(dp3176
I33
F1.0
sI2
F43.25
sI3
F3.0
sI4
F1.0
sI5
F1.0
sI8
F6.0
sI10
F1.0
sI11
F11.0
sI13
F1.0
sI14
F80.0
sI16
F1.0
sI21
F1.0
sI27
F1.0
sI30
F1.0
ssbsg30
g0
(g31
g2
Ntp3177
Rp3178
(dp3179
g35
I1
sbsba(ics475_types
Instance
p3180
(dp3181
g25
(ics475_types
FeatureVector
p3182
(dp3183
g28
(dp3184
I33
F1.0
sI2
F63.33
sI3
F0.54
sI4
F1.0
sI5
F1.0
sI6
F1.0
sI7
F1.0
sI8
F0.585
sI10
F1.0
sI11
F3.0
sI12
F1.0
sI13
F1.0
sI14
F180.0
sI16
F1.0
ssbsg30
g0
(g31
g2
Ntp3185
Rp3186
(dp3187
g35
I0
sbsba(ics475_types
Instance
p3188
(dp3189
g25
(ics475_types
FeatureVector
p3190
(dp3191
g28
(dp3192
I1
F1.0
sI2
F18.92
sI3
F9.0
sI4
F1.0
sI5
F1.0
sI7
F1.0
sI8
F0.75
sI10
F1.0
sI11
F2.0
sI13
F1.0
sI14
F88.0
sI15
F591.0
sI21
F1.0
sI33
F1.0
sI37
F1.0
ssbsg30
g0
(g31
g2
Ntp3193
Rp3194
(dp3195
g35
I1
sbsba(ics475_types
Instance
p3196
(dp3197
g25
(ics475_types
FeatureVector
p3198
(dp3199
g28
(dp3200
I33
F1.0
sI2
F31.67
sI3
F16.165
sI4
F1.0
sI5
F1.0
sI7
F1.0
sI8
F3.0
sI10
F1.0
sI11
F9.0
sI13
F1.0
sI14
F250.0
sI15
F730.0
sI16
F1.0
sI34
F1.0
sI21
F1.0
ssbsg30
g0
(g31
g2
Ntp3201
Rp3202
(dp3203
g35
I1
sbsba(ics475_types
Instance
p3204
(dp3205
g25
(ics475_types
FeatureVector
p3206
(dp3207
g28
(dp3208
I1
F1.0
sI2
F35.17
sI3
F3.75
sI4
F1.0
sI5
F1.0
sI9
F1.0
sI10
F1.0
sI11
F6.0
sI13
F1.0
sI15
F200.0
sI21
F1.0
sI23
F1.0
sI24
F1.0
ssbsg30
g0
(g31
g2
Ntp3209
Rp3210
(dp3211
g35
I0
sbsba(ics475_types
Instance
p3212
(dp3213
g25
(ics475_types
FeatureVector
p3214
(dp3215
g28
(dp3216
I2
F30.75
sI3
F1.585
sI4
F1.0
sI5
F1.0
sI7
F1.0
sI8
F0.585
sI9
F1.0
sI12
F1.0
sI34
F1.0
sI16
F1.0
sI20
F1.0
sI22
F1.0
ssbsg30
g0
(g31
g2
Ntp3217
Rp3218
(dp3219
g35
I0
sbsba(ics475_types
Instance
p3220
(dp3221
g25
(ics475_types
FeatureVector
p3222
(dp3223
g28
(dp3224
I1
F1.0
sI2
F25.25
sI3
F12.5
sI4
F1.0
sI5
F1.0
sI7
F1.0
sI8
F1.0
sI9
F1.0
sI12
F1.0
sI13
F1.0
sI14
F180.0
sI15
F1062.0
sI34
F1.0
sI20
F1.0
ssbsg30
g0
(g31
g2
Ntp3225
Rp3226
(dp3227
g35
I0
sbsba(ics475_types
Instance
p3228
(dp3229
g25
(ics475_types
FeatureVector
p3230
(dp3231
g28
(dp3232
I2
F36.17
sI3
F0.42
sI7
F1.0
sI8
F0.29
sI9
F1.0
sI12
F1.0
sI13
F1.0
sI14
F309.0
sI15
F2.0
sI16
F1.0
sI17
F1.0
sI18
F1.0
sI20
F1.0
sI31
F1.0
ssbsg30
g0
(g31
g2
Ntp3233
Rp3234
(dp3235
g35
I0
sbsba(ics475_types
Instance
p3236
(dp3237
g25
(ics475_types
FeatureVector
p3238
(dp3239
g28
(dp3240
I33
F1.0
sI2
F20.5
sI3
F10.0
sI6
F1.0
sI7
F1.0
sI8
F2.5
sI14
F40.0
sI16
F1.0
sI17
F1.0
sI18
F1.0
sI20
F1.0
sI21
F1.0
sI22
F1.0
ssbsg30
g0
(g31
g2
Ntp3241
Rp3242
(dp3243
g35
I1
sbsba(ics475_types
Instance
p3244
(dp3245
g25
(ics475_types
FeatureVector
p3246
(dp3247
g28
(dp3248
I33
F1.0
sI2
F37.75
sI3
F7.0
sI4
F1.0
sI5
F1.0
sI8
F11.5
sI10
F1.0
sI11
F7.0
sI12
F1.0
sI13
F1.0
sI14
F300.0
sI15
F5.0
sI16
F1.0
sI27
F1.0
sI30
F1.0
ssbsg30
g0
(g31
g2
Ntp3249
Rp3250
(dp3251
g35
I0
sbsba(ics475_types
Instance
p3252
(dp3253
g25
(ics475_types
FeatureVector
p3254
(dp3255
g28
(dp3256
I1
F1.0
sI2
F27.67
sI3
F2.04
sI4
F1.0
sI5
F1.0
sI7
F1.0
sI8
F0.25
sI9
F1.0
sI12
F1.0
sI13
F1.0
sI14
F180.0
sI15
F50.0
sI20
F1.0
sI31
F1.0
ssbsg30
g0
(g31
g2
Ntp3257
Rp3258
(dp3259
g35
I0
sbsba(ics475_types
Instance
p3260
(dp3261
g25
(ics475_types
FeatureVector
p3262
(dp3263
g28
(dp3264
I2
F20.67
sI3
F0.415
sI4
F1.0
sI5
F1.0
sI6
F1.0
sI7
F1.0
sI8
F0.125
sI9
F1.0
sI13
F1.0
sI15
F44.0
sI16
F1.0
sI20
F1.0
sI21
F1.0
ssbsg30
g0
(g31
g2
Ntp3265
Rp3266
(dp3267
g35
I0
sbsba(ics475_types
Instance
p3268
(dp3269
g25
(ics475_types
FeatureVector
p3270
(dp3271
g28
(dp3272
I2
F32.33
sI3
F3.5
sI4
F1.0
sI5
F1.0
sI7
F1.0
sI8
F0.5
sI9
F1.0
sI12
F1.0
sI13
F1.0
sI14
F232.0
sI16
F1.0
sI19
F1.0
sI20
F1.0
ssbsg30
g0
(g31
g2
Ntp3273
Rp3274
(dp3275
g35
I0
sbsba(ics475_types
Instance
p3276
(dp3277
g25
(ics475_types
FeatureVector
p3278
(dp3279
g28
(dp3280
I2
F22.25
sI3
F0.46
sI4
F1.0
sI5
F1.0
sI7
F1.0
sI8
F0.125
sI9
F1.0
sI12
F1.0
sI13
F1.0
sI14
F280.0
sI15
F55.0
sI16
F1.0
sI19
F1.0
sI20
F1.0
ssbsg30
g0
(g31
g2
Ntp3281
Rp3282
(dp3283
g35
I0
sbsba(ics475_types
Instance
p3284
(dp3285
g25
(ics475_types
FeatureVector
p3286
(dp3287
g28
(dp3288
I32
F1.0
sI1
F1.0
sI2
F21.25
sI3
F2.335
sI4
F1.0
sI5
F1.0
sI33
F1.0
sI8
F0.5
sI10
F1.0
sI11
F4.0
sI14
F80.0
sI21
F1.0
sI22
F1.0
sI25
F1.0
ssbsg30
g0
(g31
g2
Ntp3289
Rp3290
(dp3291
g35
I1
sbsba(ics475_types
Instance
p3292
(dp3293
g25
(ics475_types
FeatureVector
p3294
(dp3295
g28
(dp3296
I33
F1.0
sI2
F25.0
sI3
F12.0
sI4
F1.0
sI5
F1.0
sI7
F1.0
sI8
F2.25
sI10
F1.0
sI11
F2.0
sI12
F1.0
sI13
F1.0
sI14
F120.0
sI15
F5.0
sI16
F1.0
sI19
F1.0
ssbsg30
g0
(g31
g2
Ntp3297
Rp3298
(dp3299
g35
I0
sbsba(ics475_types
Instance
p3300
(dp3301
g25
(ics475_types
FeatureVector
p3302
(dp3303
g28
(dp3304
I33
F1.0
sI2
F38.67
sI3
F0.21
sI4
F1.0
sI5
F1.0
sI7
F1.0
sI8
F0.085
sI12
F1.0
sI13
F1.0
sI14
F280.0
sI16
F1.0
sI19
F1.0
sI20
F1.0
ssbsg30
g0
(g31
g2
Ntp3305
Rp3306
(dp3307
g35
I1
sbsba(ics475_types
Instance
p3308
(dp3309
g25
(ics475_types
FeatureVector
p3310
(dp3311
g28
(dp3312
I33
F1.0
sI2
F56.0
sI3
F12.5
sI4
F1.0
sI5
F1.0
sI8
F8.0
sI12
F1.0
sI13
F1.0
sI14
F24.0
sI15
F2028.0
sI16
F1.0
sI19
F1.0
sI20
F1.0
sI27
F1.0
ssbsg30
g0
(g31
g2
Ntp3313
Rp3314
(dp3315
g35
I1
sbsba(ics475_types
Instance
p3316
(dp3317
g25
(ics475_types
FeatureVector
p3318
(dp3319
g28
(dp3320
I1
F1.0
sI2
F19.58
sI3
F0.665
sI4
F1.0
sI5
F1.0
sI7
F1.0
sI8
F1.665
sI9
F1.0
sI13
F1.0
sI14
F220.0
sI15
F5.0
sI20
F1.0
sI21
F1.0
sI31
F1.0
ssbsg30
g0
(g31
g2
Ntp3321
Rp3322
(dp3323
g35
I0
sbsba(ics475_types
Instance
p3324
(dp3325
g25
(ics475_types
FeatureVector
p3326
(dp3327
g28
(dp3328
I2
F29.83
sI3
F3.5
sI4
F1.0
sI5
F1.0
sI6
F1.0
sI7
F1.0
sI8
F0.165
sI9
F1.0
sI13
F1.0
sI14
F216.0
sI16
F1.0
sI20
F1.0
sI21
F1.0
ssbsg30
g0
(g31
g2
Ntp3329
Rp3330
(dp3331
g35
I0
sbsba(ics475_types
Instance
p3332
(dp3333
g25
(ics475_types
FeatureVector
p3334
(dp3335
g28
(dp3336
I33
F1.0
sI2
F23.08
sI3
F2.5
sI4
F1.0
sI5
F1.0
sI6
F1.0
sI7
F1.0
sI8
F1.085
sI10
F1.0
sI11
F11.0
sI12
F1.0
sI13
F1.0
sI14
F60.0
sI15
F2184.0
sI16
F1.0
ssbsg30
g0
(g31
g2
Ntp3337
Rp3338
(dp3339
g35
I1
sbsba(ics475_types
Instance
p3340
(dp3341
g25
(ics475_types
FeatureVector
p3342
(dp3343
g28
(dp3344
I1
F1.0
sI2
F38.92
sI3
F1.665
sI4
F1.0
sI5
F1.0
sI7
F1.0
sI8
F0.25
sI9
F1.0
sI13
F1.0
sI15
F390.0
sI20
F1.0
sI21
F1.0
sI37
F1.0
ssbsg30
g0
(g31
g2
Ntp3345
Rp3346
(dp3347
g35
I0
sbsba(ics475_types
Instance
p3348
(dp3349
g25
(ics475_types
FeatureVector
p3350
(dp3351
g28
(dp3352
I2
F39.17
sI3
F2.5
sI8
F10.0
sI9
F1.0
sI12
F1.0
sI14
F200.0
sI16
F1.0
sI17
F1.0
sI18
F1.0
sI20
F1.0
sI22
F1.0
sI25
F1.0
sI27
F1.0
ssbsg30
g0
(g31
g2
Ntp3353
Rp3354
(dp3355
g35
I0
sbsba(ics475_types
Instance
p3356
(dp3357
g25
(ics475_types
FeatureVector
p3358
(dp3359
g28
(dp3360
I2
F29.42
sI3
F1.25
sI4
F1.0
sI5
F1.0
sI6
F1.0
sI8
F0.25
sI9
F1.0
sI10
F1.0
sI11
F2.0
sI12
F1.0
sI13
F1.0
sI14
F400.0
sI15
F108.0
sI16
F1.0
sI27
F1.0
ssbsg30
g0
(g31
g2
Ntp3361
Rp3362
(dp3363
g35
I0
sbsba(ics475_types
Instance
p3364
(dp3365
g25
(ics475_types
FeatureVector
p3366
(dp3367
g28
(dp3368
I2
F23.08
sI4
F1.0
sI5
F1.0
sI7
F1.0
sI8
F1.0
sI9
F1.0
sI10
F1.0
sI11
F11.0
sI16
F1.0
sI19
F1.0
sI21
F1.0
sI22
F1.0
ssbsg30
g0
(g31
g2
Ntp3369
Rp3370
(dp3371
g35
I0
sbsba(ics475_types
Instance
p3372
(dp3373
g25
(ics475_types
FeatureVector
p3374
(dp3375
g28
(dp3376
I33
F1.0
sI2
F22.08
sI3
F11.0
sI4
F1.0
sI5
F1.0
sI7
F1.0
sI8
F0.665
sI13
F1.0
sI14
F100.0
sI16
F1.0
sI20
F1.0
sI21
F1.0
sI36
F1.0
ssbsg30
g0
(g31
g2
Ntp3377
Rp3378
(dp3379
g35
I1
sbsba(ics475_types
Instance
p3380
(dp3381
g25
(ics475_types
FeatureVector
p3382
(dp3383
g28
(dp3384
I33
F1.0
sI2
F21.67
sI3
F1.165
sI7
F1.0
sI8
F2.5
sI10
F1.0
sI11
F1.0
sI13
F1.0
sI14
F180.0
sI15
F20.0
sI16
F1.0
sI17
F1.0
sI18
F1.0
sI19
F1.0
sI21
F1.0
ssbsg30
g0
(g31
g2
Ntp3385
Rp3386
(dp3387
g35
I0
sbsba(ics475_types
Instance
p3388
(dp3389
g25
(ics475_types
FeatureVector
p3390
(dp3391
g28
(dp3392
I33
F1.0
sI2
F23.25
sI3
F1.5
sI4
F1.0
sI5
F1.0
sI7
F1.0
sI8
F2.375
sI10
F1.0
sI11
F3.0
sI12
F1.0
sI13
F1.0
sI15
F582.0
sI16
F1.0
sI30
F1.0
ssbsg30
g0
(g31
g2
Ntp3393
Rp3394
(dp3395
g35
I1
sbsba(ics475_types
Instance
p3396
(dp3397
g25
(ics475_types
FeatureVector
p3398
(dp3399
g28
(dp3400
I1
F1.0
sI2
F40.83
sI3
F10.0
sI4
F1.0
sI5
F1.0
sI33
F1.0
sI8
F1.75
sI13
F1.0
sI14
F29.0
sI15
F837.0
sI20
F1.0
sI21
F1.0
sI27
F1.0
sI30
F1.0
ssbsg30
g0
(g31
g2
Ntp3401
Rp3402
(dp3403
g35
I1
sbsba(ics475_types
Instance
p3404
(dp3405
g25
(ics475_types
FeatureVector
p3406
(dp3407
g28
(dp3408
I33
F1.0
sI2
F27.25
sI3
F0.625
sI4
F1.0
sI5
F1.0
sI7
F1.0
sI8
F0.455
sI12
F1.0
sI13
F1.0
sI14
F200.0
sI16
F1.0
sI20
F1.0
sI37
F1.0
ssbsg30
g0
(g31
g2
Ntp3409
Rp3410
(dp3411
g35
I0
sbsba(ics475_types
Instance
p3412
(dp3413
g25
(ics475_types
FeatureVector
p3414
(dp3415
g28
(dp3416
I1
F1.0
sI2
F21.75
sI3
F11.75
sI4
F1.0
sI5
F1.0
sI6
F1.0
sI7
F1.0
sI8
F0.25
sI9
F1.0
sI12
F1.0
sI13
F1.0
sI14
F180.0
sI20
F1.0
ssbsg30
g0
(g31
g2
Ntp3417
Rp3418
(dp3419
g35
I0
sbsba(ics475_types
Instance
p3420
(dp3421
g25
(ics475_types
FeatureVector
p3422
(dp3423
g28
(dp3424
I1
F1.0
sI2
F21.92
sI3
F11.665
sI4
F1.0
sI5
F1.0
sI8
F0.085
sI9
F1.0
sI13
F1.0
sI14
F320.0
sI15
F5.0
sI19
F1.0
sI20
F1.0
sI21
F1.0
sI27
F1.0
ssbsg30
g0
(g31
g2
Ntp3425
Rp3426
(dp3427
g35
I0
sbsba(ics475_types
Instance
p3428
(dp3429
g25
(ics475_types
FeatureVector
p3430
(dp3431
g28
(dp3432
I1
F1.0
sI2
F31.92
sI3
F3.125
sI4
F1.0
sI5
F1.0
sI8
F3.04
sI9
F1.0
sI10
F1.0
sI11
F2.0
sI12
F1.0
sI13
F1.0
sI14
F200.0
sI15
F4.0
sI23
F1.0
sI24
F1.0
ssbsg30
g0
(g31
g2
Ntp3433
Rp3434
(dp3435
g35
I0
sbsba(ics475_types
Instance
p3436
(dp3437
g25
(ics475_types
FeatureVector
p3438
(dp3439
g28
(dp3440
I33
F1.0
sI2
F29.92
sI3
F1.835
sI4
F1.0
sI5
F1.0
sI6
F1.0
sI8
F4.335
sI13
F1.0
sI14
F260.0
sI15
F200.0
sI16
F1.0
sI20
F1.0
sI21
F1.0
sI27
F1.0
ssbsg30
g0
(g31
g2
Ntp3441
Rp3442
(dp3443
g35
I1
sbsba(ics475_types
Instance
p3444
(dp3445
g25
(ics475_types
FeatureVector
p3446
(dp3447
g28
(dp3448
I1
F1.0
sI2
F21.75
sI3
F1.75
sI9
F1.0
sI13
F1.0
sI14
F160.0
sI17
F1.0
sI18
F1.0
sI20
F1.0
sI21
F1.0
sI28
F1.0
sI29
F1.0
ssbsg30
g0
(g31
g2
Ntp3449
Rp3450
(dp3451
g35
I0
sbsba(ics475_types
Instance
p3452
(dp3453
g25
(ics475_types
FeatureVector
p3454
(dp3455
g28
(dp3456
I2
F37.33
sI3
F2.665
sI4
F1.0
sI5
F1.0
sI7
F1.0
sI8
F0.165
sI9
F1.0
sI12
F1.0
sI13
F1.0
sI15
F501.0
sI16
F1.0
sI20
F1.0
sI36
F1.0
ssbsg30
g0
(g31
g2
Ntp3457
Rp3458
(dp3459
g35
I0
sbsba(ics475_types
Instance
p3460
(dp3461
g25
(ics475_types
FeatureVector
p3462
(dp3463
g28
(dp3464
I1
F1.0
sI2
F47.75
sI3
F8.0
sI4
F1.0
sI5
F1.0
sI6
F1.0
sI7
F1.0
sI8
F7.875
sI10
F1.0
sI11
F6.0
sI12
F1.0
sI13
F1.0
sI15
F1260.0
sI33
F1.0
ssbsg30
g0
(g31
g2
Ntp3465
Rp3466
(dp3467
g35
I1
sbsba(ics475_types
Instance
p3468
(dp3469
g25
(ics475_types
FeatureVector
p3470
(dp3471
g28
(dp3472
I1
F1.0
sI2
F22.5
sI3
F11.0
sI33
F1.0
sI7
F1.0
sI8
F3.0
sI12
F1.0
sI13
F1.0
sI14
F268.0
sI17
F1.0
sI18
F1.0
sI20
F1.0
sI30
F1.0
ssbsg30
g0
(g31
g2
Ntp3473
Rp3474
(dp3475
g35
I0
sbsba(ics475_types
Instance
p3476
(dp3477
g25
(ics475_types
FeatureVector
p3478
(dp3479
g28
(dp3480
I2
F29.5
sI3
F0.58
sI4
F1.0
sI5
F1.0
sI7
F1.0
sI8
F0.29
sI9
F1.0
sI10
F1.0
sI11
F1.0
sI13
F1.0
sI14
F340.0
sI15
F2803.0
sI16
F1.0
sI21
F1.0
sI31
F1.0
ssbsg30
g0
(g31
g2
Ntp3481
Rp3482
(dp3483
g35
I0
sbsba(ics475_types
Instance
p3484
(dp3485
g25
(ics475_types
FeatureVector
p3486
(dp3487
g28
(dp3488
I32
F1.0
sI33
F1.0
sI2
F51.33
sI3
F10.0
sI4
F1.0
sI5
F1.0
sI10
F1.0
sI11
F11.0
sI13
F1.0
sI15
F1249.0
sI16
F1.0
sI21
F1.0
sI25
F1.0
ssbsg30
g0
(g31
g2
Ntp3489
Rp3490
(dp3491
g35
I1
sbsba(ics475_types
Instance
p3492
(dp3493
g25
(ics475_types
FeatureVector
p3494
(dp3495
g28
(dp3496
I2
F24.08
sI3
F0.875
sI4
F1.0
sI5
F1.0
sI7
F1.0
sI8
F0.085
sI9
F1.0
sI10
F1.0
sI11
F4.0
sI13
F1.0
sI14
F254.0
sI15
F1950.0
sI16
F1.0
sI35
F1.0
sI21
F1.0
ssbsg30
g0
(g31
g2
Ntp3497
Rp3498
(dp3499
g35
I0
sbsba(ics475_types
Instance
p3500
(dp3501
g25
(ics475_types
FeatureVector
p3502
(dp3503
g28
(dp3504
I32
F1.0
sI2
F47.83
sI3
F4.165
sI4
F1.0
sI5
F1.0
sI39
F1.0
sI8
F0.085
sI9
F1.0
sI12
F1.0
sI13
F1.0
sI14
F520.0
sI16
F1.0
sI20
F1.0
ssbsg30
g0
(g31
g2
Ntp3505
Rp3506
(dp3507
g35
I0
sbsba(ics475_types
Instance
p3508
(dp3509
g25
(ics475_types
FeatureVector
p3510
(dp3511
g28
(dp3512
I2
F18.25
sI3
F0.165
sI4
F1.0
sI5
F1.0
sI7
F1.0
sI8
F0.25
sI9
F1.0
sI12
F1.0
sI34
F1.0
sI14
F280.0
sI16
F1.0
sI20
F1.0
sI22
F1.0
ssbsg30
g0
(g31
g2
Ntp3513
Rp3514
(dp3515
g35
I0
sbsba(ics475_types
Instance
p3516
(dp3517
g25
(ics475_types
FeatureVector
p3518
(dp3519
g28
(dp3520
I33
F1.0
sI2
F48.75
sI3
F26.335
sI12
F1.0
sI13
F1.0
sI16
F1.0
sI17
F1.0
sI18
F1.0
sI20
F1.0
sI23
F1.0
sI24
F1.0
ssbsg30
g0
(g31
g2
Ntp3521
Rp3522
(dp3523
g35
I0
sbsba(ics475_types
Instance
p3524
(dp3525
g25
(ics475_types
FeatureVector
p3526
(dp3527
g28
(dp3528
I33
F1.0
sI2
F34.75
sI3
F15.0
sI4
F1.0
sI5
F1.0
sI38
F1.0
sI8
F5.375
sI10
F1.0
sI11
F9.0
sI12
F1.0
sI13
F1.0
sI15
F134.0
sI16
F1.0
sI40
F1.0
ssbsg30
g0
(g31
g2
Ntp3529
Rp3530
(dp3531
g35
I1
sbsba(ics475_types
Instance
p3532
(dp3533
g25
(ics475_types
FeatureVector
p3534
(dp3535
g28
(dp3536
I1
F1.0
sI2
F18.83
sI3
F4.415
sI6
F1.0
sI33
F1.0
sI8
F3.0
sI13
F1.0
sI14
F240.0
sI17
F1.0
sI18
F1.0
sI20
F1.0
sI21
F1.0
sI27
F1.0
ssbsg30
g0
(g31
g2
Ntp3537
Rp3538
(dp3539
g35
I1
sbsba(ics475_types
Instance
p3540
(dp3541
g25
(ics475_types
FeatureVector
p3542
(dp3543
g28
(dp3544
I2
F21.25
sI3
F1.5
sI4
F1.0
sI5
F1.0
sI7
F1.0
sI8
F1.5
sI9
F1.0
sI13
F1.0
sI14
F150.0
sI15
F8.0
sI16
F1.0
sI20
F1.0
sI21
F1.0
sI31
F1.0
ssbsg30
g0
(g31
g2
Ntp3545
Rp3546
(dp3547
g35
I1
sbsba(ics475_types
Instance
p3548
(dp3549
g25
(ics475_types
FeatureVector
p3550
(dp3551
g28
(dp3552
I33
F1.0
sI2
F48.58
sI3
F6.5
sI4
F1.0
sI5
F1.0
sI8
F6.0
sI12
F1.0
sI13
F1.0
sI14
F350.0
sI16
F1.0
sI20
F1.0
sI27
F1.0
sI30
F1.0
ssbsg30
g0
(g31
g2
Ntp3553
Rp3554
(dp3555
g35
I1
sbsba(ics475_types
Instance
p3556
(dp3557
g25
(ics475_types
FeatureVector
p3558
(dp3559
g28
(dp3560
I32
F1.0
sI33
F1.0
sI2
F25.75
sI3
F0.75
sI4
F1.0
sI5
F1.0
sI6
F1.0
sI8
F0.25
sI13
F1.0
sI14
F349.0
sI15
F23.0
sI16
F1.0
sI20
F1.0
sI21
F1.0
ssbsg30
g0
(g31
g2
Ntp3561
Rp3562
(dp3563
g35
I1
sbsba(ics475_types
Instance
p3564
(dp3565
g25
(ics475_types
FeatureVector
p3566
(dp3567
g28
(dp3568
I1
F1.0
sI2
F46.08
sI3
F3.0
sI4
F1.0
sI5
F1.0
sI6
F1.0
sI7
F1.0
sI8
F2.375
sI10
F1.0
sI11
F8.0
sI12
F1.0
sI13
F1.0
sI14
F396.0
sI15
F4159.0
sI33
F1.0
ssbsg30
g0
(g31
g2
Ntp3569
Rp3570
(dp3571
g35
I1
sbsba(ics475_types
Instance
p3572
(dp3573
g25
(ics475_types
FeatureVector
p3574
(dp3575
g28
(dp3576
I2
F30.33
sI3
F0.5
sI4
F1.0
sI5
F1.0
sI8
F0.085
sI9
F1.0
sI12
F1.0
sI34
F1.0
sI14
F252.0
sI16
F1.0
sI20
F1.0
sI22
F1.0
sI27
F1.0
ssbsg30
g0
(g31
g2
Ntp3577
Rp3578
(dp3579
g35
I0
sbsba(ics475_types
Instance
p3580
(dp3581
g25
(ics475_types
FeatureVector
p3582
(dp3583
g28
(dp3584
I33
F1.0
sI2
F34.0
sI3
F4.5
sI4
F1.0
sI5
F1.0
sI7
F1.0
sI8
F1.0
sI12
F1.0
sI13
F1.0
sI14
F240.0
sI16
F1.0
sI20
F1.0
sI37
F1.0
ssbsg30
g0
(g31
g2
Ntp3585
Rp3586
(dp3587
g35
I0
sbsba(ics475_types
Instance
p3588
(dp3589
g25
(ics475_types
FeatureVector
p3590
(dp3591
g28
(dp3592
I33
F1.0
sI2
F24.58
sI3
F12.5
sI4
F1.0
sI5
F1.0
sI7
F1.0
sI8
F0.875
sI12
F1.0
sI13
F1.0
sI14
F260.0
sI16
F1.0
sI20
F1.0
sI31
F1.0
ssbsg30
g0
(g31
g2
Ntp3593
Rp3594
(dp3595
g35
I0
sbsba(ics475_types
Instance
p3596
(dp3597
g25
(ics475_types
FeatureVector
p3598
(dp3599
g28
(dp3600
I2
F32.33
sI3
F2.5
sI4
F1.0
sI5
F1.0
sI6
F1.0
sI7
F1.0
sI8
F1.25
sI9
F1.0
sI12
F1.0
sI13
F1.0
sI14
F280.0
sI16
F1.0
sI20
F1.0
ssbsg30
g0
(g31
g2
Ntp3601
Rp3602
(dp3603
g35
I0
sbsba(ics475_types
Instance
p3604
(dp3605
g25
(ics475_types
FeatureVector
p3606
(dp3607
g28
(dp3608
I33
F1.0
sI2
F20.42
sI3
F1.835
sI4
F1.0
sI5
F1.0
sI6
F1.0
sI7
F1.0
sI8
F2.25
sI10
F1.0
sI11
F1.0
sI13
F1.0
sI14
F100.0
sI15
F150.0
sI16
F1.0
sI21
F1.0
ssbsg30
g0
(g31
g2
Ntp3609
Rp3610
(dp3611
g35
I1
sbsba(ics475_types
Instance
p3612
(dp3613
g25
(ics475_types
FeatureVector
p3614
(dp3615
g28
(dp3616
I33
F1.0
sI2
F29.17
sI3
F3.5
sI4
F1.0
sI5
F1.0
sI7
F1.0
sI8
F3.5
sI10
F1.0
sI11
F3.0
sI12
F1.0
sI13
F1.0
sI14
F329.0
sI16
F1.0
sI31
F1.0
ssbsg30
g0
(g31
g2
Ntp3617
Rp3618
(dp3619
g35
I0
sbsba(ics475_types
Instance
p3620
(dp3621
g25
(ics475_types
FeatureVector
p3622
(dp3623
g28
(dp3624
I2
F51.83
sI3
F3.0
sI8
F1.5
sI9
F1.0
sI13
F1.0
sI14
F180.0
sI15
F4.0
sI16
F1.0
sI17
F1.0
sI18
F1.0
sI20
F1.0
sI21
F1.0
sI23
F1.0
sI24
F1.0
ssbsg30
g0
(g31
g2
Ntp3625
Rp3626
(dp3627
g35
I0
sbsba(ics475_types
Instance
p3628
(dp3629
g25
(ics475_types
FeatureVector
p3630
(dp3631
g28
(dp3632
I1
F1.0
sI2
F29.5
sI3
F0.46
sI4
F1.0
sI5
F1.0
sI7
F1.0
sI8
F0.54
sI10
F1.0
sI11
F4.0
sI13
F1.0
sI14
F380.0
sI15
F500.0
sI19
F1.0
sI21
F1.0
sI33
F1.0
ssbsg30
g0
(g31
g2
Ntp3633
Rp3634
(dp3635
g35
I1
sbsba(ics475_types
Instance
p3636
(dp3637
g25
(ics475_types
FeatureVector
p3638
(dp3639
g28
(dp3640
I2
F33.58
sI3
F0.335
sI36
F1.0
sI7
F1.0
sI8
F0.085
sI9
F1.0
sI13
F1.0
sI14
F180.0
sI16
F1.0
sI17
F1.0
sI18
F1.0
sI20
F1.0
sI21
F1.0
ssbsg30
g0
(g31
g2
Ntp3641
Rp3642
(dp3643
g35
I0
sbsba(ics475_types
Instance
p3644
(dp3645
g25
(ics475_types
FeatureVector
p3646
(dp3647
g28
(dp3648
I1
F1.0
sI2
F45.83
sI3
F10.5
sI4
F1.0
sI5
F1.0
sI7
F1.0
sI8
F5.0
sI10
F1.0
sI11
F7.0
sI12
F1.0
sI13
F1.0
sI33
F1.0
sI30
F1.0
ssbsg30
g0
(g31
g2
Ntp3649
Rp3650
(dp3651
g35
I1
sbsba(ics475_types
Instance
p3652
(dp3653
g25
(ics475_types
FeatureVector
p3654
(dp3655
g28
(dp3656
I2
F48.08
sI3
F6.04
sI4
F1.0
sI5
F1.0
sI7
F1.0
sI8
F0.04
sI9
F1.0
sI13
F1.0
sI15
F2690.0
sI16
F1.0
sI19
F1.0
sI20
F1.0
sI21
F1.0
ssbsg30
g0
(g31
g2
Ntp3657
Rp3658
(dp3659
g35
I1
sbsba(ics475_types
Instance
p3660
(dp3661
g25
(ics475_types
FeatureVector
p3662
(dp3663
g28
(dp3664
I32
F1.0
sI2
F33.58
sI3
F0.25
sI4
F1.0
sI5
F1.0
sI8
F4.0
sI9
F1.0
sI12
F1.0
sI14
F420.0
sI16
F1.0
sI20
F1.0
sI22
F1.0
sI25
F1.0
ssbsg30
g0
(g31
g2
Ntp3665
Rp3666
(dp3667
g35
I0
sbsba(ics475_types
Instance
p3668
(dp3669
g25
(ics475_types
FeatureVector
p3670
(dp3671
g28
(dp3672
I32
F1.0
sI2
F34.42
sI3
F1.335
sI4
F1.0
sI5
F1.0
sI8
F0.125
sI9
F1.0
sI12
F1.0
sI13
F1.0
sI14
F440.0
sI15
F4500.0
sI16
F1.0
sI20
F1.0
sI25
F1.0
ssbsg30
g0
(g31
g2
Ntp3673
Rp3674
(dp3675
g35
I0
sbsba(ics475_types
Instance
p3676
(dp3677
g25
(ics475_types
FeatureVector
p3678
(dp3679
g28
(dp3680
I2
F22.5
sI3
F0.125
sI7
F1.0
sI8
F0.125
sI9
F1.0
sI13
F1.0
sI14
F200.0
sI15
F70.0
sI16
F1.0
sI17
F1.0
sI18
F1.0
sI19
F1.0
sI20
F1.0
sI21
F1.0
ssbsg30
g0
(g31
g2
Ntp3681
Rp3682
(dp3683
g35
I0
sbsba(ics475_types
Instance
p3684
(dp3685
g25
(ics475_types
FeatureVector
p3686
(dp3687
g28
(dp3688
I1
F1.0
sI2
F68.67
sI3
F15.0
sI4
F1.0
sI5
F1.0
sI33
F1.0
sI41
F1.0
sI10
F1.0
sI11
F14.0
sI13
F1.0
sI15
F3376.0
sI21
F1.0
sI42
F1.0
ssbsg30
g0
(g31
g2
Ntp3689
Rp3690
(dp3691
g35
I1
sbsba(ics475_types
Instance
p3692
(dp3693
g25
(ics475_types
FeatureVector
p3694
(dp3695
g28
(dp3696
I1
F1.0
sI2
F30.25
sI3
F5.5
sI4
F1.0
sI5
F1.0
sI7
F1.0
sI8
F5.5
sI9
F1.0
sI12
F1.0
sI14
F100.0
sI19
F1.0
sI20
F1.0
sI22
F1.0
ssbsg30
g0
(g31
g2
Ntp3697
Rp3698
(dp3699
g35
I0
sbsba(ics475_types
Instance
p3700
(dp3701
g25
(ics475_types
FeatureVector
p3702
(dp3703
g28
(dp3704
I32
F1.0
sI2
F19.17
sI35
F1.0
sI9
F1.0
sI12
F1.0
sI14
F500.0
sI15
F1.0
sI16
F1.0
sI17
F1.0
sI18
F1.0
sI20
F1.0
sI22
F1.0
ssbsg30
g0
(g31
g2
Ntp3705
Rp3706
(dp3707
g35
I1
sbsba(ics475_types
Instance
p3708
(dp3709
g25
(ics475_types
FeatureVector
p3710
(dp3711
g28
(dp3712
I33
F1.0
sI2
F28.25
sI3
F5.125
sI4
F1.0
sI5
F1.0
sI7
F1.0
sI8
F4.75
sI10
F1.0
sI11
F2.0
sI13
F1.0
sI14
F420.0
sI15
F7.0
sI16
F1.0
sI21
F1.0
sI39
F1.0
ssbsg30
g0
(g31
g2
Ntp3713
Rp3714
(dp3715
g35
I1
sbsba(ics475_types
Instance
p3716
(dp3717
g25
(ics475_types
FeatureVector
p3718
(dp3719
g28
(dp3720
I33
F1.0
sI2
F23.92
sI3
F1.5
sI4
F1.0
sI5
F1.0
sI8
F1.875
sI10
F1.0
sI11
F6.0
sI13
F1.0
sI14
F200.0
sI15
F327.0
sI16
F1.0
sI34
F1.0
sI21
F1.0
sI27
F1.0
ssbsg30
g0
(g31
g2
Ntp3721
Rp3722
(dp3723
g35
I1
sbsba(ics475_types
Instance
p3724
(dp3725
g25
(ics475_types
FeatureVector
p3726
(dp3727
g28
(dp3728
I2
F25.58
sI3
F0.335
sI4
F1.0
sI5
F1.0
sI8
F3.5
sI9
F1.0
sI12
F1.0
sI13
F1.0
sI14
F340.0
sI16
F1.0
sI19
F1.0
sI20
F1.0
sI27
F1.0
ssbsg30
g0
(g31
g2
Ntp3729
Rp3730
(dp3731
g35
I0
sbsba(ics475_types
Instance
p3732
(dp3733
g25
(ics475_types
FeatureVector
p3734
(dp3735
g28
(dp3736
I33
F1.0
sI2
F51.42
sI3
F0.04
sI4
F1.0
sI5
F1.0
sI39
F1.0
sI8
F0.04
sI13
F1.0
sI15
F3000.0
sI16
F1.0
sI20
F1.0
sI21
F1.0
sI27
F1.0
ssbsg30
g0
(g31
g2
Ntp3737
Rp3738
(dp3739
g35
I1
sbsba(ics475_types
Instance
p3740
(dp3741
g25
(ics475_types
FeatureVector
p3742
(dp3743
g28
(dp3744
I1
F1.0
sI2
F23.58
sI3
F0.585
sI8
F0.125
sI9
F1.0
sI13
F1.0
sI14
F120.0
sI15
F87.0
sI17
F1.0
sI18
F1.0
sI20
F1.0
sI21
F1.0
sI23
F1.0
sI24
F1.0
ssbsg30
g0
(g31
g2
Ntp3745
Rp3746
(dp3747
g35
I0
sbsba(ics475_types
Instance
p3748
(dp3749
g25
(ics475_types
FeatureVector
p3750
(dp3751
g28
(dp3752
I33
F1.0
sI2
F36.67
sI3
F4.415
sI7
F1.0
sI8
F0.25
sI10
F1.0
sI11
F10.0
sI12
F1.0
sI13
F1.0
sI14
F320.0
sI16
F1.0
sI17
F1.0
sI18
F1.0
sI19
F1.0
ssbsg30
g0
(g31
g2
Ntp3753
Rp3754
(dp3755
g35
I1
sbsba(ics475_types
Instance
p3756
(dp3757
g25
(ics475_types
FeatureVector
p3758
(dp3759
g28
(dp3760
I2
F30.17
sI3
F1.085
sI6
F1.0
sI7
F1.0
sI8
F0.04
sI9
F1.0
sI13
F1.0
sI14
F170.0
sI15
F179.0
sI16
F1.0
sI17
F1.0
sI18
F1.0
sI20
F1.0
sI21
F1.0
ssbsg30
g0
(g31
g2
Ntp3761
Rp3762
(dp3763
g35
I0
sbsba(ics475_types
Instance
p3764
(dp3765
g25
(ics475_types
FeatureVector
p3766
(dp3767
g28
(dp3768
I2
F50.75
sI3
F0.585
sI4
F1.0
sI5
F1.0
sI9
F1.0
sI13
F1.0
sI14
F145.0
sI16
F1.0
sI20
F1.0
sI21
F1.0
sI23
F1.0
sI24
F1.0
ssbsg30
g0
(g31
g2
Ntp3769
Rp3770
(dp3771
g35
I0
sbsba(ics475_types
Instance
p3772
(dp3773
g25
(ics475_types
FeatureVector
p3774
(dp3775
g28
(dp3776
I1
F1.0
sI2
F20.75
sI3
F9.54
sI4
F1.0
sI5
F1.0
sI7
F1.0
sI8
F0.04
sI9
F1.0
sI13
F1.0
sI14
F200.0
sI15
F1000.0
sI20
F1.0
sI21
F1.0
sI25
F1.0
ssbsg30
g0
(g31
g2
Ntp3777
Rp3778
(dp3779
g35
I0
sbsba(ics475_types
Instance
p3780
(dp3781
g25
(ics475_types
FeatureVector
p3782
(dp3783
g28
(dp3784
I33
F1.0
sI2
F49.58
sI3
F19.0
sI4
F1.0
sI5
F1.0
sI10
F1.0
sI11
F1.0
sI13
F1.0
sI14
F94.0
sI16
F1.0
sI21
F1.0
sI23
F1.0
sI24
F1.0
ssbsg30
g0
(g31
g2
Ntp3785
Rp3786
(dp3787
g35
I0
sbsba(ics475_types
Instance
p3788
(dp3789
g25
(ics475_types
FeatureVector
p3790
(dp3791
g28
(dp3792
I2
F39.5
sI3
F1.625
sI4
F1.0
sI5
F1.0
sI6
F1.0
sI7
F1.0
sI8
F1.5
sI9
F1.0
sI13
F1.0
sI15
F316.0
sI16
F1.0
sI20
F1.0
sI21
F1.0
ssbsg30
g0
(g31
g2
Ntp3793
Rp3794
(dp3795
g35
I0
sbsba(ics475_types
Instance
p3796
(dp3797
g25
(ics475_types
FeatureVector
p3798
(dp3799
g28
(dp3800
I1
F1.0
sI2
F23.0
sI3
F11.75
sI4
F1.0
sI5
F1.0
sI33
F1.0
sI8
F0.5
sI10
F1.0
sI11
F2.0
sI12
F1.0
sI13
F1.0
sI14
F300.0
sI15
F551.0
sI39
F1.0
sI27
F1.0
ssbsg30
g0
(g31
g2
Ntp3801
Rp3802
(dp3803
g35
I1
sbsba(ics475_types
Instance
p3804
(dp3805
g25
(ics475_types
FeatureVector
p3806
(dp3807
g28
(dp3808
I1
F1.0
sI2
F36.75
sI3
F5.125
sI4
F1.0
sI5
F1.0
sI7
F1.0
sI8
F5.0
sI41
F1.0
sI12
F1.0
sI13
F1.0
sI15
F4000.0
sI20
F1.0
sI33
F1.0
ssbsg30
g0
(g31
g2
Ntp3809
Rp3810
(dp3811
g35
I1
sbsba(ics475_types
Instance
p3812
(dp3813
g25
(ics475_types
FeatureVector
p3814
(dp3815
g28
(dp3816
I2
F36.75
sI3
F0.125
sI6
F1.0
sI7
F1.0
sI8
F1.5
sI9
F1.0
sI12
F1.0
sI13
F1.0
sI14
F232.0
sI15
F113.0
sI16
F1.0
sI17
F1.0
sI18
F1.0
sI20
F1.0
ssbsg30
g0
(g31
g2
Ntp3817
Rp3818
(dp3819
g35
I1
sbsba(ics475_types
Instance
p3820
(dp3821
g25
(ics475_types
FeatureVector
p3822
(dp3823
g28
(dp3824
I2
F22.75
sI3
F11.5
sI4
F1.0
sI5
F1.0
sI7
F1.0
sI8
F0.415
sI9
F1.0
sI13
F1.0
sI16
F1.0
sI20
F1.0
sI21
F1.0
sI25
F1.0
ssbsg30
g0
(g31
g2
Ntp3825
Rp3826
(dp3827
g35
I0
sbsba(ics475_types
Instance
p3828
(dp3829
g25
(ics475_types
FeatureVector
p3830
(dp3831
g28
(dp3832
I33
F1.0
sI2
F37.33
sI3
F6.5
sI4
F1.0
sI5
F1.0
sI8
F4.25
sI10
F1.0
sI11
F12.0
sI12
F1.0
sI13
F1.0
sI14
F93.0
sI16
F1.0
sI35
F1.0
sI27
F1.0
ssbsg30
g0
(g31
g2
Ntp3833
Rp3834
(dp3835
g35
I1
sbsba(ics475_types
Instance
p3836
(dp3837
g25
(ics475_types
FeatureVector
p3838
(dp3839
g28
(dp3840
I33
F1.0
sI2
F23.58
sI3
F0.46
sI7
F1.0
sI8
F2.625
sI10
F1.0
sI11
F6.0
sI12
F1.0
sI13
F1.0
sI14
F208.0
sI15
F347.0
sI16
F1.0
sI17
F1.0
sI18
F1.0
sI31
F1.0
ssbsg30
g0
(g31
g2
Ntp3841
Rp3842
(dp3843
g35
I0
sbsba(ics475_types
Instance
p3844
(dp3845
g25
(ics475_types
FeatureVector
p3846
(dp3847
g28
(dp3848
I2
F22.5
sI3
F11.5
sI7
F1.0
sI8
F1.5
sI9
F1.0
sI12
F1.0
sI13
F1.0
sI15
F4000.0
sI16
F1.0
sI17
F1.0
sI18
F1.0
sI35
F1.0
sI20
F1.0
ssbsg30
g0
(g31
g2
Ntp3849
Rp3850
(dp3851
g35
I0
sbsba(ics475_types
Instance
p3852
(dp3853
g25
(ics475_types
FeatureVector
p3854
(dp3855
g28
(dp3856
I1
F1.0
sI2
F18.58
sI3
F10.0
sI4
F1.0
sI5
F1.0
sI7
F1.0
sI8
F0.415
sI9
F1.0
sI13
F1.0
sI14
F80.0
sI15
F42.0
sI34
F1.0
sI20
F1.0
sI21
F1.0
ssbsg30
g0
(g31
g2
Ntp3857
Rp3858
(dp3859
g35
I0
sbsba(ics475_types
Instance
p3860
(dp3861
g25
(ics475_types
FeatureVector
p3862
(dp3863
g28
(dp3864
I32
F1.0
sI1
F1.0
sI2
F33.75
sI3
F0.75
sI4
F1.0
sI5
F1.0
sI33
F1.0
sI8
F1.0
sI10
F1.0
sI11
F3.0
sI12
F1.0
sI13
F1.0
sI14
F212.0
sI19
F1.0
ssbsg30
g0
(g31
g2
Ntp3865
Rp3866
(dp3867
g35
I0
sbsba(ics475_types
Instance
p3868
(dp3869
g25
(ics475_types
FeatureVector
p3870
(dp3871
g28
(dp3872
I1
F1.0
sI2
F36.0
sI3
F1.0
sI4
F1.0
sI5
F1.0
sI6
F1.0
sI7
F1.0
sI8
F2.0
sI10
F1.0
sI11
F11.0
sI13
F1.0
sI15
F456.0
sI21
F1.0
sI33
F1.0
ssbsg30
g0
(g31
g2
Ntp3873
Rp3874
(dp3875
g35
I1
sbsba(ics475_types
Instance
p3876
(dp3877
g25
(ics475_types
FeatureVector
p3878
(dp3879
g28
(dp3880
I2
F31.83
sI3
F0.04
sI7
F1.0
sI8
F0.04
sI9
F1.0
sI13
F1.0
sI16
F1.0
sI17
F1.0
sI18
F1.0
sI35
F1.0
sI20
F1.0
sI21
F1.0
ssbsg30
g0
(g31
g2
Ntp3881
Rp3882
(dp3883
g35
I0
sbsba(ics475_types
Instance
p3884
(dp3885
g25
(ics475_types
FeatureVector
p3886
(dp3887
g28
(dp3888
I33
F1.0
sI2
F59.67
sI3
F1.54
sI4
F1.0
sI5
F1.0
sI7
F1.0
sI8
F0.125
sI12
F1.0
sI13
F1.0
sI14
F260.0
sI16
F1.0
sI20
F1.0
sI30
F1.0
ssbsg30
g0
(g31
g2
Ntp3889
Rp3890
(dp3891
g35
I1
sbsba(ics475_types
Instance
p3892
(dp3893
g25
(ics475_types
FeatureVector
p3894
(dp3895
g28
(dp3896
I2
F42.75
sI3
F4.085
sI4
F1.0
sI5
F1.0
sI7
F1.0
sI8
F0.04
sI9
F1.0
sI13
F1.0
sI14
F108.0
sI15
F100.0
sI16
F1.0
sI20
F1.0
sI21
F1.0
sI37
F1.0
ssbsg30
g0
(g31
g2
Ntp3897
Rp3898
(dp3899
g35
I0
sbsba(ics475_types
Instance
p3900
(dp3901
g25
(ics475_types
FeatureVector
p3902
(dp3903
g28
(dp3904
I33
F1.0
sI2
F76.75
sI3
F22.29
sI4
F1.0
sI5
F1.0
sI8
F12.75
sI41
F1.0
sI10
F1.0
sI11
F1.0
sI12
F1.0
sI13
F1.0
sI15
F109.0
sI16
F1.0
sI42
F1.0
ssbsg30
g0
(g31
g2
Ntp3905
Rp3906
(dp3907
g35
I1
sbsba(ics475_types
Instance
p3908
(dp3909
g25
(ics475_types
FeatureVector
p3910
(dp3911
g28
(dp3912
I33
F1.0
sI2
F21.33
sI3
F10.5
sI4
F1.0
sI5
F1.0
sI6
F1.0
sI7
F1.0
sI8
F3.0
sI12
F1.0
sI13
F1.0
sI16
F1.0
sI20
F1.0
ssbsg30
g0
(g31
g2
Ntp3913
Rp3914
(dp3915
g35
I1
sbsba(ics475_types
Instance
p3916
(dp3917
g25
(ics475_types
FeatureVector
p3918
(dp3919
g28
(dp3920
I33
F1.0
sI2
F30.17
sI3
F6.5
sI4
F1.0
sI5
F1.0
sI7
F1.0
sI8
F3.125
sI10
F1.0
sI11
F8.0
sI13
F1.0
sI14
F330.0
sI15
F1200.0
sI16
F1.0
sI21
F1.0
sI36
F1.0
ssbsg30
g0
(g31
g2
Ntp3921
Rp3922
(dp3923
g35
I1
sbsba(ics475_types
Instance
p3924
(dp3925
g25
(ics475_types
FeatureVector
p3926
(dp3927
g28
(dp3928
I1
F1.0
sI2
F26.92
sI3
F13.5
sI4
F1.0
sI5
F1.0
sI33
F1.0
sI8
F5.0
sI10
F1.0
sI11
F2.0
sI13
F1.0
sI15
F5000.0
sI21
F1.0
sI27
F1.0
sI30
F1.0
ssbsg30
g0
(g31
g2
Ntp3929
Rp3930
(dp3931
g35
I1
sbsba(ics475_types
Instance
p3932
(dp3933
g25
(ics475_types
FeatureVector
p3934
(dp3935
g28
(dp3936
I32
F1.0
sI33
F1.0
sI2
F49.5
sI3
F7.585
sI4
F1.0
sI5
F1.0
sI8
F7.585
sI10
F1.0
sI11
F15.0
sI12
F1.0
sI13
F1.0
sI15
F5000.0
sI16
F1.0
sI25
F1.0
ssbsg30
g0
(g31
g2
Ntp3937
Rp3938
(dp3939
g35
I1
sbsba(ics475_types
Instance
p3940
(dp3941
g25
(ics475_types
FeatureVector
p3942
(dp3943
g28
(dp3944
I1
F1.0
sI2
F38.58
sI3
F5.0
sI4
F1.0
sI5
F1.0
sI7
F1.0
sI8
F13.5
sI12
F1.0
sI13
F1.0
sI14
F980.0
sI20
F1.0
sI36
F1.0
sI33
F1.0
ssbsg30
g0
(g31
g2
Ntp3945
Rp3946
(dp3947
g35
I0
sbsba(ics475_types
Instance
p3948
(dp3949
g25
(ics475_types
FeatureVector
p3950
(dp3951
g28
(dp3952
I2
F33.67
sI3
F2.165
sI4
F1.0
sI5
F1.0
sI6
F1.0
sI7
F1.0
sI8
F1.5
sI9
F1.0
sI46
F1.0
sI14
F120.0
sI16
F1.0
sI20
F1.0
sI21
F1.0
ssbsg30
g0
(g31
g2
Ntp3953
Rp3954
(dp3955
g35
I0
sbsba(ics475_types
Instance
p3956
(dp3957
g25
(ics475_types
FeatureVector
p3958
(dp3959
g28
(dp3960
I2
F19.5
sI3
F0.29
sI4
F1.0
sI5
F1.0
sI7
F1.0
sI8
F0.29
sI9
F1.0
sI13
F1.0
sI14
F280.0
sI15
F364.0
sI16
F1.0
sI19
F1.0
sI20
F1.0
sI21
F1.0
ssbsg30
g0
(g31
g2
Ntp3961
Rp3962
(dp3963
g35
I0
sbsba(ics475_types
Instance
p3964
(dp3965
g25
(ics475_types
FeatureVector
p3966
(dp3967
g28
(dp3968
I32
F1.0
sI33
F1.0
sI2
F28.25
sI3
F5.04
sI6
F1.0
sI8
F1.5
sI10
F1.0
sI11
F8.0
sI12
F1.0
sI13
F1.0
sI14
F144.0
sI15
F7.0
sI16
F1.0
sI17
F1.0
sI18
F1.0
ssbsg30
g0
(g31
g2
Ntp3969
Rp3970
(dp3971
g35
I1
sbsba(ics475_types
Instance
p3972
(dp3973
g25
(ics475_types
FeatureVector
p3974
(dp3975
g28
(dp3976
I1
F1.0
sI2
F22.67
sI3
F7.0
sI4
F1.0
sI5
F1.0
sI6
F1.0
sI7
F1.0
sI8
F0.165
sI9
F1.0
sI13
F1.0
sI14
F160.0
sI20
F1.0
sI21
F1.0
ssbsg30
g0
(g31
g2
Ntp3977
Rp3978
(dp3979
g35
I0
sbsba(ics475_types
Instance
p3980
(dp3981
g25
(ics475_types
FeatureVector
p3982
(dp3983
g28
(dp3984
I2
F36.17
sI3
F18.125
sI4
F1.0
sI5
F1.0
sI7
F1.0
sI8
F0.085
sI9
F1.0
sI13
F1.0
sI14
F320.0
sI15
F3552.0
sI16
F1.0
sI20
F1.0
sI21
F1.0
sI31
F1.0
ssbsg30
g0
(g31
g2
Ntp3985
Rp3986
(dp3987
g35
I0
sbsba(ics475_types
Instance
p3988
(dp3989
g25
(ics475_types
FeatureVector
p3990
(dp3991
g28
(dp3992
I33
F1.0
sI2
F45.17
sI3
F1.5
sI4
F1.0
sI5
F1.0
sI6
F1.0
sI7
F1.0
sI8
F2.5
sI12
F1.0
sI13
F1.0
sI14
F140.0
sI16
F1.0
sI20
F1.0
ssbsg30
g0
(g31
g2
Ntp3993
Rp3994
(dp3995
g35
I0
sbsba(ics475_types
Instance
p3996
(dp3997
g25
(ics475_types
FeatureVector
p3998
(dp3999
g28
(dp4000
I2
F52.42
sI3
F1.5
sI4
F1.0
sI5
F1.0
sI7
F1.0
sI8
F3.75
sI9
F1.0
sI12
F1.0
sI13
F1.0
sI15
F350.0
sI16
F1.0
sI34
F1.0
sI20
F1.0
ssbsg30
g0
(g31
g2
Ntp4001
Rp4002
(dp4003
g35
I0
sbsba(ics475_types
Instance
p4004
(dp4005
g25
(ics475_types
FeatureVector
p4006
(dp4007
g28
(dp4008
I2
F29.67
sI3
F0.75
sI6
F1.0
sI7
F1.0
sI8
F0.04
sI9
F1.0
sI13
F1.0
sI14
F240.0
sI16
F1.0
sI17
F1.0
sI18
F1.0
sI20
F1.0
sI21
F1.0
ssbsg30
g0
(g31
g2
Ntp4009
Rp4010
(dp4011
g35
I0
sbsba(ics475_types
Instance
p4012
(dp4013
g25
(ics475_types
FeatureVector
p4014
(dp4015
g28
(dp4016
I33
F1.0
sI2
F56.75
sI3
F12.25
sI4
F1.0
sI5
F1.0
sI7
F1.0
sI8
F1.25
sI10
F1.0
sI11
F4.0
sI12
F1.0
sI13
F1.0
sI14
F200.0
sI16
F1.0
sI35
F1.0
ssbsg30
g0
(g31
g2
Ntp4017
Rp4018
(dp4019
g35
I1
sbsba(ics475_types
Instance
p4020
(dp4021
g25
(ics475_types
FeatureVector
p4022
(dp4023
g28
(dp4024
I33
F1.0
sI2
F26.67
sI3
F4.25
sI4
F1.0
sI5
F1.0
sI7
F1.0
sI8
F4.29
sI10
F1.0
sI11
F1.0
sI12
F1.0
sI13
F1.0
sI14
F120.0
sI16
F1.0
sI36
F1.0
ssbsg30
g0
(g31
g2
Ntp4025
Rp4026
(dp4027
g35
I1
sbsba(ics475_types
Instance
p4028
(dp4029
g25
(ics475_types
FeatureVector
p4030
(dp4031
g28
(dp4032
I1
F1.0
sI2
F35.75
sI3
F0.915
sI4
F1.0
sI5
F1.0
sI7
F1.0
sI8
F0.75
sI10
F1.0
sI11
F4.0
sI13
F1.0
sI15
F1583.0
sI21
F1.0
sI33
F1.0
sI37
F1.0
ssbsg30
g0
(g31
g2
Ntp4033
Rp4034
(dp4035
g35
I1
sbsba(ics475_types
Instance
p4036
(dp4037
g25
(ics475_types
FeatureVector
p4038
(dp4039
g28
(dp4040
I2
F41.17
sI3
F1.25
sI7
F1.0
sI8
F0.25
sI9
F1.0
sI13
F1.0
sI15
F195.0
sI16
F1.0
sI17
F1.0
sI18
F1.0
sI20
F1.0
sI21
F1.0
sI31
F1.0
ssbsg30
g0
(g31
g2
Ntp4041
Rp4042
(dp4043
g35
I0
sbsba(ics475_types
Instance
p4044
(dp4045
g25
(ics475_types
FeatureVector
p4046
(dp4047
g28
(dp4048
I1
F1.0
sI2
F23.25
sI3
F5.875
sI4
F1.0
sI5
F1.0
sI7
F1.0
sI8
F3.17
sI10
F1.0
sI11
F10.0
sI13
F1.0
sI14
F120.0
sI15
F245.0
sI21
F1.0
sI33
F1.0
sI30
F1.0
ssbsg30
g0
(g31
g2
Ntp4049
Rp4050
(dp4051
g35
I1
sbsba(ics475_types
Instance
p4052
(dp4053
g25
(ics475_types
FeatureVector
p4054
(dp4055
g28
(dp4056
I2
F28.0
sI3
F3.0
sI4
F1.0
sI5
F1.0
sI7
F1.0
sI8
F0.75
sI9
F1.0
sI12
F1.0
sI13
F1.0
sI14
F300.0
sI15
F67.0
sI16
F1.0
sI20
F1.0
sI31
F1.0
ssbsg30
g0
(g31
g2
Ntp4057
Rp4058
(dp4059
g35
I0
sbsba(ics475_types
Instance
p4060
(dp4061
g25
(ics475_types
FeatureVector
p4062
(dp4063
g28
(dp4064
I2
F16.25
sI37
F1.0
sI7
F1.0
sI8
F0.25
sI9
F1.0
sI13
F1.0
sI14
F60.0
sI16
F1.0
sI17
F1.0
sI18
F1.0
sI20
F1.0
sI21
F1.0
ssbsg30
g0
(g31
g2
Ntp4065
Rp4066
(dp4067
g35
I0
sbsba(ics475_types
Instance
p4068
(dp4069
g25
(ics475_types
FeatureVector
p4070
(dp4071
g28
(dp4072
I1
F1.0
sI2
F23.0
sI3
F1.835
sI4
F1.0
sI5
F1.0
sI9
F1.0
sI10
F1.0
sI11
F1.0
sI13
F1.0
sI14
F200.0
sI15
F53.0
sI21
F1.0
sI28
F1.0
sI29
F1.0
ssbsg30
g0
(g31
g2
Ntp4073
Rp4074
(dp4075
g35
I0
sbsba(ics475_types
Instance
p4076
(dp4077
g25
(ics475_types
FeatureVector
p4078
(dp4079
g28
(dp4080
I33
F1.0
sI2
F23.33
sI3
F1.5
sI4
F1.0
sI5
F1.0
sI6
F1.0
sI8
F1.415
sI13
F1.0
sI14
F422.0
sI15
F200.0
sI16
F1.0
sI20
F1.0
sI21
F1.0
sI27
F1.0
ssbsg30
g0
(g31
g2
Ntp4081
Rp4082
(dp4083
g35
I1
sbsba(ics475_types
Instance
p4084
(dp4085
g25
(ics475_types
FeatureVector
p4086
(dp4087
g28
(dp4088
I1
F1.0
sI2
F18.08
sI3
F0.375
sI36
F1.0
sI8
F10.0
sI9
F1.0
sI12
F1.0
sI45
F1.0
sI14
F300.0
sI44
F1.0
sI20
F1.0
sI22
F1.0
sI24
F1.0
ssbsg30
g0
(g31
g2
Ntp4089
Rp4090
(dp4091
g35
I1
sbsba(ics475_types
Instance
p4092
(dp4093
g25
(ics475_types
FeatureVector
p4094
(dp4095
g28
(dp4096
I33
F1.0
sI2
F35.25
sI3
F3.165
sI4
F1.0
sI5
F1.0
sI39
F1.0
sI8
F3.75
sI12
F1.0
sI13
F1.0
sI14
F680.0
sI16
F1.0
sI20
F1.0
sI27
F1.0
ssbsg30
g0
(g31
g2
Ntp4097
Rp4098
(dp4099
g35
I0
sbsba(ics475_types
Instance
p4100
(dp4101
g25
(ics475_types
FeatureVector
p4102
(dp4103
g28
(dp4104
I2
F34.83
sI3
F2.5
sI7
F1.0
sI8
F3.0
sI9
F1.0
sI14
F200.0
sI16
F1.0
sI17
F1.0
sI18
F1.0
sI20
F1.0
sI21
F1.0
sI22
F1.0
sI31
F1.0
ssbsg30
g0
(g31
g2
Ntp4105
Rp4106
(dp4107
g35
I0
sbsba(ics475_types
Instance
p4108
(dp4109
g25
(ics475_types
FeatureVector
p4110
(dp4111
g28
(dp4112
I33
F1.0
sI2
F73.42
sI3
F17.75
sI4
F1.0
sI5
F1.0
sI12
F1.0
sI13
F1.0
sI16
F1.0
sI20
F1.0
sI23
F1.0
sI24
F1.0
ssbsg30
g0
(g31
g2
Ntp4113
Rp4114
(dp4115
g35
I1
sbsba(ics475_types
Instance
p4116
(dp4117
g25
(ics475_types
FeatureVector
p4118
(dp4119
g28
(dp4120
I2
F23.0
sI3
F0.75
sI4
F1.0
sI5
F1.0
sI7
F1.0
sI8
F0.5
sI9
F1.0
sI12
F1.0
sI14
F320.0
sI16
F1.0
sI35
F1.0
sI20
F1.0
sI22
F1.0
ssbsg30
g0
(g31
g2
Ntp4121
Rp4122
(dp4123
g35
I0
sbsba(ics475_types
Instance
p4124
(dp4125
g25
(ics475_types
FeatureVector
p4126
(dp4127
g28
(dp4128
I1
F1.0
sI2
F28.17
sI3
F0.375
sI4
F1.0
sI5
F1.0
sI7
F1.0
sI8
F0.585
sI10
F1.0
sI11
F4.0
sI13
F1.0
sI14
F80.0
sI21
F1.0
sI33
F1.0
sI30
F1.0
ssbsg30
g0
(g31
g2
Ntp4129
Rp4130
(dp4131
g35
I1
sbsba(ics475_types
Instance
p4132
(dp4133
g25
(ics475_types
FeatureVector
p4134
(dp4135
g28
(dp4136
I2
F18.08
sI3
F6.75
sI7
F1.0
sI8
F0.04
sI9
F1.0
sI13
F1.0
sI14
F140.0
sI16
F1.0
sI17
F1.0
sI18
F1.0
sI35
F1.0
sI20
F1.0
sI21
F1.0
ssbsg30
g0
(g31
g2
Ntp4137
Rp4138
(dp4139
g35
I0
sbsba(ics475_types
Instance
p4140
(dp4141
g25
(ics475_types
FeatureVector
p4142
(dp4143
g28
(dp4144
I33
F1.0
sI2
F21.5
sI3
F9.75
sI4
F1.0
sI5
F1.0
sI6
F1.0
sI7
F1.0
sI8
F0.25
sI13
F1.0
sI14
F140.0
sI16
F1.0
sI20
F1.0
sI21
F1.0
ssbsg30
g0
(g31
g2
Ntp4145
Rp4146
(dp4147
g35
I0
sbsba(ics475_types
Instance
p4148
(dp4149
g25
(ics475_types
FeatureVector
p4150
(dp4151
g28
(dp4152
I2
F39.58
sI3
F5.0
sI4
F1.0
sI5
F1.0
sI9
F1.0
sI10
F1.0
sI11
F2.0
sI13
F1.0
sI14
F17.0
sI15
F1.0
sI16
F1.0
sI21
F1.0
sI23
F1.0
sI24
F1.0
ssbsg30
g0
(g31
g2
Ntp4153
Rp4154
(dp4155
g35
I0
sbsba(ics475_types
Instance
p4156
(dp4157
g25
(ics475_types
FeatureVector
p4158
(dp4159
g28
(dp4160
I1
F1.0
sI2
F28.75
sI3
F3.75
sI4
F1.0
sI5
F1.0
sI6
F1.0
sI7
F1.0
sI8
F1.085
sI10
F1.0
sI11
F1.0
sI12
F1.0
sI13
F1.0
sI14
F371.0
sI33
F1.0
ssbsg30
g0
(g31
g2
Ntp4161
Rp4162
(dp4163
g35
I1
sbsba(ics475_types
Instance
p4164
(dp4165
g25
(ics475_types
FeatureVector
p4166
(dp4167
g28
(dp4168
I1
F1.0
sI2
F20.08
sI3
F1.25
sI4
F1.0
sI5
F1.0
sI6
F1.0
sI7
F1.0
sI9
F1.0
sI13
F1.0
sI20
F1.0
sI21
F1.0
ssbsg30
g0
(g31
g2
Ntp4169
Rp4170
(dp4171
g35
I0
sbsba(ics475_types
Instance
p4172
(dp4173
g25
(ics475_types
FeatureVector
p4174
(dp4175
g28
(dp4176
I32
F1.0
sI2
F41.5
sI3
F1.54
sI4
F1.0
sI5
F1.0
sI8
F3.5
sI9
F1.0
sI13
F1.0
sI14
F216.0
sI16
F1.0
sI20
F1.0
sI21
F1.0
sI25
F1.0
ssbsg30
g0
(g31
g2
Ntp4177
Rp4178
(dp4179
g35
I1
sbsba(ics475_types
Instance
p4180
(dp4181
g25
(ics475_types
FeatureVector
p4182
(dp4183
g28
(dp4184
I2
F23.58
sI3
F0.835
sI4
F1.0
sI5
F1.0
sI8
F0.085
sI9
F1.0
sI12
F1.0
sI13
F1.0
sI14
F220.0
sI15
F5.0
sI16
F1.0
sI20
F1.0
sI25
F1.0
sI27
F1.0
ssbsg30
g0
(g31
g2
Ntp4185
Rp4186
(dp4187
g35
I0
sbsba(ics475_types
Instance
p4188
(dp4189
g25
(ics475_types
FeatureVector
p4190
(dp4191
g28
(dp4192
I2
F37.5
sI3
F0.835
sI4
F1.0
sI5
F1.0
sI7
F1.0
sI8
F0.04
sI9
F1.0
sI13
F1.0
sI14
F120.0
sI15
F5.0
sI16
F1.0
sI20
F1.0
sI21
F1.0
sI41
F1.0
ssbsg30
g0
(g31
g2
Ntp4193
Rp4194
(dp4195
g35
I0
sbsba(ics475_types
Instance
p4196
(dp4197
g25
(ics475_types
FeatureVector
p4198
(dp4199
g28
(dp4200
I33
F1.0
sI2
F48.33
sI3
F12.0
sI4
F1.0
sI5
F1.0
sI7
F1.0
sI8
F16.0
sI14
F110.0
sI16
F1.0
sI35
F1.0
sI20
F1.0
sI21
F1.0
sI22
F1.0
ssbsg30
g0
(g31
g2
Ntp4201
Rp4202
(dp4203
g35
I1
sbsba(ics475_types
Instance
p4204
(dp4205
g25
(ics475_types
FeatureVector
p4206
(dp4207
g28
(dp4208
I1
F1.0
sI2
F49.0
sI3
F1.5
sI4
F1.0
sI5
F1.0
sI33
F1.0
sI12
F1.0
sI13
F1.0
sI14
F100.0
sI15
F27.0
sI20
F1.0
sI28
F1.0
sI29
F1.0
ssbsg30
g0
(g31
g2
Ntp4209
Rp4210
(dp4211
g35
I0
sbsba(ics475_types
Instance
p4212
(dp4213
g25
(ics475_types
FeatureVector
p4214
(dp4215
g28
(dp4216
I1
F1.0
sI2
F28.67
sI3
F1.04
sI4
F1.0
sI5
F1.0
sI6
F1.0
sI7
F1.0
sI8
F2.5
sI10
F1.0
sI11
F5.0
sI12
F1.0
sI13
F1.0
sI14
F300.0
sI15
F1430.0
sI33
F1.0
ssbsg30
g0
(g31
g2
Ntp4217
Rp4218
(dp4219
g35
I1
sbsba(ics475_types
Instance
p4220
(dp4221
g25
(ics475_types
FeatureVector
p4222
(dp4223
g28
(dp4224
I1
F1.0
sI2
F22.75
sI3
F6.165
sI4
F1.0
sI5
F1.0
sI7
F1.0
sI8
F0.165
sI9
F1.0
sI13
F1.0
sI14
F220.0
sI15
F1000.0
sI20
F1.0
sI21
F1.0
sI37
F1.0
ssbsg30
g0
(g31
g2
Ntp4225
Rp4226
(dp4227
g35
I0
sbsba(ics475_types
Instance
p4228
(dp4229
g25
(ics475_types
FeatureVector
p4230
(dp4231
g28
(dp4232
I1
F1.0
sI2
F16.92
sI3
F0.5
sI4
F1.0
sI5
F1.0
sI7
F1.0
sI8
F0.165
sI9
F1.0
sI10
F1.0
sI11
F6.0
sI12
F1.0
sI13
F1.0
sI14
F240.0
sI15
F35.0
sI25
F1.0
ssbsg30
g0
(g31
g2
Ntp4233
Rp4234
(dp4235
g35
I0
sbsba(ics475_types
Instance
p4236
(dp4237
g25
(ics475_types
FeatureVector
p4238
(dp4239
g28
(dp4240
I1
F1.0
sI2
F20.42
sI3
F10.5
sI39
F1.0
sI9
F1.0
sI12
F1.0
sI13
F1.0
sI14
F154.0
sI15
F32.0
sI17
F1.0
sI18
F1.0
sI20
F1.0
sI27
F1.0
ssbsg30
g0
(g31
g2
Ntp4241
Rp4242
(dp4243
g35
I0
sbsba(ics475_types
Instance
p4244
(dp4245
g25
(ics475_types
FeatureVector
p4246
(dp4247
g28
(dp4248
I32
F1.0
sI2
F40.58
sI3
F1.5
sI4
F1.0
sI5
F1.0
sI9
F1.0
sI14
F300.0
sI16
F1.0
sI20
F1.0
sI21
F1.0
sI22
F1.0
sI25
F1.0
ssbsg30
g0
(g31
g2
Ntp4249
Rp4250
(dp4251
g35
I0
sbsba(ics475_types
Instance
p4252
(dp4253
g25
(ics475_types
FeatureVector
p4254
(dp4255
g28
(dp4256
I33
F1.0
sI2
F55.92
sI3
F11.5
sI4
F1.0
sI5
F1.0
sI8
F5.0
sI10
F1.0
sI11
F5.0
sI13
F1.0
sI15
F8851.0
sI16
F1.0
sI21
F1.0
sI23
F1.0
sI24
F1.0
ssbsg30
g0
(g31
g2
Ntp4257
Rp4258
(dp4259
g35
I1
sbsba(ics475_types
Instance
p4260
(dp4261
g25
(ics475_types
FeatureVector
p4262
(dp4263
g28
(dp4264
I32
F1.0
sI33
F1.0
sI2
F34.08
sI3
F0.08
sI8
F0.04
sI10
F1.0
sI11
F1.0
sI12
F1.0
sI13
F1.0
sI14
F280.0
sI15
F2000.0
sI16
F1.0
sI17
F1.0
sI18
F1.0
sI35
F1.0
ssbsg30
g0
(g31
g2
Ntp4265
Rp4266
(dp4267
g35
I1
sbsba(ics475_types
Instance
p4268
(dp4269
g25
(ics475_types
FeatureVector
p4270
(dp4271
g28
(dp4272
I32
F1.0
sI2
F43.17
sI3
F5.0
sI4
F1.0
sI5
F1.0
sI8
F2.25
sI9
F1.0
sI12
F1.0
sI13
F1.0
sI14
F141.0
sI16
F1.0
sI20
F1.0
sI25
F1.0
ssbsg30
g0
(g31
g2
Ntp4273
Rp4274
(dp4275
g35
I0
sbsba(ics475_types
Instance
p4276
(dp4277
g25
(ics475_types
FeatureVector
p4278
(dp4279
g28
(dp4280
I2
F29.58
sI3
F4.75
sI4
F1.0
sI5
F1.0
sI7
F1.0
sI8
F2.0
sI9
F1.0
sI10
F1.0
sI11
F1.0
sI12
F1.0
sI13
F1.0
sI14
F460.0
sI15
F68.0
sI16
F1.0
sI35
F1.0
ssbsg30
g0
(g31
g2
Ntp4281
Rp4282
(dp4283
g35
I0
sbsba(ics475_types
Instance
p4284
(dp4285
g25
(ics475_types
FeatureVector
p4286
(dp4287
g28
(dp4288
I1
F1.0
sI2
F41.58
sI3
F1.04
sI4
F1.0
sI5
F1.0
sI7
F1.0
sI8
F0.665
sI9
F1.0
sI13
F1.0
sI14
F240.0
sI15
F237.0
sI20
F1.0
sI21
F1.0
sI37
F1.0
ssbsg30
g0
(g31
g2
Ntp4289
Rp4290
(dp4291
g35
I0
sbsba(ics475_types
Instance
p4292
(dp4293
g25
(ics475_types
FeatureVector
p4294
(dp4295
g28
(dp4296
I2
F22.08
sI3
F2.335
sI4
F1.0
sI5
F1.0
sI7
F1.0
sI8
F0.75
sI9
F1.0
sI13
F1.0
sI14
F180.0
sI16
F1.0
sI19
F1.0
sI20
F1.0
sI21
F1.0
ssbsg30
g0
(g31
g2
Ntp4297
Rp4298
(dp4299
g35
I0
sbsba(ics475_types
Instance
p4300
(dp4301
g25
(ics475_types
FeatureVector
p4302
(dp4303
g28
(dp4304
I2
F26.33
sI3
F13.0
sI4
F1.0
sI5
F1.0
sI9
F1.0
sI43
F1.0
sI12
F1.0
sI13
F1.0
sI14
F140.0
sI15
F1110.0
sI16
F1.0
sI20
F1.0
sI41
F1.0
ssbsg30
g0
(g31
g2
Ntp4305
Rp4306
(dp4307
g35
I0
sbsba(ics475_types
Instance
p4308
(dp4309
g25
(ics475_types
FeatureVector
p4310
(dp4311
g28
(dp4312
I33
F1.0
sI2
F62.5
sI3
F12.75
sI6
F1.0
sI8
F5.0
sI13
F1.0
sI14
F112.0
sI16
F1.0
sI17
F1.0
sI18
F1.0
sI20
F1.0
sI21
F1.0
sI27
F1.0
ssbsg30
g0
(g31
g2
Ntp4313
Rp4314
(dp4315
g35
I0
sbsba(ics475_types
Instance
p4316
(dp4317
g25
(ics475_types
FeatureVector
p4318
(dp4319
g28
(dp4320
I33
F1.0
sI2
F40.25
sI3
F21.5
sI4
F1.0
sI5
F1.0
sI8
F20.0
sI41
F1.0
sI10
F1.0
sI11
F11.0
sI13
F1.0
sI15
F1200.0
sI16
F1.0
sI21
F1.0
sI42
F1.0
ssbsg30
g0
(g31
g2
Ntp4321
Rp4322
(dp4323
g35
I1
sbsba(ics475_types
Instance
p4324
(dp4325
g25
(ics475_types
FeatureVector
p4326
(dp4327
g28
(dp4328
I32
F1.0
sI1
F1.0
sI2
F47.0
sI3
F13.0
sI4
F1.0
sI5
F1.0
sI33
F1.0
sI8
F5.165
sI10
F1.0
sI11
F9.0
sI12
F1.0
sI13
F1.0
sI25
F1.0
ssbsg30
g0
(g31
g2
Ntp4329
Rp4330
(dp4331
g35
I1
sbsba(ics475_types
Instance
p4332
(dp4333
g25
(ics475_types
FeatureVector
p4334
(dp4335
g28
(dp4336
I1
F1.0
sI2
F25.75
sI3
F0.5
sI4
F1.0
sI5
F1.0
sI6
F1.0
sI33
F1.0
sI8
F0.875
sI12
F1.0
sI13
F1.0
sI14
F491.0
sI20
F1.0
sI27
F1.0
ssbsg30
g0
(g31
g2
Ntp4337
Rp4338
(dp4339
g35
I1
sbsba(ics475_types
Instance
p4340
(dp4341
g25
(ics475_types
FeatureVector
p4342
(dp4343
g28
(dp4344
I2
F16.33
sI3
F2.75
sI4
F1.0
sI5
F1.0
sI7
F1.0
sI8
F0.665
sI9
F1.0
sI10
F1.0
sI11
F1.0
sI13
F1.0
sI14
F80.0
sI15
F21.0
sI16
F1.0
sI21
F1.0
sI37
F1.0
ssbsg30
g0
(g31
g2
Ntp4345
Rp4346
(dp4347
g35
I0
sbsba(ics475_types
Instance
p4348
(dp4349
g25
(ics475_types
FeatureVector
p4350
(dp4351
g28
(dp4352
I33
F1.0
sI2
F25.75
sI3
F0.5
sI4
F1.0
sI5
F1.0
sI6
F1.0
sI7
F1.0
sI8
F1.46
sI10
F1.0
sI11
F5.0
sI12
F1.0
sI13
F1.0
sI14
F312.0
sI16
F1.0
ssbsg30
g0
(g31
g2
Ntp4353
Rp4354
(dp4355
g35
I1
sbsba(ics475_types
Instance
p4356
(dp4357
g25
(ics475_types
FeatureVector
p4358
(dp4359
g28
(dp4360
I2
F24.75
sI3
F0.54
sI4
F1.0
sI5
F1.0
sI7
F1.0
sI8
F1.0
sI9
F1.0
sI12
F1.0
sI13
F1.0
sI14
F120.0
sI15
F1.0
sI16
F1.0
sI35
F1.0
sI20
F1.0
ssbsg30
g0
(g31
g2
Ntp4361
Rp4362
(dp4363
g35
I0
sbsba(ics475_types
Instance
p4364
(dp4365
g25
(ics475_types
FeatureVector
p4366
(dp4367
g28
(dp4368
I33
F1.0
sI2
F21.0
sI3
F4.79
sI7
F1.0
sI8
F2.25
sI10
F1.0
sI11
F1.0
sI12
F1.0
sI13
F1.0
sI14
F80.0
sI15
F300.0
sI16
F1.0
sI17
F1.0
sI18
F1.0
sI31
F1.0
ssbsg30
g0
(g31
g2
Ntp4369
Rp4370
(dp4371
g35
I1
sbsba(ics475_types
Instance
p4372
(dp4373
g25
(ics475_types
FeatureVector
p4374
(dp4375
g28
(dp4376
I2
F21.08
sI3
F4.125
sI8
F0.04
sI9
F1.0
sI13
F1.0
sI14
F140.0
sI15
F100.0
sI16
F1.0
sI17
F1.0
sI18
F1.0
sI20
F1.0
sI21
F1.0
sI25
F1.0
sI27
F1.0
ssbsg30
g0
(g31
g2
Ntp4377
Rp4378
(dp4379
g35
I0
sbsba(ics475_types
Instance
p4380
(dp4381
g25
(ics475_types
FeatureVector
p4382
(dp4383
g28
(dp4384
I33
F1.0
sI2
F24.33
sI3
F6.625
sI7
F1.0
sI8
F5.5
sI12
F1.0
sI34
F1.0
sI14
F100.0
sI16
F1.0
sI17
F1.0
sI18
F1.0
sI20
F1.0
sI22
F1.0
ssbsg30
g0
(g31
g2
Ntp4385
Rp4386
(dp4387
g35
I1
sbsba(ics475_types
Instance
p4388
(dp4389
g25
(ics475_types
FeatureVector
p4390
(dp4391
g28
(dp4392
I2
F27.83
sI3
F1.5
sI4
F1.0
sI5
F1.0
sI7
F1.0
sI8
F2.25
sI9
F1.0
sI10
F1.0
sI11
F1.0
sI12
F1.0
sI13
F1.0
sI14
F100.0
sI15
F3.0
sI16
F1.0
sI31
F1.0
ssbsg30
g0
(g31
g2
Ntp4393
Rp4394
(dp4395
g35
I0
sbsba(ics475_types
Instance
p4396
(dp4397
g25
(ics475_types
FeatureVector
p4398
(dp4399
g28
(dp4400
I33
F1.0
sI2
F28.92
sI3
F15.0
sI4
F1.0
sI5
F1.0
sI6
F1.0
sI8
F5.335
sI10
F1.0
sI11
F11.0
sI13
F1.0
sI15
F2283.0
sI16
F1.0
sI21
F1.0
sI27
F1.0
ssbsg30
g0
(g31
g2
Ntp4401
Rp4402
(dp4403
g35
I1
sbsba(ics475_types
Instance
p4404
(dp4405
g25
(ics475_types
FeatureVector
p4406
(dp4407
g28
(dp4408
I1
F1.0
sI2
F33.08
sI3
F1.625
sI4
F1.0
sI5
F1.0
sI7
F1.0
sI8
F0.54
sI9
F1.0
sI12
F1.0
sI13
F1.0
sI34
F1.0
sI20
F1.0
ssbsg30
g0
(g31
g2
Ntp4409
Rp4410
(dp4411
g35
I0
sbsba(ics475_types
Instance
p4412
(dp4413
g25
(ics475_types
FeatureVector
p4414
(dp4415
g28
(dp4416
I32
F1.0
sI2
F26.75
sI3
F4.5
sI6
F1.0
sI8
F2.5
sI9
F1.0
sI13
F1.0
sI14
F200.0
sI15
F1210.0
sI16
F1.0
sI17
F1.0
sI18
F1.0
sI20
F1.0
sI21
F1.0
ssbsg30
g0
(g31
g2
Ntp4417
Rp4418
(dp4419
g35
I0
sbsba(ics475_types
Instance
p4420
(dp4421
g25
(ics475_types
FeatureVector
p4422
(dp4423
g28
(dp4424
I32
F1.0
sI33
F1.0
sI2
F56.58
sI3
F18.5
sI4
F1.0
sI5
F1.0
sI8
F15.0
sI10
F1.0
sI11
F17.0
sI12
F1.0
sI13
F1.0
sI16
F1.0
sI34
F1.0
ssbsg30
g0
(g31
g2
Ntp4425
Rp4426
(dp4427
g35
I1
sbsbasS'S'
p4428
g14
sS'T'
p4429
I10
sS'clusters'
p4430
(dp4431
I0
(lp4432
(I0
g23
tp4433
a(I3
g52
tp4434
a(I6
g76
tp4435
a(I9
g100
tp4436
a(I12
g124
tp4437
a(I15
g148
tp4438
a(I18
g172
tp4439
a(I21
g196
tp4440
a(I24
g220
tp4441
a(I27
g244
tp4442
a(I30
g268
tp4443
a(I33
g292
tp4444
a(I36
g316
tp4445
a(I39
g340
tp4446
a(I42
g364
tp4447
a(I45
g388
tp4448
a(I48
g412
tp4449
a(I51
g436
tp4450
a(I54
g460
tp4451
a(I57
g484
tp4452
a(I60
g508
tp4453
a(I63
g532
tp4454
a(I66
g556
tp4455
a(I69
g580
tp4456
a(I72
g604
tp4457
a(I75
g628
tp4458
a(I78
g652
tp4459
a(I81
g676
tp4460
a(I84
g700
tp4461
a(I87
g724
tp4462
a(I90
g748
tp4463
a(I93
g772
tp4464
a(I96
g796
tp4465
a(I99
g820
tp4466
a(I102
g844
tp4467
a(I105
g868
tp4468
a(I108
g892
tp4469
a(I111
g916
tp4470
a(I114
g940
tp4471
a(I117
g964
tp4472
a(I120
g988
tp4473
a(I123
g1012
tp4474
a(I126
g1036
tp4475
a(I129
g1060
tp4476
a(I132
g1084
tp4477
a(I135
g1108
tp4478
a(I138
g1132
tp4479
a(I141
g1156
tp4480
a(I144
g1180
tp4481
a(I147
g1204
tp4482
a(I150
g1228
tp4483
a(I153
g1252
tp4484
a(I156
g1276
tp4485
a(I159
g1300
tp4486
a(I162
g1324
tp4487
a(I165
g1348
tp4488
a(I168
g1372
tp4489
a(I171
g1396
tp4490
a(I174
g1420
tp4491
a(I177
g1444
tp4492
a(I180
g1468
tp4493
a(I183
g1492
tp4494
a(I186
g1516
tp4495
a(I189
g1540
tp4496
a(I192
g1564
tp4497
a(I195
g1588
tp4498
a(I198
g1612
tp4499
a(I201
g1636
tp4500
a(I204
g1660
tp4501
a(I207
g1684
tp4502
a(I210
g1708
tp4503
a(I213
g1732
tp4504
a(I216
g1756
tp4505
a(I219
g1780
tp4506
a(I222
g1804
tp4507
a(I225
g1828
tp4508
a(I228
g1852
tp4509
a(I231
g1876
tp4510
a(I234
g1900
tp4511
a(I237
g1924
tp4512
a(I240
g1948
tp4513
a(I243
g1972
tp4514
a(I246
g1996
tp4515
a(I249
g2020
tp4516
a(I252
g2044
tp4517
a(I255
g2068
tp4518
a(I258
g2092
tp4519
a(I261
g2116
tp4520
a(I264
g2140
tp4521
a(I267
g2164
tp4522
a(I270
g2188
tp4523
a(I273
g2212
tp4524
a(I276
g2236
tp4525
a(I279
g2260
tp4526
a(I282
g2284
tp4527
a(I285
g2308
tp4528
a(I288
g2332
tp4529
a(I291
g2356
tp4530
a(I294
g2380
tp4531
a(I297
g2404
tp4532
a(I300
g2428
tp4533
a(I303
g2452
tp4534
a(I306
g2476
tp4535
a(I309
g2500
tp4536
a(I312
g2524
tp4537
a(I315
g2548
tp4538
a(I318
g2572
tp4539
a(I321
g2596
tp4540
a(I324
g2620
tp4541
a(I327
g2644
tp4542
a(I330
g2668
tp4543
a(I333
g2692
tp4544
a(I336
g2716
tp4545
a(I339
g2740
tp4546
a(I342
g2764
tp4547
a(I345
g2788
tp4548
a(I348
g2812
tp4549
a(I351
g2836
tp4550
a(I354
g2860
tp4551
a(I357
g2884
tp4552
a(I360
g2908
tp4553
a(I363
g2932
tp4554
a(I366
g2956
tp4555
a(I369
g2980
tp4556
a(I372
g3004
tp4557
a(I375
g3028
tp4558
a(I378
g3052
tp4559
a(I381
g3076
tp4560
a(I384
g3100
tp4561
a(I387
g3124
tp4562
a(I390
g3148
tp4563
a(I393
g3172
tp4564
a(I396
g3196
tp4565
a(I399
g3220
tp4566
a(I402
g3244
tp4567
a(I405
g3268
tp4568
a(I408
g3292
tp4569
a(I411
g3316
tp4570
a(I414
g3340
tp4571
a(I417
g3364
tp4572
a(I420
g3388
tp4573
a(I423
g3412
tp4574
a(I426
g3436
tp4575
a(I429
g3460
tp4576
a(I432
g3484
tp4577
a(I435
g3508
tp4578
a(I438
g3532
tp4579
a(I441
g3556
tp4580
a(I444
g3580
tp4581
a(I447
g3604
tp4582
a(I450
g3628
tp4583
a(I453
g3652
tp4584
a(I456
g3676
tp4585
a(I459
g3700
tp4586
a(I462
g3724
tp4587
a(I465
g3748
tp4588
a(I468
g3772
tp4589
a(I471
g3796
tp4590
a(I474
g3820
tp4591
a(I477
g3844
tp4592
a(I480
g3868
tp4593
a(I483
g3892
tp4594
a(I486
g3916
tp4595
a(I489
g3940
tp4596
a(I492
g3964
tp4597
a(I495
g3988
tp4598
a(I498
g4012
tp4599
a(I501
g4036
tp4600
a(I504
g4060
tp4601
a(I507
g4084
tp4602
a(I510
g4108
tp4603
a(I513
g4132
tp4604
a(I516
g4156
tp4605
a(I519
g4180
tp4606
a(I522
g4204
tp4607
a(I525
g4228
tp4608
a(I528
g4252
tp4609
a(I531
g4276
tp4610
a(I534
g4300
tp4611
a(I537
g4324
tp4612
a(I540
g4348
tp4613
a(I543
g4372
tp4614
a(I546
g4396
tp4615
a(I549
g4420
tp4616
a(I1
g36
tp4617
a(I2
g44
tp4618
a(I4
g60
tp4619
a(I5
g68
tp4620
a(I7
g84
tp4621
a(I8
g92
tp4622
a(I10
g108
tp4623
a(I11
g116
tp4624
a(I13
g132
tp4625
a(I14
g140
tp4626
a(I16
g156
tp4627
a(I17
g164
tp4628
a(I19
g180
tp4629
a(I20
g188
tp4630
a(I22
g204
tp4631
a(I23
g212
tp4632
a(I25
g228
tp4633
a(I26
g236
tp4634
a(I28
g252
tp4635
a(I29
g260
tp4636
a(I31
g276
tp4637
a(I32
g284
tp4638
a(I34
g300
tp4639
a(I35
g308
tp4640
a(I37
g324
tp4641
a(I38
g332
tp4642
a(I40
g348
tp4643
a(I41
g356
tp4644
a(I43
g372
tp4645
a(I44
g380
tp4646
a(I46
g396
tp4647
a(I47
g404
tp4648
a(I49
g420
tp4649
a(I50
g428
tp4650
a(I52
g444
tp4651
a(I53
g452
tp4652
a(I55
g468
tp4653
a(I56
g476
tp4654
a(I58
g492
tp4655
a(I59
g500
tp4656
a(I61
g516
tp4657
a(I62
g524
tp4658
a(I64
g540
tp4659
a(I65
g548
tp4660
a(I67
g564
tp4661
a(I68
g572
tp4662
a(I70
g588
tp4663
a(I71
g596
tp4664
a(I73
g612
tp4665
a(I74
g620
tp4666
a(I76
g636
tp4667
a(I77
g644
tp4668
a(I79
g660
tp4669
a(I80
g668
tp4670
a(I82
g684
tp4671
a(I83
g692
tp4672
a(I85
g708
tp4673
a(I86
g716
tp4674
a(I88
g732
tp4675
a(I89
g740
tp4676
a(I91
g756
tp4677
a(I92
g764
tp4678
a(I94
g780
tp4679
a(I95
g788
tp4680
a(I97
g804
tp4681
a(I98
g812
tp4682
a(I100
g828
tp4683
a(I101
g836
tp4684
a(I103
g852
tp4685
a(I104
g860
tp4686
a(I106
g876
tp4687
a(I107
g884
tp4688
a(I109
g900
tp4689
a(I110
g908
tp4690
a(I112
g924
tp4691
a(I113
g932
tp4692
a(I115
g948
tp4693
a(I116
g956
tp4694
a(I118
g972
tp4695
a(I119
g980
tp4696
a(I121
g996
tp4697
a(I122
g1004
tp4698
a(I124
g1020
tp4699
a(I125
g1028
tp4700
a(I127
g1044
tp4701
a(I128
g1052
tp4702
a(I130
g1068
tp4703
a(I131
g1076
tp4704
a(I133
g1092
tp4705
a(I134
g1100
tp4706
a(I136
g1116
tp4707
a(I137
g1124
tp4708
a(I139
g1140
tp4709
a(I140
g1148
tp4710
a(I142
g1164
tp4711
a(I143
g1172
tp4712
a(I145
g1188
tp4713
a(I146
g1196
tp4714
a(I148
g1212
tp4715
a(I149
g1220
tp4716
a(I151
g1236
tp4717
a(I152
g1244
tp4718
a(I154
g1260
tp4719
a(I155
g1268
tp4720
a(I157
g1284
tp4721
a(I158
g1292
tp4722
a(I160
g1308
tp4723
a(I161
g1316
tp4724
a(I163
g1332
tp4725
a(I164
g1340
tp4726
a(I166
g1356
tp4727
a(I167
g1364
tp4728
a(I169
g1380
tp4729
a(I170
g1388
tp4730
a(I172
g1404
tp4731
a(I173
g1412
tp4732
a(I175
g1428
tp4733
a(I176
g1436
tp4734
a(I178
g1452
tp4735
a(I179
g1460
tp4736
a(I181
g1476
tp4737
a(I182
g1484
tp4738
a(I184
g1500
tp4739
a(I185
g1508
tp4740
a(I187
g1524
tp4741
a(I188
g1532
tp4742
a(I190
g1548
tp4743
a(I191
g1556
tp4744
a(I193
g1572
tp4745
a(I194
g1580
tp4746
a(I196
g1596
tp4747
a(I197
g1604
tp4748
a(I199
g1620
tp4749
a(I200
g1628
tp4750
a(I202
g1644
tp4751
a(I203
g1652
tp4752
a(I205
g1668
tp4753
a(I206
g1676
tp4754
a(I208
g1692
tp4755
a(I209
g1700
tp4756
a(I211
g1716
tp4757
a(I212
g1724
tp4758
a(I214
g1740
tp4759
a(I215
g1748
tp4760
a(I217
g1764
tp4761
a(I218
g1772
tp4762
a(I220
g1788
tp4763
a(I221
g1796
tp4764
a(I223
g1812
tp4765
a(I224
g1820
tp4766
a(I226
g1836
tp4767
a(I227
g1844
tp4768
a(I229
g1860
tp4769
a(I230
g1868
tp4770
a(I232
g1884
tp4771
a(I233
g1892
tp4772
a(I235
g1908
tp4773
a(I236
g1916
tp4774
a(I238
g1932
tp4775
a(I239
g1940
tp4776
a(I241
g1956
tp4777
a(I242
g1964
tp4778
a(I244
g1980
tp4779
a(I245
g1988
tp4780
a(I247
g2004
tp4781
a(I248
g2012
tp4782
a(I250
g2028
tp4783
a(I251
g2036
tp4784
a(I253
g2052
tp4785
a(I254
g2060
tp4786
a(I256
g2076
tp4787
a(I257
g2084
tp4788
a(I259
g2100
tp4789
a(I260
g2108
tp4790
a(I262
g2124
tp4791
a(I263
g2132
tp4792
a(I265
g2148
tp4793
a(I266
g2156
tp4794
a(I268
g2172
tp4795
a(I269
g2180
tp4796
a(I271
g2196
tp4797
a(I272
g2204
tp4798
a(I274
g2220
tp4799
a(I275
g2228
tp4800
a(I277
g2244
tp4801
a(I278
g2252
tp4802
a(I280
g2268
tp4803
a(I281
g2276
tp4804
a(I283
g2292
tp4805
a(I284
g2300
tp4806
a(I286
g2316
tp4807
a(I287
g2324
tp4808
a(I289
g2340
tp4809
a(I290
g2348
tp4810
a(I292
g2364
tp4811
a(I293
g2372
tp4812
a(I295
g2388
tp4813
a(I296
g2396
tp4814
a(I298
g2412
tp4815
a(I299
g2420
tp4816
a(I301
g2436
tp4817
a(I302
g2444
tp4818
a(I304
g2460
tp4819
a(I305
g2468
tp4820
a(I307
g2484
tp4821
a(I308
g2492
tp4822
a(I310
g2508
tp4823
a(I311
g2516
tp4824
a(I313
g2532
tp4825
a(I314
g2540
tp4826
a(I316
g2556
tp4827
a(I317
g2564
tp4828
a(I319
g2580
tp4829
a(I320
g2588
tp4830
a(I322
g2604
tp4831
a(I323
g2612
tp4832
a(I325
g2628
tp4833
a(I326
g2636
tp4834
a(I328
g2652
tp4835
a(I329
g2660
tp4836
a(I331
g2676
tp4837
a(I332
g2684
tp4838
a(I334
g2700
tp4839
a(I335
g2708
tp4840
a(I337
g2724
tp4841
a(I338
g2732
tp4842
a(I340
g2748
tp4843
a(I341
g2756
tp4844
a(I343
g2772
tp4845
a(I344
g2780
tp4846
a(I346
g2796
tp4847
a(I347
g2804
tp4848
a(I349
g2820
tp4849
a(I350
g2828
tp4850
a(I352
g2844
tp4851
a(I353
g2852
tp4852
a(I355
g2868
tp4853
a(I356
g2876
tp4854
a(I358
g2892
tp4855
a(I359
g2900
tp4856
a(I361
g2916
tp4857
a(I362
g2924
tp4858
a(I364
g2940
tp4859
a(I365
g2948
tp4860
a(I367
g2964
tp4861
a(I368
g2972
tp4862
a(I370
g2988
tp4863
a(I371
g2996
tp4864
a(I373
g3012
tp4865
a(I374
g3020
tp4866
a(I376
g3036
tp4867
a(I377
g3044
tp4868
a(I379
g3060
tp4869
a(I380
g3068
tp4870
a(I382
g3084
tp4871
a(I383
g3092
tp4872
a(I385
g3108
tp4873
a(I386
g3116
tp4874
a(I388
g3132
tp4875
a(I389
g3140
tp4876
a(I391
g3156
tp4877
a(I392
g3164
tp4878
a(I394
g3180
tp4879
a(I395
g3188
tp4880
a(I397
g3204
tp4881
a(I398
g3212
tp4882
a(I400
g3228
tp4883
a(I401
g3236
tp4884
a(I403
g3252
tp4885
a(I404
g3260
tp4886
a(I406
g3276
tp4887
a(I407
g3284
tp4888
a(I409
g3300
tp4889
a(I410
g3308
tp4890
a(I412
g3324
tp4891
a(I413
g3332
tp4892
a(I415
g3348
tp4893
a(I416
g3356
tp4894
a(I418
g3372
tp4895
a(I419
g3380
tp4896
a(I421
g3396
tp4897
a(I422
g3404
tp4898
a(I424
g3420
tp4899
a(I425
g3428
tp4900
a(I427
g3444
tp4901
a(I428
g3452
tp4902
a(I430
g3468
tp4903
a(I431
g3476
tp4904
a(I433
g3492
tp4905
a(I434
g3500
tp4906
a(I436
g3516
tp4907
a(I437
g3524
tp4908
a(I439
g3540
tp4909
a(I440
g3548
tp4910
a(I442
g3564
tp4911
a(I443
g3572
tp4912
a(I445
g3588
tp4913
a(I446
g3596
tp4914
a(I448
g3612
tp4915
a(I449
g3620
tp4916
a(I451
g3636
tp4917
a(I452
g3644
tp4918
a(I454
g3660
tp4919
a(I455
g3668
tp4920
a(I457
g3684
tp4921
a(I458
g3692
tp4922
a(I460
g3708
tp4923
a(I461
g3716
tp4924
a(I463
g3732
tp4925
a(I464
g3740
tp4926
a(I466
g3756
tp4927
a(I467
g3764
tp4928
a(I469
g3780
tp4929
a(I470
g3788
tp4930
a(I472
g3804
tp4931
a(I473
g3812
tp4932
a(I475
g3828
tp4933
a(I476
g3836
tp4934
a(I478
g3852
tp4935
a(I479
g3860
tp4936
a(I481
g3876
tp4937
a(I482
g3884
tp4938
a(I484
g3900
tp4939
a(I485
g3908
tp4940
a(I487
g3924
tp4941
a(I488
g3932
tp4942
a(I490
g3948
tp4943
a(I491
g3956
tp4944
a(I493
g3972
tp4945
a(I494
g3980
tp4946
a(I496
g3996
tp4947
a(I497
g4004
tp4948
a(I499
g4020
tp4949
a(I500
g4028
tp4950
a(I502
g4044
tp4951
a(I503
g4052
tp4952
a(I505
g4068
tp4953
a(I506
g4076
tp4954
a(I508
g4092
tp4955
a(I509
g4100
tp4956
a(I511
g4116
tp4957
a(I512
g4124
tp4958
a(I514
g4140
tp4959
a(I515
g4148
tp4960
a(I517
g4164
tp4961
a(I518
g4172
tp4962
a(I520
g4188
tp4963
a(I521
g4196
tp4964
a(I523
g4212
tp4965
a(I524
g4220
tp4966
a(I526
g4236
tp4967
a(I527
g4244
tp4968
a(I529
g4260
tp4969
a(I530
g4268
tp4970
a(I532
g4284
tp4971
a(I533
g4292
tp4972
a(I535
g4308
tp4973
a(I536
g4316
tp4974
a(I538
g4332
tp4975
a(I539
g4340
tp4976
a(I541
g4356
tp4977
a(I542
g4364
tp4978
a(I544
g4380
tp4979
a(I545
g4388
tp4980
a(I547
g4404
tp4981
a(I548
g4412
tp4982
asI1
(lp4983
sI2
(lp4984
ssS'all_features'
p4985
(lp4986
I1
aI2
aI3
aI8
aI9
aI13
aI14
aI17
aI18
aI20
aI21
aI23
aI24
aI33
aI4
aI5
aI7
aI16
aI35
aI22
aI10
aI11
aI12
aI15
aI19
aI27
aI6
aI30
aI37
aI34
aI39
aI32
aI36
aI31
aI25
aI41
aI28
aI29
aI42
aI26
aI40
aI38
aI45
aI46
aI44
aI43
asb.