ccopy_reg
_reconstructor
p0
(cpredictor_subclasses
AveragedPerceptron
p1
c__builtin__
object
p2
Ntp3
Rp4
(dp5
S'learning_rate'
p6
F1.0
sS'w_avg'
p7
(dp8
I1
F7278.788637000064
sI2
F7188.545396000036
sI3
F-2894.030193999943
sI4
F-6390.885924000062
sI5
F6793.565334000017
sI6
F-2551.0930930000454
sI7
F-8439.377933999951
sI8
F-23830.851483000166
sI9
F18408.695618000063
sI10
F-10635.528836999983
sI11
F-14224.115814000019
sI12
F21823.143751999964
sI13
F-14499.090696999925
sI14
F-75.70927699996527
sI15
F-1718.4147039999891
sI16
F15534.350867999949
sI17
F-5493.860872000009
sI18
F17133.079916000013
sI19
F-7405.065188000038
sI20
F1342.615590000022
sI21
F12716.561259000038
sI22
F-63.850745999968346
sI23
F-8428.585930000036
sI24
F-9105.39031199998
sI25
F-540.6644219999878
sI26
F19804.879047000115
sI27
F10619.218753000036
sI28
F9796.03798699999
sI29
F-9825.148430999978
sI30
F9942.179802000092
sI31
F14931.345012000013
sI32
F7641.579150000029
sI33
F-2112.358900000014
sI34
F-2367.055490000007
sI35
F9070.157911000013
sI36
F6153.642128000023
sI37
F-15522.131780000092
sI38
F-3216.8253299999515
sI39
F-9472.793275000027
sI40
F8395.475913999951
sI41
F-752.9591039999385
sI42
F7708.842042000081
sI43
F-1062.8671230000418
sI44
F10991.186896000028
sI45
F-21557.49554499988
sI46
F15711.878535999991
sI47
F-13817.115887000093
sI48
F-23242.749060000024
sI49
F21009.761897999986
sI50
F899.9829450000015
sI51
F-3278.4539780000046
sI52
F-5937.751125999983
sI53
F-7052.183123000019
sI54
F-9725.666301000005
sI55
F-807.4146379999952
sI56
F7157.851742999971
sI57
F-3616.326295999961
sI58
F-5339.475965000002
sI59
F-509.3206370000094
sI60
F-10918.01237400016
sI61
F674.1547570000301
sI62
F7838.440667999971
sI63
F24079.295003
sI64
F-4467.096027999959
sI65
F-8674.986823000061
sI66
F-7299.444184999942
sI67
F-8899.156449999919
sI68
F-8964.85208000004
sI69
F-9858.127439999987
sI70
F3010.784264999951
sI71
F-10237.246255000015
sI72
F6011.142009000028
sI73
F16741.888675999955
sI74
F-9237.58603199994
sI75
F13332.485127000036
sI76
F-7149.7870619999685
sI77
F-34145.552273999885
sI78
F-2467.070712000045
sI79
F-1686.456954000032
sI80
F12267.976794999984
sI81
F6939.506682000014
sI82
F-11795.577261999973
sI83
F3615.2644090000513
sI84
F24017.938832000098
sI85
F-14016.942781000014
sI86
F6194.864450999972
sI87
F-7120.715361999995
sI88
F4161.574715999993
sI89
F-16736.48297099998
sI90
F-6460.41429400001
sI91
F2641.126171999987
sI92
F-11278.854650000118
sI93
F6406.8313610000105
sI94
F1796.242519000006
ssS'w'
p9
g8
sS'iterations'
p10
I5
sb.