ccopy_reg
_reconstructor
p0
(cpredictor_subclasses
Perceptron
p1
c__builtin__
object
p2
Ntp3
Rp4
(dp5
S'learning_rate'
p6
F1.0
sS'w'
p7
(dp8
I1
F-7.186977999999993
sI2
F-4.0223529999999865
sI3
F0.1741990000000313
sI4
F-1.5938130000000172
sI5
F6.676002000000005
sI6
F12.841179999999987
sI7
F-7.1697169999999915
sI8
F1.1630749999999654
sI9
F-3.8533020000000047
sI10
F-9.245261999999997
sI11
F1.4764869999999997
sI12
F3.436704000000007
sI13
F-3.410221000000001
sI14
F-8.638009
sI15
F-5.118088999999991
sI16
F11.741240999999965
sI17
F-3.3208770000000105
sI18
F0.2996610000000041
sI19
F-9.511822000000018
sI20
F0.773002000000014
sI21
F3.9605100000000073
sI22
F1.2041930000000118
sI23
F-0.9896750000000147
sI24
F-7.0715099999999955
sI25
F-0.6870199999999895
sI26
F9.397620000000018
sI27
F5.3933219999999915
sI28
F4.653054000000003
sI29
F-2.91554400000001
sI30
F-0.10952799999997803
sI31
F17.215440000000015
sI32
F5.357570000000009
sI33
F-4.4239150000000045
sI34
F4.115032000000007
sI35
F2.239985999999995
sI36
F-1.212915999999994
sI37
F-3.6093550000000203
sI38
F1.7380900000000121
sI39
F4.922390999999981
sI40
F11.165968000000003
sI41
F-0.8880319999999806
sI42
F8.587436000000032
sI43
F-2.102513000000016
sI44
F-3.476995999999982
sI45
F-3.1986819999999914
sI46
F11.08299899999999
sI47
F-0.47022000000001296
sI48
F-5.525010000000045
sI49
F3.351723999999974
sI50
F4.873130999999995
sI51
F9.438307000000007
sI52
F9.232406999999993
sI53
F-9.212854000000004
sI54
F-8.137695000000004
sI55
F0.49409400000000825
sI56
F5.138490999999989
sI57
F2.130936000000013
sI58
F4.082594999999998
sI59
F-0.6975149999999941
sI60
F-1.3022300000000249
sI61
F-1.91610599999999
sI62
F-0.4190880000000228
sI63
F10.64082099999997
sI64
F7.193668000000013
sI65
F4.282896999999995
sI66
F4.8066330000000175
sI67
F-6.950138999999987
sI68
F-9.96708600000001
sI69
F-6.41359699999999
sI70
F-0.46840100000002627
sI71
F-3.2173620000000227
sI72
F0.7598950000000255
sI73
F2.7539580000000004
sI74
F-10.30184500000002
sI75
F3.5389220000000123
sI76
F2.5960849999999938
sI77
F-0.36987999999998533
sI78
F1.4890489999999934
sI79
F-0.644355000000009
sI80
F-4.184484000000007
sI81
F1.8807110000000007
sI82
F-2.3789179999999766
sI83
F3.31460400000001
sI84
F0.955753000000006
sI85
F-8.909751000000021
sI86
F1.8816849999999918
sI87
F-7.0821499999999915
sI88
F2.777843000000002
sI89
F-11.42596800000001
sI90
F-4.203908000000007
sI91
F11.951585999999985
sI92
F3.436385999999969
sI93
F5.330045000000003
sI94
F6.048149000000002
ssS'iterations'
p9
I5
sb.