ccopy_reg
_reconstructor
p0
(cpredictor_subclasses
Pegasos
p1
c__builtin__
object
p2
Ntp3
Rp4
(dp5
S'w'
p6
(dp7
I1
F-14.555500000000057
sI2
F6.688104444444452
sI3
F1.4427000000000056
sI4
F13.959764444444438
sI5
F24.198464444444454
sI6
F28.68046000000008
sI7
F-26.180075555555455
sI8
F14.945320000000063
sI9
F-21.54798888888896
sI10
F-15.537660000000011
sI11
F0.7106733333334887
sI12
F6.566099999999933
sI13
F-5.741957777777902
sI14
F-4.899717777777759
sI15
F-11.732104444444474
sI16
F23.91644444444452
sI17
F1.5424355555555913
sI18
F-8.397251111111121
sI19
F-22.126975555555557
sI20
F-1.9884222222223205
sI21
F-2.215544444444432
sI22
F-0.5220999999998983
sI23
F-7.103973333333419
sI24
F-12.397079999999974
sI25
F-1.6195955555555197
sI26
F8.1817511111111
sI27
F6.259971111111151
sI28
F18.76769999999985
sI29
F-11.973326666666738
sI30
F16.38081555555545
sI31
F29.92213111111109
sI32
F4.721002222222199
sI33
F-12.398286666666646
sI34
F5.776533333333318
sI35
F17.046802222222247
sI36
F-5.3660555555555245
sI37
F6.25128666666672
sI38
F-6.192613333333304
sI39
F18.70293777777779
sI40
F13.942231111110972
sI41
F10.096902222222214
sI42
F29.47731999999996
sI43
F-10.755602222222166
sI44
F-7.390468888888897
sI45
F-23.007282222222244
sI46
F13.67512000000003
sI47
F-5.738546666666583
sI48
F-11.737471111111088
sI49
F5.573879999999891
sI50
F-5.130691111111098
sI51
F14.668151111111039
sI52
F11.603611111111178
sI53
F-25.528748888888842
sI54
F-5.539591111111058
sI55
F-3.9482333333332775
sI56
F-3.0911066666667546
sI57
F15.564631111111105
sI58
F-5.53273777777781
sI59
F-10.481360000000011
sI60
F0.130788888888999
sI61
F-7.592851111111111
sI62
F-0.9323399999999991
sI63
F24.32411333333337
sI64
F16.240795555555515
sI65
F-8.613884444444427
sI66
F8.58393333333339
sI67
F-9.48494444444442
sI68
F-13.864955555555547
sI69
F1.5315977777777683
sI70
F-5.711442222222283
sI71
F-8.846395555555583
sI72
F7.634693333333406
sI73
F18.05899333333324
sI74
F-6.24552444444442
sI75
F24.48265999999993
sI76
F-2.5861355555556838
sI77
F-8.518562222222144
sI78
F-0.026948888888854827
sI79
F4.797608888888891
sI80
F-3.8403933333332523
sI81
F5.947897777777799
sI82
F0.12236666666679896
sI83
F-3.451419999999952
sI84
F8.591242222221984
sI85
F-25.305535555555494
sI86
F-2.8207488888888026
sI87
F-10.007384444444353
sI88
F11.151484444444385
sI89
F2.8668866666664807
sI90
F14.975037777777754
sI91
F24.663137777777777
sI92
F1.5015511111111342
sI93
F6.682013333333311
sI94
F7.107326666666655
ssS'pegasos_lambda'
p8
F0.0001
sS'iterations'
p9
I5
sb.