ccopy_reg
_reconstructor
p0
(cpredictor_subclasses
MarginPerceptron
p1
c__builtin__
object
p2
Ntp3
Rp4
(dp5
S'learning_rate'
p6
F1.0
sS'w'
p7
(dp8
I1
F-2.6362919999999903
sI2
F1.8485300000000207
sI3
F-0.37027599999997696
sI4
F-7.930030999999994
sI5
F9.932009000000004
sI6
F5.527732999999984
sI7
F-14.625027
sI8
F-0.21367800000003578
sI9
F-6.283806999999998
sI10
F-12.413931999999996
sI11
F1.9242789999999723
sI12
F-3.623329999999987
sI13
F-0.6625740000000127
sI14
F-5.890411000000014
sI15
F-2.051810999999974
sI16
F10.133362999999997
sI17
F-1.2789799999999931
sI18
F0.9150489999999843
sI19
F-10.75714100000001
sI20
F2.850191000000025
sI21
F1.1856539999999924
sI22
F2.2386470000000083
sI23
F-4.634911999999986
sI24
F-5.047816000000009
sI25
F3.8888260000000043
sI26
F13.906129000000014
sI27
F7.526573000000009
sI28
F3.9516850000000323
sI29
F-2.7352130000000128
sI30
F10.624953999999974
sI31
F12.955551000000032
sI32
F11.189530000000024
sI33
F-8.416922000000019
sI34
F2.316681000000018
sI35
F3.9434790000000146
sI36
F-5.668522999999989
sI37
F1.7338349999999672
sI38
F-5.002130000000005
sI39
F3.6992850000000135
sI40
F11.028791999999992
sI41
F5.935509000000012
sI42
F6.942777000000021
sI43
F-4.649073000000027
sI44
F0.381614000000029
sI45
F-5.2920639999999874
sI46
F4.6744789999999945
sI47
F-2.596787000000003
sI48
F-4.583253000000023
sI49
F1.1717259999999416
sI50
F-0.4877960000000081
sI51
F4.972537999999998
sI52
F3.213171999999999
sI53
F-12.906941999999987
sI54
F-3.478968999999993
sI55
F-2.762135999999991
sI56
F-2.9213840000000504
sI57
F1.1764570000000025
sI58
F1.937057999999976
sI59
F-1.7888590000000049
sI60
F-0.0234699999999943
sI61
F2.431709000000017
sI62
F-3.979498000000005
sI63
F8.64451399999998
sI64
F10.401743000000016
sI65
F-0.8762890000000235
sI66
F2.1808759999999747
sI67
F-4.041150999999988
sI68
F-2.27845400000002
sI69
F-7.4192089999999835
sI70
F3.9423109999999864
sI71
F0.37771099999999835
sI72
F8.043605000000005
sI73
F6.554354000000007
sI74
F-4.481805000000016
sI75
F6.67086700000001
sI76
F-2.006683999999986
sI77
F-0.6776819999999901
sI78
F-2.281945000000008
sI79
F0.3415290000000204
sI80
F1.607195999999996
sI81
F-0.5316509999999994
sI82
F-9.87951399999999
sI83
F-5.286689999999989
sI84
F8.626445999999994
sI85
F-12.646177000000005
sI86
F1.8909249999999813
sI87
F-3.271177000000006
sI88
F2.4145719999999824
sI89
F0.24309499999997616
sI90
F-1.0303299999999946
sI91
F13.894135999999996
sI92
F7.293436999999987
sI93
F6.526036000000013
sI94
F1.5873170000000056
ssS'iterations'
p9
I5
sb.