ccopy_reg
_reconstructor
p0
(cpredictor_subclasses
Pegasos
p1
c__builtin__
object
p2
Ntp3
Rp4
(dp5
S'w'
p6
(dp7
I1
F0.35500000000000065
sI2
F-20.52199999999997
sI3
F-12.925999999999966
sI4
F6.985000000000005
sI5
F-12.610999999999956
sI6
F-19.217000000000017
sI7
F-45.862999999999815
sI8
F-11.806999999999974
sI9
F-25.208999999999914
sI10
F-13.28700000000005
sI11
F-25.20699999999998
sI12
F-18.428999999999984
sI13
F-10.730999999999959
sI14
F-2.857999999999982
sI15
F5.24299999999999
sI16
F4.536000000000018
sI17
F-12.203000000000001
sI18
F0.3980000000000066
sI19
F6.654999999999995
sI20
F-9.499999999999986
sI21
F10.320999999999989
sI22
F17.886000000000003
sI23
F22.33399999999993
sI24
F10.995000000000015
sI25
F-2.370999999999956
sI26
F3.2430000000000234
sI27
F-2.258999999999995
sI28
F-7.219000000000001
sI29
F15.549999999999986
sI30
F13.834000000000003
sI31
F8.977999999999977
sI32
F7.536000000000013
sI33
F-13.969999999999994
sI34
F-18.260999999999953
sI35
F-16.876999999999967
sI36
F-17.082999999999988
sI37
F39.76099999999989
sI38
F8.979000000000005
sI39
F-42.41699999999997
sI40
F-19.354999999999954
sI41
F-12.756999999999971
sI42
F14.862000000000034
sI43
F8.144999999999962
sI44
F-16.39700000000001
sI45
F-26.437000000000022
sI46
F-0.4079999999999961
sI47
F10.792
sI48
F-12.395999999999953
sI49
F-7.4550000000000045
sI50
F-15.839000000000029
sI51
F-37.56499999999999
sI52
F-7.432000000000003
sI53
F-6.524000000000002
sI54
F23.150999999999986
sI55
F9.45799999999998
sI56
F-6.904999999999971
sI57
F-3.672999999999986
sI58
F4.17600000000002
sI59
F-10.125999999999994
sI60
F-16.00499999999992
sI61
F-9.56999999999999
sI62
F-14.243
sI63
F-31.688
sI64
F-3.7179999999999893
sI65
F-13.859999999999937
sI66
F-16.80999999999995
sI67
F-19.266999999999996
sI68
F-9.172999999999952
sI69
F62.13999999999993
sI70
F9.356000000000012
sI71
F-31.142999999999837
sI72
F-48.08099999999998
sI73
F-70.42600000000009
sI74
F-52.549
sI75
F-53.093999999999944
sI76
F-54.31
sI77
F-1.5190000000000055
sI78
F18.156000000000006
sI79
F34.16500000000002
sI80
F25.95900000000004
sI81
F-23.977000000000004
sI82
F-26.839999999999996
sI83
F-32.332000000000015
sI84
F-25.57299999999997
sI85
F-0.15600000000001168
sI86
F23.60999999999999
sI87
F0.8919999999999854
sI88
F-5.681999999999967
sI89
F-3.492999999999959
sI90
F-25.437999999999917
sI91
F-19.616000000000046
sI92
F-3.538999999999985
sI93
F2.1910000000000265
sI94
F3.577999999999995
sI95
F29.098000000000052
sI96
F28.762999999999913
sI97
F-26.333999999999957
sI98
F-14.547
sI99
F-16.895
sI100
F3.332999999999991
sI101
F58.39500000000001
sI102
F11.870000000000006
sI103
F-28.967000000000034
sI104
F-34.48799999999983
sI105
F-102.87300000000012
sI106
F-148.5479999999999
sI107
F-131.82399999999993
sI108
F-68.39300000000006
sI109
F32.89200000000004
sI110
F62.74800000000009
sI111
F37.106
sI112
F30.434999999999988
sI113
F13.776000000000003
sI114
F6.092999999999994
sI115
F-13.317999999999989
sI116
F-34.06999999999995
sI117
F22.01099999999999
sI118
F47.72499999999991
sI119
F42.32499999999999
sI120
F14.157999999999992
sI121
F16.725000000000072
sI122
F31.897000000000006
sI123
F16.272999999999954
sI124
F-24.027000000000037
sI125
F-14.869999999999992
sI126
F-31.495999999999977
sI127
F-5.720000000000004
sI128
F-2.3450000000000104
sI129
F-23.324999999999992
sI130
F-15.04899999999994
sI131
F-13.97000000000002
sI132
F1.5209999999999946
sI133
F60.05399999999985
sI134
F20.90800000000001
sI135
F10.673000000000002
sI136
F-20.10799999999989
sI137
F-109.40299999999995
sI138
F-124.08200000000005
sI139
F-107.1909999999997
sI140
F-96.80099999999976
sI141
F-34.377999999999936
sI142
F-19.076999999999956
sI143
F10.921000000000037
sI144
F12.31399999999991
sI145
F7.156999999999947
sI146
F-2.2870000000000115
sI147
F-8.468000000000005
sI148
F-22.879999999999963
sI149
F42.05999999999992
sI150
F36.06700000000004
sI151
F5.7069999999999945
sI152
F-66.75000000000001
sI153
F-18.21
sI154
F39.47100000000011
sI155
F61.39199999999992
sI156
F13.855999999999995
sI157
F-30.989999999999977
sI158
F-60.138
sI159
F-57.02900000000003
sI160
F-43.271000000000065
sI161
F-21.160000000000053
sI162
F-14.660999999999984
sI163
F20.655999999999953
sI164
F19.955000000000027
sI165
F96.01999999999997
sI166
F120.97199999999997
sI167
F88.46500000000017
sI168
F-12.6009999999999
sI169
F-83.7219999999999
sI170
F-106.586
sI171
F-98.06300000000026
sI172
F-79.29499999999999
sI173
F-39.151000000000025
sI174
F-25.52799999999992
sI175
F36.06999999999989
sI176
F48.22599999999995
sI177
F54.526999999999845
sI178
F42.65399999999998
sI179
F10.709000000000009
sI180
F-27.51299999999995
sI181
F-19.07100000000001
sI182
F43.60499999999997
sI183
F35.68899999999997
sI184
F-21.93200000000006
sI185
F-24.02199999999992
sI186
F31.798999999999978
sI187
F56.62399999999985
sI188
F11.473000000000011
sI189
F-16.30599999999998
sI190
F-31.082999999999934
sI191
F-42.42200000000002
sI192
F-40.594000000000015
sI193
F-14.578999999999976
sI194
F-18.071999999999964
sI195
F-10.144000000000004
sI196
F-4.3349999999999556
sI197
F75.46100000000003
sI198
F73.25100000000005
sI199
F10.955000000000007
sI200
F-45.70599999999999
sI201
F-90.01400000000011
sI202
F-101.94999999999968
sI203
F-57.495999999999945
sI204
F-46.938999999999915
sI205
F-3.0770000000000164
sI206
F21.681000000000044
sI207
F45.50500000000002
sI208
F49.26999999999995
sI209
F30.446999999999992
sI210
F-5.528000000000041
sI211
F2.843999999999962
sI212
F24.529999999999962
sI213
F-8.622999999999916
sI214
F36.19599999999991
sI215
F2.2179999999999938
sI216
F-36.225999999999985
sI217
F-29.355000000000018
sI218
F-35.35499999999998
sI219
F-32.937
sI220
F-19.68
sI221
F6.338999999999978
sI222
F3.0610000000000106
sI223
F-0.14900000000000285
sI224
F40.817999999999934
sI225
F-17.13100000000002
sI226
F-11.394999999999953
sI227
F-0.797999999999986
sI228
F15.667000000000023
sI229
F-16.197000000000017
sI230
F-15.228999999999907
sI231
F-43.06400000000005
sI232
F-24.560999999999904
sI233
F-44.14700000000002
sI234
F-31.120000000000005
sI235
F-27.97499999999998
sI236
F-34.632000000000026
sI237
F-19.644999999999904
sI238
F-9.33999999999997
sI239
F31.338
sI240
F13.254000000000005
sI241
F-9.948999999999993
sI242
F-1.9929999999999886
sI243
F31.833000000000002
sI244
F-0.6320000000000162
sI245
F27.088999999999967
sI246
F42.80499999999988
sI247
F32.58599999999996
sI248
F13.747999999999985
sI249
F2.8190000000000106
sI250
F3.8199999999999936
sI251
F8.715999999999996
sI252
F14.166999999999959
sI253
F8.141000000000048
sI254
F44.75999999999994
sI255
F48.60900000000003
sI256
F32.00099999999991
sI257
F-22.830000000000002
sI258
F-25.376999999999978
sI259
F-17.322000000000028
sI260
F30.228000000000034
sI261
F0.6970000000000232
sI262
F-13.24699999999993
sI263
F-44.26299999999993
sI264
F-37.295000000000044
sI265
F-20.313000000000038
sI266
F-11.344000000000038
sI267
F-25.240999999999982
sI268
F-31.835000000000043
sI269
F-2.4009999999999967
sI270
F15.604999999999979
sI271
F14.704999999999984
sI272
F18.78699999999997
sI273
F-3.582999999999991
sI274
F14.412999999999984
sI275
F36.24199999999991
sI276
F42.6560000000002
sI277
F4.122999999999985
sI278
F24.70799999999997
sI279
F25.18199999999997
sI280
F25.458999999999975
sI281
F5.432000000000053
sI282
F29.318999999999996
sI283
F-18.74999999999999
sI284
F5.237000000000011
sI285
F4.343000000000001
sI286
F9.865999999999989
sI287
F-16.90300000000002
sI288
F-12.239999999999952
sI289
F7.67100000000001
sI290
F20.93399999999996
sI291
F-9.367
sI292
F-35.46899999999987
sI293
F-62.98999999999974
sI294
F-119.24399999999986
sI295
F-158.52899999999948
sI296
F-155.50599999999986
sI297
F-187.42699999999985
sI298
F-151.05999999999975
sI299
F-46.66100000000011
sI300
F27.53199999999999
sI301
F63.030999999999906
sI302
F57.01999999999996
sI303
F78.96599999999981
sI304
F58.221000000000025
sI305
F0.0019999999999893944
sI306
F3.041000000000014
sI307
F-23.757000000000012
sI308
F-46.044
sI309
F21.699000000000023
sI310
F44.16399999999991
sI311
F-19.372999999999937
sI312
F-49.790000000000035
sI313
F-47.507999999999896
sI314
F-57.04899999999993
sI315
F-25.062999999999985
sI316
F4.435999999999994
sI317
F52.76299999999991
sI318
F79.34899999999993
sI319
F66.14599999999993
sI320
F99.55699999999996
sI321
F-10.000000000000016
sI322
F-9.87300000000002
sI323
F-9.279999999999994
sI324
F-9.501999999999999
sI325
F-9.957000000000027
sI326
F-12.168000000000031
sI327
F-10.311999999999975
sI328
F-11.357000000000008
sI329
F-6.376000000000005
sI330
F-8.82300000000001
sI331
F-5.735999999999992
sI332
F2.9419999999999797
sI333
F9.058999999999985
sI334
F6.217000000000004
sI335
F-4.835999999999981
sI336
F-6.984999999999985
sI337
F-19.516999999999992
sI338
F-56.85799999999987
sI339
F-26.679999999999996
sI340
F-35.68500000000005
sI341
F-42.19700000000004
sI342
F-16.72099999999999
sI343
F-3.085999999999987
sI344
F0.40900000000000064
sI345
F-10.009000000000004
sI346
F-18.202999999999996
sI347
F-15.726999999999965
sI348
F-10.837000000000021
sI349
F-6.516000000000023
sI350
F-10.90499999999999
sI351
F-14.79900000000001
sI352
F-13.783999999999967
sI353
F-14.748999999999969
sI354
F-10.000000000000016
sI355
F-9.850000000000021
sI356
F-9.343000000000004
sI357
F-9.668000000000026
sI358
F-9.707000000000027
sI359
F-9.835999999999993
sI360
F-9.356999999999994
sI361
F-8.869999999999997
sI362
F-5.719000000000009
sI363
F-0.0520000000000039
sI364
F-9.218999999999994
sI365
F36.01499999999993
sI366
F13.505000000000011
sI367
F28.778999999999915
sI368
F-43.792999999999914
sI369
F-46.137999999999906
sI370
F-42.93499999999994
sI371
F-40.794999999999966
sI372
F0.6989999999999793
sI373
F-19.495999999999952
sI374
F-22.357000000000024
sI375
F-11.690999999999995
sI376
F-9.090999999999996
sI377
F-6.520000000000006
sI378
F-10.235999999999997
sI379
F-16.49899999999998
sI380
F-13.235999999999992
sI381
F-9.686000000000009
sI382
F-6.896000000000015
sI383
F-10.871999999999968
sI384
F-14.212999999999983
sI385
F-13.201000000000011
sI386
F-14.207999999999997
sI387
F-10.000000000000016
sI388
F-9.33000000000001
sI389
F-7.09600000000002
sI390
F-9.533000000000015
sI391
F-8.697
sI392
F-11.721999999999998
sI393
F-14.927000000000012
sI394
F-23.587000000000014
sI395
F-32.84399999999997
sI396
F-56.73000000000006
sI397
F-39.92699999999993
sI398
F14.540999999999993
sI399
F8.551999999999992
sI400
F12.013999999999996
sI401
F10.599999999999985
sI402
F-1.7620000000000011
sI403
F5.074999999999994
sI404
F10.940999999999955
sI405
F9.470999999999982
sI406
F1.911999999999983
sI407
F8.910999999999975
sI408
F-9.10999999999997
sI409
F-13.51900000000001
sI410
F-12.843999999999973
sI411
F-17.376999999999935
sI412
F-19.53099999999998
sI413
F7.199999999999985
sI414
F12.164999999999985
sI415
F13.190999999999942
sI416
F7.149999999999981
sI417
F-1.0810000000000073
sI418
F-1.7660000000000053
sI419
F1.167999999999996
sI420
F-10.000000000000016
sI421
F-3.286000000000016
sI422
F-0.42800000000001137
sI423
F-11.99999999999996
sI424
F2.1409999999999814
sI425
F0.4310000000000045
sI426
F-8.714999999999987
sI427
F-66.5719999999999
sI428
F-5.713000000000008
sI429
F-28.418999999999986
sI430
F10.99899999999999
sI431
F22.144999999999996
sI432
F-32.999999999999936
sI433
F-37.142
sI434
F-53.143000000000086
sI435
F-58.70700000000002
sI436
F11.716000000000056
sI437
F5.992999999999985
sI438
F4.864000000000035
sI439
F52.85599999999985
sI440
F49.708999999999854
sI441
F12.284000000000002
sI442
F33.574000000000034
sI443
F91.00799999999985
sI444
F45.71099999999995
sI445
F19.14299999999998
sI446
F-11.282000000000044
sI447
F16.42899999999993
sI448
F9.85499999999996
sI449
F-11.428000000000026
sI450
F-15.713999999999965
sI451
F-11.715999999999994
sI452
F-0.28500000000003317
sI453
F-8.351999999999965
sI454
F-6.80099999999999
sI455
F-6.140999999999996
sI456
F-7.540999999999968
sI457
F-8.124999999999995
sI458
F-6.079999999999964
sI459
F-2.654999999999985
sI460
F1.5680000000000038
sI461
F11.050999999999986
sI462
F24.88999999999996
sI463
F4.72500000000002
sI464
F5.276000000000006
sI465
F1.4780000000000042
sI466
F1.1790000000000174
sI467
F0.5519999999999954
sI468
F1.1850000000000152
sI469
F2.2510000000000043
sI470
F5.130999999999989
sI471
F2.1499999999999897
sI472
F11.981000000000003
sI473
F28.06599999999999
sI474
F63.81799999999996
sI475
F10.665000000000019
sI476
F7.158000000000006
sI477
F10.004000000000042
sI478
F23.129000000000026
sI479
F52.08900000000004
sI480
F39.083999999999975
sI481
F-0.8300000000000096
sI482
F8.766000000000062
sI483
F11.844999999999999
sI484
F-27.917999999999985
sI485
F-4.0969999999999995
sI486
F-8.295
sI487
F6.186000000000009
sI488
F38.634000000000015
sI489
F6.022000000000018
sI490
F-16.133999999999965
sI491
F-0.06199999999998678
sI492
F-0.7559999999999755
sI493
F-49.179999999999936
sI494
F-27.78299999999998
sI495
F7.855999999999971
sI496
F-6.010999999999998
sI497
F0.6440000000000097
sI498
F-14.102999999999986
sI499
F-23.429999999999954
sI500
F22.53500000000003
sI501
F-3.2369999999999663
sI502
F5.5929999999999955
sI503
F11.227999999999954
sI504
F21.059000000000026
sI505
F-6.098999999999989
sI506
F29.645999999999965
sI507
F26.19799999999999
sI508
F-12.752999999999995
sI509
F-15.501999999999937
sI510
F10.83399999999999
sI511
F-13.136999999999977
sI512
F0.37899999999997347
sI513
F16.04499999999994
sI514
F20.55899999999999
sI515
F0.9990000000000081
sI516
F-20.75399999999999
sI517
F-16.695000000000007
sI518
F-6.138999999999958
sI519
F13.684999999999969
sI520
F29.630999999999982
sI521
F1.5760000000000107
sI522
F2.9040000000000092
sI523
F-0.8529999999999758
sI524
F-12.269999999999952
sI525
F-26.23199999999999
sI526
F5.63700000000001
sI527
F-23.639999999999983
sI528
F-37.440000000000005
sI529
F32.829000000000015
sI530
F2.5620000000000247
sI531
F-11.51299999999997
sI532
F8.717999999999986
sI533
F10.29299999999999
sI534
F12.468000000000051
sI535
F-1.7400000000000049
sI536
F18.742999999999984
sI537
F27.189000000000036
sI538
F-1.1890000000000052
sI539
F-6.213999999999976
sI540
F-41.14900000000001
sI541
F-36.467999999999954
sI542
F-7.422000000000026
sI543
F31.13899999999999
sI544
F15.47500000000002
sI545
F-4.5500000000000105
sI546
F3.8509999999999787
sI547
F22.67899999999999
sI548
F-18.026999999999955
sI549
F-11.844999999999963
sI550
F8.156000000000013
sI551
F8.245000000000028
sI552
F8.903999999999998
sI553
F-21.899
sI554
F-7.980999999999989
sI555
F17.318000000000005
sI556
F-0.388999999999995
sI557
F-1.3179999999999932
sI558
F2.382000000000005
sI559
F9.282999999999996
sI560
F-12.573000000000018
sI561
F37.10600000000003
sI562
F29.077999999999967
sI563
F17.803999999999988
sI564
F8.40900000000001
sI565
F-26.152000000000005
sI566
F7.023000000000015
sI567
F8.936999999999998
sI568
F31.12899999999988
sI569
F16.535999999999945
sI570
F11.154999999999934
sI571
F27.53599999999996
sI572
F23.38200000000002
sI573
F10.897000000000034
sI574
F32.66500000000005
sI575
F39.936999999999905
sI576
F13.819999999999995
sI577
F30.86399999999991
sI578
F-30.000000000000014
sI579
F-30.000000000000004
sI580
F49.99999999999996
sI581
F7.000000000000015
sI582
F-5.000000000000023
sI583
F8.999999999999993
sI584
F1.8290000000000024
sI585
F39.99999999999998
sI586
F43.20599999999986
sI587
F9.34899999999999
sI588
F-37.56100000000001
sI589
F-45.122999999999955
sI590
F-60.00100000000008
sI591
F-27.143
sI592
F-4.8300000000000045
sI593
F-3.2350000000000017
sI594
F20.890000000000047
sI595
F8.178000000000003
sI596
F50.859999999999964
sI597
F39.94699999999992
sI598
F-38.99999999999984
sI599
F-38.91199999999981
sI600
F-54.96299999999989
sI601
F-33.69199999999994
sI602
F11.292000000000009
sI603
F-4.0529999999999715
sI604
F20.149000000000015
sI605
F4.111999999999978
sI606
F11.007999999999985
sI607
F17.736999999999984
sI608
F-8.551000000000002
sI609
F17.76299999999996
sI610
F-21.187
sI611
F46.90999999999994
sI612
F61.64199999999981
sI613
F42.90799999999991
sI614
F41.320000000000135
sI615
F39.25899999999993
sI616
F21.978999999999946
sI617
F21.963999999999928
ssS'pegasos_lambda'
p8
F0.0001
sS'iterations'
p9
I5
sb.