ccopy_reg
_reconstructor
p0
(cpredictor_subclasses
MarginPerceptron
p1
c__builtin__
object
p2
Ntp3
Rp4
(dp5
S'learning_rate'
p6
F1.0
sS'w'
p7
(dp8
I1
F0.07099999999999884
sI2
F-4.1044
sI3
F-2.5852000000000013
sI4
F1.3970000000000005
sI5
F-2.5222000000000016
sI6
F-3.8433999999999977
sI7
F-9.172599999999992
sI8
F-2.361399999999998
sI9
F-5.041799999999995
sI10
F-2.6573999999999938
sI11
F-5.0413999999999985
sI12
F-3.6858000000000017
sI13
F-2.1461999999999986
sI14
F-0.5716000000000002
sI15
F1.0486000000000004
sI16
F0.9072000000000001
sI17
F-2.440599999999998
sI18
F0.07960000000000034
sI19
F1.3310000000000024
sI20
F-1.9000000000000008
sI21
F2.0641999999999987
sI22
F3.5771999999999995
sI23
F4.466799999999999
sI24
F2.1990000000000003
sI25
F-0.47419999999999896
sI26
F0.648599999999998
sI27
F-0.45179999999999987
sI28
F-1.4437999999999998
sI29
F3.109999999999998
sI30
F2.766800000000001
sI31
F1.795599999999998
sI32
F1.5071999999999977
sI33
F-2.7940000000000005
sI34
F-3.652200000000001
sI35
F-3.3753999999999995
sI36
F-3.4165999999999985
sI37
F7.952199999999995
sI38
F1.7958000000000003
sI39
F-8.483400000000003
sI40
F-3.871000000000001
sI41
F-2.551400000000003
sI42
F2.972399999999999
sI43
F1.6289999999999996
sI44
F-3.2794
sI45
F-5.2874
sI46
F-0.08160000000000112
sI47
F2.1584000000000003
sI48
F-2.479200000000001
sI49
F-1.4909999999999983
sI50
F-3.167800000000004
sI51
F-7.5130000000000035
sI52
F-1.4863999999999988
sI53
F-1.3048000000000008
sI54
F4.630200000000001
sI55
F1.8916000000000022
sI56
F-1.3810000000000016
sI57
F-0.7346
sI58
F0.8351999999999999
sI59
F-2.025200000000002
sI60
F-3.2009999999999987
sI61
F-1.9139999999999995
sI62
F-2.8485999999999976
sI63
F-6.337600000000004
sI64
F-0.7436000000000014
sI65
F-2.771999999999998
sI66
F-3.3619999999999988
sI67
F-3.853400000000001
sI68
F-1.8346000000000018
sI69
F12.427999999999995
sI70
F1.8711999999999989
sI71
F-6.2285999999999895
sI72
F-9.616199999999996
sI73
F-14.085200000000007
sI74
F-10.50979999999998
sI75
F-10.6188
sI76
F-10.862000000000007
sI77
F-0.30379999999999785
sI78
F3.6311999999999998
sI79
F6.832999999999999
sI80
F5.191799999999997
sI81
F-4.795400000000003
sI82
F-5.367999999999999
sI83
F-6.466400000000002
sI84
F-5.1146
sI85
F-0.031199999999997674
sI86
F4.721999999999998
sI87
F0.1784000000000005
sI88
F-1.1363999999999999
sI89
F-0.6986000000000003
sI90
F-5.0876
sI91
F-3.923200000000002
sI92
F-0.7077999999999994
sI93
F0.43820000000000225
sI94
F0.7155999999999998
sI95
F5.8196
sI96
F5.752600000000002
sI97
F-5.2668000000000035
sI98
F-2.9094
sI99
F-3.3790000000000013
sI100
F0.6666
sI101
F11.679000000000014
sI102
F2.3739999999999997
sI103
F-5.793400000000007
sI104
F-6.8975999999999935
sI105
F-20.574600000000014
sI106
F-29.709599999999995
sI107
F-26.3648
sI108
F-13.678600000000008
sI109
F6.578400000000001
sI110
F12.549599999999998
sI111
F7.421200000000007
sI112
F6.086999999999998
sI113
F2.755200000000004
sI114
F1.2186000000000023
sI115
F-2.6636000000000046
sI116
F-6.813999999999998
sI117
F4.4022
sI118
F9.544999999999987
sI119
F8.46499999999999
sI120
F2.831600000000001
sI121
F3.3449999999999953
sI122
F6.379399999999997
sI123
F3.2546
sI124
F-4.8054000000000014
sI125
F-2.9740000000000015
sI126
F-6.2992
sI127
F-1.1439999999999992
sI128
F-0.4690000000000007
sI129
F-4.6649999999999965
sI130
F-3.0097999999999976
sI131
F-2.7939999999999996
sI132
F0.30419999999999797
sI133
F12.0108
sI134
F4.181599999999998
sI135
F2.134600000000003
sI136
F-4.021599999999998
sI137
F-21.880599999999998
sI138
F-24.816400000000005
sI139
F-21.43819999999999
sI140
F-19.360199999999974
sI141
F-6.875599999999993
sI142
F-3.8154000000000017
sI143
F2.1841999999999944
sI144
F2.462800000000009
sI145
F1.4313999999999971
sI146
F-0.45740000000000114
sI147
F-1.6936000000000007
sI148
F-4.5760000000000005
sI149
F8.412000000000004
sI150
F7.213400000000006
sI151
F1.1414000000000002
sI152
F-13.350000000000001
sI153
F-3.6420000000000026
sI154
F7.894199999999999
sI155
F12.278400000000001
sI156
F2.7711999999999946
sI157
F-6.197999999999992
sI158
F-12.027600000000009
sI159
F-11.405800000000005
sI160
F-8.6542
sI161
F-4.232
sI162
F-2.9322000000000017
sI163
F4.1312000000000015
sI164
F3.9909999999999983
sI165
F19.20400000000002
sI166
F24.194400000000016
sI167
F17.692999999999998
sI168
F-2.520200000000002
sI169
F-16.744400000000006
sI170
F-21.317200000000014
sI171
F-19.612600000000008
sI172
F-15.858999999999988
sI173
F-7.8302000000000085
sI174
F-5.105600000000005
sI175
F7.214000000000007
sI176
F9.645200000000008
sI177
F10.905400000000002
sI178
F8.530800000000003
sI179
F2.141799999999998
sI180
F-5.502600000000003
sI181
F-3.8141999999999996
sI182
F8.721000000000004
sI183
F7.137800000000002
sI184
F-4.386399999999997
sI185
F-4.804400000000002
sI186
F6.3598
sI187
F11.324799999999996
sI188
F2.294600000000001
sI189
F-3.2611999999999974
sI190
F-6.216600000000008
sI191
F-8.484400000000006
sI192
F-8.1188
sI193
F-2.9158000000000026
sI194
F-3.614399999999999
sI195
F-2.0288000000000004
sI196
F-0.8670000000000025
sI197
F15.0922
sI198
F14.650200000000002
sI199
F2.1909999999999985
sI200
F-9.141199999999996
sI201
F-18.0028
sI202
F-20.390000000000022
sI203
F-11.499199999999998
sI204
F-9.387800000000006
sI205
F-0.6153999999999988
sI206
F4.336199999999997
sI207
F9.101
sI208
F9.854000000000005
sI209
F6.0894
sI210
F-1.1056000000000004
sI211
F0.5688000000000034
sI212
F4.9060000000000015
sI213
F-1.7246000000000026
sI214
F7.239199999999999
sI215
F0.4435999999999972
sI216
F-7.245199999999997
sI217
F-5.8709999999999996
sI218
F-7.070999999999998
sI219
F-6.587400000000003
sI220
F-3.9360000000000004
sI221
F1.2677999999999998
sI222
F0.6121999999999994
sI223
F-0.02980000000000055
sI224
F8.163599999999997
sI225
F-3.4262000000000006
sI226
F-2.2789999999999995
sI227
F-0.15960000000000013
sI228
F3.133400000000001
sI229
F-3.239399999999998
sI230
F-3.0457999999999985
sI231
F-8.6128
sI232
F-4.912200000000004
sI233
F-8.8294
sI234
F-6.224000000000003
sI235
F-5.595000000000003
sI236
F-6.9264
sI237
F-3.9289999999999967
sI238
F-1.8680000000000003
sI239
F6.267599999999998
sI240
F2.6508000000000003
sI241
F-1.9897999999999987
sI242
F-0.3985999999999983
sI243
F6.366599999999998
sI244
F-0.12639999999999874
sI245
F5.417800000000005
sI246
F8.560999999999998
sI247
F6.5172000000000025
sI248
F2.7496000000000014
sI249
F0.563800000000001
sI250
F0.763999999999999
sI251
F1.7431999999999999
sI252
F2.8334
sI253
F1.6281999999999999
sI254
F8.951999999999996
sI255
F9.721799999999995
sI256
F6.4002000000000026
sI257
F-4.566
sI258
F-5.075399999999998
sI259
F-3.4644000000000013
sI260
F6.045599999999999
sI261
F0.1394000000000004
sI262
F-2.6494000000000026
sI263
F-8.852600000000002
sI264
F-7.459000000000002
sI265
F-4.0626
sI266
F-2.2687999999999993
sI267
F-5.048199999999996
sI268
F-6.366999999999999
sI269
F-0.4801999999999996
sI270
F3.1210000000000018
sI271
F2.941000000000002
sI272
F3.7574000000000005
sI273
F-0.7166000000000039
sI274
F2.882600000000002
sI275
F7.248399999999998
sI276
F8.531200000000004
sI277
F0.8245999999999976
sI278
F4.941600000000001
sI279
F5.036400000000001
sI280
F5.091800000000003
sI281
F1.086400000000002
sI282
F5.8638
sI283
F-3.75
sI284
F1.0474
sI285
F0.8685999999999994
sI286
F1.9731999999999985
sI287
F-3.380600000000002
sI288
F-2.4479999999999946
sI289
F1.5341999999999998
sI290
F4.1868
sI291
F-1.8733999999999984
sI292
F-7.093799999999996
sI293
F-12.598000000000008
sI294
F-23.848800000000008
sI295
F-31.70579999999998
sI296
F-31.101199999999984
sI297
F-37.4854
sI298
F-30.211999999999964
sI299
F-9.332200000000007
sI300
F5.506399999999999
sI301
F12.6062
sI302
F11.403999999999996
sI303
F15.793199999999995
sI304
F11.644200000000005
sI305
F0.000399999999999609
sI306
F0.6081999999999993
sI307
F-4.751399999999992
sI308
F-9.208799999999997
sI309
F4.339799999999998
sI310
F8.8328
sI311
F-3.874599999999999
sI312
F-9.957999999999997
sI313
F-9.501599999999998
sI314
F-11.4098
sI315
F-5.012600000000005
sI316
F0.8872000000000011
sI317
F10.552600000000002
sI318
F15.869799999999978
sI319
F13.229200000000008
sI320
F19.911399999999997
sI321
F-2.0
sI322
F-1.9746000000000001
sI323
F-1.8560000000000003
sI324
F-1.9003999999999999
sI325
F-1.9914
sI326
F-2.4336
sI327
F-2.0623999999999993
sI328
F-2.2714
sI329
F-1.2752000000000012
sI330
F-1.7646000000000006
sI331
F-1.1472000000000002
sI332
F0.5883999999999973
sI333
F1.8118000000000003
sI334
F1.243399999999999
sI335
F-0.9671999999999992
sI336
F-1.3970000000000011
sI337
F-3.903399999999997
sI338
F-11.371599999999997
sI339
F-5.336
sI340
F-7.137000000000004
sI341
F-8.439399999999996
sI342
F-3.3441999999999994
sI343
F-0.6171999999999996
sI344
F0.0818000000000012
sI345
F-2.0018000000000007
sI346
F-3.6406
sI347
F-3.1454000000000013
sI348
F-2.1673999999999993
sI349
F-1.3032000000000001
sI350
F-2.181
sI351
F-2.959800000000001
sI352
F-2.7568
sI353
F-2.949799999999999
sI354
F-2.0
sI355
F-1.97
sI356
F-1.8686
sI357
F-1.9336000000000002
sI358
F-1.9414000000000005
sI359
F-1.9671999999999992
sI360
F-1.8713999999999995
sI361
F-1.7739999999999998
sI362
F-1.1438000000000004
sI363
F-0.010399999999998855
sI364
F-1.843800000000001
sI365
F7.203
sI366
F2.700999999999995
sI367
F5.755800000000001
sI368
F-8.758599999999998
sI369
F-9.227599999999997
sI370
F-8.587000000000003
sI371
F-8.158999999999999
sI372
F0.13979999999999948
sI373
F-3.8992000000000013
sI374
F-4.471400000000001
sI375
F-2.3382000000000005
sI376
F-1.8181999999999985
sI377
F-1.3039999999999998
sI378
F-2.0472
sI379
F-3.2997999999999985
sI380
F-2.6471999999999993
sI381
F-1.9372000000000003
sI382
F-1.3792000000000009
sI383
F-2.1744
sI384
F-2.8426000000000005
sI385
F-2.6402000000000005
sI386
F-2.8415999999999997
sI387
F-2.0
sI388
F-1.866
sI389
F-1.4192000000000002
sI390
F-1.9066000000000005
sI391
F-1.7393999999999998
sI392
F-2.3444
sI393
F-2.985399999999999
sI394
F-4.7174000000000005
sI395
F-6.568799999999997
sI396
F-11.345999999999997
sI397
F-7.985400000000006
sI398
F2.908199999999998
sI399
F1.710400000000001
sI400
F2.402799999999999
sI401
F2.120000000000001
sI402
F-0.35239999999999866
sI403
F1.0149999999999995
sI404
F2.1882000000000006
sI405
F1.8942000000000023
sI406
F0.3823999999999983
sI407
F1.7821999999999985
sI408
F-1.8219999999999992
sI409
F-2.703799999999999
sI410
F-2.5688000000000013
sI411
F-3.4754
sI412
F-3.906199999999998
sI413
F1.4399999999999995
sI414
F2.4329999999999994
sI415
F2.638200000000001
sI416
F1.4299999999999997
sI417
F-0.21620000000000017
sI418
F-0.35319999999999974
sI419
F0.23360000000000003
sI420
F-2.0
sI421
F-0.6572
sI422
F-0.0855999999999999
sI423
F-2.3999999999999995
sI424
F0.42820000000000036
sI425
F0.08619999999999983
sI426
F-1.7430000000000005
sI427
F-13.314399999999996
sI428
F-1.1425999999999965
sI429
F-5.683800000000003
sI430
F2.1997999999999998
sI431
F4.4289999999999985
sI432
F-6.600000000000001
sI433
F-7.428400000000002
sI434
F-10.62859999999999
sI435
F-11.741400000000002
sI436
F2.3432000000000013
sI437
F1.1985999999999968
sI438
F0.9728000000000016
sI439
F10.571200000000003
sI440
F9.9418
sI441
F2.4567999999999985
sI442
F6.7148
sI443
F18.201600000000003
sI444
F9.1422
sI445
F3.828600000000005
sI446
F-2.2563999999999993
sI447
F3.285800000000001
sI448
F1.971
sI449
F-2.2856000000000005
sI450
F-3.1427999999999994
sI451
F-2.3432000000000004
sI452
F-0.057000000000000606
sI453
F-1.6703999999999977
sI454
F-1.3601999999999999
sI455
F-1.2282000000000002
sI456
F-1.5082000000000009
sI457
F-1.6250000000000013
sI458
F-1.216000000000002
sI459
F-0.5309999999999993
sI460
F0.3136
sI461
F2.2102000000000013
sI462
F4.978
sI463
F0.9450000000000022
sI464
F1.0552000000000008
sI465
F0.2956000000000003
sI466
F0.2358000000000006
sI467
F0.11040000000000044
sI468
F0.2370000000000001
sI469
F0.45019999999999777
sI470
F1.026199999999998
sI471
F0.42999999999999994
sI472
F2.3962
sI473
F5.6131999999999955
sI474
F12.763599999999986
sI475
F2.1329999999999973
sI476
F1.4315999999999995
sI477
F2.0008000000000026
sI478
F4.625800000000004
sI479
F10.417799999999994
sI480
F7.816799999999999
sI481
F-0.16600000000000026
sI482
F1.7532000000000019
sI483
F2.3690000000000007
sI484
F-5.583600000000002
sI485
F-0.8194000000000002
sI486
F-1.6589999999999976
sI487
F1.2371999999999992
sI488
F7.726799999999997
sI489
F1.2043999999999988
sI490
F-3.2267999999999972
sI491
F-0.012399999999999856
sI492
F-0.1512000000000009
sI493
F-9.835999999999999
sI494
F-5.556600000000002
sI495
F1.571199999999999
sI496
F-1.202199999999999
sI497
F0.1287999999999989
sI498
F-2.8205999999999993
sI499
F-4.686
sI500
F4.507000000000001
sI501
F-0.6474000000000001
sI502
F1.1185999999999987
sI503
F2.2456000000000005
sI504
F4.211800000000004
sI505
F-1.2198000000000004
sI506
F5.929200000000001
sI507
F5.239599999999996
sI508
F-2.5506000000000015
sI509
F-3.1004
sI510
F2.1668
sI511
F-2.6274000000000024
sI512
F0.07579999999999959
sI513
F3.208999999999998
sI514
F4.1118
sI515
F0.19980000000000098
sI516
F-4.1507999999999985
sI517
F-3.339000000000002
sI518
F-1.2278000000000004
sI519
F2.7370000000000014
sI520
F5.926199999999997
sI521
F0.3151999999999995
sI522
F0.5807999999999988
sI523
F-0.1706000000000003
sI524
F-2.454
sI525
F-5.246400000000004
sI526
F1.1273999999999993
sI527
F-4.727999999999999
sI528
F-7.4879999999999995
sI529
F6.565800000000003
sI530
F0.5123999999999982
sI531
F-2.302599999999998
sI532
F1.7435999999999994
sI533
F2.0585999999999984
sI534
F2.4935999999999967
sI535
F-0.34800000000000164
sI536
F3.748599999999999
sI537
F5.437800000000001
sI538
F-0.237800000000001
sI539
F-1.2427999999999992
sI540
F-8.2298
sI541
F-7.293600000000001
sI542
F-1.4844
sI543
F6.227800000000001
sI544
F3.094999999999998
sI545
F-0.910000000000001
sI546
F0.7701999999999992
sI547
F4.5357999999999965
sI548
F-3.605400000000001
sI549
F-2.3689999999999993
sI550
F1.6312000000000006
sI551
F1.649000000000001
sI552
F1.7807999999999984
sI553
F-4.379800000000002
sI554
F-1.5961999999999998
sI555
F3.4636000000000013
sI556
F-0.07780000000000009
sI557
F-0.26360000000000205
sI558
F0.47639999999999894
sI559
F1.8565999999999998
sI560
F-2.514600000000002
sI561
F7.421199999999994
sI562
F5.815600000000004
sI563
F3.5608000000000013
sI564
F1.6818000000000004
sI565
F-5.2304
sI566
F1.404599999999999
sI567
F1.7874000000000014
sI568
F6.225799999999994
sI569
F3.3071999999999964
sI570
F2.2310000000000016
sI571
F5.507200000000001
sI572
F4.676399999999998
sI573
F2.1794
sI574
F6.532999999999999
sI575
F7.987400000000003
sI576
F2.7639999999999976
sI577
F6.172800000000001
sI578
F-6.0
sI579
F-6.0
sI580
F10.0
sI581
F1.3999999999999995
sI582
F-1.0000000000000002
sI583
F1.8000000000000016
sI584
F0.36579999999999935
sI585
F8.0
sI586
F8.641199999999989
sI587
F1.8698000000000028
sI588
F-7.512200000000003
sI589
F-9.0246
sI590
F-12.000200000000007
sI591
F-5.428599999999998
sI592
F-0.9660000000000013
sI593
F-0.6470000000000008
sI594
F4.178
sI595
F1.6355999999999986
sI596
F10.171999999999997
sI597
F7.989400000000005
sI598
F-7.800000000000001
sI599
F-7.782400000000001
sI600
F-10.992600000000007
sI601
F-6.7383999999999995
sI602
F2.2584000000000004
sI603
F-0.8105999999999992
sI604
F4.029800000000003
sI605
F0.8224000000000027
sI606
F2.2015999999999956
sI607
F3.5473999999999988
sI608
F-1.7101999999999982
sI609
F3.552600000000002
sI610
F-4.2373999999999965
sI611
F9.382000000000005
sI612
F12.328399999999995
sI613
F8.581600000000005
sI614
F8.263999999999996
sI615
F7.851799999999995
sI616
F4.395800000000005
sI617
F4.392800000000006
ssS'iterations'
p9
I5
sb.