ccopy_reg
_reconstructor
p0
(cpredictor_subclasses
AveragedPerceptron
p1
c__builtin__
object
p2
Ntp3
Rp4
(dp5
S'learning_rate'
p6
F1.0
sS'w_avg'
p7
(dp8
I1
F-57896.0
sI2
F80626.0
sI3
F-835740.0
sI4
F-273.22221948999737
sI5
F10.666666560000154
sI6
F-214181.7826014973
sI7
F-526473.7041953052
sI8
F-147675.51740862048
sI9
F-869147.9672806842
sI10
F490149.1034386551
sI11
F640262.6684677791
sI12
F-274502.9793259683
sI13
F1104687.6735279253
sI14
F450340.67207267915
sI15
F-2293956.331346523
sI16
F1843615.6728810058
sI17
F281110.3534131325
sI18
F-109593.15114728006
sI19
F639516.0993798921
ssS'w'
p9
g8
sS'iterations'
p10
I5
sb.