ccopy_reg
_reconstructor
p0
(cpredictor_subclasses
Perceptron
p1
c__builtin__
object
p2
Ntp3
Rp4
(dp5
S'learning_rate'
p6
F1.0
sS'w'
p7
(dp8
I1
F41.0
sI2
F-7.0
sI3
F-459.0
sI4
F-0.33333333
sI5
F2.7755575615628914e-17
sI6
F-115.83333449299997
sI7
F-242.720848289
sI8
F-95.00000820600003
sI9
F-396.53352756099986
sI10
F255.77777244299992
sI11
F330.1111096
sI12
F-144.22221066000003
sI13
F581.4444499399997
sI14
F223.00000586000004
sI15
F-1199.9999992300006
sI16
F977.0000015600002
sI17
F152.55557174
sI18
F-59.70449211
sI19
F349.7517435
ssS'iterations'
p9
I5
sb.