ccopy_reg
_reconstructor
p0
(cpredictor_subclasses
KNN
p1
c__builtin__
object
p2
Ntp3
Rp4
(dp5
S'knn'
p6
I5
sS'instances'
p7
(lp8
(ics475_types
Instance
p9
(dp10
S'_feature_vector'
p11
(ics475_types
FeatureVector
p12
(dp13
S'feature_vector'
p14
(dp15
I1
F76.0
sI2
F198.0
sI3
F9.0
sI6
F1.7777778
sI7
F1.2049282
sI8
F1.5000001
sI9
F0.69121444
sI10
F14.555555
sI11
F12.111111
sI12
F11.777778
sI13
F19.777779
sI14
F-7.3333335
sI15
F-8.333333
sI16
F15.666667
sI17
F19.777779
sI18
F0.4115727
sI19
F2.0556724
ssbsS'_label'
p16
g0
(ccs475_types
ClassificationLabel
p17
g2
Ntp18
Rp19
(dp20
S'label'
p21
I1
sbsba(ics475_types
Instance
p22
(dp23
g11
(ics475_types
FeatureVector
p24
(dp25
g14
(dp26
I1
F113.0
sI2
F132.0
sI3
F9.0
sI6
F0.44444442
sI7
F0.3442652
sI8
F0.38888887
sI9
F0.5340273
sI10
F1.2962962
sI12
F3.4444444
sI13
F0.44444445
sI14
F-3.8888888
sI15
F6.4444447
sI16
F-2.5555556
sI17
F3.4444444
sI18
F1.0
sI19
F-2.204847
ssbsg16
g0
(g17
g2
Ntp27
Rp28
(dp29
g21
I0
sbsba(ics475_types
Instance
p30
(dp31
g11
(ics475_types
FeatureVector
p32
(dp33
g14
(dp34
I1
F49.0
sI2
F139.0
sI3
F9.0
sI6
F0.16666669
sI7
F0.07777779
sI8
F0.33333337
sI9
F0.0888889
sI10
F0.44444445
sI12
F1.3333334
sI14
F-1.3333334
sI15
F2.6666667
sI16
F-1.3333334
sI17
F1.3333334
sI18
F0.7777778
sI19
F-2.0943952
ssbsg16
g0
(g17
g2
Ntp35
Rp36
(dp37
g21
I0
sbsba(ics475_types
Instance
p38
(dp39
g11
(ics475_types
FeatureVector
p40
(dp41
g14
(dp42
I1
F62.0
sI2
F224.0
sI3
F9.0
sI6
F0.9444445
sI7
F1.083547
sI8
F2.3333335
sI9
F1.6329932
sI10
F14.62963
sI11
F13.222222
sI12
F11.444445
sI13
F19.222221
sI14
F-4.2222223
sI15
F-9.555555
sI16
F13.777778
sI17
F19.222221
sI18
F0.40896538
sI19
F1.8601909
ssbsg16
g0
(g17
g2
Ntp43
Rp44
(dp45
g21
I1
sbsba(ics475_types
Instance
p46
(dp47
g11
(ics475_types
FeatureVector
p48
(dp49
g14
(dp50
I1
F13.0
sI2
F83.0
sI3
F9.0
sI6
F0.83333325
sI7
F0.54772246
sI8
F0.6666666
sI9
F0.63245547
sI10
F3.7037036
sI11
F1.5555556
sI12
F6.0
sI13
F3.5555556
sI14
F-6.4444447
sI15
F6.888889
sI16
F-0.44444445
sI17
F6.0
sI18
F0.7404762
sI19
F-2.5733812
ssbsg16
g0
(g17
g2
Ntp51
Rp52
(dp53
g21
I0
sbsba(ics475_types
Instance
p54
(dp55
g11
(ics475_types
FeatureVector
p56
(dp57
g14
(dp58
I1
F64.0
sI2
F114.0
sI3
F9.0
sI6
F5.166667
sI7
F6.320163
sI8
F8.833333
sI9
F8.66859
sI10
F29.814816
sI11
F18.333334
sI12
F47.22222
sI13
F23.88889
sI14
F-34.444443
sI15
F52.22222
sI16
F-17.777779
sI17
F47.22222
sI18
F0.62924504
sI19
F-2.2953806
ssbsg16
g0
(g17
g2
Ntp59
Rp60
(dp61
g21
I0
sbsba(ics475_types
Instance
p62
(dp63
g11
(ics475_types
FeatureVector
p64
(dp65
g14
(dp66
I1
F37.0
sI2
F167.0
sI3
F9.0
sI6
F0.888889
sI7
F0.56296337
sI8
F7.5555553
sI9
F4.6074057
sI10
F14.074074
sI11
F11.666667
sI12
F16.777779
sI13
F13.777778
sI14
F-7.2222223
sI15
F8.111111
sI16
F-0.8888889
sI17
F17.666668
sI18
F0.31450674
sI19
F-3.015081
ssbsg16
g0
(g17
g2
Ntp67
Rp68
(dp69
g21
I1
sbsba(ics475_types
Instance
p70
(dp71
g11
(ics475_types
FeatureVector
p72
(dp73
g14
(dp74
I1
F47.0
sI2
F119.0
sI3
F9.0
sI4
F0.11111111
sI6
F2.2777777
sI7
F2.2746592
sI8
F1.3333334
sI9
F1.3824296
sI10
F4.3703704
sI11
F2.1111112
sI12
F6.7777777
sI13
F4.2222223
sI14
F-6.7777777
sI15
F7.2222223
sI16
F-0.44444445
sI17
F6.7777777
sI18
F0.7329263
sI19
F-2.587228
ssbsg16
g0
(g17
g2
Ntp75
Rp76
(dp77
g21
I0
sbsba(ics475_types
Instance
p78
(dp79
g11
(ics475_types
FeatureVector
p80
(dp81
g14
(dp82
I1
F182.0
sI2
F197.0
sI3
F9.0
sI4
F0.11111111
sI6
F2.166667
sI7
F0.69121456
sI8
F2.3888888
sI9
F1.5834798
sI10
F12.851851
sI11
F10.444445
sI12
F12.777778
sI13
F15.333333
sI14
F-7.2222223
sI15
F-0.22222222
sI16
F7.4444447
sI17
F15.333333
sI18
F0.322069
sI19
F2.6282077
ssbsg16
g0
(g17
g2
Ntp83
Rp84
(dp85
g21
I1
sbsba(ics475_types
Instance
p86
(dp87
g11
(ics475_types
FeatureVector
p88
(dp89
g14
(dp90
I1
F116.0
sI2
F245.0
sI3
F9.0
sI6
F2.277778
sI7
F1.1626909
sI8
F2.2777777
sI9
F1.496911
sI10
F16.37037
sI11
F13.555555
sI12
F14.333333
sI13
F21.222221
sI14
F-8.444445
sI15
F-6.111111
sI16
F14.555555
sI17
F21.222221
sI18
F0.38490298
sI19
F2.1980507
ssbsg16
g0
(g17
g2
Ntp91
Rp92
(dp93
g21
I1
sbsba(ics475_types
Instance
p94
(dp95
g11
(ics475_types
FeatureVector
p96
(dp97
g14
(dp98
I1
F240.0
sI2
F79.0
sI3
F9.0
sI6
F16.277779
sI7
F40.862957
sI8
F14.166667
sI9
F155.3222
sI10
F32.77778
sI11
F24.333334
sI12
F45.77778
sI13
F28.222221
sI14
F-25.333334
sI15
F39.0
sI16
F-13.666667
sI17
F45.77778
sI18
F0.48906165
sI19
F-2.2862954
ssbsg16
g0
(g17
g2
Ntp99
Rp100
(dp101
g21
I0
sbsba(ics475_types
Instance
p102
(dp103
g11
(ics475_types
FeatureVector
p104
(dp105
g14
(dp106
I1
F30.0
sI2
F251.0
sI3
F9.0
sI6
F2.444444
sI7
F1.8816857
sI8
F8.0
sI9
F1.6055425
sI10
F20.666666
sI11
F21.444445
sI12
F17.777779
sI13
F22.777779
sI14
F2.3333333
sI15
F-8.666667
sI16
F6.3333335
sI17
F22.777779
sI18
F0.23141664
sI19
F1.2870604
ssbsg16
g0
(g17
g2
Ntp107
Rp108
(dp109
g21
I1
sbsba(ics475_types
Instance
p110
(dp111
g11
(ics475_types
FeatureVector
p112
(dp113
g14
(dp114
I1
F2.0
sI2
F114.0
sI3
F9.0
sI6
F0.8333333
sI7
F0.12222227
sI8
F0.27777782
sI9
F0.06296296
sI10
F1.7407408
sI11
F0.7777778
sI12
F3.8888888
sI13
F0.5555556
sI14
F-2.8888888
sI15
F6.4444447
sI16
F-3.5555556
sI17
F3.8888888
sI18
F0.88148147
sI19
F-2.0270298
ssbsg16
g0
(g17
g2
Ntp115
Rp116
(dp117
g21
I0
sbsba(ics475_types
Instance
p118
(dp119
g11
(ics475_types
FeatureVector
p120
(dp121
g14
(dp122
I1
F160.0
sI2
F210.0
sI3
F9.0
sI6
F1.611111
sI7
F1.129629
sI8
F1.222222
sI9
F1.0074075
sI10
F17.481482
sI11
F13.777778
sI12
F16.0
sI13
F22.666666
sI14
F-11.111111
sI15
F-4.4444447
sI16
F15.555555
sI17
F22.666666
sI18
F0.40393806
sI19
F2.3864515
ssbsg16
g0
(g17
g2
Ntp123
Rp124
(dp125
g21
I1
sbsba(ics475_types
Instance
p126
(dp127
g11
(ics475_types
FeatureVector
p128
(dp129
g14
(dp130
I1
F116.0
sI2
F203.0
sI3
F9.0
sI6
F3.0555553
sI7
F1.9484084
sI8
F2.9444437
sI9
F1.7564695
sI10
F19.518518
sI11
F15.444445
sI12
F17.666668
sI13
F25.444445
sI14
F-12.222222
sI15
F-5.5555553
sI16
F17.777779
sI17
F25.444445
sI18
F0.39386794
sI19
F2.320382
ssbsg16
g0
(g17
g2
Ntp131
Rp132
(dp133
g21
I1
sbsba(ics475_types
Instance
p134
(dp135
g11
(ics475_types
FeatureVector
p136
(dp137
g14
(dp138
I1
F11.0
sI2
F163.0
sI3
F9.0
sI6
F1.0555553
sI7
F0.928958
sI8
F2.5000002
sI9
F1.3123353
sI10
F19.814816
sI11
F17.444445
sI12
F16.666668
sI13
F25.333334
sI14
F-7.111111
sI15
F-9.444445
sI16
F16.555555
sI17
F25.333334
sI18
F0.34426668
sI19
F2.0016809
ssbsg16
g0
(g17
g2
Ntp139
Rp140
(dp141
g21
I1
sbsba(ics475_types
Instance
p142
(dp143
g11
(ics475_types
FeatureVector
p144
(dp145
g14
(dp146
I1
F132.0
sI2
F223.0
sI3
F9.0
sI6
F2.1111112
sI7
F0.72008204
sI8
F1.7777777
sI9
F0.9349196
sI10
F16.518518
sI11
F13.222222
sI12
F13.444445
sI13
F22.88889
sI14
F-9.888889
sI15
F-9.222222
sI16
F19.11111
sI17
F22.88889
sI18
F0.43312526
sI19
F2.1195462
ssbsg16
g0
(g17
g2
Ntp147
Rp148
(dp149
g21
I1
sbsba(ics475_types
Instance
p150
(dp151
g11
(ics475_types
FeatureVector
p152
(dp153
g14
(dp154
I1
F212.0
sI2
F234.0
sI3
F9.0
sI6
F0.4444445
sI7
F0.11851848
sI8
F1.0555555
sI9
F0.28518525
sI10
F7.111111
sI11
F6.0
sI12
F4.2222223
sI13
F11.111111
sI14
F-3.3333333
sI15
F-8.666667
sI16
F12.0
sI17
F11.111111
sI18
F0.62132436
sI19
F1.8382597
ssbsg16
g0
(g17
g2
Ntp155
Rp156
(dp157
g21
I1
sbsba(ics475_types
Instance
p158
(dp159
g11
(ics475_types
FeatureVector
p160
(dp161
g14
(dp162
I1
F26.0
sI2
F211.0
sI3
F9.0
sI6
F1.6666666
sI7
F1.4666667
sI8
F1.6666669
sI9
F1.8222221
sI10
F16.37037
sI11
F13.777778
sI12
F14.666667
sI13
F20.666668
sI14
F-7.7777777
sI15
F-5.111111
sI16
F12.888889
sI17
F20.666668
sI18
F0.33385554
sI19
F2.239034
ssbsg16
g0
(g17
g2
Ntp163
Rp164
(dp165
g21
I1
sbsba(ics475_types
Instance
p166
(dp167
g11
(ics475_types
FeatureVector
p168
(dp169
g14
(dp170
I1
F223.0
sI2
F185.0
sI3
F9.0
sI6
F0.5
sI7
F0.34960312
sI8
F2.3888886
sI9
F2.0807757
sI10
F12.962963
sI11
F11.555555
sI12
F9.777778
sI13
F17.555555
sI14
F-4.2222223
sI15
F-9.555555
sI16
F13.777778
sI17
F17.555555
sI18
F0.44541803
sI19
F1.8388497
ssbsg16
g0
(g17
g2
Ntp171
Rp172
(dp173
g21
I1
sbsba(ics475_types
Instance
p174
(dp175
g11
(ics475_types
FeatureVector
p176
(dp177
g14
(dp178
I1
F233.0
sI2
F184.0
sI3
F9.0
sI6
F0.5000002
sI7
F0.077777766
sI8
F0.7777777
sI9
F0.785185
sI10
F11.851851
sI11
F9.777778
sI12
F9.888889
sI13
F15.888889
sI14
F-6.2222223
sI15
F-5.888889
sI16
F12.111111
sI17
F15.888889
sI18
F0.40555555
sI19
F2.1286457
ssbsg16
g0
(g17
g2
Ntp179
Rp180
(dp181
g21
I1
sbsba(ics475_types
Instance
p182
(dp183
g11
(ics475_types
FeatureVector
p184
(dp185
g14
(dp186
I1
F172.0
sI2
F218.0
sI3
F9.0
sI6
F2.5555556
sI7
F2.42963
sI8
F1.6111108
sI9
F2.418518
sI10
F14.925926
sI11
F11.888889
sI12
F13.777778
sI13
F19.11111
sI14
F-9.111111
sI15
F-3.4444444
sI16
F12.555555
sI17
F19.11111
sI18
F0.38645566
sI19
F2.362146
ssbsg16
g0
(g17
g2
Ntp187
Rp188
(dp189
g21
I1
sbsba(ics475_types
Instance
p190
(dp191
g11
(ics475_types
FeatureVector
p192
(dp193
g14
(dp194
I1
F9.0
sI2
F236.0
sI3
F9.0
sI6
F1.8333335
sI7
F3.455556
sI8
F3.0555553
sI9
F5.5296316
sI10
F11.074074
sI11
F9.444445
sI12
F9.444445
sI13
F14.333333
sI14
F-4.888889
sI15
F-4.888889
sI16
F9.777778
sI17
F14.333333
sI18
F0.37655354
sI19
F2.0832295
ssbsg16
g0
(g17
g2
Ntp195
Rp196
(dp197
g21
I1
sbsba(ics475_types
Instance
p198
(dp199
g11
(ics475_types
FeatureVector
p200
(dp201
g14
(dp202
I1
F67.0
sI2
F136.0
sI3
F9.0
sI6
F6.722223
sI7
F3.7083488
sI8
F2.6666667
sI9
F3.1972213
sI10
F15.518518
sI11
F9.0
sI12
F25.333334
sI13
F12.222222
sI14
F-19.555555
sI15
F29.444445
sI16
F-9.888889
sI17
F25.333334
sI18
F0.66081303
sI19
F-2.3075109
ssbsg16
g0
(g17
g2
Ntp203
Rp204
(dp205
g21
I0
sbsba(ics475_types
Instance
p206
(dp207
g11
(ics475_types
FeatureVector
p208
(dp209
g14
(dp210
I1
F6.0
sI2
F174.0
sI3
F9.0
sI6
F1.8888888
sI7
F1.0074061
sI8
F2.8888886
sI9
F4.0296297
sI10
F19.074074
sI11
F15.111111
sI12
F17.777779
sI13
F24.333334
sI14
F-11.888889
sI15
F-3.8888888
sI16
F15.777778
sI17
F24.333334
sI18
F0.38186744
sI19
F2.3950183
ssbsg16
g0
(g17
g2
Ntp211
Rp212
(dp213
g21
I1
sbsba(ics475_types
Instance
p214
(dp215
g11
(ics475_types
FeatureVector
p216
(dp217
g14
(dp218
I1
F140.0
sI2
F181.0
sI3
F9.0
sI4
F0.11111111
sI6
F0.8333333
sI7
F0.47777775
sI8
F1.2777777
sI9
F1.7074063
sI10
F19.296297
sI11
F15.444445
sI12
F18.444445
sI13
F24.0
sI14
F-11.555555
sI15
F-2.5555556
sI16
F14.111111
sI17
F24.0
sI18
F0.3576681
sI19
F2.4584713
ssbsg16
g0
(g17
g2
Ntp219
Rp220
(dp221
g21
I1
sbsba(ics475_types
Instance
p222
(dp223
g11
(ics475_types
FeatureVector
p224
(dp225
g14
(dp226
I1
F2.0
sI2
F245.0
sI3
F9.0
sI6
F1.8888888
sI7
F2.162963
sI8
F3.1666667
sI9
F3.2777781
sI10
F6.4074073
sI11
F6.2222223
sI12
F6.0
sI13
F7.0
sI14
F-0.5555556
sI15
F-1.2222222
sI16
F1.7777778
sI17
F7.2222223
sI18
F0.19104938
sI19
F1.7566451
ssbsg16
g0
(g17
g2
Ntp227
Rp228
(dp229
g21
I1
sbsba(ics475_types
Instance
p230
(dp231
g11
(ics475_types
FeatureVector
p232
(dp233
g14
(dp234
I1
F128.0
sI2
F116.0
sI3
F9.0
sI6
F0.77777785
sI7
F0.6962963
sI8
F0.8333333
sI9
F0.9222224
sI10
F1.962963
sI11
F0.22222222
sI12
F5.0
sI13
F0.6666667
sI14
F-5.2222223
sI15
F9.111111
sI16
F-3.8888888
sI17
F5.0
sI18
F0.9702381
sI19
F-2.1634343
ssbsg16
g0
(g17
g2
Ntp235
Rp236
(dp237
g21
I0
sbsba(ics475_types
Instance
p238
(dp239
g11
(ics475_types
FeatureVector
p240
(dp241
g14
(dp242
I1
F98.0
sI2
F144.0
sI3
F9.0
sI6
F0.22222221
sI7
F0.029629648
sI8
F0.33333334
sI9
F0.08888887
sI10
F1.0
sI12
F3.0
sI14
F-3.0
sI15
F6.0
sI16
F-3.0
sI17
F3.0
sI18
F1.0
sI19
F-2.0943952
ssbsg16
g0
(g17
g2
Ntp243
Rp244
(dp245
g21
I0
sbsba(ics475_types
Instance
p246
(dp247
g11
(ics475_types
FeatureVector
p248
(dp249
g14
(dp250
I1
F162.0
sI2
F237.0
sI3
F9.0
sI4
F0.11111111
sI6
F2.2777777
sI7
F1.1434193
sI8
F2.6666667
sI9
F2.564718
sI10
F13.222222
sI11
F10.888889
sI12
F10.0
sI13
F18.777779
sI14
F-7.0
sI15
F-9.666667
sI16
F16.666666
sI17
F18.777779
sI18
F0.47282594
sI19
F1.9903806
ssbsg16
g0
(g17
g2
Ntp251
Rp252
(dp253
g21
I1
sbsba(ics475_types
Instance
p254
(dp255
g11
(ics475_types
FeatureVector
p256
(dp257
g14
(dp258
I1
F59.0
sI2
F141.0
sI3
F9.0
sI4
F0.11111111
sI6
F2.3888888
sI7
F1.540803
sI8
F2.1666667
sI9
F1.278019
sI10
F12.666667
sI11
F7.888889
sI12
F18.555555
sI13
F11.555555
sI14
F-14.333333
sI15
F17.666666
sI16
F-3.3333333
sI17
F18.555555
sI18
F0.58577543
sI19
F-2.4515712
ssbsg16
g0
(g17
g2
Ntp259
Rp260
(dp261
g21
I0
sbsba(ics475_types
Instance
p262
(dp263
g11
(ics475_types
FeatureVector
p264
(dp265
g14
(dp266
I1
F46.0
sI2
F235.0
sI3
F9.0
sI6
F1.9444445
sI7
F1.8407409
sI8
F1.7222223
sI9
F3.574073
sI10
F10.888889
sI11
F7.5555553
sI12
F9.333334
sI13
F15.777778
sI14
F-10.0
sI15
F-4.6666665
sI16
F14.666667
sI17
F15.777778
sI18
F0.5203994
sI19
F2.3162425
ssbsg16
g0
(g17
g2
Ntp267
Rp268
(dp269
g21
I1
sbsba(ics475_types
Instance
p270
(dp271
g11
(ics475_types
FeatureVector
p272
(dp273
g14
(dp274
I1
F118.0
sI2
F109.0
sI3
F9.0
sI5
F0.11111111
sI6
F3.5555553
sI7
F2.6555324
sI8
F3.9999993
sI9
F3.0840094
sI10
F13.296296
sI11
F7.0
sI12
F22.333334
sI13
F10.555555
sI14
F-18.88889
sI15
F27.11111
sI16
F-8.222222
sI17
F22.333334
sI18
F0.694627
sI19
F-2.3440928
ssbsg16
g0
(g17
g2
Ntp275
Rp276
(dp277
g21
I0
sbsba(ics475_types
Instance
p278
(dp279
g11
(ics475_types
FeatureVector
p280
(dp281
g14
(dp282
I1
F124.0
sI2
F101.0
sI3
F9.0
sI5
F0.11111111
sI6
F3.3888886
sI7
F27.97407
sI8
F6.4444447
sI9
F59.496284
sI10
F10.185185
sI11
F5.7777777
sI12
F15.555555
sI13
F9.222222
sI14
F-13.222222
sI15
F16.11111
sI16
F-2.8888888
sI17
F15.555555
sI18
F0.70008737
sI19
F-2.4480398
ssbsg16
g0
(g17
g2
Ntp283
Rp284
(dp285
g21
I0
sbsba(ics475_types
Instance
p286
(dp287
g11
(ics475_types
FeatureVector
p288
(dp289
g14
(dp290
I1
F17.0
sI2
F110.0
sI3
F9.0
sI4
F0.11111111
sI6
F1.2777778
sI7
F1.2629629
sI8
F2.7222223
sI9
F2.9962952
sI10
F3.9629629
sI11
F1.4444444
sI12
F6.4444447
sI13
F4.0
sI14
F-7.5555553
sI15
F7.4444447
sI16
F0.11111111
sI17
F6.4444447
sI18
F0.80665785
sI19
F-2.6186507
ssbsg16
g0
(g17
g2
Ntp291
Rp292
(dp293
g21
I0
sbsba(ics475_types
Instance
p294
(dp295
g11
(ics475_types
FeatureVector
p296
(dp297
g14
(dp298
I1
F237.0
sI2
F191.0
sI3
F9.0
sI6
F1.0
sI7
F0.31111106
sI8
F1.5
sI9
F1.0111109
sI10
F7.3333335
sI11
F5.3333335
sI12
F5.4444447
sI13
F11.222222
sI14
F-6.0
sI15
F-5.6666665
sI16
F11.666667
sI17
F11.222222
sI18
F0.5358197
sI19
F2.1224225
ssbsg16
g0
(g17
g2
Ntp299
Rp300
(dp301
g21
I1
sbsba(ics475_types
Instance
p302
(dp303
g11
(ics475_types
FeatureVector
p304
(dp305
g14
(dp306
I1
F151.0
sI2
F187.0
sI3
F9.0
sI6
F1.2222222
sI7
F0.74074084
sI8
F2.0555556
sI9
F1.0407399
sI10
F11.62963
sI11
F9.333334
sI12
F9.666667
sI13
F15.888889
sI14
F-6.888889
sI15
F-5.888889
sI16
F12.777778
sI17
F15.888889
sI18
F0.42836255
sI19
F2.1566393
ssbsg16
g0
(g17
g2
Ntp307
Rp308
(dp309
g21
I1
sbsba(ics475_types
Instance
p310
(dp311
g11
(ics475_types
FeatureVector
p312
(dp313
g14
(dp314
I1
F27.0
sI2
F106.0
sI3
F9.0
sI6
F0.6111111
sI7
F0.41851848
sI8
F1.2777778
sI9
F0.5962963
sI10
F2.1851852
sI11
F0.33333334
sI12
F4.888889
sI13
F1.3333334
sI14
F-5.5555553
sI15
F8.111111
sI16
F-2.5555556
sI17
F4.888889
sI18
F0.9517196
sI19
F-2.2740705
ssbsg16
g0
(g17
g2
Ntp315
Rp316
(dp317
g21
I0
sbsba(ics475_types
Instance
p318
(dp319
g11
(ics475_types
FeatureVector
p320
(dp321
g14
(dp322
I1
F214.0
sI2
F246.0
sI3
F9.0
sI6
F2.8333328
sI7
F1.9177537
sI8
F2.9999993
sI9
F1.988857
sI10
F17.518518
sI11
F14.222222
sI12
F15.444445
sI13
F22.88889
sI14
F-9.888889
sI15
F-6.2222223
sI16
F16.11111
sI17
F22.88889
sI18
F0.39154765
sI19
F2.2328491
ssbsg16
g0
(g17
g2
Ntp323
Rp324
(dp325
g21
I1
sbsba(ics475_types
Instance
p326
(dp327
g11
(ics475_types
FeatureVector
p328
(dp329
g14
(dp330
I1
F10.0
sI2
F112.0
sI3
F9.0
sI6
F0.33333334
sI7
F0.42163706
sI8
F0.50000006
sI9
F0.1825741
sI10
F0.44444445
sI12
F1.2222222
sI13
F0.11111111
sI14
F-1.3333334
sI15
F2.3333333
sI16
F-1.0
sI17
F1.2222222
sI18
F0.6666667
sI19
F-2.1519136
ssbsg16
g0
(g17
g2
Ntp331
Rp332
(dp333
g21
I0
sbsba(ics475_types
Instance
p334
(dp335
g11
(ics475_types
FeatureVector
p336
(dp337
g14
(dp338
I1
F118.0
sI2
F167.0
sI3
F9.0
sI4
F0.11111111
sI6
F0.88888866
sI7
F0.5185182
sI8
F2.0555553
sI9
F0.99629617
sI10
F14.592592
sI11
F12.888889
sI12
F13.777778
sI13
F17.11111
sI14
F-5.111111
sI15
F-2.4444444
sI16
F7.5555553
sI17
F17.11111
sI18
F0.24844901
sI19
F2.3057292
ssbsg16
g0
(g17
g2
Ntp339
Rp340
(dp341
g21
I1
sbsba(ics475_types
Instance
p342
(dp343
g11
(ics475_types
FeatureVector
p344
(dp345
g14
(dp346
I1
F215.0
sI2
F123.0
sI3
F9.0
sI6
F0.33333334
sI7
F0.13333334
sI8
F0.6666667
sI9
F0.0444444
sI10
F1.3703704
sI12
F3.7777777
sI13
F0.33333334
sI14
F-4.111111
sI15
F7.2222223
sI16
F-3.1111112
sI17
F3.7777777
sI18
F1.0
sI19
F-2.1698651
ssbsg16
g0
(g17
g2
Ntp347
Rp348
(dp349
g21
I0
sbsba(ics475_types
Instance
p350
(dp351
g11
(ics475_types
FeatureVector
p352
(dp353
g14
(dp354
I1
F132.0
sI2
F124.0
sI3
F9.0
sI6
F0.22222221
sI7
F0.074074075
sI8
F0.22222221
sI9
F0.074074045
sI10
F1.074074
sI12
F3.2222223
sI14
F-3.2222223
sI15
F6.4444447
sI16
F-3.2222223
sI17
F3.2222223
sI18
F1.0
sI19
F-2.0943952
ssbsg16
g0
(g17
g2
Ntp355
Rp356
(dp357
g21
I0
sbsba(ics475_types
Instance
p358
(dp359
g11
(ics475_types
FeatureVector
p360
(dp361
g14
(dp362
I1
F2.0
sI2
F88.0
sI3
F9.0
sI6
F3.611111
sI7
F7.218519
sI8
F2.4999998
sI9
F5.855556
sI10
F7.7777777
sI11
F3.5555556
sI12
F13.333333
sI13
F6.4444447
sI14
F-12.666667
sI15
F16.666666
sI16
F-4.0
sI17
F13.333333
sI18
F0.7547033
sI19
F-2.3944926
ssbsg16
g0
(g17
g2
Ntp363
Rp364
(dp365
g21
I0
sbsba(ics475_types
Instance
p366
(dp367
g11
(ics475_types
FeatureVector
p368
(dp369
g14
(dp370
I1
F222.0
sI2
F194.0
sI3
F9.0
sI6
F2.2777774
sI7
F1.1434193
sI8
F2.2777777
sI9
F1.4207466
sI10
F20.185184
sI11
F16.555555
sI12
F17.88889
sI13
F26.11111
sI14
F-10.888889
sI15
F-6.888889
sI16
F17.777779
sI17
F26.11111
sI18
F0.3721296
sI19
F2.224382
ssbsg16
g0
(g17
g2
Ntp371
Rp372
(dp373
g21
I1
sbsba(ics475_types
Instance
p374
(dp375
g11
(ics475_types
FeatureVector
p376
(dp377
g14
(dp378
I1
F127.0
sI2
F143.0
sI3
F9.0
sI6
F1.5
sI7
F0.12222214
sI8
F0.88888884
sI9
F0.60740745
sI10
F4.185185
sI11
F0.8888889
sI12
F9.444445
sI13
F2.2222223
sI14
F-9.888889
sI15
F15.777778
sI16
F-5.888889
sI17
F9.444445
sI18
F0.915376
sI19
F-2.2574124
ssbsg16
g0
(g17
g2
Ntp379
Rp380
(dp381
g21
I0
sbsba(ics475_types
Instance
p382
(dp383
g11
(ics475_types
FeatureVector
p384
(dp385
g14
(dp386
I1
F205.0
sI2
F156.0
sI3
F9.0
sI6
F2.1666667
sI7
F1.2777781
sI8
F2.0
sI9
F2.3555562
sI10
F18.25926
sI11
F13.444445
sI12
F17.333334
sI13
F24.0
sI14
F-14.444445
sI15
F-2.7777777
sI16
F17.222221
sI17
F24.0
sI18
F0.44057688
sI19
F2.47582
ssbsg16
g0
(g17
g2
Ntp387
Rp388
(dp389
g21
I1
sbsba(ics475_types
Instance
p390
(dp391
g11
(ics475_types
FeatureVector
p392
(dp393
g14
(dp394
I1
F238.0
sI2
F211.0
sI3
F9.0
sI4
F0.11111111
sI6
F1.0555559
sI7
F0.49065375
sI8
F1.6111113
sI9
F1.2546215
sI10
F20.518518
sI11
F16.11111
sI12
F19.222221
sI13
F26.222221
sI14
F-13.222222
sI15
F-3.8888888
sI16
F17.11111
sI17
F26.222221
sI18
F0.38528243
sI19
F2.4163542
ssbsg16
g0
(g17
g2
Ntp395
Rp396
(dp397
g21
I1
sbsba(ics475_types
Instance
p398
(dp399
g11
(ics475_types
FeatureVector
p400
(dp401
g14
(dp402
I1
F239.0
sI2
F123.0
sI3
F9.0
sI6
F0.5
sI7
F0.077777736
sI8
F0.5
sI9
F0.16666667
sI10
F1.5185186
sI12
F4.2222223
sI13
F0.33333334
sI14
F-4.5555553
sI15
F8.111111
sI16
F-3.5555556
sI17
F4.2222223
sI18
F1.0
sI19
F-2.1640944
ssbsg16
g0
(g17
g2
Ntp403
Rp404
(dp405
g21
I0
sbsba(ics475_types
Instance
p406
(dp407
g11
(ics475_types
FeatureVector
p408
(dp409
g14
(dp410
I1
F58.0
sI2
F125.0
sI3
F9.0
sI6
F2.1666667
sI7
F1.1105559
sI8
F1.0555559
sI9
F0.90472007
sI10
F18.555555
sI11
F11.111111
sI12
F30.666666
sI13
F13.888889
sI14
F-22.333334
sI15
F36.333332
sI16
F-14.0
sI17
F30.666666
sI18
F0.6384555
sI19
F-2.2419562
ssbsg16
g0
(g17
g2
Ntp411
Rp412
(dp413
g21
I0
sbsba(ics475_types
Instance
p414
(dp415
g11
(ics475_types
FeatureVector
p416
(dp417
g14
(dp418
I1
F146.0
sI2
F238.0
sI3
F9.0
sI6
F2.0555556
sI7
F0.59629667
sI8
F2.6666665
sI9
F1.8666656
sI10
F17.777779
sI11
F15.0
sI12
F16.555555
sI13
F21.777779
sI14
F-8.333333
sI15
F-3.6666667
sI16
F12.0
sI17
F21.777779
sI18
F0.3152556
sI19
F2.3374724
ssbsg16
g0
(g17
g2
Ntp419
Rp420
(dp421
g21
I1
sbsba(ics475_types
Instance
p422
(dp423
g11
(ics475_types
FeatureVector
p424
(dp425
g14
(dp426
I1
F45.0
sI2
F185.0
sI3
F9.0
sI4
F0.11111111
sI6
F2.1666663
sI7
F3.7222214
sI8
F1.9444442
sI9
F2.6851857
sI10
F18.666666
sI11
F14.666667
sI12
F17.11111
sI13
F24.222221
sI14
F-12.0
sI15
F-4.6666665
sI16
F16.666666
sI17
F24.222221
sI18
F0.40087178
sI19
F2.3618267
ssbsg16
g0
(g17
g2
Ntp427
Rp428
(dp429
g21
I1
sbsba(ics475_types
Instance
p430
(dp431
g11
(ics475_types
FeatureVector
p432
(dp433
g14
(dp434
I1
F127.0
sI2
F120.0
sI3
F9.0
sI6
F0.5
sI7
F0.47777766
sI8
F0.72222215
sI9
F0.5962963
sI10
F1.5185186
sI11
F0.11111111
sI12
F4.111111
sI13
F0.33333334
sI14
F-4.2222223
sI15
F7.7777777
sI16
F-3.5555556
sI17
F4.111111
sI18
F0.984127
sI19
F-2.133095
ssbsg16
g0
(g17
g2
Ntp435
Rp436
(dp437
g21
I0
sbsba(ics475_types
Instance
p438
(dp439
g11
(ics475_types
FeatureVector
p440
(dp441
g14
(dp442
I1
F16.0
sI2
F82.0
sI3
F9.0
sI6
F4.3333335
sI7
F41.288895
sI8
F6.222223
sI9
F66.65185
sI10
F8.481482
sI11
F4.3333335
sI12
F14.555555
sI13
F6.5555553
sI14
F-12.444445
sI15
F18.222221
sI16
F-5.7777777
sI17
F14.555555
sI18
F0.7428191
sI19
F-2.3206284
ssbsg16
g0
(g17
g2
Ntp443
Rp444
(dp445
g21
I0
sbsba(ics475_types
Instance
p446
(dp447
g11
(ics475_types
FeatureVector
p448
(dp449
g14
(dp450
I1
F93.0
sI2
F236.0
sI3
F9.0
sI4
F0.11111111
sI6
F1.7777777
sI7
F2.6962965
sI8
F1.9999999
sI9
F0.93333334
sI10
F12.518518
sI11
F9.555555
sI12
F10.777778
sI13
F17.222223
sI14
F-8.888889
sI15
F-5.2222223
sI16
F14.111111
sI17
F17.222223
sI18
F0.44724658
sI19
F2.2671974
ssbsg16
g0
(g17
g2
Ntp451
Rp452
(dp453
g21
I1
sbsba(ics475_types
Instance
p454
(dp455
g11
(ics475_types
FeatureVector
p456
(dp457
g14
(dp458
I1
F237.0
sI2
F137.0
sI3
F9.0
sI6
F0.38888887
sI7
F0.1074074
sI8
F0.33333334
sI9
F0.04444445
sI10
F0.6666667
sI12
F2.0
sI14
F-2.0
sI15
F4.0
sI16
F-2.0
sI17
F2.0
sI18
F1.0
sI19
F-2.0943952
ssbsg16
g0
(g17
g2
Ntp459
Rp460
(dp461
g21
I0
sbsba(ics475_types
Instance
p462
(dp463
g11
(ics475_types
FeatureVector
p464
(dp465
g14
(dp466
I1
F254.0
sI2
F73.0
sI3
F9.0
sI6
F6.6666665
sI7
F7.865538
sI8
F9.444445
sI9
F12.33003
sI10
F34.703705
sI11
F20.555555
sI12
F57.333332
sI13
F26.222221
sI14
F-42.444443
sI15
F67.888885
sI16
F-25.444445
sI17
F57.333332
sI18
F0.6511328
sI19
F-2.2555614
ssbsg16
g0
(g17
g2
Ntp467
Rp468
(dp469
g21
I0
sbsba(ics475_types
Instance
p470
(dp471
g11
(ics475_types
FeatureVector
p472
(dp473
g14
(dp474
I1
F146.0
sI2
F201.0
sI3
F9.0
sI6
F0.61111087
sI7
F0.32773054
sI8
F1.0555555
sI9
F0.8004625
sI10
F10.666667
sI11
F8.666667
sI12
F7.0
sI13
F16.333334
sI14
F-6.0
sI15
F-11.0
sI16
F17.0
sI17
F16.333334
sI18
F0.5708515
sI19
F1.9092555
ssbsg16
g0
(g17
g2
Ntp475
Rp476
(dp477
g21
I1
sbsba(ics475_types
Instance
p478
(dp479
g11
(ics475_types
FeatureVector
p480
(dp481
g14
(dp482
I1
F54.0
sI2
F91.0
sI3
F9.0
sI6
F1.4444443
sI7
F1.540741
sI8
F0.8333333
sI9
F0.25555572
sI10
F3.2592592
sI11
F0.5555556
sI12
F8.0
sI13
F1.2222222
sI14
F-8.111111
sI15
F14.222222
sI16
F-6.111111
sI17
F8.0
sI18
F0.94481075
sI19
F-2.186723
ssbsg16
g0
(g17
g2
Ntp483
Rp484
(dp485
g21
I0
sbsba(ics475_types
Instance
p486
(dp487
g11
(ics475_types
FeatureVector
p488
(dp489
g14
(dp490
I1
F226.0
sI2
F233.0
sI3
F9.0
sI6
F2.7777774
sI7
F1.3185201
sI8
F1.777778
sI9
F1.0962962
sI10
F11.703704
sI11
F8.333334
sI12
F11.0
sI13
F15.777778
sI14
F-10.111111
sI15
F-2.1111112
sI16
F12.222222
sI17
F15.777778
sI18
F0.47394413
sI19
F2.476615
ssbsg16
g0
(g17
g2
Ntp491
Rp492
(dp493
g21
I1
sbsba(ics475_types
Instance
p494
(dp495
g11
(ics475_types
FeatureVector
p496
(dp497
g14
(dp498
I1
F3.0
sI2
F78.0
sI3
F9.0
sI5
F0.11111111
sI6
F14.833332
sI7
F356.16672
sI8
F43.333332
sI9
F662.35547
sI10
F79.666664
sI11
F70.77778
sI12
F91.44444
sI13
F76.77778
sI14
F-26.666666
sI15
F35.333332
sI16
F-8.666667
sI17
F91.44444
sI18
F0.26973316
sI19
F-2.4116454
ssbsg16
g0
(g17
g2
Ntp499
Rp500
(dp501
g21
I0
sbsba(ics475_types
Instance
p502
(dp503
g11
(ics475_types
FeatureVector
p504
(dp505
g14
(dp506
I1
F97.0
sI2
F123.0
sI3
F9.0
sI6
F0.38888887
sI7
F0.01851856
sI8
F0.16666666
sI9
F0.077777766
sI10
F1.1481482
sI12
F3.4444444
sI14
F-3.4444444
sI15
F6.888889
sI16
F-3.4444444
sI17
F3.4444444
sI18
F1.0
sI19
F-2.0943952
ssbsg16
g0
(g17
g2
Ntp507
Rp508
(dp509
g21
I0
sbsba(ics475_types
Instance
p510
(dp511
g11
(ics475_types
FeatureVector
p512
(dp513
g14
(dp514
I1
F115.0
sI2
F183.0
sI3
F9.0
sI6
F0.77777797
sI7
F0.38518497
sI8
F1.9999996
sI9
F1.4666661
sI10
F18.11111
sI11
F14.0
sI12
F17.333334
sI13
F23.0
sI14
F-12.333333
sI15
F-2.3333333
sI16
F14.666667
sI17
F23.0
sI18
F0.39236423
sI19
F2.4831982
ssbsg16
g0
(g17
g2
Ntp515
Rp516
(dp517
g21
I1
sbsba(ics475_types
Instance
p518
(dp519
g11
(ics475_types
FeatureVector
p520
(dp521
g14
(dp522
I1
F221.0
sI2
F195.0
sI3
F9.0
sI6
F1.2222223
sI7
F1.408966
sI8
F2.9444447
sI9
F1.5263131
sI10
F14.740741
sI11
F11.666667
sI12
F12.444445
sI13
F20.11111
sI14
F-9.222222
sI15
F-6.888889
sI16
F16.11111
sI17
F20.11111
sI18
F0.43448815
sI19
F2.1937644
ssbsg16
g0
(g17
g2
Ntp523
Rp524
(dp525
g21
I1
sbsba(ics475_types
Instance
p526
(dp527
g11
(ics475_types
FeatureVector
p528
(dp529
g14
(dp530
I1
F124.0
sI2
F183.0
sI3
F9.0
sI6
F1.7777778
sI7
F0.4296295
sI8
F2.2777774
sI9
F4.196296
sI10
F18.185184
sI11
F14.222222
sI12
F17.11111
sI13
F23.222221
sI14
F-11.888889
sI15
F-3.2222223
sI16
F15.111111
sI17
F23.222221
sI18
F0.38988227
sI19
F2.4280221
ssbsg16
g0
(g17
g2
Ntp531
Rp532
(dp533
g21
I1
sbsba(ics475_types
Instance
p534
(dp535
g11
(ics475_types
FeatureVector
p536
(dp537
g14
(dp538
I1
F145.0
sI2
F170.0
sI3
F9.0
sI6
F1.277778
sI7
F0.57413363
sI8
F1.222222
sI9
F0.86066276
sI10
F16.407408
sI11
F12.777778
sI12
F16.88889
sI13
F19.555555
sI14
F-10.888889
sI15
F1.4444444
sI16
F9.444445
sI17
F19.555555
sI18
F0.34671864
sI19
F2.7370737
ssbsg16
g0
(g17
g2
Ntp539
Rp540
(dp541
g21
I1
sbsba(ics475_types
Instance
p542
(dp543
g11
(ics475_types
FeatureVector
p544
(dp545
g14
(dp546
I1
F170.0
sI2
F226.0
sI3
F9.0
sI6
F1.5555553
sI7
F1.4246508
sI8
F2.3888888
sI9
F1.2895594
sI10
F11.888889
sI11
F10.111111
sI12
F8.0
sI13
F17.555555
sI14
F-5.3333335
sI15
F-11.666667
sI16
F17.0
sI17
F17.555555
sI18
F0.5483297
sI19
F1.872506
ssbsg16
g0
(g17
g2
Ntp547
Rp548
(dp549
g21
I1
sbsba(ics475_types
Instance
p550
(dp551
g11
(ics475_types
FeatureVector
p552
(dp553
g14
(dp554
I1
F6.0
sI2
F81.0
sI3
F9.0
sI5
F0.11111111
sI6
F4.111111
sI7
F8.740745
sI8
F5.722223
sI9
F28.50741
sI10
F12.481482
sI11
F7.6666665
sI12
F18.88889
sI13
F10.888889
sI14
F-14.444445
sI15
F19.222221
sI16
F-4.7777777
sI17
F18.88889
sI18
F0.6281558
sI19
F-2.388561
ssbsg16
g0
(g17
g2
Ntp555
Rp556
(dp557
g21
I0
sbsba(ics475_types
Instance
p558
(dp559
g11
(ics475_types
FeatureVector
p560
(dp561
g14
(dp562
I1
F32.0
sI2
F240.0
sI3
F9.0
sI6
F1.2777776
sI7
F1.540803
sI8
F2.2777777
sI9
F1.7051125
sI10
F12.148149
sI11
F9.777778
sI12
F9.333334
sI13
F17.333334
sI14
F-7.111111
sI15
F-8.444445
sI16
F15.555555
sI17
F17.333334
sI18
F0.47067475
sI19
F2.0438652
ssbsg16
g0
(g17
g2
Ntp563
Rp564
(dp565
g21
I1
sbsba(ics475_types
Instance
p566
(dp567
g11
(ics475_types
FeatureVector
p568
(dp569
g14
(dp570
I1
F4.0
sI2
F188.0
sI3
F9.0
sI6
F1.5555555
sI7
F0.68853056
sI8
F2.333333
sI9
F0.7601162
sI10
F15.740741
sI11
F13.333333
sI12
F14.0
sI13
F19.88889
sI14
F-7.2222223
sI15
F-5.2222223
sI16
F12.444445
sI17
F19.88889
sI18
F0.3424082
sI19
F2.2046695
ssbsg16
g0
(g17
g2
Ntp571
Rp572
(dp573
g21
I1
sbsba(ics475_types
Instance
p574
(dp575
g11
(ics475_types
FeatureVector
p576
(dp577
g14
(dp578
I1
F17.0
sI2
F98.0
sI3
F9.0
sI4
F0.11111111
sI6
F0.72222215
sI7
F0.71232533
sI8
F0.6666667
sI9
F0.73029673
sI10
F1.5185186
sI11
F0.33333334
sI12
F2.8888888
sI13
F1.3333334
sI14
F-3.5555556
sI15
F4.111111
sI16
F-0.5555556
sI17
F2.8888888
sI18
F0.9166667
sI19
F-2.4238
ssbsg16
g0
(g17
g2
Ntp579
Rp580
(dp581
g21
I0
sbsba(ics475_types
Instance
p582
(dp583
g11
(ics475_types
FeatureVector
p584
(dp585
g14
(dp586
I1
F81.0
sI2
F229.0
sI3
F9.0
sI4
F0.11111111
sI6
F2.4444444
sI7
F0.7851852
sI8
F2.0555553
sI9
F3.218518
sI10
F10.925926
sI11
F7.4444447
sI12
F10.666667
sI13
F14.666667
sI14
F-10.444445
sI15
F-0.7777778
sI16
F11.222222
sI17
F14.666667
sI18
F0.49614197
sI19
F2.5574577
ssbsg16
g0
(g17
g2
Ntp587
Rp588
(dp589
g21
I1
sbsba(ics475_types
Instance
p590
(dp591
g11
(ics475_types
FeatureVector
p592
(dp593
g14
(dp594
I1
F241.0
sI2
F90.0
sI3
F9.0
sI5
F0.11111111
sI6
F5.6666665
sI7
F23.377783
sI8
F6.7777786
sI9
F63.76296
sI10
F9.0
sI11
F4.7777777
sI12
F15.666667
sI13
F6.5555553
sI14
F-12.666667
sI15
F20.0
sI16
F-7.3333335
sI17
F15.666667
sI18
F0.7629189
sI19
F-2.2663894
ssbsg16
g0
(g17
g2
Ntp595
Rp596
(dp597
g21
I0
sbsba(ics475_types
Instance
p598
(dp599
g11
(ics475_types
FeatureVector
p600
(dp601
g14
(dp602
I1
F209.0
sI2
F249.0
sI3
F9.0
sI6
F2.4444444
sI7
F2.3851857
sI8
F2.8888886
sI9
F3.8074067
sI10
F8.555555
sI11
F8.0
sI12
F7.5555553
sI13
F10.111111
sI14
F-1.6666666
sI15
F-3.0
sI16
F4.6666665
sI17
F10.111111
sI18
F0.30902183
sI19
F1.9174206
ssbsg16
g0
(g17
g2
Ntp603
Rp604
(dp605
g21
I1
sbsba(ics475_types
Instance
p606
(dp607
g11
(ics475_types
FeatureVector
p608
(dp609
g14
(dp610
I1
F159.0
sI2
F210.0
sI3
F9.0
sI6
F1.4999999
sI7
F1.3666656
sI8
F1.5555555
sI9
F2.1629632
sI10
F12.962963
sI11
F9.444445
sI12
F12.0
sI13
F17.444445
sI14
F-10.555555
sI15
F-2.8888888
sI16
F13.444445
sI17
F17.444445
sI18
F0.4604365
sI19
F2.4287496
ssbsg16
g0
(g17
g2
Ntp611
Rp612
(dp613
g21
I1
sbsba(ics475_types
Instance
p614
(dp615
g11
(ics475_types
FeatureVector
p616
(dp617
g14
(dp618
I1
F75.0
sI2
F240.0
sI3
F9.0
sI6
F2.4444444
sI7
F1.9512578
sI8
F2.1111114
sI9
F1.3608272
sI10
F21.148148
sI11
F17.0
sI12
F17.88889
sI13
F28.555555
sI14
F-12.444445
sI15
F-9.777778
sI16
F22.222221
sI17
F28.555555
sI18
F0.41721755
sI19
F2.1755219
ssbsg16
g0
(g17
g2
Ntp619
Rp620
(dp621
g21
I1
sbsba(ics475_types
Instance
p622
(dp623
g11
(ics475_types
FeatureVector
p624
(dp625
g14
(dp626
I1
F91.0
sI2
F120.0
sI3
F9.0
sI6
F1.3888893
sI7
F0.9289578
sI8
F0.61111146
sI9
F0.77220225
sI10
F16.851852
sI11
F11.222222
sI12
F25.777779
sI13
F13.555555
sI14
F-16.88889
sI15
F26.777779
sI16
F-9.888889
sI17
F25.777779
sI18
F0.5621582
sI19
F-2.2308207
ssbsg16
g0
(g17
g2
Ntp627
Rp628
(dp629
g21
I0
sbsba(ics475_types
Instance
p630
(dp631
g11
(ics475_types
FeatureVector
p632
(dp633
g14
(dp634
I1
F44.0
sI2
F157.0
sI3
F9.0
sI6
F0.83333397
sI7
F0.30000025
sI8
F2.9444444
sI9
F7.6185203
sI10
F24.296297
sI11
F19.222221
sI12
F24.222221
sI13
F29.444445
sI14
F-15.222222
sI15
F-0.22222222
sI16
F15.444445
sI17
F29.444445
sI18
F0.35004318
sI19
F2.6043034
ssbsg16
g0
(g17
g2
Ntp635
Rp636
(dp637
g21
I1
sbsba(ics475_types
Instance
p638
(dp639
g11
(ics475_types
FeatureVector
p640
(dp641
g14
(dp642
I1
F124.0
sI2
F201.0
sI3
F9.0
sI6
F1.944445
sI7
F1.9597805
sI8
F2.0555556
sI9
F1.306678
sI10
F17.88889
sI11
F14.0
sI12
F14.888889
sI13
F24.777779
sI14
F-11.666667
sI15
F-9.0
sI16
F20.666666
sI17
F24.777779
sI18
F0.43971756
sI19
F2.1769927
ssbsg16
g0
(g17
g2
Ntp643
Rp644
(dp645
g21
I1
sbsba(ics475_types
Instance
p646
(dp647
g11
(ics475_types
FeatureVector
p648
(dp649
g14
(dp650
I1
F117.0
sI2
F224.0
sI3
F9.0
sI6
F3.0555556
sI7
F2.5596585
sI8
F3.0555556
sI9
F3.0215273
sI10
F20.25926
sI11
F15.444445
sI12
F17.777779
sI13
F27.555555
sI14
F-14.444445
sI15
F-7.4444447
sI16
F21.88889
sI17
F27.555555
sI18
F0.44151622
sI19
F2.3041532
ssbsg16
g0
(g17
g2
Ntp651
Rp652
(dp653
g21
I1
sbsba(ics475_types
Instance
p654
(dp655
g11
(ics475_types
FeatureVector
p656
(dp657
g14
(dp658
I1
F94.0
sI2
F144.0
sI3
F9.0
sI6
F0.44444442
sI7
F0.118518494
sI8
F0.49999997
sI9
F0.1666667
sI10
F1.1481482
sI12
F3.4444444
sI14
F-3.4444444
sI15
F6.888889
sI16
F-3.4444444
sI17
F3.4444444
sI18
F1.0
sI19
F-2.0943952
ssbsg16
g0
(g17
g2
Ntp659
Rp660
(dp661
g21
I0
sbsba(ics475_types
Instance
p662
(dp663
g11
(ics475_types
FeatureVector
p664
(dp665
g14
(dp666
I1
F34.0
sI2
F196.0
sI3
F9.0
sI6
F1.3888888
sI7
F2.0185175
sI8
F2.3888886
sI9
F1.2185196
sI10
F15.703704
sI11
F12.444445
sI12
F15.111111
sI13
F19.555555
sI14
F-9.777778
sI15
F-1.7777778
sI16
F11.555555
sI17
F19.555555
sI18
F0.36523178
sI19
F2.511766
ssbsg16
g0
(g17
g2
Ntp667
Rp668
(dp669
g21
I1
sbsba(ics475_types
Instance
p670
(dp671
g11
(ics475_types
FeatureVector
p672
(dp673
g14
(dp674
I1
F212.0
sI2
F160.0
sI3
F9.0
sI6
F1.4444441
sI7
F1.2938602
sI8
F1.4444443
sI9
F1.7722135
sI10
F23.25926
sI11
F17.777779
sI12
F23.444445
sI13
F28.555555
sI14
F-16.444445
sI15
F0.5555556
sI16
F15.888889
sI17
F28.555555
sI18
F0.37821564
sI19
F2.6425967
ssbsg16
g0
(g17
g2
Ntp675
Rp676
(dp677
g21
I1
sbsba(ics475_types
Instance
p678
(dp679
g11
(ics475_types
FeatureVector
p680
(dp681
g14
(dp682
I1
F21.0
sI2
F232.0
sI3
F9.0
sI6
F2.3888888
sI7
F2.6851852
sI8
F2.277778
sI9
F2.3740737
sI10
F13.555555
sI11
F11.333333
sI12
F12.333333
sI13
F17.0
sI14
F-6.6666665
sI15
F-3.6666667
sI16
F10.333333
sI17
F17.0
sI18
F0.32791784
sI19
F2.2831473
ssbsg16
g0
(g17
g2
Ntp683
Rp684
(dp685
g21
I1
sbsba(ics475_types
Instance
p686
(dp687
g11
(ics475_types
FeatureVector
p688
(dp689
g14
(dp690
I1
F106.0
sI2
F107.0
sI3
F9.0
sI6
F1.111111
sI7
F0.72008204
sI8
F0.6666667
sI9
F0.4216372
sI10
F22.555555
sI11
F13.0
sI12
F36.0
sI13
F18.666668
sI14
F-28.666666
sI15
F40.333332
sI16
F-11.666667
sI17
F36.0
sI18
F0.6385408
sI19
F-2.3546174
ssbsg16
g0
(g17
g2
Ntp691
Rp692
(dp693
g21
I0
sbsba(ics475_types
Instance
p694
(dp695
g11
(ics475_types
FeatureVector
p696
(dp697
g14
(dp698
I1
F123.0
sI2
F136.0
sI3
F9.0
sI6
F0.5555555
sI7
F1.0962964
sI8
F0.6666666
sI9
F1.3333331
sI10
F1.1111112
sI11
F0.11111111
sI12
F3.0
sI13
F0.22222222
sI14
F-3.0
sI15
F5.6666665
sI16
F-2.6666667
sI17
F3.0
sI18
F0.9861111
sI19
F-2.1109743
ssbsg16
g0
(g17
g2
Ntp699
Rp700
(dp701
g21
I0
sbsba(ics475_types
Instance
p702
(dp703
g11
(ics475_types
FeatureVector
p704
(dp705
g14
(dp706
I1
F44.0
sI2
F162.0
sI3
F9.0
sI6
F0.88888836
sI7
F0.4554205
sI8
F1.9444447
sI9
F1.3567389
sI10
F24.518518
sI11
F19.555555
sI12
F24.11111
sI13
F29.88889
sI14
F-14.888889
sI15
F-1.2222222
sI16
F16.11111
sI17
F29.88889
sI18
F0.34703225
sI19
F2.5573888
ssbsg16
g0
(g17
g2
Ntp707
Rp708
(dp709
g21
I1
sbsba(ics475_types
Instance
p710
(dp711
g11
(ics475_types
FeatureVector
p712
(dp713
g14
(dp714
I1
F14.0
sI2
F71.0
sI3
F9.0
sI6
F13.055554
sI7
F10.382501
sI8
F21.888885
sI9
F16.536379
sI10
F31.851852
sI11
F25.555555
sI12
F40.22222
sI13
F29.777779
sI14
F-18.88889
sI15
F25.11111
sI16
F-6.2222223
sI17
F40.22222
sI18
F0.39567065
sI19
F-2.4018247
ssbsg16
g0
(g17
g2
Ntp715
Rp716
(dp717
g21
I0
sbsba(ics475_types
Instance
p718
(dp719
g11
(ics475_types
FeatureVector
p720
(dp721
g14
(dp722
I1
F233.0
sI2
F184.0
sI3
F9.0
sI6
F0.5000002
sI7
F0.077777766
sI8
F0.7777777
sI9
F0.785185
sI10
F11.851851
sI11
F9.777778
sI12
F9.888889
sI13
F15.888889
sI14
F-6.2222223
sI15
F-5.888889
sI16
F12.111111
sI17
F15.888889
sI18
F0.40555555
sI19
F2.1286457
ssbsg16
g0
(g17
g2
Ntp723
Rp724
(dp725
g21
I1
sbsba(ics475_types
Instance
p726
(dp727
g11
(ics475_types
FeatureVector
p728
(dp729
g14
(dp730
I1
F180.0
sI2
F224.0
sI3
F9.0
sI6
F3.7222223
sI7
F3.7074065
sI8
F3.6111107
sI9
F5.618522
sI10
F15.185185
sI11
F11.666667
sI12
F13.333333
sI13
F20.555555
sI14
F-10.555555
sI15
F-5.5555553
sI16
F16.11111
sI17
F20.555555
sI18
F0.4433746
sI19
F2.2982552
ssbsg16
g0
(g17
g2
Ntp731
Rp732
(dp733
g21
I1
sbsba(ics475_types
Instance
p734
(dp735
g11
(ics475_types
FeatureVector
p736
(dp737
g14
(dp738
I1
F186.0
sI2
F218.0
sI3
F9.0
sI6
F1.1666666
sI7
F0.74444425
sI8
F1.1666665
sI9
F0.65555507
sI10
F13.703704
sI11
F10.666667
sI12
F12.666667
sI13
F17.777779
sI14
F-9.111111
sI15
F-3.1111112
sI16
F12.222222
sI17
F17.777779
sI18
F0.40134683
sI19
F2.3826835
ssbsg16
g0
(g17
g2
Ntp739
Rp740
(dp741
g21
I1
sbsba(ics475_types
Instance
p742
(dp743
g11
(ics475_types
FeatureVector
p744
(dp745
g14
(dp746
I1
F202.0
sI2
F208.0
sI3
F9.0
sI6
F1.7222223
sI7
F1.3962964
sI8
F1.8333334
sI9
F3.0555542
sI10
F19.25926
sI11
F15.555555
sI12
F17.666668
sI13
F24.555555
sI14
F-11.111111
sI15
F-4.7777777
sI16
F15.888889
sI17
F24.555555
sI18
F0.36886615
sI19
F2.3967707
ssbsg16
g0
(g17
g2
Ntp747
Rp748
(dp749
g21
I1
sbsba(ics475_types
Instance
p750
(dp751
g11
(ics475_types
FeatureVector
p752
(dp753
g14
(dp754
I1
F200.0
sI2
F165.0
sI3
F9.0
sI4
F0.11111111
sI6
F2.277778
sI7
F3.9740758
sI8
F1.7777776
sI9
F0.9185186
sI10
F17.333334
sI11
F12.888889
sI12
F16.444445
sI13
F22.666666
sI14
F-13.333333
sI15
F-2.6666667
sI16
F16.0
sI17
F22.666666
sI18
F0.43081954
sI19
F2.4711971
ssbsg16
g0
(g17
g2
Ntp755
Rp756
(dp757
g21
I1
sbsba(ics475_types
Instance
p758
(dp759
g11
(ics475_types
FeatureVector
p760
(dp761
g14
(dp762
I1
F116.0
sI2
F238.0
sI3
F9.0
sI6
F1.1666665
sI7
F0.87777746
sI8
F1.0555556
sI9
F2.2851841
sI10
F8.518518
sI11
F7.4444447
sI12
F5.6666665
sI13
F12.444445
sI14
F-3.2222223
sI15
F-8.555555
sI16
F11.777778
sI17
F12.444445
sI18
F0.54054004
sI19
F1.8447257
ssbsg16
g0
(g17
g2
Ntp763
Rp764
(dp765
g21
I1
sbsba(ics475_types
Instance
p766
(dp767
g11
(ics475_types
FeatureVector
p768
(dp769
g14
(dp770
I1
F158.0
sI2
F219.0
sI3
F9.0
sI4
F0.11111111
sI6
F2.277778
sI7
F3.5296311
sI8
F2.1111112
sI9
F4.074075
sI10
F14.888889
sI11
F11.444445
sI12
F13.555555
sI13
F19.666668
sI14
F-10.333333
sI15
F-4.0
sI16
F14.333333
sI17
F19.666668
sI18
F0.42601216
sI19
F2.3586955
ssbsg16
g0
(g17
g2
Ntp771
Rp772
(dp773
g21
I1
sbsba(ics475_types
Instance
p774
(dp775
g11
(ics475_types
FeatureVector
p776
(dp777
g14
(dp778
I1
F176.0
sI2
F233.0
sI3
F9.0
sI4
F0.11111111
sI6
F1.4444443
sI7
F1.1482676
sI8
F2.611111
sI9
F1.90224
sI10
F12.481482
sI11
F10.333334
sI12
F8.333334
sI13
F18.777779
sI14
F-6.4444447
sI15
F-12.444445
sI16
F18.88889
sI17
F18.777779
sI18
F0.554881
sI19
F1.9036856
ssbsg16
g0
(g17
g2
Ntp779
Rp780
(dp781
g21
I1
sbsba(ics475_types
Instance
p782
(dp783
g11
(ics475_types
FeatureVector
p784
(dp785
g14
(dp786
I1
F128.0
sI2
F175.0
sI3
F9.0
sI6
F2.1666667
sI7
F4.2111096
sI8
F2.7222214
sI9
F4.3296275
sI10
F23.777779
sI11
F20.88889
sI12
F21.777779
sI13
F28.666666
sI14
F-8.666667
sI15
F-6.0
sI16
F14.666667
sI17
F28.666666
sI18
F0.2849537
sI19
F2.2635381
ssbsg16
g0
(g17
g2
Ntp787
Rp788
(dp789
g21
I1
sbsba(ics475_types
Instance
p790
(dp791
g11
(ics475_types
FeatureVector
p792
(dp793
g14
(dp794
I1
F71.0
sI2
F125.0
sI3
F9.0
sI6
F0.6666667
sI7
F0.47140455
sI8
F0.7222223
sI9
F0.49065357
sI10
F16.407408
sI11
F12.444445
sI12
F23.666666
sI13
F13.111111
sI14
F-11.888889
sI15
F21.777779
sI16
F-9.888889
sI17
F25.333334
sI18
F0.56104016
sI19
F-1.7934027
ssbsg16
g0
(g17
g2
Ntp795
Rp796
(dp797
g21
I0
sbsba(ics475_types
Instance
p798
(dp799
g11
(ics475_types
FeatureVector
p800
(dp801
g14
(dp802
I1
F33.0
sI2
F117.0
sI3
F9.0
sI6
F0.2777778
sI7
F0.018518511
sI8
F0.11111111
sI9
F0.029629635
sI10
F1.074074
sI12
F3.1111112
sI13
F0.11111111
sI14
F-3.2222223
sI15
F6.111111
sI16
F-2.8888888
sI17
F3.1111112
sI18
F1.0
sI19
F-2.132635
ssbsg16
g0
(g17
g2
Ntp803
Rp804
(dp805
g21
I0
sbsba(ics475_types
Instance
p806
(dp807
g11
(ics475_types
FeatureVector
p808
(dp809
g14
(dp810
I1
F220.0
sI2
F124.0
sI3
F9.0
sI6
F0.22222221
sI7
F0.029629631
sI8
F0.44444442
sI9
F0.07407406
sI10
F0.8888889
sI12
F2.4444444
sI13
F0.22222222
sI14
F-2.6666667
sI15
F4.6666665
sI16
F-2.0
sI17
F2.4444444
sI18
F1.0
sI19
F-2.1617603
ssbsg16
g0
(g17
g2
Ntp811
Rp812
(dp813
g21
I0
sbsba(ics475_types
Instance
p814
(dp815
g11
(ics475_types
FeatureVector
p816
(dp817
g14
(dp818
I1
F234.0
sI2
F164.0
sI3
F9.0
sI6
F0.5000002
sI7
F0.2111112
sI8
F3.0
sI9
F8.04445
sI10
F13.666667
sI11
F11.666667
sI12
F15.0
sI13
F14.333333
sI14
F-6.0
sI15
F4.0
sI16
F2.0
sI17
F16.88889
sI18
F0.29914993
sI19
F2.87512
ssbsg16
g0
(g17
g2
Ntp819
Rp820
(dp821
g21
I1
sbsba(ics475_types
Instance
p822
(dp823
g11
(ics475_types
FeatureVector
p824
(dp825
g14
(dp826
I1
F225.0
sI2
F244.0
sI3
F9.0
sI6
F3.3888886
sI7
F2.1951127
sI8
F2.9999998
sI9
F1.5202343
sI10
F12.259259
sI11
F10.333334
sI12
F9.333334
sI13
F17.11111
sI14
F-5.7777777
sI15
F-8.777778
sI16
F14.555555
sI17
F17.11111
sI18
F0.48014903
sI19
F1.9879022
ssbsg16
g0
(g17
g2
Ntp827
Rp828
(dp829
g21
I1
sbsba(ics475_types
Instance
p830
(dp831
g11
(ics475_types
FeatureVector
p832
(dp833
g14
(dp834
I1
F217.0
sI2
F208.0
sI3
F9.0
sI6
F2.5000002
sI7
F2.1666656
sI8
F2.6666667
sI9
F2.4444458
sI10
F16.074074
sI11
F12.666667
sI12
F14.444445
sI13
F21.11111
sI14
F-10.222222
sI15
F-4.888889
sI16
F15.111111
sI17
F21.11111
sI18
F0.40212956
sI19
F2.3109324
ssbsg16
g0
(g17
g2
Ntp835
Rp836
(dp837
g21
I1
sbsba(ics475_types
Instance
p838
(dp839
g11
(ics475_types
FeatureVector
p840
(dp841
g14
(dp842
I1
F207.0
sI2
F217.0
sI3
F9.0
sI6
F0.77777785
sI7
F0.47407398
sI8
F2.0555556
sI9
F0.9074081
sI10
F6.296296
sI11
F5.0
sI12
F4.2222223
sI13
F9.666667
sI14
F-3.8888888
sI15
F-6.2222223
sI16
F10.111111
sI17
F9.666667
sI18
F0.58261186
sI19
F1.9761382
ssbsg16
g0
(g17
g2
Ntp843
Rp844
(dp845
g21
I1
sbsba(ics475_types
Instance
p846
(dp847
g11
(ics475_types
FeatureVector
p848
(dp849
g14
(dp850
I1
F94.0
sI2
F215.0
sI3
F9.0
sI6
F3.1111114
sI7
F5.0962954
sI8
F1.6111113
sI9
F1.1296293
sI10
F17.185184
sI11
F14.333333
sI12
F14.333333
sI13
F22.88889
sI14
F-8.555555
sI15
F-8.555555
sI16
F17.11111
sI17
F22.88889
sI18
F0.4043918
sI19
F2.1051967
ssbsg16
g0
(g17
g2
Ntp851
Rp852
(dp853
g21
I1
sbsba(ics475_types
Instance
p854
(dp855
g11
(ics475_types
FeatureVector
p856
(dp857
g14
(dp858
I1
F98.0
sI2
F107.0
sI3
F9.0
sI6
F4.6666665
sI7
F3.7333333
sI8
F3.9444447
sI9
F17.12963
sI10
F8.703704
sI11
F4.888889
sI12
F14.555555
sI13
F6.6666665
sI14
F-11.444445
sI15
F17.555555
sI16
F-6.111111
sI17
F14.555555
sI18
F0.69722587
sI19
F-2.2801461
ssbsg16
g0
(g17
g2
Ntp859
Rp860
(dp861
g21
I0
sbsba(ics475_types
Instance
p862
(dp863
g11
(ics475_types
FeatureVector
p864
(dp865
g14
(dp866
I1
F95.0
sI2
F127.0
sI3
F9.0
sI6
F0.22222222
sI7
F0.07407406
sI8
F0.22222222
sI9
F0.02962962
sI10
F0.6296296
sI12
F1.8888888
sI14
F-1.8888888
sI15
F3.7777777
sI16
F-1.8888888
sI17
F1.8888888
sI18
F1.0
sI19
F-2.0943952
ssbsg16
g0
(g17
g2
Ntp867
Rp868
(dp869
g21
I0
sbsba(ics475_types
Instance
p870
(dp871
g11
(ics475_types
FeatureVector
p872
(dp873
g14
(dp874
I1
F212.0
sI2
F239.0
sI3
F9.0
sI6
F1.9444443
sI7
F1.4516913
sI8
F2.3333333
sI9
F2.8205595
sI10
F10.37037
sI11
F7.6666665
sI12
F9.666667
sI13
F13.777778
sI14
F-8.111111
sI15
F-2.1111112
sI16
F10.222222
sI17
F13.777778
sI18
F0.4459687
sI19
F2.4263785
ssbsg16
g0
(g17
g2
Ntp875
Rp876
(dp877
g21
I1
sbsba(ics475_types
Instance
p878
(dp879
g11
(ics475_types
FeatureVector
p880
(dp881
g14
(dp882
I1
F41.0
sI2
F75.0
sI3
F9.0
sI5
F0.11111111
sI6
F15.388889
sI7
F19.136257
sI8
F26.611113
sI9
F31.71359
sI10
F55.0
sI11
F47.444443
sI12
F65.44444
sI13
F52.11111
sI14
F-22.666666
sI15
F31.333334
sI16
F-8.666667
sI17
F65.44444
sI18
F0.29780185
sI19
F-2.3567543
ssbsg16
g0
(g17
g2
Ntp883
Rp884
(dp885
g21
I0
sbsba(ics475_types
Instance
p886
(dp887
g11
(ics475_types
FeatureVector
p888
(dp889
g14
(dp890
I1
F4.0
sI2
F96.0
sI3
F9.0
sI6
F2.222222
sI7
F2.9629638
sI8
F1.5555555
sI9
F2.2518516
sI10
F3.5555556
sI11
F0.8888889
sI12
F7.7777777
sI13
F2.0
sI14
F-8.0
sI15
F12.666667
sI16
F-4.6666665
sI17
F7.7777777
sI18
F0.91006523
sI19
F-2.2444818
ssbsg16
g0
(g17
g2
Ntp891
Rp892
(dp893
g21
I0
sbsba(ics475_types
Instance
p894
(dp895
g11
(ics475_types
FeatureVector
p896
(dp897
g14
(dp898
I1
F235.0
sI2
F120.0
sI3
F9.0
sI6
F0.44444442
sI7
F0.3407407
sI8
F0.49999997
sI9
F0.30000004
sI10
F1.4444444
sI12
F4.0
sI13
F0.33333334
sI14
F-4.3333335
sI15
F7.6666665
sI16
F-3.3333333
sI17
F4.0
sI18
F1.0
sI19
F-2.1563656
ssbsg16
g0
(g17
g2
Ntp899
Rp900
(dp901
g21
I0
sbsba(ics475_types
Instance
p902
(dp903
g11
(ics475_types
FeatureVector
p904
(dp905
g14
(dp906
I1
F94.0
sI2
F224.0
sI3
F9.0
sI6
F1.3888887
sI7
F1.8407407
sI8
F0.9444442
sI9
F0.5518519
sI10
F13.444445
sI11
F10.0
sI12
F11.888889
sI13
F18.444445
sI14
F-10.333333
sI15
F-4.6666665
sI16
F15.0
sI17
F18.444445
sI18
F0.45764294
sI19
F2.3281083
ssbsg16
g0
(g17
g2
Ntp907
Rp908
(dp909
g21
I1
sbsba(ics475_types
Instance
p910
(dp911
g11
(ics475_types
FeatureVector
p912
(dp913
g14
(dp914
I1
F179.0
sI2
F150.0
sI3
F9.0
sI6
F1.055555
sI7
F0.1962963
sI8
F1.7222223
sI9
F1.6185163
sI10
F18.925926
sI11
F13.444445
sI12
F20.0
sI13
F23.333334
sI14
F-16.444445
sI15
F3.2222223
sI16
F13.222222
sI17
F23.333334
sI18
F0.42442176
sI19
F2.7916744
ssbsg16
g0
(g17
g2
Ntp915
Rp916
(dp917
g21
I1
sbsba(ics475_types
Instance
p918
(dp919
g11
(ics475_types
FeatureVector
p920
(dp921
g14
(dp922
I1
F72.0
sI2
F111.0
sI3
F9.0
sI6
F0.5
sI7
F0.3
sI8
F0.9444444
sI9
F1.396296
sI10
F1.2962962
sI12
F3.5555556
sI13
F0.33333334
sI14
F-3.8888888
sI15
F6.7777777
sI16
F-2.8888888
sI17
F3.5555556
sI18
F1.0
sI19
F-2.1394942
ssbsg16
g0
(g17
g2
Ntp923
Rp924
(dp925
g21
I0
sbsba(ics475_types
Instance
p926
(dp927
g11
(ics475_types
FeatureVector
p928
(dp929
g14
(dp930
I1
F55.0
sI2
F93.0
sI3
F9.0
sI4
F0.11111111
sI6
F0.83333343
sI7
F0.2999998
sI8
F1.388889
sI9
F1.7962962
sI10
F3.0
sI11
F0.5555556
sI12
F7.2222223
sI13
F1.2222222
sI14
F-7.3333335
sI15
F12.666667
sI16
F-5.3333335
sI17
F7.2222223
sI18
F0.9356702
sI19
F-2.1836095
ssbsg16
g0
(g17
g2
Ntp931
Rp932
(dp933
g21
I0
sbsba(ics475_types
Instance
p934
(dp935
g11
(ics475_types
FeatureVector
p936
(dp937
g14
(dp938
I1
F170.0
sI2
F185.0
sI3
F9.0
sI6
F0.611111
sI7
F0.44305348
sI8
F1.4444447
sI9
F1.0470417
sI10
F10.740741
sI11
F8.111112
sI12
F9.777778
sI13
F14.333333
sI14
F-7.888889
sI15
F-2.8888888
sI16
F10.777778
sI17
F14.333333
sI18
F0.4351852
sI19
F2.3628104
ssbsg16
g0
(g17
g2
Ntp939
Rp940
(dp941
g21
I1
sbsba(ics475_types
Instance
p942
(dp943
g11
(ics475_types
FeatureVector
p944
(dp945
g14
(dp946
I1
F245.0
sI2
F238.0
sI3
F9.0
sI4
F0.11111111
sI6
F1.6666665
sI7
F2.5385911
sI8
F2.3333333
sI9
F2.4404008
sI10
F8.925926
sI11
F6.3333335
sI12
F6.5555553
sI13
F13.888889
sI14
F-7.7777777
sI15
F-7.111111
sI16
F14.888889
sI17
F13.888889
sI18
F0.59701496
sI19
F2.1260629
ssbsg16
g0
(g17
g2
Ntp947
Rp948
(dp949
g21
I1
sbsba(ics475_types
Instance
p950
(dp951
g11
(ics475_types
FeatureVector
p952
(dp953
g14
(dp954
I1
F90.0
sI2
F189.0
sI3
F9.0
sI6
F0.88888884
sI7
F0.7793635
sI8
F1.0555555
sI9
F0.82775915
sI10
F12.888889
sI11
F10.444445
sI12
F9.444445
sI13
F18.777779
sI14
F-7.3333335
sI15
F-10.333333
sI16
F17.666666
sI17
F18.777779
sI18
F0.49709514
sI19
F1.9855517
ssbsg16
g0
(g17
g2
Ntp955
Rp956
(dp957
g21
I1
sbsba(ics475_types
Instance
p958
(dp959
g11
(ics475_types
FeatureVector
p960
(dp961
g14
(dp962
I1
F60.0
sI2
F132.0
sI3
F9.0
sI6
F0.11111113
sI7
F0.029629637
sI8
F0.22222222
sI9
F0.029629637
sI10
F0.37037036
sI12
F1.1111112
sI14
F-1.1111112
sI15
F2.2222223
sI16
F-1.1111112
sI17
F1.1111112
sI18
F0.8888889
sI19
F-2.0943952
ssbsg16
g0
(g17
g2
Ntp963
Rp964
(dp965
g21
I0
sbsba(ics475_types
Instance
p966
(dp967
g11
(ics475_types
FeatureVector
p968
(dp969
g14
(dp970
I1
F19.0
sI2
F133.0
sI3
F9.0
ssbsg16
g0
(g17
g2
Ntp971
Rp972
(dp973
g21
I0
sbsba(ics475_types
Instance
p974
(dp975
g11
(ics475_types
FeatureVector
p976
(dp977
g14
(dp978
I1
F232.0
sI2
F126.0
sI3
F9.0
sI5
F0.11111111
sI6
F2.3888888
sI7
F11.885187
sI8
F1.2222223
sI9
F6.2962966
sI10
F1.5185186
sI11
F0.44444445
sI12
F3.5555556
sI13
F0.5555556
sI14
F-3.2222223
sI15
F6.111111
sI16
F-2.8888888
sI17
F3.5555556
sI18
F0.96581197
sI19
F-2.1073034
ssbsg16
g0
(g17
g2
Ntp979
Rp980
(dp981
g21
I0
sbsba(ics475_types
Instance
p982
(dp983
g11
(ics475_types
FeatureVector
p984
(dp985
g14
(dp986
I1
F81.0
sI2
F126.0
sI3
F9.0
sI5
F0.11111111
sI6
F1.9444443
sI7
F1.12963
sI8
F1.0555555
sI9
F0.28518513
sI10
F2.9629629
sI11
F0.5555556
sI12
F6.5555553
sI13
F1.7777778
sI14
F-7.2222223
sI15
F10.777778
sI16
F-3.5555556
sI17
F6.5555553
sI18
F0.93570626
sI19
F-2.2890973
ssbsg16
g0
(g17
g2
Ntp987
Rp988
(dp989
g21
I0
sbsba(ics475_types
Instance
p990
(dp991
g11
(ics475_types
FeatureVector
p992
(dp993
g14
(dp994
I1
F231.0
sI2
F198.0
sI3
F9.0
sI4
F0.11111111
sI6
F0.9999997
sI7
F0.13333334
sI8
F1.111111
sI9
F1.2296298
sI10
F15.814815
sI11
F12.444445
sI12
F14.222222
sI13
F20.777779
sI14
F-10.111111
sI15
F-4.7777777
sI16
F14.888889
sI17
F20.777779
sI18
F0.40090325
sI19
F2.3248901
ssbsg16
g0
(g17
g2
Ntp995
Rp996
(dp997
g21
I1
sbsba(ics475_types
Instance
p998
(dp999
g11
(ics475_types
FeatureVector
p1000
(dp1001
g14
(dp1002
I1
F196.0
sI2
F100.0
sI3
F9.0
sI6
F7.277777
sI7
F83.351845
sI8
F5.777778
sI9
F68.87406
sI10
F8.148149
sI11
F4.666667
sI12
F13.333333
sI13
F6.4444447
sI14
F-10.444445
sI15
F15.555555
sI16
F-5.111111
sI17
F13.333333
sI18
F0.7380342
sI19
F-2.2898738
ssbsg16
g0
(g17
g2
Ntp1003
Rp1004
(dp1005
g21
I0
sbsba(ics475_types
Instance
p1006
(dp1007
g11
(ics475_types
FeatureVector
p1008
(dp1009
g14
(dp1010
I1
F224.0
sI2
F95.0
sI3
F9.0
sI6
F1.2222223
sI7
F0.47407404
sI8
F1.0555557
sI9
F0.7296295
sI10
F3.5185184
sI11
F0.8888889
sI12
F7.2222223
sI13
F2.4444444
sI14
F-7.888889
sI15
F11.111111
sI16
F-3.2222223
sI17
F7.2222223
sI18
F0.88955027
sI19
F-2.3489873
ssbsg16
g0
(g17
g2
Ntp1011
Rp1012
(dp1013
g21
I0
sbsba(ics475_types
Instance
p1014
(dp1015
g11
(ics475_types
FeatureVector
p1016
(dp1017
g14
(dp1018
I1
F45.0
sI2
F126.0
sI3
F9.0
sI6
F7.0
sI7
F3.870114
sI8
F2.5555556
sI9
F1.7971169
sI10
F10.185185
sI11
F4.888889
sI12
F17.222223
sI13
F8.444445
sI14
F-15.888889
sI15
F21.11111
sI16
F-5.2222223
sI17
F17.222223
sI18
F0.7364309
sI19
F-2.4498394
ssbsg16
g0
(g17
g2
Ntp1019
Rp1020
(dp1021
g21
I0
sbsba(ics475_types
Instance
p1022
(dp1023
g11
(ics475_types
FeatureVector
p1024
(dp1025
g14
(dp1026
I1
F29.0
sI2
F195.0
sI3
F9.0
sI6
F0.44444433
sI7
F0.40368652
sI8
F0.61111087
sI9
F0.6804136
sI10
F16.037037
sI11
F14.444445
sI12
F13.333333
sI13
F20.333334
sI14
F-4.7777777
sI15
F-8.111111
sI16
F12.888889
sI17
F20.333334
sI18
F0.34230694
sI19
F1.9430399
ssbsg16
g0
(g17
g2
Ntp1027
Rp1028
(dp1029
g21
I1
sbsba(ics475_types
Instance
p1030
(dp1031
g11
(ics475_types
FeatureVector
p1032
(dp1033
g14
(dp1034
I1
F203.0
sI2
F93.0
sI3
F9.0
sI6
F2.6666667
sI7
F6.4444437
sI8
F3.4444444
sI9
F11.674076
sI10
F6.7777777
sI11
F3.2222223
sI12
F11.888889
sI13
F5.2222223
sI14
F-10.666667
sI15
F15.333333
sI16
F-4.6666665
sI17
F11.888889
sI18
F0.7601911
sI19
F-2.332766
ssbsg16
g0
(g17
g2
Ntp1035
Rp1036
(dp1037
g21
I0
sbsba(ics475_types
Instance
p1038
(dp1039
g11
(ics475_types
FeatureVector
p1040
(dp1041
g14
(dp1042
I1
F33.0
sI2
F98.0
sI3
F9.0
sI6
F0.6111111
sI7
F0.611616
sI8
F1.3333331
sI9
F0.9189368
sI10
F2.0370371
sI11
F0.5555556
sI12
F3.5555556
sI13
F2.0
sI14
F-4.4444447
sI15
F4.5555553
sI16
F-0.11111111
sI17
F3.5555556
sI18
F0.8833333
sI19
F-2.5488977
ssbsg16
g0
(g17
g2
Ntp1043
Rp1044
(dp1045
g21
I0
sbsba(ics475_types
Instance
p1046
(dp1047
g11
(ics475_types
FeatureVector
p1048
(dp1049
g14
(dp1050
I1
F131.0
sI2
F208.0
sI3
F9.0
sI6
F1.388889
sI7
F0.41851857
sI8
F0.611111
sI9
F0.24074061
sI10
F16.185184
sI11
F12.777778
sI12
F15.0
sI13
F20.777779
sI14
F-10.222222
sI15
F-3.5555556
sI16
F13.777778
sI17
F20.777779
sI18
F0.3831675
sI19
F2.3919957
ssbsg16
g0
(g17
g2
Ntp1051
Rp1052
(dp1053
g21
I1
sbsba(ics475_types
Instance
p1054
(dp1055
g11
(ics475_types
FeatureVector
p1056
(dp1057
g14
(dp1058
I1
F230.0
sI2
F98.0
sI3
F9.0
sI6
F0.38888884
sI7
F0.15185185
sI8
F0.38888887
sI9
F0.06296294
sI10
F1.4074074
sI12
F4.111111
sI13
F0.11111111
sI14
F-4.2222223
sI15
F8.111111
sI16
F-3.8888888
sI17
F4.111111
sI18
F1.0
sI19
F-2.1137195
ssbsg16
g0
(g17
g2
Ntp1059
Rp1060
(dp1061
g21
I0
sbsba(ics475_types
Instance
p1062
(dp1063
g11
(ics475_types
FeatureVector
p1064
(dp1065
g14
(dp1066
I1
F199.0
sI2
F100.0
sI3
F9.0
sI6
F2.3888886
sI7
F1.4407414
sI8
F2.4444444
sI9
F6.02963
sI10
F6.0740743
sI11
F2.7777777
sI12
F11.555555
sI13
F3.8888888
sI14
F-9.888889
sI15
F16.444445
sI16
F-6.5555553
sI17
F11.555555
sI18
F0.7738155
sI19
F-2.2262468
ssbsg16
g0
(g17
g2
Ntp1067
Rp1068
(dp1069
g21
I0
sbsba(ics475_types
Instance
p1070
(dp1071
g11
(ics475_types
FeatureVector
p1072
(dp1073
g14
(dp1074
I1
F1.0
sI2
F81.0
sI3
F9.0
sI6
F12.166667
sI7
F267.45554
sI8
F9.222222
sI9
F205.36296
sI10
F21.333334
sI11
F14.0
sI12
F30.555555
sI13
F19.444445
sI14
F-22.0
sI15
F27.666666
sI16
F-5.6666665
sI17
F30.555555
sI18
F0.5952822
sI19
F-2.438409
ssbsg16
g0
(g17
g2
Ntp1075
Rp1076
(dp1077
g21
I0
sbsba(ics475_types
Instance
p1078
(dp1079
g11
(ics475_types
FeatureVector
p1080
(dp1081
g14
(dp1082
I1
F49.0
sI2
F116.0
sI3
F9.0
sI6
F1.3333334
sI7
F0.31111145
sI8
F2.111111
sI9
F1.3185191
sI10
F3.0
sI11
F0.8888889
sI12
F6.0
sI13
F2.1111112
sI14
F-6.3333335
sI15
F9.0
sI16
F-2.6666667
sI17
F6.0
sI18
F0.8755291
sI19
F-2.3130133
ssbsg16
g0
(g17
g2
Ntp1083
Rp1084
(dp1085
g21
I0
sbsba(ics475_types
Instance
p1086
(dp1087
g11
(ics475_types
FeatureVector
p1088
(dp1089
g14
(dp1090
I1
F33.0
sI2
F100.0
sI3
F9.0
sI6
F0.72222227
sI7
F0.53402746
sI8
F0.66666675
sI9
F0.3651482
sI10
F1.2222222
sI11
F0.11111111
sI12
F2.7777777
sI13
F0.7777778
sI14
F-3.3333333
sI15
F4.6666665
sI16
F-1.3333334
sI17
F2.7777777
sI18
F0.9777778
sI19
F-2.3370957
ssbsg16
g0
(g17
g2
Ntp1091
Rp1092
(dp1093
g21
I0
sbsba(ics475_types
Instance
p1094
(dp1095
g11
(ics475_types
FeatureVector
p1096
(dp1097
g14
(dp1098
I1
F39.0
sI2
F246.0
sI3
F9.0
sI4
F0.11111111
sI6
F2.277778
sI7
F3.2629633
sI8
F1.8333334
sI9
F2.4333339
sI10
F15.37037
sI11
F12.555555
sI12
F13.111111
sI13
F20.444445
sI14
F-8.444445
sI15
F-6.7777777
sI16
F15.222222
sI17
F20.444445
sI18
F0.3938387
sI19
F2.170543
ssbsg16
g0
(g17
g2
Ntp1099
Rp1100
(dp1101
g21
I1
sbsba(ics475_types
Instance
p1102
(dp1103
g11
(ics475_types
FeatureVector
p1104
(dp1105
g14
(dp1106
I1
F140.0
sI2
F247.0
sI3
F9.0
sI6
F2.5000002
sI7
F3.1888885
sI8
F2.6666667
sI9
F3.555555
sI10
F8.111111
sI11
F6.0
sI12
F5.888889
sI13
F12.444445
sI14
F-6.3333335
sI15
F-6.6666665
sI16
F13.0
sI17
F12.444445
sI18
F0.5634669
sI19
F2.1178858
ssbsg16
g0
(g17
g2
Ntp1107
Rp1108
(dp1109
g21
I1
sbsba(ics475_types
Instance
p1110
(dp1111
g11
(ics475_types
FeatureVector
p1112
(dp1113
g14
(dp1114
I1
F199.0
sI2
F220.0
sI3
F9.0
sI6
F1.1666667
sI7
F0.83333284
sI8
F0.88888884
sI9
F0.47407386
sI10
F6.6296296
sI11
F5.3333335
sI12
F5.0
sI13
F9.555555
sI14
F-3.8888888
sI15
F-4.888889
sI16
F8.777778
sI17
F9.555555
sI18
F0.5039001
sI19
F2.0308669
ssbsg16
g0
(g17
g2
Ntp1115
Rp1116
(dp1117
g21
I1
sbsba(ics475_types
Instance
p1118
(dp1119
g11
(ics475_types
FeatureVector
p1120
(dp1121
g14
(dp1122
I1
F102.0
sI2
F203.0
sI3
F9.0
sI6
F0.6666665
sI7
F0.760117
sI8
F1.3333331
sI9
F0.8944272
sI10
F9.777778
sI11
F7.4444447
sI12
F6.4444447
sI13
F15.444445
sI14
F-7.0
sI15
F-10.0
sI16
F17.0
sI17
F15.444445
sI18
F0.5918262
sI19
F1.9847853
ssbsg16
g0
(g17
g2
Ntp1123
Rp1124
(dp1125
g21
I1
sbsba(ics475_types
Instance
p1126
(dp1127
g11
(ics475_types
FeatureVector
p1128
(dp1129
g14
(dp1130
I1
F37.0
sI2
F104.0
sI3
F9.0
sI6
F7.8333325
sI7
F9.713106
sI8
F22.111109
sI9
F21.61858
sI10
F18.62963
sI11
F14.888889
sI12
F23.444445
sI13
F17.555555
sI14
F-11.222222
sI15
F14.444445
sI16
F-3.2222223
sI17
F23.444445
sI18
F0.6076133
sI19
F-2.4250698
ssbsg16
g0
(g17
g2
Ntp1131
Rp1132
(dp1133
g21
I0
sbsba(ics475_types
Instance
p1134
(dp1135
g11
(ics475_types
FeatureVector
p1136
(dp1137
g14
(dp1138
I1
F29.0
sI2
F85.0
sI3
F9.0
sI6
F2.833333
sI7
F2.9420328
sI8
F2.3888888
sI9
F3.0508046
sI10
F4.0740743
sI11
F2.1111112
sI12
F6.7777777
sI13
F3.3333333
sI14
F-5.888889
sI15
F8.111111
sI16
F-2.2222223
sI17
F6.7777777
sI18
F0.76296294
sI19
F-2.3698635
ssbsg16
g0
(g17
g2
Ntp1139
Rp1140
(dp1141
g21
I0
sbsba(ics475_types
Instance
p1142
(dp1143
g11
(ics475_types
FeatureVector
p1144
(dp1145
g14
(dp1146
I1
F217.0
sI2
F115.0
sI3
F9.0
sI6
F1.1666666
sI7
F0.34444454
sI8
F0.5555555
sI9
F0.38518524
sI10
F1.8888888
sI11
F0.22222222
sI12
F4.666667
sI13
F0.7777778
sI14
F-5.0
sI15
F8.333333
sI16
F-3.3333333
sI17
F4.666667
sI18
F0.962963
sI19
F-2.2166038
ssbsg16
g0
(g17
g2
Ntp1147
Rp1148
(dp1149
g21
I0
sbsba(ics475_types
Instance
p1150
(dp1151
g11
(ics475_types
FeatureVector
p1152
(dp1153
g14
(dp1154
I1
F95.0
sI2
F95.0
sI3
F9.0
sI6
F0.72222227
sI7
F0.8185186
sI8
F1.111111
sI9
F0.25185192
sI10
F6.4814816
sI11
F2.3333335
sI12
F12.555555
sI13
F4.5555553
sI14
F-12.444445
sI15
F18.222221
sI16
F-5.7777777
sI17
F12.555555
sI18
F0.816909
sI19
F-2.322295
ssbsg16
g0
(g17
g2
Ntp1155
Rp1156
(dp1157
g21
I0
sbsba(ics475_types
Instance
p1158
(dp1159
g11
(ics475_types
FeatureVector
p1160
(dp1161
g14
(dp1162
I1
F17.0
sI2
F108.0
sI3
F9.0
sI6
F1.2777778
sI7
F0.64693
sI8
F1.1666666
sI9
F0.91287076
sI10
F1.8518518
sI11
F0.5555556
sI12
F3.3333333
sI13
F1.6666666
sI14
F-3.8888888
sI15
F4.4444447
sI16
F-0.5555556
sI17
F3.3333333
sI18
F0.8759259
sI19
F-2.463852
ssbsg16
g0
(g17
g2
Ntp1163
Rp1164
(dp1165
g21
I0
sbsba(ics475_types
Instance
p1166
(dp1167
g11
(ics475_types
FeatureVector
p1168
(dp1169
g14
(dp1170
I1
F55.0
sI2
F209.0
sI3
F9.0
sI4
F0.11111111
sI6
F1.8333331
sI7
F1.2952907
sI8
F1.3888888
sI9
F0.99814624
sI10
F12.518518
sI11
F10.333334
sI12
F10.333334
sI13
F16.88889
sI14
F-6.5555553
sI15
F-6.5555553
sI16
F13.111111
sI17
F16.88889
sI18
F0.40790388
sI19
F2.0992203
ssbsg16
g0
(g17
g2
Ntp1171
Rp1172
(dp1173
g21
I1
sbsba(ics475_types
Instance
p1174
(dp1175
g11
(ics475_types
FeatureVector
p1176
(dp1177
g14
(dp1178
I1
F145.0
sI2
F248.0
sI3
F9.0
sI6
F2.0555553
sI7
F1.7180947
sI8
F2.111111
sI9
F1.3770607
sI10
F26.88889
sI11
F23.222221
sI12
F25.11111
sI13
F32.333336
sI14
F-11.0
sI15
F-5.3333335
sI16
F16.333334
sI17
F32.333336
sI18
F0.2916751
sI19
F2.2850983
ssbsg16
g0
(g17
g2
Ntp1179
Rp1180
(dp1181
g21
I1
sbsba(ics475_types
Instance
p1182
(dp1183
g11
(ics475_types
FeatureVector
p1184
(dp1185
g14
(dp1186
I1
F144.0
sI2
F169.0
sI3
F9.0
sI6
F1.1111107
sI7
F0.77936363
sI8
F1.3888884
sI9
F0.74286735
sI10
F17.11111
sI11
F13.444445
sI12
F18.0
sI13
F19.88889
sI14
F-11.0
sI15
F2.6666667
sI16
F8.333333
sI17
F19.88889
sI18
F0.32496518
sI19
F2.8348217
ssbsg16
g0
(g17
g2
Ntp1187
Rp1188
(dp1189
g21
I1
sbsba(ics475_types
Instance
p1190
(dp1191
g11
(ics475_types
FeatureVector
p1192
(dp1193
g14
(dp1194
I1
F124.0
sI2
F113.0
sI3
F9.0
sI6
F0.38888887
sI7
F0.38968176
sI8
F0.2777778
sI9
F0.3277307
sI10
F0.962963
sI12
F2.7777777
sI13
F0.11111111
sI14
F-2.8888888
sI15
F5.4444447
sI16
F-2.5555556
sI17
F2.7777777
sI18
F1.0
sI19
F-2.123254
ssbsg16
g0
(g17
g2
Ntp1195
Rp1196
(dp1197
g21
I0
sbsba(ics475_types
Instance
p1198
(dp1199
g11
(ics475_types
FeatureVector
p1200
(dp1201
g14
(dp1202
I1
F95.0
sI2
F141.0
sI3
F9.0
sI6
F0.72222215
sI7
F0.24074078
sI8
F0.72222215
sI9
F0.1518519
sI10
F1.5555556
sI11
F0.11111111
sI12
F3.6666667
sI13
F0.8888889
sI14
F-4.3333335
sI15
F6.3333335
sI16
F-2.0
sI17
F3.6666667
sI18
F0.9777778
sI19
F-2.2859912
ssbsg16
g0
(g17
g2
Ntp1203
Rp1204
(dp1205
g21
I0
sbsba(ics475_types
Instance
p1206
(dp1207
g11
(ics475_types
FeatureVector
p1208
(dp1209
g14
(dp1210
I1
F158.0
sI2
F195.0
sI3
F9.0
sI6
F2.4444442
sI7
F2.3444183
sI8
F2.8333333
sI9
F1.7224011
sI10
F11.703704
sI11
F9.444445
sI12
F8.555555
sI13
F17.11111
sI14
F-6.7777777
sI15
F-9.444445
sI16
F16.222221
sI17
F17.11111
sI18
F0.5177167
sI19
F2.011228
ssbsg16
g0
(g17
g2
Ntp1211
Rp1212
(dp1213
g21
I1
sbsba(ics475_types
Instance
p1214
(dp1215
g11
(ics475_types
FeatureVector
p1216
(dp1217
g14
(dp1218
I1
F9.0
sI2
F131.0
sI3
F9.0
ssbsg16
g0
(g17
g2
Ntp1219
Rp1220
(dp1221
g21
I0
sbsba(ics475_types
Instance
p1222
(dp1223
g11
(ics475_types
FeatureVector
p1224
(dp1225
g14
(dp1226
I1
F242.0
sI2
F183.0
sI3
F9.0
sI6
F1.4999999
sI7
F0.9368979
sI8
F2.1666667
sI9
F1.798147
sI10
F15.37037
sI11
F12.666667
sI12
F12.444445
sI13
F21.0
sI14
F-8.111111
sI15
F-8.777778
sI16
F16.88889
sI17
F21.0
sI18
F0.42024404
sI19
F2.0758736
ssbsg16
g0
(g17
g2
Ntp1227
Rp1228
(dp1229
g21
I1
sbsba(ics475_types
Instance
p1230
(dp1231
g11
(ics475_types
FeatureVector
p1232
(dp1233
g14
(dp1234
I1
F31.0
sI2
F88.0
sI3
F9.0
sI4
F0.11111111
sI6
F0.88888884
sI7
F0.60740745
sI8
F2.1666665
sI9
F1.9888896
sI10
F5.259259
sI11
F1.5555556
sI12
F10.111111
sI13
F4.111111
sI14
F-11.111111
sI15
F14.555555
sI16
F-3.4444444
sI17
F10.111111
sI18
F0.85137916
sI19
F-2.3966565
ssbsg16
g0
(g17
g2
Ntp1235
Rp1236
(dp1237
g21
I0
sbsba(ics475_types
Instance
p1238
(dp1239
g11
(ics475_types
FeatureVector
p1240
(dp1241
g14
(dp1242
I1
F115.0
sI2
F182.0
sI3
F9.0
sI6
F0.5555558
sI7
F1.0470418
sI8
F0.7222228
sI9
F1.1434194
sI10
F17.592592
sI11
F15.444445
sI12
F14.0
sI13
F23.333334
sI14
F-6.4444447
sI15
F-10.777778
sI16
F17.222221
sI17
F23.333334
sI18
F0.39944676
sI19
F1.9375944
ssbsg16
g0
(g17
g2
Ntp1243
Rp1244
(dp1245
g21
I1
sbsba(ics475_types
Instance
p1246
(dp1247
g11
(ics475_types
FeatureVector
p1248
(dp1249
g14
(dp1250
I1
F225.0
sI2
F91.0
sI3
F9.0
sI6
F0.6666667
sI7
F0.3555557
sI8
F0.6666667
sI9
F0.31111112
sI10
F3.6666667
sI11
F1.1111112
sI12
F8.0
sI13
F1.8888888
sI14
F-7.6666665
sI15
F13.0
sI16
F-5.3333335
sI17
F8.0
sI18
F0.86781305
sI19
F-2.2177355
ssbsg16
g0
(g17
g2
Ntp1251
Rp1252
(dp1253
g21
I0
sbsba(ics475_types
Instance
p1254
(dp1255
g11
(ics475_types
FeatureVector
p1256
(dp1257
g14
(dp1258
I1
F44.0
sI2
F123.0
sI3
F9.0
sI6
F1.0555556
sI7
F0.99629647
sI8
F1.0000001
sI9
F0.8444444
sI10
F1.4814814
sI11
F0.22222222
sI12
F3.6666667
sI13
F0.5555556
sI14
F-3.7777777
sI15
F6.5555553
sI16
F-2.7777777
sI17
F3.6666667
sI18
F0.96190476
sI19
F-2.1617603
ssbsg16
g0
(g17
g2
Ntp1259
Rp1260
(dp1261
g21
I0
sbsba(ics475_types
Instance
p1262
(dp1263
g11
(ics475_types
FeatureVector
p1264
(dp1265
g14
(dp1266
I1
F235.0
sI2
F249.0
sI3
F9.0
sI5
F0.11111111
sI6
F1.6111113
sI7
F2.4259405
sI8
F2.666667
sI9
F1.5055449
sI10
F22.851852
sI11
F19.777779
sI12
F21.222221
sI13
F27.555555
sI14
F-9.222222
sI15
F-4.888889
sI16
F14.111111
sI17
F27.555555
sI18
F0.28660962
sI19
F2.2826295
ssbsg16
g0
(g17
g2
Ntp1267
Rp1268
(dp1269
g21
I1
sbsba(ics475_types
Instance
p1270
(dp1271
g11
(ics475_types
FeatureVector
p1272
(dp1273
g14
(dp1274
I1
F72.0
sI2
F191.0
sI3
F9.0
sI4
F0.11111111
sI6
F1.2777777
sI7
F0.5074075
sI8
F3.1111114
sI9
F4.6074066
sI10
F15.185185
sI11
F12.111111
sI12
F14.888889
sI13
F18.555555
sI14
F-9.222222
sI15
F-0.8888889
sI16
F10.111111
sI17
F18.555555
sI18
F0.3503698
sI19
F2.545329
ssbsg16
g0
(g17
g2
Ntp1275
Rp1276
(dp1277
g21
I1
sbsba(ics475_types
Instance
p1278
(dp1279
g11
(ics475_types
FeatureVector
p1280
(dp1281
g14
(dp1282
I1
F183.0
sI2
F157.0
sI3
F9.0
sI6
F0.6666667
sI7
F0.4216376
sI8
F2.1111114
sI9
F0.62063295
sI10
F19.666666
sI11
F16.444445
sI12
F18.666668
sI13
F23.88889
sI14
F-9.666667
sI15
F-3.0
sI16
F12.666667
sI17
F23.88889
sI18
F0.31418663
sI19
F2.4052022
ssbsg16
g0
(g17
g2
Ntp1283
Rp1284
(dp1285
g21
I1
sbsba(ics475_types
Instance
p1286
(dp1287
g11
(ics475_types
FeatureVector
p1288
(dp1289
g14
(dp1290
I1
F215.0
sI2
F190.0
sI3
F9.0
sI4
F0.11111111
sI6
F1.388889
sI7
F1.0417223
sI8
F2.6111114
sI9
F1.8429048
sI10
F19.88889
sI11
F16.0
sI12
F17.11111
sI13
F26.555555
sI14
F-11.666667
sI15
F-8.333333
sI16
F20.0
sI17
F26.555555
sI18
F0.40352198
sI19
F2.2044082
ssbsg16
g0
(g17
g2
Ntp1291
Rp1292
(dp1293
g21
I1
sbsba(ics475_types
Instance
p1294
(dp1295
g11
(ics475_types
FeatureVector
p1296
(dp1297
g14
(dp1298
I1
F221.0
sI2
F201.0
sI3
F9.0
sI4
F0.11111111
sI6
F1.4444443
sI7
F1.1287485
sI8
F2.4444447
sI9
F0.8344436
sI10
F19.148148
sI11
F14.666667
sI12
F17.666668
sI13
F25.11111
sI14
F-13.444445
sI15
F-4.4444447
sI16
F17.88889
sI17
F25.11111
sI18
F0.41676173
sI19
F2.389747
ssbsg16
g0
(g17
g2
Ntp1299
Rp1300
(dp1301
g21
I1
sbsba(ics475_types
Instance
p1302
(dp1303
g11
(ics475_types
FeatureVector
p1304
(dp1305
g14
(dp1306
I1
F139.0
sI2
F121.0
sI3
F9.0
sI6
F1.0555555
sI7
F0.41851884
sI8
F1.1666666
sI9
F0.83333385
sI10
F3.7037036
sI11
F0.7777778
sI12
F7.7777777
sI13
F2.5555556
sI14
F-8.777778
sI15
F12.222222
sI16
F-3.4444444
sI17
F7.7777777
sI18
F0.9074074
sI19
F-2.351514
ssbsg16
g0
(g17
g2
Ntp1307
Rp1308
(dp1309
g21
I0
sbsba(ics475_types
Instance
p1310
(dp1311
g11
(ics475_types
FeatureVector
p1312
(dp1313
g14
(dp1314
I1
F31.0
sI2
F68.0
sI3
F9.0
sI6
F27.944443
sI7
F203.35188
sI8
F18.277777
sI9
F338.64075
sI10
F47.185184
sI11
F38.555557
sI12
F60.11111
sI13
F42.88889
sI14
F-25.88889
sI15
F38.77778
sI16
F-12.888889
sI17
F60.11111
sI18
F0.41303283
sI19
F-2.3086562
ssbsg16
g0
(g17
g2
Ntp1315
Rp1316
(dp1317
g21
I0
sbsba(ics475_types
Instance
p1318
(dp1319
g11
(ics475_types
FeatureVector
p1320
(dp1321
g14
(dp1322
I1
F169.0
sI2
F199.0
sI3
F9.0
sI6
F1.277778
sI7
F0.4430534
sI8
F1.277778
sI9
F1.041722
sI10
F14.518518
sI11
F11.111111
sI12
F14.555555
sI13
F17.88889
sI14
F-10.222222
sI15
F0.11111111
sI16
F10.111111
sI17
F17.88889
sI18
F0.37847343
sI19
F2.6341755
ssbsg16
g0
(g17
g2
Ntp1323
Rp1324
(dp1325
g21
I1
sbsba(ics475_types
Instance
p1326
(dp1327
g11
(ics475_types
FeatureVector
p1328
(dp1329
g14
(dp1330
I1
F81.0
sI2
F145.0
sI3
F9.0
sI5
F0.11111111
sI6
F4.5555553
sI7
F4.5346413
sI8
F7.5
sI9
F6.1128287
sI10
F13.444445
sI11
F9.888889
sI12
F20.11111
sI13
F10.333334
sI14
F-10.666667
sI15
F20.0
sI16
F-9.333333
sI17
F20.11111
sI18
F0.53272784
sI19
F-2.0623195
ssbsg16
g0
(g17
g2
Ntp1331
Rp1332
(dp1333
g21
I0
sbsba(ics475_types
Instance
p1334
(dp1335
g11
(ics475_types
FeatureVector
p1336
(dp1337
g14
(dp1338
I1
F49.0
sI2
F240.0
sI3
F9.0
sI5
F0.11111111
sI6
F3.0555553
sI7
F1.638654
sI8
F2.0555556
sI9
F1.7437719
sI10
F20.444445
sI11
F15.222222
sI12
F18.777779
sI13
F27.333334
sI14
F-15.666667
sI15
F-5.0
sI16
F20.666666
sI17
F27.333334
sI18
F0.44580838
sI19
F2.4207911
ssbsg16
g0
(g17
g2
Ntp1339
Rp1340
(dp1341
g21
I1
sbsba(ics475_types
Instance
p1342
(dp1343
g11
(ics475_types
FeatureVector
p1344
(dp1345
g14
(dp1346
I1
F90.0
sI2
F237.0
sI3
F9.0
sI6
F2.4444444
sI7
F1.327766
sI8
F2.7222216
sI9
F2.678446
sI10
F22.222221
sI11
F17.555555
sI12
F19.666668
sI13
F29.444445
sI14
F-14.0
sI15
F-7.6666665
sI16
F21.666666
sI17
F29.444445
sI18
F0.41374576
sI19
F2.2802892
ssbsg16
g0
(g17
g2
Ntp1347
Rp1348
(dp1349
g21
I1
sbsba(ics475_types
Instance
p1350
(dp1351
g11
(ics475_types
FeatureVector
p1352
(dp1353
g14
(dp1354
I1
F19.0
sI2
F184.0
sI3
F9.0
sI6
F0.5555555
sI7
F0.34426498
sI8
F0.8333333
sI9
F0.62360954
sI10
F14.222222
sI11
F12.333333
sI12
F11.0
sI13
F19.333334
sI14
F-5.6666665
sI15
F-9.666667
sI16
F15.333333
sI17
F19.333334
sI18
F0.43115196
sI19
F1.9378915
ssbsg16
g0
(g17
g2
Ntp1355
Rp1356
(dp1357
g21
I1
sbsba(ics475_types
Instance
p1358
(dp1359
g11
(ics475_types
FeatureVector
p1360
(dp1361
g14
(dp1362
I1
F85.0
sI2
F124.0
sI3
F9.0
sI6
F1.2222227
sI7
F0.93491936
sI8
F2.3888893
sI9
F1.6788442
sI10
F14.666667
sI11
F7.5555553
sI12
F24.11111
sI13
F12.333333
sI14
F-21.333334
sI15
F28.333334
sI16
F-7.0
sI17
F24.11111
sI18
F0.6911226
sI19
F-2.3966818
ssbsg16
g0
(g17
g2
Ntp1363
Rp1364
(dp1365
g21
I0
sbsba(ics475_types
Instance
p1366
(dp1367
g11
(ics475_types
FeatureVector
p1368
(dp1369
g14
(dp1370
I1
F47.0
sI2
F175.0
sI3
F9.0
sI6
F1.3333327
sI7
F0.78881073
sI8
F1.166666
sI9
F0.88819396
sI10
F23.74074
sI11
F18.666668
sI12
F23.777779
sI13
F28.777779
sI14
F-15.222222
sI15
F0.11111111
sI16
F15.111111
sI17
F28.777779
sI18
F0.35148725
sI19
F2.630157
ssbsg16
g0
(g17
g2
Ntp1371
Rp1372
(dp1373
g21
I1
sbsba(ics475_types
Instance
p1374
(dp1375
g11
(ics475_types
FeatureVector
p1376
(dp1377
g14
(dp1378
I1
F20.0
sI2
F117.0
sI3
F9.0
ssbsg16
g0
(g17
g2
Ntp1379
Rp1380
(dp1381
g21
I0
sbsba(ics475_types
Instance
p1382
(dp1383
g11
(ics475_types
FeatureVector
p1384
(dp1385
g14
(dp1386
I1
F228.0
sI2
F91.0
sI3
F9.0
sI6
F0.72222227
sI7
F0.1962963
sI8
F1.1111112
sI9
F0.38518512
sI10
F2.6296296
sI11
F0.44444445
sI12
F6.2222223
sI13
F1.2222222
sI14
F-6.5555553
sI15
F10.777778
sI16
F-4.2222223
sI17
F6.2222223
sI18
F0.9398148
sI19
F-2.2257352
ssbsg16
g0
(g17
g2
Ntp1387
Rp1388
(dp1389
g21
I0
sbsba(ics475_types
Instance
p1390
(dp1391
g11
(ics475_types
FeatureVector
p1392
(dp1393
g14
(dp1394
I1
F48.0
sI2
F192.0
sI3
F9.0
sI6
F1.2222224
sI7
F1.0074071
sI8
F2.8888886
sI9
F4.8296304
sI10
F9.962963
sI11
F8.666667
sI12
F7.4444447
sI13
F13.777778
sI14
F-3.8888888
sI15
F-7.5555553
sI16
F11.444445
sI17
F13.777778
sI18
F0.47623578
sI19
F1.908457
ssbsg16
g0
(g17
g2
Ntp1395
Rp1396
(dp1397
g21
I1
sbsba(ics475_types
Instance
p1398
(dp1399
g11
(ics475_types
FeatureVector
p1400
(dp1401
g14
(dp1402
I1
F26.0
sI2
F82.0
sI3
F9.0
sI6
F1.5555553
sI7
F0.4740743
sI8
F2.111111
sI9
F4.3851857
sI10
F5.5925927
sI11
F1.7777778
sI12
F10.222222
sI13
F4.7777777
sI14
F-11.444445
sI15
F13.888889
sI16
F-2.4444444
sI17
F10.222222
sI18
F0.843607
sI19
F-2.4519827
ssbsg16
g0
(g17
g2
Ntp1403
Rp1404
(dp1405
g21
I0
sbsba(ics475_types
Instance
p1406
(dp1407
g11
(ics475_types
FeatureVector
p1408
(dp1409
g14
(dp1410
I1
F150.0
sI2
F144.0
sI3
F9.0
sI6
F0.55555564
sI7
F0.074074075
sI8
F0.6111111
sI9
F0.15185197
sI10
F2.5185184
sI11
F0.11111111
sI12
F6.5555553
sI13
F0.8888889
sI14
F-7.2222223
sI15
F12.111111
sI16
F-4.888889
sI17
F6.5555553
sI18
F0.9861111
sI19
F-2.2121625
ssbsg16
g0
(g17
g2
Ntp1411
Rp1412
(dp1413
g21
I0
sbsba(ics475_types
Instance
p1414
(dp1415
g11
(ics475_types
FeatureVector
p1416
(dp1417
g14
(dp1418
I1
F226.0
sI2
F72.0
sI3
F9.0
sI6
F1.2777778
sI7
F0.81851846
sI8
F1.3888888
sI9
F1.4407405
sI10
F4.5185184
sI11
F1.5555556
sI12
F9.444445
sI13
F2.5555556
sI14
F-8.888889
sI15
F14.777778
sI16
F-5.888889
sI17
F9.444445
sI18
F0.84168977
sI19
F-2.2167206
ssbsg16
g0
(g17
g2
Ntp1419
Rp1420
(dp1421
g21
I0
sbsba(ics475_types
Instance
p1422
(dp1423
g11
(ics475_types
FeatureVector
p1424
(dp1425
g14
(dp1426
I1
F236.0
sI2
F240.0
sI3
F9.0
sI6
F2.5555553
sI7
F1.6688874
sI8
F3.3888886
sI9
F2.4532666
sI10
F22.481482
sI11
F19.555555
sI12
F19.777779
sI13
F28.11111
sI14
F-8.777778
sI15
F-8.111111
sI16
F16.88889
sI17
F28.11111
sI18
F0.329382
sI19
F2.1418114
ssbsg16
g0
(g17
g2
Ntp1427
Rp1428
(dp1429
g21
I1
sbsba(ics475_types
Instance
p1430
(dp1431
g11
(ics475_types
FeatureVector
p1432
(dp1433
g14
(dp1434
I1
F231.0
sI2
F124.0
sI3
F9.0
sI6
F3.4444447
sI7
F14.962965
sI8
F1.8333334
sI9
F6.4333353
sI10
F3.0
sI11
F1.4444444
sI12
F5.888889
sI13
F1.6666666
sI14
F-4.6666665
sI15
F8.666667
sI16
F-4.0
sI17
F5.888889
sI18
F0.895369
sI19
F-2.118937
ssbsg16
g0
(g17
g2
Ntp1435
Rp1436
(dp1437
g21
I0
sbsba(ics475_types
Instance
p1438
(dp1439
g11
(ics475_types
FeatureVector
p1440
(dp1441
g14
(dp1442
I1
F234.0
sI2
F110.0
sI3
F9.0
sI6
F0.8333333
sI7
F0.21111107
sI8
F0.5
sI9
F0.56666666
sI10
F1.8148148
sI11
F0.11111111
sI12
F4.888889
sI13
F0.44444445
sI14
F-5.111111
sI15
F9.222222
sI16
F-4.111111
sI17
F4.888889
sI18
F0.984127
sI19
F-2.1525068
ssbsg16
g0
(g17
g2
Ntp1443
Rp1444
(dp1445
g21
I0
sbsba(ics475_types
Instance
p1446
(dp1447
g11
(ics475_types
FeatureVector
p1448
(dp1449
g14
(dp1450
I1
F62.0
sI2
F223.0
sI3
F9.0
sI6
F2.5
sI7
F5.722223
sI8
F1.6666666
sI9
F2.4444442
sI10
F6.6666665
sI11
F4.888889
sI12
F4.666667
sI13
F10.444445
sI14
F-5.3333335
sI15
F-6.0
sI16
F11.333333
sI17
F10.444445
sI18
F0.5931498
sI19
F2.0465877
ssbsg16
g0
(g17
g2
Ntp1451
Rp1452
(dp1453
g21
I1
sbsba(ics475_types
Instance
p1454
(dp1455
g11
(ics475_types
FeatureVector
p1456
(dp1457
g14
(dp1458
I1
F234.0
sI2
F122.0
sI3
F9.0
sI6
F1.7222222
sI7
F7.8407397
sI8
F1.3888888
sI9
F7.574073
sI10
F2.2592592
sI11
F0.5555556
sI12
F5.2222223
sI13
F1.0
sI14
F-5.111111
sI15
F8.888889
sI16
F-3.7777777
sI17
F5.2222223
sI18
F0.96031743
sI19
F-2.1732037
ssbsg16
g0
(g17
g2
Ntp1459
Rp1460
(dp1461
g21
I0
sbsba(ics475_types
Instance
p1462
(dp1463
g11
(ics475_types
FeatureVector
p1464
(dp1465
g14
(dp1466
I1
F21.0
sI2
F216.0
sI3
F9.0
sI4
F0.11111111
sI6
F3.833333
sI7
F0.69999796
sI8
F0.8333333
sI9
F0.47777775
sI10
F16.555555
sI11
F13.111111
sI12
F14.0
sI13
F22.555555
sI14
F-10.333333
sI15
F-7.6666665
sI16
F18.0
sI17
F22.555555
sI18
F0.426777
sI19
F2.2093086
ssbsg16
g0
(g17
g2
Ntp1467
Rp1468
(dp1469
g21
I1
sbsba(ics475_types
Instance
p1470
(dp1471
g11
(ics475_types
FeatureVector
p1472
(dp1473
g14
(dp1474
I1
F216.0
sI2
F169.0
sI3
F9.0
sI6
F0.8333333
sI7
F0.3888888
sI8
F1.9444443
sI9
F0.41851807
sI10
F16.592592
sI11
F12.777778
sI12
F15.666667
sI13
F21.333334
sI14
F-11.444445
sI15
F-2.7777777
sI16
F14.222222
sI17
F21.333334
sI18
F0.40075645
sI19
F2.44578
ssbsg16
g0
(g17
g2
Ntp1475
Rp1476
(dp1477
g21
I1
sbsba(ics475_types
Instance
p1478
(dp1479
g11
(ics475_types
FeatureVector
p1480
(dp1481
g14
(dp1482
I1
F220.0
sI2
F120.0
sI3
F9.0
sI6
F0.38888893
sI7
F0.062962964
sI8
F0.38888887
sI9
F0.062962994
sI10
F1.0
sI12
F3.0
sI14
F-3.0
sI15
F6.0
sI16
F-3.0
sI17
F3.0
sI18
F1.0
sI19
F-2.0943952
ssbsg16
g0
(g17
g2
Ntp1483
Rp1484
(dp1485
g21
I0
sbsba(ics475_types
Instance
p1486
(dp1487
g11
(ics475_types
FeatureVector
p1488
(dp1489
g14
(dp1490
I1
F117.0
sI2
F137.0
sI3
F9.0
sI6
F0.27777776
sI7
F0.3896817
sI8
F0.38888887
sI9
F0.25092417
sI10
F0.7777778
sI12
F2.2222223
sI13
F0.11111111
sI14
F-2.3333333
sI15
F4.3333335
sI16
F-2.0
sI17
F2.2222223
sI18
F1.0
sI19
F-2.123254
ssbsg16
g0
(g17
g2
Ntp1491
Rp1492
(dp1493
g21
I0
sbsba(ics475_types
Instance
p1494
(dp1495
g11
(ics475_types
FeatureVector
p1496
(dp1497
g14
(dp1498
I1
F45.0
sI2
F108.0
sI3
F9.0
sI5
F0.11111111
sI6
F25.5
sI7
F12.795401
sI8
F27.277779
sI9
F15.930981
sI10
F49.814816
sI11
F41.77778
sI12
F61.11111
sI13
F46.555557
sI14
F-24.11111
sI15
F33.88889
sI16
F-9.777778
sI17
F61.11111
sI18
F0.35897508
sI19
F-2.3604913
ssbsg16
g0
(g17
g2
Ntp1499
Rp1500
(dp1501
g21
I0
sbsba(ics475_types
Instance
p1502
(dp1503
g11
(ics475_types
FeatureVector
p1504
(dp1505
g14
(dp1506
I1
F226.0
sI2
F84.0
sI3
F9.0
sI6
F3.055556
sI7
F3.9740732
sI8
F1.7777778
sI9
F2.6962967
sI10
F4.5555553
sI11
F1.5555556
sI12
F9.0
sI13
F3.1111112
sI14
F-9.0
sI15
F13.333333
sI16
F-4.3333335
sI17
F9.0
sI18
F0.84772927
sI19
F-2.3057292
ssbsg16
g0
(g17
g2
Ntp1507
Rp1508
(dp1509
g21
I0
sbsba(ics475_types
Instance
p1510
(dp1511
g11
(ics475_types
FeatureVector
p1512
(dp1513
g14
(dp1514
I1
F136.0
sI2
F216.0
sI3
F9.0
sI4
F0.11111111
sI6
F2.7777774
sI7
F1.3277673
sI8
F2.7222226
sI9
F2.984528
sI10
F15.074074
sI11
F11.444445
sI12
F13.222222
sI13
F20.555555
sI14
F-10.888889
sI15
F-5.5555553
sI16
F16.444445
sI17
F20.555555
sI18
F0.44167453
sI19
F2.2845712
ssbsg16
g0
(g17
g2
Ntp1515
Rp1516
(dp1517
g21
I1
sbsba(ics475_types
Instance
p1518
(dp1519
g11
(ics475_types
FeatureVector
p1520
(dp1521
g14
(dp1522
I1
F23.0
sI2
F113.0
sI3
F9.0
sI6
F0.611111
sI7
F0.28518534
sI8
F0.6666666
sI9
F0.48888886
sI10
F1.4074074
sI11
F0.11111111
sI12
F3.4444444
sI13
F0.6666667
sI14
F-3.8888888
sI15
F6.111111
sI16
F-2.2222223
sI17
F3.4444444
sI18
F0.9814815
sI19
F-2.2375617
ssbsg16
g0
(g17
g2
Ntp1523
Rp1524
(dp1525
g21
I0
sbsba(ics475_types
Instance
p1526
(dp1527
g11
(ics475_types
FeatureVector
p1528
(dp1529
g14
(dp1530
I1
F68.0
sI2
F103.0
sI3
F9.0
sI6
F0.66666675
sI7
F0.57777774
sI8
F1.111111
sI9
F0.96296334
sI10
F2.148148
sI11
F0.11111111
sI12
F5.6666665
sI13
F0.6666667
sI14
F-6.111111
sI15
F10.555555
sI16
F-4.4444447
sI17
F5.6666665
sI18
F0.9876543
sI19
F-2.1854658
ssbsg16
g0
(g17
g2
Ntp1531
Rp1532
(dp1533
g21
I0
sbsba(ics475_types
Instance
p1534
(dp1535
g11
(ics475_types
FeatureVector
p1536
(dp1537
g14
(dp1538
I1
F80.0
sI2
F87.0
sI3
F9.0
sI5
F0.11111111
sI6
F24.388891
sI7
F572.9964
sI8
F44.722225
sI9
F1386.3292
sI10
F67.44444
sI11
F58.77778
sI12
F79.0
sI13
F64.55556
sI14
F-26.0
sI15
F34.666668
sI16
F-8.666667
sI17
F79.0
sI18
F0.30628127
sI19
F-2.4221272
ssbsg16
g0
(g17
g2
Ntp1539
Rp1540
(dp1541
g21
I0
sbsba(ics475_types
Instance
p1542
(dp1543
g11
(ics475_types
FeatureVector
p1544
(dp1545
g14
(dp1546
I1
F201.0
sI2
F86.0
sI3
F9.0
sI5
F0.11111111
sI6
F9.5
sI7
F222.70003
sI8
F8.777779
sI9
F105.54074
sI10
F13.407408
sI11
F8.777778
sI12
F19.88889
sI13
F11.555555
sI14
F-13.888889
sI15
F19.444445
sI16
F-5.5555553
sI17
F19.88889
sI18
F0.6309454
sI19
F-2.363577
ssbsg16
g0
(g17
g2
Ntp1547
Rp1548
(dp1549
g21
I0
sbsba(ics475_types
Instance
p1550
(dp1551
g11
(ics475_types
FeatureVector
p1552
(dp1553
g14
(dp1554
I1
F152.0
sI2
F220.0
sI3
F9.0
sI6
F0.94444466
sI7
F0.6851854
sI8
F1.4444448
sI9
F2.1629636
sI10
F14.62963
sI11
F11.555555
sI12
F13.111111
sI13
F19.222221
sI14
F-9.222222
sI15
F-4.5555553
sI16
F13.777778
sI17
F19.222221
sI18
F0.41670507
sI19
F2.3068845
ssbsg16
g0
(g17
g2
Ntp1555
Rp1556
(dp1557
g21
I1
sbsba(ics475_types
Instance
p1558
(dp1559
g11
(ics475_types
FeatureVector
p1560
(dp1561
g14
(dp1562
I1
F232.0
sI2
F175.0
sI3
F9.0
sI6
F1.1666669
sI7
F0.62360954
sI8
F2.8333333
sI9
F2.1679492
sI10
F15.37037
sI11
F12.444445
sI12
F13.555555
sI13
F20.11111
sI14
F-8.777778
sI15
F-5.4444447
sI16
F14.222222
sI17
F20.11111
sI18
F0.38741234
sI19
F2.2421958
ssbsg16
g0
(g17
g2
Ntp1563
Rp1564
(dp1565
g21
I1
sbsba(ics475_types
Instance
p1566
(dp1567
g11
(ics475_types
FeatureVector
p1568
(dp1569
g14
(dp1570
I1
F6.0
sI2
F120.0
sI3
F9.0
sI6
F0.33333328
sI7
F0.08888888
sI8
F0.5
sI9
F0.077777766
sI10
F1.1481482
sI11
F0.22222222
sI12
F3.0
sI13
F0.22222222
sI14
F-2.7777777
sI15
F5.5555553
sI16
F-2.7777777
sI17
F3.0
sI18
F1.0
sI19
F-2.0572872
ssbsg16
g0
(g17
g2
Ntp1571
Rp1572
(dp1573
g21
I0
sbsba(ics475_types
Instance
p1574
(dp1575
g11
(ics475_types
FeatureVector
p1576
(dp1577
g14
(dp1578
I1
F56.0
sI2
F107.0
sI3
F9.0
sI5
F0.11111111
sI6
F4.555556
sI7
F13.407408
sI8
F6.7777786
sI9
F23.185177
sI10
F7.962963
sI11
F4.5555553
sI12
F13.0
sI13
F6.3333335
sI14
F-10.222222
sI15
F15.111111
sI16
F-4.888889
sI17
F13.0
sI18
F0.7305922
sI19
F-2.2917624
ssbsg16
g0
(g17
g2
Ntp1579
Rp1580
(dp1581
g21
I0
sbsba(ics475_types
Instance
p1582
(dp1583
g11
(ics475_types
FeatureVector
p1584
(dp1585
g14
(dp1586
I1
F157.0
sI2
F184.0
sI3
F9.0
sI6
F1.2777777
sI7
F0.77407444
sI8
F1.3333334
sI9
F0.8444448
sI10
F19.444445
sI11
F15.222222
sI12
F18.222221
sI13
F24.88889
sI14
F-12.666667
sI15
F-3.6666667
sI16
F16.333334
sI17
F24.88889
sI18
F0.3882103
sI19
F2.4194453
ssbsg16
g0
(g17
g2
Ntp1587
Rp1588
(dp1589
g21
I1
sbsba(ics475_types
Instance
p1590
(dp1591
g11
(ics475_types
FeatureVector
p1592
(dp1593
g14
(dp1594
I1
F11.0
sI2
F118.0
sI3
F9.0
sI6
F0.27777776
sI7
F0.15185185
sI8
F0.38888893
sI9
F0.06296293
sI10
F0.7037037
sI12
F2.0
sI13
F0.11111111
sI14
F-2.1111112
sI15
F3.8888888
sI16
F-1.7777778
sI17
F2.0
sI18
F1.0
sI19
F-2.132635
ssbsg16
g0
(g17
g2
Ntp1595
Rp1596
(dp1597
g21
I0
sbsba(ics475_types
Instance
p1598
(dp1599
g11
(ics475_types
FeatureVector
p1600
(dp1601
g14
(dp1602
I1
F88.0
sI2
F211.0
sI3
F9.0
sI4
F0.22222222
sI6
F1.388889
sI7
F0.87981474
sI8
F2.4444444
sI9
F1.4555134
sI10
F10.814815
sI11
F8.888889
sI12
F7.6666665
sI13
F15.888889
sI14
F-5.7777777
sI15
F-9.444445
sI16
F15.222222
sI17
F15.888889
sI18
F0.52432793
sI19
F1.9408315
ssbsg16
g0
(g17
g2
Ntp1603
Rp1604
(dp1605
g21
I1
sbsba(ics475_types
Instance
p1606
(dp1607
g11
(ics475_types
FeatureVector
p1608
(dp1609
g14
(dp1610
I1
F34.0
sI2
F169.0
sI3
F9.0
sI6
F0.8333333
sI7
F0.5055251
sI8
F1.6111112
sI9
F0.8798151
sI10
F12.814815
sI11
F10.666667
sI12
F9.777778
sI13
F18.0
sI14
F-6.4444447
sI15
F-9.111111
sI16
F15.555555
sI17
F18.0
sI18
F0.46356925
sI19
F1.9931829
ssbsg16
g0
(g17
g2
Ntp1611
Rp1612
(dp1613
g21
I1
sbsba(ics475_types
Instance
p1614
(dp1615
g11
(ics475_types
FeatureVector
p1616
(dp1617
g14
(dp1618
I1
F78.0
sI2
F99.0
sI3
F9.0
sI6
F1.611111
sI7
F8.018518
sI8
F3.0555553
sI9
F14.7740755
sI10
F4.148148
sI11
F1.1111112
sI12
F9.0
sI13
F2.3333335
sI14
F-9.111111
sI15
F14.555555
sI16
F-5.4444447
sI17
F9.0
sI18
F0.91089994
sI19
F-2.2556732
ssbsg16
g0
(g17
g2
Ntp1619
Rp1620
(dp1621
g21
I0
sbsba(ics475_types
Instance
p1622
(dp1623
g11
(ics475_types
FeatureVector
p1624
(dp1625
g14
(dp1626
I1
F157.0
sI2
F221.0
sI3
F9.0
sI6
F1.0555555
sI7
F0.6469299
sI8
F1.2222222
sI9
F0.6206328
sI10
F12.111111
sI11
F10.222222
sI12
F8.111112
sI13
F18.0
sI14
F-5.6666665
sI15
F-12.0
sI16
F17.666666
sI17
F18.0
sI18
F0.5491797
sI19
F1.8771459
ssbsg16
g0
(g17
g2
Ntp1627
Rp1628
(dp1629
g21
I1
sbsba(ics475_types
Instance
p1630
(dp1631
g11
(ics475_types
FeatureVector
p1632
(dp1633
g14
(dp1634
I1
F58.0
sI2
F109.0
sI3
F9.0
sI6
F0.8888889
sI7
F0.25185165
sI8
F2.8333333
sI9
F1.677777
sI10
F4.296296
sI11
F1.4444444
sI12
F8.444445
sI13
F3.0
sI14
F-8.555555
sI15
F12.444445
sI16
F-3.8888888
sI17
F8.444445
sI18
F0.8644824
sI19
F-2.2837873
ssbsg16
g0
(g17
g2
Ntp1635
Rp1636
(dp1637
g21
I0
sbsba(ics475_types
Instance
p1638
(dp1639
g11
(ics475_types
FeatureVector
p1640
(dp1641
g14
(dp1642
I1
F186.0
sI2
F173.0
sI3
F9.0
sI6
F1.4444445
sI7
F0.82963055
sI8
F2.1111114
sI9
F1.9851853
sI10
F17.148148
sI11
F13.555555
sI12
F15.555555
sI13
F22.333334
sI14
F-10.777778
sI15
F-4.7777777
sI16
F15.555555
sI17
F22.333334
sI18
F0.39643326
sI19
F2.332739
ssbsg16
g0
(g17
g2
Ntp1643
Rp1644
(dp1645
g21
I1
sbsba(ics475_types
Instance
p1646
(dp1647
g11
(ics475_types
FeatureVector
p1648
(dp1649
g14
(dp1650
I1
F74.0
sI2
F129.0
sI3
F9.0
sI6
F0.22222222
sI7
F0.029629637
sI8
F0.11111111
sI9
F0.029629635
sI10
F0.5185185
sI12
F1.5555556
sI14
F-1.5555556
sI15
F3.1111112
sI16
F-1.5555556
sI17
F1.5555556
sI18
F1.0
sI19
F-2.0943952
ssbsg16
g0
(g17
g2
Ntp1651
Rp1652
(dp1653
g21
I0
sbsba(ics475_types
Instance
p1654
(dp1655
g11
(ics475_types
FeatureVector
p1656
(dp1657
g14
(dp1658
I1
F14.0
sI2
F95.0
sI3
F9.0
sI6
F1.3333334
sI7
F0.699206
sI8
F1.1111112
sI9
F0.62063295
sI10
F2.2592592
sI11
F0.6666667
sI12
F3.8888888
sI13
F2.2222223
sI14
F-4.7777777
sI15
F4.888889
sI16
F-0.11111111
sI17
F3.8888888
sI18
F0.8740741
sI19
F-2.5527236
ssbsg16
g0
(g17
g2
Ntp1659
Rp1660
(dp1661
g21
I0
sbsba(ics475_types
Instance
p1662
(dp1663
g11
(ics475_types
FeatureVector
p1664
(dp1665
g14
(dp1666
I1
F163.0
sI2
F210.0
sI3
F9.0
sI6
F1.5555555
sI7
F0.5443307
sI8
F1.4999999
sI9
F0.9603243
sI10
F11.851851
sI11
F9.333334
sI12
F8.888889
sI13
F17.333334
sI14
F-7.5555553
sI15
F-8.888889
sI16
F16.444445
sI17
F17.333334
sI18
F0.48873982
sI19
F2.0437257
ssbsg16
g0
(g17
g2
Ntp1667
Rp1668
(dp1669
g21
I1
sbsba(ics475_types
Instance
p1670
(dp1671
g11
(ics475_types
FeatureVector
p1672
(dp1673
g14
(dp1674
I1
F121.0
sI2
F237.0
sI3
F9.0
sI6
F1.3333331
sI7
F1.155555
sI8
F1.5555553
sI9
F0.785185
sI10
F7.4814816
sI11
F6.111111
sI12
F5.111111
sI13
F11.222222
sI14
F-4.111111
sI15
F-7.111111
sI16
F11.222222
sI17
F11.222222
sI18
F0.55723476
sI19
F1.9384677
ssbsg16
g0
(g17
g2
Ntp1675
Rp1676
(dp1677
g21
I1
sbsba(ics475_types
Instance
p1678
(dp1679
g11
(ics475_types
FeatureVector
p1680
(dp1681
g14
(dp1682
I1
F140.0
sI2
F125.0
sI3
F9.0
sI6
F0.66666657
sI7
F0.22222227
sI8
F2.6666667
sI9
F3.7777781
sI10
F3.925926
sI11
F1.5555556
sI12
F7.7777777
sI13
F2.4444444
sI14
F-7.111111
sI15
F11.555555
sI16
F-4.4444447
sI17
F7.7777777
sI18
F0.85319865
sI19
F-2.2342408
ssbsg16
g0
(g17
g2
Ntp1683
Rp1684
(dp1685
g21
I0
sbsba(ics475_types
Instance
p1686
(dp1687
g11
(ics475_types
FeatureVector
p1688
(dp1689
g14
(dp1690
I1
F63.0
sI2
F122.0
sI3
F9.0
sI10
F0.33333334
sI12
F1.0
sI14
F-1.0
sI15
F2.0
sI16
F-1.0
sI17
F1.0
sI18
F1.0
sI19
F-2.0943952
ssbsg16
g0
(g17
g2
Ntp1691
Rp1692
(dp1693
g21
I0
sbsba(ics475_types
Instance
p1694
(dp1695
g11
(ics475_types
FeatureVector
p1696
(dp1697
g14
(dp1698
I1
F76.0
sI2
F249.0
sI3
F9.0
sI4
F0.11111111
sI6
F2.0555558
sI7
F2.0629644
sI8
F2.3333335
sI9
F5.5111136
sI10
F13.37037
sI11
F12.222222
sI12
F13.111111
sI13
F14.777778
sI14
F-3.4444444
sI15
F-0.7777778
sI16
F4.2222223
sI17
F15.0
sI18
F0.20324889
sI19
F2.5634372
ssbsg16
g0
(g17
g2
Ntp1699
Rp1700
(dp1701
g21
I1
sbsba(ics475_types
Instance
p1702
(dp1703
g11
(ics475_types
FeatureVector
p1704
(dp1705
g14
(dp1706
I1
F212.0
sI2
F235.0
sI3
F9.0
sI6
F1.4444447
sI7
F1.4555132
sI8
F1.944445
sI9
F2.2648687
sI10
F25.88889
sI11
F21.11111
sI12
F24.0
sI13
F32.555557
sI14
F-14.333333
sI15
F-5.6666665
sI16
F20.0
sI17
F32.555557
sI18
F0.35188085
sI19
F2.3560238
ssbsg16
g0
(g17
g2
Ntp1707
Rp1708
(dp1709
g21
I1
sbsba(ics475_types
Instance
p1710
(dp1711
g11
(ics475_types
FeatureVector
p1712
(dp1713
g14
(dp1714
I1
F231.0
sI2
F124.0
sI3
F9.0
sI6
F3.4444447
sI7
F14.962965
sI8
F1.8333334
sI9
F6.4333353
sI10
F3.0
sI11
F1.4444444
sI12
F5.888889
sI13
F1.6666666
sI14
F-4.6666665
sI15
F8.666667
sI16
F-4.0
sI17
F5.888889
sI18
F0.895369
sI19
F-2.118937
ssbsg16
g0
(g17
g2
Ntp1715
Rp1716
(dp1717
g21
I0
sbsba(ics475_types
Instance
p1718
(dp1719
g11
(ics475_types
FeatureVector
p1720
(dp1721
g14
(dp1722
I1
F142.0
sI2
F208.0
sI3
F9.0
sI6
F1.9444442
sI7
F2.6407385
sI8
F2.4999995
sI9
F1.3222219
sI10
F18.555555
sI11
F15.444445
sI12
F14.888889
sI13
F25.333334
sI14
F-9.333333
sI15
F-11.0
sI16
F20.333334
sI17
F25.333334
sI18
F0.4408947
sI19
F2.1022124
ssbsg16
g0
(g17
g2
Ntp1723
Rp1724
(dp1725
g21
I1
sbsba(ics475_types
Instance
p1726
(dp1727
g11
(ics475_types
FeatureVector
p1728
(dp1729
g14
(dp1730
I1
F245.0
sI2
F249.0
sI3
F9.0
sI6
F2.0
sI7
F1.2888895
sI8
F1.4999999
sI9
F0.61111146
sI10
F14.740741
sI11
F10.777778
sI12
F15.333333
sI13
F18.11111
sI14
F-11.888889
sI15
F1.7777778
sI16
F10.111111
sI17
F18.11111
sI18
F0.40621215
sI19
F2.7435553
ssbsg16
g0
(g17
g2
Ntp1731
Rp1732
(dp1733
g21
I1
sbsba(ics475_types
Instance
p1734
(dp1735
g11
(ics475_types
FeatureVector
p1736
(dp1737
g14
(dp1738
I1
F96.0
sI2
F130.0
sI3
F9.0
sI6
F0.5555555
sI7
F0.45542008
sI8
F1.2222222
sI9
F0.65546143
sI10
F2.4074075
sI11
F0.44444445
sI12
F5.0
sI13
F1.7777778
sI14
F-5.888889
sI15
F7.7777777
sI16
F-1.8888888
sI17
F5.0
sI18
F0.93121696
sI19
F-2.3662155
ssbsg16
g0
(g17
g2
Ntp1739
Rp1740
(dp1741
g21
I0
sbsba(ics475_types
Instance
p1742
(dp1743
g11
(ics475_types
FeatureVector
p1744
(dp1745
g14
(dp1746
I1
F89.0
sI2
F221.0
sI3
F9.0
sI6
F1.3888888
sI7
F1.4851848
sI8
F1.4444445
sI9
F1.5851862
sI10
F14.074074
sI11
F10.666667
sI12
F12.444445
sI13
F19.11111
sI14
F-10.222222
sI15
F-4.888889
sI16
F15.111111
sI17
F19.11111
sI18
F0.44601154
sI19
F2.3172119
ssbsg16
g0
(g17
g2
Ntp1747
Rp1748
(dp1749
g21
I1
sbsba(ics475_types
Instance
p1750
(dp1751
g11
(ics475_types
FeatureVector
p1752
(dp1753
g14
(dp1754
I1
F63.0
sI2
F201.0
sI3
F9.0
sI6
F1.4444445
sI7
F0.9185186
sI8
F0.94444424
sI9
F0.5518518
sI10
F7.7777777
sI11
F6.2222223
sI12
F5.5555553
sI13
F11.555555
sI14
F-4.6666665
sI15
F-6.6666665
sI16
F11.333333
sI17
F11.555555
sI18
F0.54320127
sI19
F1.9829868
ssbsg16
g0
(g17
g2
Ntp1755
Rp1756
(dp1757
g21
I1
sbsba(ics475_types
Instance
p1758
(dp1759
g11
(ics475_types
FeatureVector
p1760
(dp1761
g14
(dp1762
I1
F96.0
sI2
F96.0
sI3
F9.0
sI6
F1.0
sI7
F1.5111109
sI8
F0.8333333
sI9
F0.29999986
sI10
F6.296296
sI11
F2.6666667
sI12
F11.888889
sI13
F4.3333335
sI14
F-10.888889
sI15
F16.777779
sI16
F-5.888889
sI17
F11.888889
sI18
F0.7788625
sI19
F-2.2757916
ssbsg16
g0
(g17
g2
Ntp1763
Rp1764
(dp1765
g21
I0
sbsba(ics475_types
Instance
p1766
(dp1767
g11
(ics475_types
FeatureVector
p1768
(dp1769
g14
(dp1770
I1
F47.0
sI2
F209.0
sI3
F9.0
sI6
F1.7222222
sI7
F1.2895589
sI8
F1.388889
sI9
F0.92895794
sI10
F11.62963
sI11
F9.555555
sI12
F9.222222
sI13
F16.11111
sI14
F-6.2222223
sI15
F-7.2222223
sI16
F13.444445
sI17
F16.11111
sI18
F0.46432462
sI19
F2.0609548
ssbsg16
g0
(g17
g2
Ntp1771
Rp1772
(dp1773
g21
I1
sbsba(ics475_types
Instance
p1774
(dp1775
g11
(ics475_types
FeatureVector
p1776
(dp1777
g14
(dp1778
I1
F94.0
sI2
F127.0
sI3
F9.0
sI6
F0.77777785
sI7
F0.5018486
sI8
F0.77777773
sI9
F0.6885305
sI10
F2.7407408
sI11
F0.5555556
sI12
F5.5555553
sI13
F2.1111112
sI14
F-6.5555553
sI15
F8.444445
sI16
F-1.8888888
sI17
F5.5555553
sI18
F0.91534394
sI19
F-2.4089394
ssbsg16
g0
(g17
g2
Ntp1779
Rp1780
(dp1781
g21
I0
sbsba(ics475_types
Instance
p1782
(dp1783
g11
(ics475_types
FeatureVector
p1784
(dp1785
g14
(dp1786
I1
F58.0
sI2
F128.0
sI3
F9.0
sI4
F0.11111111
sI6
F2.9444447
sI7
F1.75647
sI8
F2.4444444
sI9
F1.6821501
sI10
F16.481482
sI11
F10.111111
sI12
F25.88889
sI13
F13.444445
sI14
F-19.11111
sI15
F28.222221
sI16
F-9.111111
sI17
F25.88889
sI18
F0.6133847
sI19
F-2.3163002
ssbsg16
g0
(g17
g2
Ntp1787
Rp1788
(dp1789
g21
I0
sbsba(ics475_types
Instance
p1790
(dp1791
g11
(ics475_types
FeatureVector
p1792
(dp1793
g14
(dp1794
I1
F152.0
sI2
F247.0
sI3
F9.0
sI5
F0.22222222
sI6
F1.6111107
sI7
F1.2185191
sI8
F7.1111107
sI9
F4.340751
sI10
F21.925926
sI11
F21.11111
sI12
F25.11111
sI13
F19.555555
sI14
F-2.4444444
sI15
F9.555555
sI16
F-7.111111
sI17
F25.11111
sI18
F0.21578804
sI19
F-1.7554835
ssbsg16
g0
(g17
g2
Ntp1795
Rp1796
(dp1797
g21
I1
sbsba(ics475_types
Instance
p1798
(dp1799
g11
(ics475_types
FeatureVector
p1800
(dp1801
g14
(dp1802
I1
F33.0
sI2
F94.0
sI3
F9.0
sI6
F1.3333336
sI7
F0.21081811
sI8
F2.5555556
sI9
F1.6420401
sI10
F5.888889
sI11
F3.2222223
sI12
F7.7777777
sI13
F6.6666665
sI14
F-8.0
sI15
F5.6666665
sI16
F2.3333333
sI17
F7.7777777
sI18
F0.60978836
sI19
F-2.869948
ssbsg16
g0
(g17
g2
Ntp1803
Rp1804
(dp1805
g21
I0
sbsba(ics475_types
Instance
p1806
(dp1807
g11
(ics475_types
FeatureVector
p1808
(dp1809
g14
(dp1810
I1
F234.0
sI2
F177.0
sI3
F9.0
sI6
F1.111111
sI7
F0.4740733
sI8
F0.88888884
sI9
F0.5629634
sI10
F16.25926
sI11
F12.555555
sI12
F15.444445
sI13
F20.777779
sI14
F-11.111111
sI15
F-2.4444444
sI16
F13.555555
sI17
F20.777779
sI18
F0.3963988
sI19
F2.4621184
ssbsg16
g0
(g17
g2
Ntp1811
Rp1812
(dp1813
g21
I1
sbsba(ics475_types
Instance
p1814
(dp1815
g11
(ics475_types
FeatureVector
p1816
(dp1817
g14
(dp1818
I1
F224.0
sI2
F73.0
sI3
F9.0
sI6
F1.5
sI7
F1.2777776
sI8
F2.3333333
sI9
F1.0666656
sI10
F5.814815
sI11
F2.3333335
sI12
F10.666667
sI13
F4.4444447
sI14
F-10.444445
sI15
F14.555555
sI16
F-4.111111
sI17
F10.666667
sI18
F0.7899301
sI19
F-2.3556414
ssbsg16
g0
(g17
g2
Ntp1819
Rp1820
(dp1821
g21
I0
sbsba(ics475_types
Instance
p1822
(dp1823
g11
(ics475_types
FeatureVector
p1824
(dp1825
g14
(dp1826
I1
F71.0
sI2
F187.0
sI3
F9.0
sI6
F2.0
sI7
F1.6329935
sI8
F3.555555
sI9
F1.8698399
sI10
F18.666666
sI11
F14.666667
sI12
F16.222223
sI13
F25.11111
sI14
F-12.0
sI15
F-7.3333335
sI16
F19.333334
sI17
F25.11111
sI18
F0.43121487
sI19
F2.2543035
ssbsg16
g0
(g17
g2
Ntp1827
Rp1828
(dp1829
g21
I1
sbsba(ics475_types
Instance
p1830
(dp1831
g11
(ics475_types
FeatureVector
p1832
(dp1833
g14
(dp1834
I1
F68.0
sI2
F122.0
sI3
F9.0
sI6
F2.777778
sI7
F2.0294137
sI8
F1.5555559
sI9
F1.9962927
sI10
F20.148148
sI11
F14.222222
sI12
F31.11111
sI13
F15.111111
sI14
F-17.777779
sI15
F32.88889
sI16
F-15.111111
sI17
F31.11111
sI18
F0.54582953
sI19
F-2.0601704
ssbsg16
g0
(g17
g2
Ntp1835
Rp1836
(dp1837
g21
I0
sbsba(ics475_types
Instance
p1838
(dp1839
g11
(ics475_types
FeatureVector
p1840
(dp1841
g14
(dp1842
I1
F68.0
sI2
F172.0
sI3
F9.0
sI6
F1.0555553
sI7
F1.0628396
sI8
F2.3333337
sI9
F1.6996722
sI10
F30.11111
sI11
F24.555555
sI12
F30.11111
sI13
F35.666668
sI14
F-16.666666
sI16
F16.666666
sI17
F35.666668
sI18
F0.31229463
sI19
F2.6178014
ssbsg16
g0
(g17
g2
Ntp1843
Rp1844
(dp1845
g21
I1
sbsba(ics475_types
Instance
p1846
(dp1847
g11
(ics475_types
FeatureVector
p1848
(dp1849
g14
(dp1850
I1
F93.0
sI2
F236.0
sI3
F9.0
sI4
F0.11111111
sI6
F1.7777777
sI7
F2.6962965
sI8
F1.9999999
sI9
F0.93333334
sI10
F12.518518
sI11
F9.555555
sI12
F10.777778
sI13
F17.222223
sI14
F-8.888889
sI15
F-5.2222223
sI16
F14.111111
sI17
F17.222223
sI18
F0.44724658
sI19
F2.2671974
ssbsg16
g0
(g17
g2
Ntp1851
Rp1852
(dp1853
g21
I1
sbsba(ics475_types
Instance
p1854
(dp1855
g11
(ics475_types
FeatureVector
p1856
(dp1857
g14
(dp1858
I1
F14.0
sI2
F120.0
sI3
F9.0
sI6
F0.3333333
sI7
F0.13333331
sI8
F0.44444442
sI9
F0.29629624
sI10
F1.5925926
sI12
F3.8888888
sI13
F0.8888889
sI14
F-4.7777777
sI15
F6.888889
sI16
F-2.1111112
sI17
F3.8888888
sI18
F1.0
sI19
F-2.3157208
ssbsg16
g0
(g17
g2
Ntp1859
Rp1860
(dp1861
g21
I0
sbsba(ics475_types
Instance
p1862
(dp1863
g11
(ics475_types
FeatureVector
p1864
(dp1865
g14
(dp1866
I1
F214.0
sI2
F121.0
sI3
F9.0
sI6
F0.2777778
sI7
F0.06296298
sI8
F0.11111111
sI9
F0.07407408
sI10
F1.1481482
sI12
F3.3333333
sI13
F0.11111111
sI14
F-3.4444444
sI15
F6.5555553
sI16
F-3.1111112
sI17
F3.3333333
sI18
F1.0
sI19
F-2.132635
ssbsg16
g0
(g17
g2
Ntp1867
Rp1868
(dp1869
g21
I0
sbsba(ics475_types
Instance
p1870
(dp1871
g11
(ics475_types
FeatureVector
p1872
(dp1873
g14
(dp1874
I1
F96.0
sI2
F133.0
sI3
F9.0
sI6
F0.055555556
sI7
F0.01851852
sI8
F0.22222222
sI9
F0.029629637
sI10
F0.4814815
sI12
F1.4444444
sI14
F-1.4444444
sI15
F2.8888888
sI16
F-1.4444444
sI17
F1.4444444
sI18
F1.0
sI19
F-2.0943952
ssbsg16
g0
(g17
g2
Ntp1875
Rp1876
(dp1877
g21
I0
sbsba(ics475_types
Instance
p1878
(dp1879
g11
(ics475_types
FeatureVector
p1880
(dp1881
g14
(dp1882
I1
F23.0
sI2
F92.0
sI3
F9.0
sI5
F0.11111111
sI6
F4.111111
sI7
F4.63641
sI8
F7.0
sI9
F5.688196
sI10
F12.666667
sI11
F8.777778
sI12
F18.666668
sI13
F10.555555
sI14
F-11.666667
sI15
F18.0
sI16
F-6.3333335
sI17
F18.666668
sI18
F0.56489813
sI19
F-2.2805607
ssbsg16
g0
(g17
g2
Ntp1883
Rp1884
(dp1885
g21
I0
sbsba(ics475_types
Instance
p1886
(dp1887
g11
(ics475_types
FeatureVector
p1888
(dp1889
g14
(dp1890
I1
F74.0
sI2
F129.0
sI3
F9.0
sI6
F0.22222222
sI7
F0.029629637
sI8
F0.11111111
sI9
F0.029629635
sI10
F0.5185185
sI12
F1.5555556
sI14
F-1.5555556
sI15
F3.1111112
sI16
F-1.5555556
sI17
F1.5555556
sI18
F1.0
sI19
F-2.0943952
ssbsg16
g0
(g17
g2
Ntp1891
Rp1892
(dp1893
g21
I0
sbsba(ics475_types
Instance
p1894
(dp1895
g11
(ics475_types
FeatureVector
p1896
(dp1897
g14
(dp1898
I1
F104.0
sI2
F139.0
sI3
F9.0
sI6
F0.33333334
sI7
F0.5163977
sI8
F0.33333334
sI9
F0.5163977
sI10
F0.6666667
sI12
F1.7777778
sI13
F0.22222222
sI14
F-2.0
sI15
F3.3333333
sI16
F-1.3333334
sI17
F1.7777778
sI18
F1.0
sI19
F-2.1507304
ssbsg16
g0
(g17
g2
Ntp1899
Rp1900
(dp1901
g21
I0
sbsba(ics475_types
Instance
p1902
(dp1903
g11
(ics475_types
FeatureVector
p1904
(dp1905
g14
(dp1906
I1
F54.0
sI2
F126.0
sI3
F9.0
sI6
F0.6666666
sI7
F0.31111127
sI8
F0.49999997
sI9
F0.16666673
sI10
F1.4074074
sI12
F3.6666667
sI13
F0.5555556
sI14
F-4.2222223
sI15
F6.7777777
sI16
F-2.5555556
sI17
F3.6666667
sI18
F1.0
sI19
F-2.229939
ssbsg16
g0
(g17
g2
Ntp1907
Rp1908
(dp1909
g21
I0
sbsba(ics475_types
Instance
p1910
(dp1911
g11
(ics475_types
FeatureVector
p1912
(dp1913
g14
(dp1914
I1
F23.0
sI2
F129.0
sI3
F9.0
sI6
F0.5
sI7
F0.077777795
sI8
F0.38888887
sI9
F0.15185186
sI10
F0.5185185
sI12
F1.5555556
sI14
F-1.5555556
sI15
F3.1111112
sI16
F-1.5555556
sI17
F1.5555556
sI18
F0.7777778
sI19
F-2.0943952
ssbsg16
g0
(g17
g2
Ntp1915
Rp1916
(dp1917
g21
I0
sbsba(ics475_types
Instance
p1918
(dp1919
g11
(ics475_types
FeatureVector
p1920
(dp1921
g14
(dp1922
I1
F217.0
sI2
F245.0
sI3
F9.0
sI4
F0.11111111
sI5
F0.11111111
sI6
F3.1666667
sI7
F3.0166214
sI8
F2.1666667
sI9
F1.2427571
sI10
F9.740741
sI11
F7.4444447
sI12
F7.111111
sI13
F14.666667
sI14
F-6.888889
sI15
F-7.888889
sI16
F14.777778
sI17
F14.666667
sI18
F0.57276654
sI19
F2.0694523
ssbsg16
g0
(g17
g2
Ntp1923
Rp1924
(dp1925
g21
I1
sbsba(ics475_types
Instance
p1926
(dp1927
g11
(ics475_types
FeatureVector
p1928
(dp1929
g14
(dp1930
I1
F163.0
sI2
F177.0
sI3
F9.0
sI4
F0.11111111
sI6
F1.1666673
sI7
F0.7
sI8
F2.5
sI9
F0.7888896
sI10
F24.518518
sI11
F21.222221
sI12
F21.444445
sI13
F30.88889
sI14
F-9.888889
sI15
F-9.222222
sI16
F19.11111
sI17
F30.88889
sI18
F0.3211389
sI19
F2.1254158
ssbsg16
g0
(g17
g2
Ntp1931
Rp1932
(dp1933
g21
I1
sbsba(ics475_types
Instance
p1934
(dp1935
g11
(ics475_types
FeatureVector
p1936
(dp1937
g14
(dp1938
I1
F18.0
sI2
F90.0
sI3
F9.0
sI6
F1.0555555
sI7
F0.37407416
sI8
F0.6666667
sI9
F0.22222227
sI10
F2.8148148
sI11
F0.5555556
sI12
F6.888889
sI13
F1.0
sI14
F-6.7777777
sI15
F12.222222
sI16
F-5.4444447
sI17
F6.888889
sI18
F0.9261464
sI19
F-2.1643226
ssbsg16
g0
(g17
g2
Ntp1939
Rp1940
(dp1941
g21
I0
sbsba(ics475_types
Instance
p1942
(dp1943
g11
(ics475_types
FeatureVector
p1944
(dp1945
g14
(dp1946
I1
F140.0
sI2
F161.0
sI3
F9.0
sI6
F0.27777767
sI7
F0.3277306
sI8
F0.7777777
sI9
F0.6206328
sI10
F15.740741
sI11
F12.444445
sI12
F14.333333
sI13
F20.444445
sI14
F-9.888889
sI15
F-4.2222223
sI16
F14.111111
sI17
F20.444445
sI18
F0.39095718
sI19
F2.3451326
ssbsg16
g0
(g17
g2
Ntp1947
Rp1948
(dp1949
g21
I1
sbsba(ics475_types
Instance
p1950
(dp1951
g11
(ics475_types
FeatureVector
p1952
(dp1953
g14
(dp1954
I1
F63.0
sI2
F220.0
sI3
F9.0
sI6
F3.055556
sI7
F15.2629595
sI8
F3.6666667
sI9
F6.0888896
sI10
F8.185185
sI11
F6.5555553
sI12
F6.4444447
sI13
F11.555555
sI14
F-4.888889
sI15
F-5.2222223
sI16
F10.111111
sI17
F11.555555
sI18
F0.48671728
sI19
F2.0931497
ssbsg16
g0
(g17
g2
Ntp1955
Rp1956
(dp1957
g21
I1
sbsba(ics475_types
Instance
p1958
(dp1959
g11
(ics475_types
FeatureVector
p1960
(dp1961
g14
(dp1962
I1
F19.0
sI2
F90.0
sI3
F9.0
sI6
F1.3888888
sI7
F1.8851852
sI8
F1.1111112
sI9
F2.1185184
sI10
F3.4074075
sI11
F0.8888889
sI12
F7.888889
sI13
F1.4444444
sI14
F-7.5555553
sI15
F13.444445
sI16
F-5.888889
sI17
F7.888889
sI18
F0.904321
sI19
F-2.1660802
ssbsg16
g0
(g17
g2
Ntp1963
Rp1964
(dp1965
g21
I0
sbsba(ics475_types
Instance
p1966
(dp1967
g11
(ics475_types
FeatureVector
p1968
(dp1969
g14
(dp1970
I1
F215.0
sI2
F219.0
sI3
F9.0
sI6
F2.5555556
sI7
F2.2377238
sI8
F3.2222223
sI9
F2.491467
sI10
F13.222222
sI11
F10.333334
sI12
F10.222222
sI13
F19.11111
sI14
F-8.666667
sI15
F-9.0
sI16
F17.666666
sI17
F19.11111
sI18
F0.49459508
sI19
F2.0861003
ssbsg16
g0
(g17
g2
Ntp1971
Rp1972
(dp1973
g21
I1
sbsba(ics475_types
Instance
p1974
(dp1975
g11
(ics475_types
FeatureVector
p1976
(dp1977
g14
(dp1978
I1
F38.0
sI2
F241.0
sI3
F9.0
sI6
F2.055556
sI7
F0.5741337
sI8
F1.5555559
sI9
F1.4246509
sI10
F14.333333
sI11
F10.888889
sI12
F14.0
sI13
F18.11111
sI14
F-10.333333
sI15
F-1.0
sI16
F11.333333
sI17
F18.11111
sI18
F0.3999011
sI19
F2.544142
ssbsg16
g0
(g17
g2
Ntp1979
Rp1980
(dp1981
g21
I1
sbsba(ics475_types
Instance
p1982
(dp1983
g11
(ics475_types
FeatureVector
p1984
(dp1985
g14
(dp1986
I1
F200.0
sI2
F250.0
sI3
F9.0
sI6
F2.2777777
sI7
F1.420746
sI8
F1.4444445
sI9
F1.0255988
sI10
F9.222222
sI11
F6.5555553
sI12
F7.3333335
sI13
F13.777778
sI14
F-8.0
sI15
F-5.6666665
sI16
F13.666667
sI17
F13.777778
sI18
F0.5633903
sI19
F2.1929355
ssbsg16
g0
(g17
g2
Ntp1987
Rp1988
(dp1989
g21
I1
sbsba(ics475_types
Instance
p1990
(dp1991
g11
(ics475_types
FeatureVector
p1992
(dp1993
g14
(dp1994
I1
F16.0
sI2
F246.0
sI3
F9.0
sI4
F0.11111111
sI6
F2.3888888
sI7
F1.0851847
sI8
F1.722222
sI9
F1.7518522
sI10
F9.407408
sI11
F9.555555
sI12
F10.111111
sI13
F8.555555
sI14
F0.44444445
sI15
F2.1111112
sI16
F-2.5555556
sI17
F10.333334
sI18
F0.16335146
sI19
F-1.1905607
ssbsg16
g0
(g17
g2
Ntp1995
Rp1996
(dp1997
g21
I1
sbsba(ics475_types
Instance
p1998
(dp1999
g11
(ics475_types
FeatureVector
p2000
(dp2001
g14
(dp2002
I1
F113.0
sI2
F130.0
sI3
F9.0
sI6
F0.27777776
sI7
F0.25092423
sI8
F0.33333328
sI9
F0.3651483
sI10
F0.8888889
sI12
F2.5555556
sI13
F0.11111111
sI14
F-2.6666667
sI15
F5.0
sI16
F-2.3333333
sI17
F2.5555556
sI18
F1.0
sI19
F-2.123254
ssbsg16
g0
(g17
g2
Ntp2003
Rp2004
(dp2005
g21
I0
sbsba(ics475_types
Instance
p2006
(dp2007
g11
(ics475_types
FeatureVector
p2008
(dp2009
g14
(dp2010
I1
F175.0
sI2
F212.0
sI3
F9.0
sI4
F0.11111111
sI6
F1.0000001
sI7
F0.666667
sI8
F1.8333334
sI9
F1.345775
sI10
F12.296296
sI11
F10.0
sI12
F9.0
sI13
F17.88889
sI14
F-6.888889
sI15
F-9.888889
sI16
F16.777779
sI17
F17.88889
sI18
F0.4987573
sI19
F1.9744948
ssbsg16
g0
(g17
g2
Ntp2011
Rp2012
(dp2013
g21
I1
sbsba(ics475_types
Instance
p2014
(dp2015
g11
(ics475_types
FeatureVector
p2016
(dp2017
g14
(dp2018
I1
F127.0
sI2
F143.0
sI3
F9.0
sI6
F1.5
sI7
F0.12222214
sI8
F0.88888884
sI9
F0.60740745
sI10
F4.185185
sI11
F0.8888889
sI12
F9.444445
sI13
F2.2222223
sI14
F-9.888889
sI15
F15.777778
sI16
F-5.888889
sI17
F9.444445
sI18
F0.915376
sI19
F-2.2574124
ssbsg16
g0
(g17
g2
Ntp2019
Rp2020
(dp2021
g21
I0
sbsba(ics475_types
Instance
p2022
(dp2023
g11
(ics475_types
FeatureVector
p2024
(dp2025
g14
(dp2026
I1
F71.0
sI2
F180.0
sI3
F9.0
sI4
F0.11111111
sI6
F1.222222
sI7
F0.5629625
sI8
F3.0
sI9
F1.8666646
sI10
F22.333334
sI11
F18.333334
sI12
F21.444445
sI13
F27.222221
sI14
F-12.0
sI15
F-2.6666667
sI16
F14.666667
sI17
F27.222221
sI18
F0.3273826
sI19
F2.4538307
ssbsg16
g0
(g17
g2
Ntp2027
Rp2028
(dp2029
g21
I1
sbsba(ics475_types
Instance
p2030
(dp2031
g11
(ics475_types
FeatureVector
p2032
(dp2033
g14
(dp2034
I1
F115.0
sI2
F138.0
sI3
F9.0
sI6
F0.33333334
sI7
F0.0888889
sI8
F0.33333334
sI9
F0.1777778
sI10
F0.7777778
sI12
F2.3333335
sI14
F-2.3333333
sI15
F4.6666665
sI16
F-2.3333333
sI17
F2.3333335
sI18
F1.0
sI19
F-2.0943952
ssbsg16
g0
(g17
g2
Ntp2035
Rp2036
(dp2037
g21
I0
sbsba(ics475_types
Instance
p2038
(dp2039
g11
(ics475_types
FeatureVector
p2040
(dp2041
g14
(dp2042
I1
F91.0
sI2
F247.0
sI3
F9.0
sI6
F2.6666665
sI7
F1.2472191
sI8
F2.222222
sI9
F1.4246507
sI10
F12.62963
sI11
F9.555555
sI12
F12.444445
sI13
F15.888889
sI14
F-9.222222
sI15
F-0.5555556
sI16
F9.777778
sI17
F15.888889
sI18
F0.4018332
sI19
F2.55309
ssbsg16
g0
(g17
g2
Ntp2043
Rp2044
(dp2045
g21
I1
sbsba(ics475_types
Instance
p2046
(dp2047
g11
(ics475_types
FeatureVector
p2048
(dp2049
g14
(dp2050
I1
F62.0
sI2
F223.0
sI3
F9.0
sI6
F2.5
sI7
F5.722223
sI8
F1.6666666
sI9
F2.4444442
sI10
F6.6666665
sI11
F4.888889
sI12
F4.666667
sI13
F10.444445
sI14
F-5.3333335
sI15
F-6.0
sI16
F11.333333
sI17
F10.444445
sI18
F0.5931498
sI19
F2.0465877
ssbsg16
g0
(g17
g2
Ntp2051
Rp2052
(dp2053
g21
I1
sbsba(ics475_types
Instance
p2054
(dp2055
g11
(ics475_types
FeatureVector
p2056
(dp2057
g14
(dp2058
I1
F107.0
sI2
F210.0
sI3
F9.0
sI6
F0.9444445
sI7
F0.5962963
sI8
F1.8333335
sI9
F0.65555495
sI10
F15.111111
sI11
F11.222222
sI12
F14.222222
sI13
F19.88889
sI14
F-11.666667
sI15
F-2.6666667
sI16
F14.333333
sI17
F19.88889
sI18
F0.43576914
sI19
F2.4615993
ssbsg16
g0
(g17
g2
Ntp2059
Rp2060
(dp2061
g21
I1
sbsba(ics475_types
Instance
p2062
(dp2063
g11
(ics475_types
FeatureVector
p2064
(dp2065
g14
(dp2066
I1
F53.0
sI2
F135.0
sI3
F9.0
sI6
F0.5555555
sI7
F0.2074075
sI8
F0.33333334
sI9
F0.08888893
sI10
F0.7407407
sI12
F2.1111112
sI13
F0.11111111
sI14
F-2.2222223
sI15
F4.111111
sI16
F-1.8888888
sI17
F2.1111112
sI18
F0.8888889
sI19
F-2.1374457
ssbsg16
g0
(g17
g2
Ntp2067
Rp2068
(dp2069
g21
I0
sbsba(ics475_types
Instance
p2070
(dp2071
g11
(ics475_types
FeatureVector
p2072
(dp2073
g14
(dp2074
I1
F49.0
sI2
F112.0
sI3
F9.0
sI4
F0.11111111
sI6
F1.3333334
sI7
F1.3777776
sI8
F1.5555555
sI9
F1.7185184
sI10
F3.8148148
sI11
F1.1111112
sI12
F7.2222223
sI13
F3.1111112
sI14
F-8.111111
sI15
F10.222222
sI16
F-2.1111112
sI17
F7.2222223
sI18
F0.86766475
sI19
F-2.4357176
ssbsg16
g0
(g17
g2
Ntp2075
Rp2076
(dp2077
g21
I0
sbsba(ics475_types
Instance
p2078
(dp2079
g11
(ics475_types
FeatureVector
p2080
(dp2081
g14
(dp2082
I1
F234.0
sI2
F161.0
sI3
F9.0
sI6
F0.888889
sI7
F0.501849
sI8
F1.6111113
sI9
F1.4050179
sI10
F19.037037
sI11
F15.111111
sI12
F17.0
sI13
F25.0
sI14
F-11.777778
sI15
F-6.111111
sI16
F17.88889
sI17
F25.0
sI18
F0.39559862
sI19
F2.292736
ssbsg16
g0
(g17
g2
Ntp2083
Rp2084
(dp2085
g21
I1
sbsba(ics475_types
Instance
p2086
(dp2087
g11
(ics475_types
FeatureVector
p2088
(dp2089
g14
(dp2090
I1
F29.0
sI2
F195.0
sI3
F9.0
sI6
F0.44444433
sI7
F0.40368652
sI8
F0.61111087
sI9
F0.6804136
sI10
F16.037037
sI11
F14.444445
sI12
F13.333333
sI13
F20.333334
sI14
F-4.7777777
sI15
F-8.111111
sI16
F12.888889
sI17
F20.333334
sI18
F0.34230694
sI19
F1.9430399
ssbsg16
g0
(g17
g2
Ntp2091
Rp2092
(dp2093
g21
I1
sbsba(ics475_types
Instance
p2094
(dp2095
g11
(ics475_types
FeatureVector
p2096
(dp2097
g14
(dp2098
I1
F100.0
sI2
F115.0
sI3
F9.0
sI4
F0.11111111
sI6
F0.77777785
sI7
F0.16296305
sI8
F0.7222223
sI9
F0.32962963
sI10
F2.7407408
sI11
F0.33333334
sI12
F6.2222223
sI13
F1.6666666
sI14
F-7.2222223
sI15
F10.444445
sI16
F-3.2222223
sI17
F6.2222223
sI18
F0.9543651
sI19
F-2.3218653
ssbsg16
g0
(g17
g2
Ntp2099
Rp2100
(dp2101
g21
I0
sbsba(ics475_types
Instance
p2102
(dp2103
g11
(ics475_types
FeatureVector
p2104
(dp2105
g14
(dp2106
I1
F94.0
sI2
F246.0
sI3
F9.0
sI6
F2.3333333
sI7
F1.6193275
sI8
F2.7222223
sI9
F0.77220213
sI10
F22.814816
sI11
F18.88889
sI12
F19.666668
sI13
F29.88889
sI14
F-11.777778
sI15
F-9.444445
sI16
F21.222221
sI17
F29.88889
sI18
F0.37479976
sI19
F2.1589146
ssbsg16
g0
(g17
g2
Ntp2107
Rp2108
(dp2109
g21
I1
sbsba(ics475_types
Instance
p2110
(dp2111
g11
(ics475_types
FeatureVector
p2112
(dp2113
g14
(dp2114
I1
F69.0
sI2
F139.0
sI3
F9.0
sI6
F2.8333328
sI7
F1.7732588
sI8
F2.1111112
sI9
F1.6688871
sI10
F18.074074
sI11
F16.0
sI12
F22.555555
sI13
F15.666667
sI14
F-6.2222223
sI15
F13.444445
sI16
F-7.2222223
sI17
F23.88889
sI18
F0.38661182
sI19
F-1.7028334
ssbsg16
g0
(g17
g2
Ntp2115
Rp2116
(dp2117
g21
I0
sbsba(ics475_types
Instance
p2118
(dp2119
g11
(ics475_types
FeatureVector
p2120
(dp2121
g14
(dp2122
I1
F100.0
sI2
F111.0
sI3
F9.0
sI6
F3.7222223
sI7
F20.951847
sI8
F4.111111
sI9
F19.496296
sI10
F4.888889
sI11
F2.2222223
sI12
F9.111111
sI13
F3.3333333
sI14
F-8.0
sI15
F12.666667
sI16
F-4.6666665
sI17
F9.111111
sI18
F0.8646644
sI19
F-2.2164733
ssbsg16
g0
(g17
g2
Ntp2123
Rp2124
(dp2125
g21
I0
sbsba(ics475_types
Instance
p2126
(dp2127
g11
(ics475_types
FeatureVector
p2128
(dp2129
g14
(dp2130
I1
F96.0
sI2
F236.0
sI3
F9.0
sI6
F1.7222222
sI7
F3.840741
sI8
F1.7222223
sI9
F1.1296297
sI10
F13.962963
sI11
F10.777778
sI12
F12.444445
sI13
F18.666668
sI14
F-9.555555
sI15
F-4.5555553
sI16
F14.111111
sI17
F18.666668
sI18
F0.42423514
sI19
F2.3206298
ssbsg16
g0
(g17
g2
Ntp2131
Rp2132
(dp2133
g21
I1
sbsba(ics475_types
Instance
p2134
(dp2135
g11
(ics475_types
FeatureVector
p2136
(dp2137
g14
(dp2138
I1
F78.0
sI2
F100.0
sI3
F9.0
sI6
F1.5555553
sI7
F8.296297
sI8
F2.5555556
sI9
F8.829631
sI10
F4.5925927
sI11
F1.4444444
sI12
F9.444445
sI13
F2.8888888
sI14
F-9.444445
sI15
F14.555555
sI16
F-5.111111
sI17
F9.444445
sI18
F0.87633204
sI19
F-2.2805398
ssbsg16
g0
(g17
g2
Ntp2139
Rp2140
(dp2141
g21
I0
sbsba(ics475_types
Instance
p2142
(dp2143
g11
(ics475_types
FeatureVector
p2144
(dp2145
g14
(dp2146
I1
F192.0
sI2
F239.0
sI3
F9.0
sI4
F0.11111111
sI6
F2.4999998
sI7
F2.4333322
sI8
F2.277778
sI9
F1.3074071
sI10
F15.148149
sI11
F12.222222
sI12
F14.555555
sI13
F18.666668
sI14
F-8.777778
sI15
F-1.7777778
sI16
F10.555555
sI17
F18.666668
sI18
F0.34430414
sI19
F2.482445
ssbsg16
g0
(g17
g2
Ntp2147
Rp2148
(dp2149
g21
I1
sbsba(ics475_types
Instance
p2150
(dp2151
g11
(ics475_types
FeatureVector
p2152
(dp2153
g14
(dp2154
I1
F23.0
sI2
F237.0
sI3
F9.0
sI6
F1.6666666
sI7
F2.444445
sI8
F1.7777777
sI9
F2.074075
sI10
F5.851852
sI11
F4.2222223
sI12
F4.5555553
sI13
F8.777778
sI14
F-4.888889
sI15
F-3.8888888
sI16
F8.777778
sI17
F8.777778
sI18
F0.54126585
sI19
F2.1805263
ssbsg16
g0
(g17
g2
Ntp2155
Rp2156
(dp2157
g21
I1
sbsba(ics475_types
Instance
p2158
(dp2159
g11
(ics475_types
FeatureVector
p2160
(dp2161
g14
(dp2162
I1
F18.0
sI2
F66.0
sI3
F9.0
sI6
F8.666665
sI7
F9.089677
sI8
F10.944443
sI9
F5.289054
sI10
F39.88889
sI11
F32.333336
sI12
F49.555557
sI13
F37.77778
sI14
F-22.666666
sI15
F29.0
sI16
F-6.3333335
sI17
F49.555557
sI18
F0.3501687
sI19
F-2.43063
ssbsg16
g0
(g17
g2
Ntp2163
Rp2164
(dp2165
g21
I0
sbsba(ics475_types
Instance
p2166
(dp2167
g11
(ics475_types
FeatureVector
p2168
(dp2169
g14
(dp2170
I1
F63.0
sI2
F201.0
sI3
F9.0
sI6
F1.4444445
sI7
F0.9185186
sI8
F0.94444424
sI9
F0.5518518
sI10
F7.7777777
sI11
F6.2222223
sI12
F5.5555553
sI13
F11.555555
sI14
F-4.6666665
sI15
F-6.6666665
sI16
F11.333333
sI17
F11.555555
sI18
F0.54320127
sI19
F1.9829868
ssbsg16
g0
(g17
g2
Ntp2171
Rp2172
(dp2173
g21
I1
sbsba(ics475_types
Instance
p2174
(dp2175
g11
(ics475_types
FeatureVector
p2176
(dp2177
g14
(dp2178
I1
F132.0
sI2
F91.0
sI3
F9.0
sI5
F0.11111111
sI6
F18.944445
sI7
F188.50739
sI8
F33.444447
sI9
F889.3629
sI10
F42.814816
sI11
F35.88889
sI12
F52.666668
sI13
F39.88889
sI14
F-20.777779
sI15
F29.555555
sI16
F-8.777778
sI17
F52.666668
sI18
F0.39882392
sI19
F-2.3460567
ssbsg16
g0
(g17
g2
Ntp2179
Rp2180
(dp2181
g21
I0
sbsba(ics475_types
Instance
p2182
(dp2183
g11
(ics475_types
FeatureVector
p2184
(dp2185
g14
(dp2186
I1
F241.0
sI2
F218.0
sI3
F9.0
sI6
F1.7777777
sI7
F3.4962964
sI8
F1.6666664
sI9
F1.0222222
sI10
F8.444445
sI11
F5.4444447
sI12
F7.3333335
sI13
F12.555555
sI14
F-9.0
sI15
F-3.3333333
sI16
F12.333333
sI17
F12.555555
sI18
F0.5692659
sI19
F2.361442
ssbsg16
g0
(g17
g2
Ntp2187
Rp2188
(dp2189
g21
I1
sbsba(ics475_types
Instance
p2190
(dp2191
g11
(ics475_types
FeatureVector
p2192
(dp2193
g14
(dp2194
I1
F18.0
sI2
F87.0
sI3
F9.0
sI6
F1.5555555
sI7
F1.9626132
sI8
F1.8888887
sI9
F1.7469552
sI10
F2.925926
sI11
F1.2222222
sI12
F5.6666665
sI13
F1.8888888
sI14
F-5.111111
sI15
F8.222222
sI16
F-3.1111112
sI17
F5.6666665
sI18
F0.86277056
sI19
F-2.2294934
ssbsg16
g0
(g17
g2
Ntp2195
Rp2196
(dp2197
g21
I0
sbsba(ics475_types
Instance
p2198
(dp2199
g11
(ics475_types
FeatureVector
p2200
(dp2201
g14
(dp2202
I1
F5.0
sI2
F118.0
sI3
F9.0
sI6
F0.22222222
sI7
F0.07407408
sI8
F0.33333334
sI9
F0.0888889
sI10
F0.9259259
sI12
F2.5555556
sI13
F0.22222222
sI14
F-2.7777777
sI15
F4.888889
sI16
F-2.1111112
sI17
F2.5555556
sI18
F1.0
sI19
F-2.1712801
ssbsg16
g0
(g17
g2
Ntp2203
Rp2204
(dp2205
g21
I0
sbsba(ics475_types
Instance
p2206
(dp2207
g11
(ics475_types
FeatureVector
p2208
(dp2209
g14
(dp2210
I1
F18.0
sI2
F90.0
sI3
F9.0
sI6
F1.0555555
sI7
F0.37407416
sI8
F0.6666667
sI9
F0.22222227
sI10
F2.8148148
sI11
F0.5555556
sI12
F6.888889
sI13
F1.0
sI14
F-6.7777777
sI15
F12.222222
sI16
F-5.4444447
sI17
F6.888889
sI18
F0.9261464
sI19
F-2.1643226
ssbsg16
g0
(g17
g2
Ntp2211
Rp2212
(dp2213
g21
I0
sbsba(ics475_types
Instance
p2214
(dp2215
g11
(ics475_types
FeatureVector
p2216
(dp2217
g14
(dp2218
I1
F25.0
sI2
F91.0
sI3
F9.0
sI6
F1.611111
sI7
F4.3740745
sI8
F1.388889
sI9
F0.99629617
sI10
F3.8888888
sI11
F0.8888889
sI12
F8.111112
sI13
F2.6666667
sI14
F-9.0
sI15
F12.666667
sI16
F-3.6666667
sI17
F8.111112
sI18
F0.9114478
sI19
F-2.3545752
ssbsg16
g0
(g17
g2
Ntp2219
Rp2220
(dp2221
g21
I0
sbsba(ics475_types
Instance
p2222
(dp2223
g11
(ics475_types
FeatureVector
p2224
(dp2225
g14
(dp2226
I1
F225.0
sI2
F222.0
sI3
F9.0
sI4
F0.11111111
sI6
F1.5
sI7
F0.4777781
sI8
F1.7777778
sI9
F1.7185186
sI10
F14.0
sI11
F10.777778
sI12
F13.666667
sI13
F17.555555
sI14
F-9.666667
sI15
F-1.0
sI16
F10.666667
sI17
F17.555555
sI18
F0.38572726
sI19
F2.5573087
ssbsg16
g0
(g17
g2
Ntp2227
Rp2228
(dp2229
g21
I1
sbsba(ics475_types
Instance
p2230
(dp2231
g11
(ics475_types
FeatureVector
p2232
(dp2233
g14
(dp2234
I1
F33.0
sI2
F142.0
sI3
F9.0
sI6
F1.888889
sI7
F1.3770607
sI8
F0.88888884
sI9
F1.4089661
sI10
F3.851852
sI11
F1.6666666
sI12
F7.2222223
sI13
F2.6666667
sI14
F-6.5555553
sI15
F10.111111
sI16
F-3.5555556
sI17
F7.2222223
sI18
F0.8135803
sI19
F-2.2806025
ssbsg16
g0
(g17
g2
Ntp2235
Rp2236
(dp2237
g21
I0
sbsba(ics475_types
Instance
p2238
(dp2239
g11
(ics475_types
FeatureVector
p2240
(dp2241
g14
(dp2242
I1
F86.0
sI2
F187.0
sI3
F9.0
sI6
F1.1111108
sI7
F0.7200825
sI8
F1.4444445
sI9
F0.750309
sI10
F13.740741
sI11
F11.666667
sI12
F10.333334
sI13
F19.222221
sI14
F-6.2222223
sI15
F-10.222222
sI16
F16.444445
sI17
F19.222221
sI18
F0.46332908
sI19
F1.9414649
ssbsg16
g0
(g17
g2
Ntp2243
Rp2244
(dp2245
g21
I1
sbsba(ics475_types
Instance
p2246
(dp2247
g11
(ics475_types
FeatureVector
p2248
(dp2249
g14
(dp2250
I1
F245.0
sI2
F176.0
sI3
F9.0
sI6
F1.0000006
sI7
F0.516398
sI8
F1.0
sI9
F0.5577736
sI10
F18.481482
sI11
F15.111111
sI12
F17.0
sI13
F23.333334
sI14
F-10.111111
sI15
F-4.4444447
sI16
F14.555555
sI17
F23.333334
sI18
F0.35206997
sI19
F2.332243
ssbsg16
g0
(g17
g2
Ntp2251
Rp2252
(dp2253
g21
I1
sbsba(ics475_types
Instance
p2254
(dp2255
g11
(ics475_types
FeatureVector
p2256
(dp2257
g14
(dp2258
I1
F88.0
sI2
F136.0
sI3
F9.0
sI6
F1.8333331
sI7
F1.149879
sI8
F2.0555553
sI9
F2.112573
sI10
F8.0
sI11
F4.111111
sI12
F13.222222
sI13
F6.6666665
sI14
F-11.666667
sI15
F15.666667
sI16
F-4.0
sI17
F13.222222
sI18
F0.6950877
sI19
F-2.412671
ssbsg16
g0
(g17
g2
Ntp2259
Rp2260
(dp2261
g21
I0
sbsba(ics475_types
Instance
p2262
(dp2263
g11
(ics475_types
FeatureVector
p2264
(dp2265
g14
(dp2266
I1
F114.0
sI2
F181.0
sI3
F9.0
sI6
F1.1111107
sI7
F0.38518563
sI8
F0.88888866
sI9
F1.0962963
sI10
F19.925926
sI11
F15.888889
sI12
F18.777779
sI13
F25.11111
sI14
F-12.111111
sI15
F-3.4444444
sI16
F15.555555
sI17
F25.11111
sI18
F0.36658052
sI19
F2.420823
ssbsg16
g0
(g17
g2
Ntp2267
Rp2268
(dp2269
g21
I1
sbsba(ics475_types
Instance
p2270
(dp2271
g11
(ics475_types
FeatureVector
p2272
(dp2273
g14
(dp2274
I1
F116.0
sI2
F211.0
sI3
F9.0
sI6
F1.722222
sI7
F1.1296293
sI8
F1.6111113
sI9
F1.7074069
sI10
F13.740741
sI11
F11.111111
sI12
F12.333333
sI13
F17.777779
sI14
F-7.888889
sI15
F-4.2222223
sI16
F12.111111
sI17
F17.777779
sI18
F0.37534603
sI19
F2.2920406
ssbsg16
g0
(g17
g2
Ntp2275
Rp2276
(dp2277
g21
I1
sbsba(ics475_types
Instance
p2278
(dp2279
g11
(ics475_types
FeatureVector
p2280
(dp2281
g14
(dp2282
I1
F4.0
sI2
F248.0
sI3
F9.0
sI6
F3.333334
sI7
F1.8135293
sI8
F3.2222226
sI9
F1.2590408
sI10
F19.555555
sI11
F15.555555
sI12
F16.666668
sI13
F26.444445
sI14
F-12.0
sI15
F-8.666667
sI16
F20.666666
sI17
F26.444445
sI18
F0.42215064
sI19
F2.205099
ssbsg16
g0
(g17
g2
Ntp2283
Rp2284
(dp2285
g21
I1
sbsba(ics475_types
Instance
p2286
(dp2287
g11
(ics475_types
FeatureVector
p2288
(dp2289
g14
(dp2290
I1
F162.0
sI2
F227.0
sI3
F9.0
sI6
F1.3888888
sI7
F0.99629617
sI8
F3.1666667
sI9
F8.611113
sI10
F13.962963
sI11
F10.111111
sI12
F14.444445
sI13
F17.333334
sI14
F-11.555555
sI15
F1.4444444
sI16
F10.111111
sI17
F17.444445
sI18
F0.42550126
sI19
F2.7070513
ssbsg16
g0
(g17
g2
Ntp2291
Rp2292
(dp2293
g21
I1
sbsba(ics475_types
Instance
p2294
(dp2295
g11
(ics475_types
FeatureVector
p2296
(dp2297
g14
(dp2298
I1
F10.0
sI2
F223.0
sI3
F9.0
sI4
F0.11111111
sI6
F1.5000001
sI7
F1.0697871
sI8
F3.555556
sI9
F2.9489486
sI10
F15.037037
sI11
F13.777778
sI12
F12.888889
sI13
F18.444445
sI14
F-3.7777777
sI15
F-6.4444447
sI16
F10.222222
sI17
F18.444445
sI18
F0.33066535
sI19
F1.9109454
ssbsg16
g0
(g17
g2
Ntp2299
Rp2300
(dp2301
g21
I1
sbsba(ics475_types
Instance
p2302
(dp2303
g11
(ics475_types
FeatureVector
p2304
(dp2305
g14
(dp2306
I1
F21.0
sI2
F64.0
sI3
F9.0
sI6
F16.277779
sI7
F12.948471
sI8
F20.222223
sI9
F17.629103
sI10
F31.0
sI11
F24.666666
sI12
F38.0
sI13
F30.333334
sI14
F-19.0
sI15
F21.0
sI16
F-2.0
sI17
F38.0
sI18
F0.40074632
sI19
F-2.593825
ssbsg16
g0
(g17
g2
Ntp2307
Rp2308
(dp2309
g21
I0
sbsba(ics475_types
Instance
p2310
(dp2311
g11
(ics475_types
FeatureVector
p2312
(dp2313
g14
(dp2314
I1
F245.0
sI2
F73.0
sI3
F9.0
sI6
F8.222222
sI7
F6.2739906
sI8
F10.722222
sI9
F7.6809044
sI10
F46.666668
sI11
F32.11111
sI12
F70.111115
sI13
F37.77778
sI14
F-43.666668
sI15
F70.333336
sI16
F-26.666666
sI17
F70.111115
sI18
F0.5490324
sI19
F-2.2512536
ssbsg16
g0
(g17
g2
Ntp2315
Rp2316
(dp2317
g21
I0
sbsba(ics475_types
Instance
p2318
(dp2319
g11
(ics475_types
FeatureVector
p2320
(dp2321
g14
(dp2322
I1
F25.0
sI2
F138.0
sI3
F9.0
sI4
F0.11111111
sI6
F1.2777777
sI7
F1.1434193
sI8
F0.72222215
sI9
F0.49065349
sI10
F5.185185
sI11
F2.0
sI12
F9.333334
sI13
F4.2222223
sI14
F-9.555555
sI15
F12.444445
sI16
F-2.8888888
sI17
F9.333334
sI18
F0.7900112
sI19
F-2.4068089
ssbsg16
g0
(g17
g2
Ntp2323
Rp2324
(dp2325
g21
I0
sbsba(ics475_types
Instance
p2326
(dp2327
g11
(ics475_types
FeatureVector
p2328
(dp2329
g14
(dp2330
I1
F9.0
sI2
F76.0
sI3
F9.0
sI6
F1.2777778
sI7
F1.4207457
sI8
F1.6666666
sI9
F1.8618987
sI10
F2.4444444
sI11
F0.8888889
sI12
F4.666667
sI13
F1.7777778
sI14
F-4.6666665
sI15
F6.6666665
sI16
F-2.0
sI17
F4.666667
sI18
F0.87222224
sI19
F-2.3408008
ssbsg16
g0
(g17
g2
Ntp2331
Rp2332
(dp2333
g21
I0
sbsba(ics475_types
Instance
p2334
(dp2335
g11
(ics475_types
FeatureVector
p2336
(dp2337
g14
(dp2338
I1
F232.0
sI2
F175.0
sI3
F9.0
sI6
F1.1666669
sI7
F0.62360954
sI8
F2.8333333
sI9
F2.1679492
sI10
F15.37037
sI11
F12.444445
sI12
F13.555555
sI13
F20.11111
sI14
F-8.777778
sI15
F-5.4444447
sI16
F14.222222
sI17
F20.11111
sI18
F0.38741234
sI19
F2.2421958
ssbsg16
g0
(g17
g2
Ntp2339
Rp2340
(dp2341
g21
I1
sbsba(ics475_types
Instance
p2342
(dp2343
g11
(ics475_types
FeatureVector
p2344
(dp2345
g14
(dp2346
I1
F110.0
sI2
F92.0
sI3
F9.0
sI4
F0.11111111
sI6
F1.8888887
sI7
F4.0296297
sI8
F2.277778
sI9
F3.529629
sI10
F7.4444447
sI11
F3.2222223
sI12
F12.666667
sI13
F6.4444447
sI14
F-12.666667
sI15
F15.666667
sI16
F-3.0
sI17
F12.666667
sI18
F0.7590125
sI19
F-2.452176
ssbsg16
g0
(g17
g2
Ntp2347
Rp2348
(dp2349
g21
I0
sbsba(ics475_types
Instance
p2350
(dp2351
g11
(ics475_types
FeatureVector
p2352
(dp2353
g14
(dp2354
I1
F28.0
sI2
F114.0
sI3
F9.0
sI6
F0.8333333
sI7
F0.43333334
sI8
F1.1666666
sI9
F0.25555548
sI10
F1.8518518
sI11
F0.11111111
sI12
F4.666667
sI13
F0.7777778
sI14
F-5.2222223
sI15
F8.444445
sI16
F-3.2222223
sI17
F4.666667
sI18
F0.984127
sI19
F-2.222661
ssbsg16
g0
(g17
g2
Ntp2355
Rp2356
(dp2357
g21
I0
sbsba(ics475_types
Instance
p2358
(dp2359
g11
(ics475_types
FeatureVector
p2360
(dp2361
g14
(dp2362
I1
F118.0
sI2
F85.0
sI3
F9.0
sI6
F3.2777777
sI7
F4.418521
sI8
F2.277778
sI9
F6.8185186
sI10
F8.185185
sI11
F3.5555556
sI12
F14.888889
sI13
F6.111111
sI14
F-13.888889
sI15
F20.11111
sI16
F-6.2222223
sI17
F14.888889
sI18
F0.7741213
sI19
F-2.3290927
ssbsg16
g0
(g17
g2
Ntp2363
Rp2364
(dp2365
g21
I0
sbsba(ics475_types
Instance
p2366
(dp2367
g11
(ics475_types
FeatureVector
p2368
(dp2369
g14
(dp2370
I1
F237.0
sI2
F106.0
sI3
F9.0
sI6
F0.9444444
sI7
F0.15185204
sI8
F0.8333333
sI9
F0.47777775
sI10
F2.4074075
sI11
F0.44444445
sI12
F6.111111
sI13
F0.6666667
sI14
F-5.888889
sI15
F11.111111
sI16
F-5.2222223
sI17
F6.111111
sI18
F0.9404762
sI19
F-2.133095
ssbsg16
g0
(g17
g2
Ntp2371
Rp2372
(dp2373
g21
I0
sbsba(ics475_types
Instance
p2374
(dp2375
g11
(ics475_types
FeatureVector
p2376
(dp2377
g14
(dp2378
I1
F27.0
sI2
F134.0
sI3
F9.0
sI6
F1.111111
sI7
F0.9813067
sI8
F1.6111113
sI9
F1.0628402
sI10
F8.703704
sI11
F3.6666667
sI12
F15.888889
sI13
F6.5555553
sI14
F-15.111111
sI15
F21.555555
sI16
F-6.4444447
sI17
F15.888889
sI18
F0.772831
sI19
F-2.3430035
ssbsg16
g0
(g17
g2
Ntp2379
Rp2380
(dp2381
g21
I0
sbsba(ics475_types
Instance
p2382
(dp2383
g11
(ics475_types
FeatureVector
p2384
(dp2385
g14
(dp2386
I1
F54.0
sI2
F140.0
sI3
F9.0
sI4
F0.11111111
sI6
F0.72222215
sI7
F0.4430532
sI8
F1.7777777
sI9
F1.0470418
sI10
F8.333333
sI11
F3.7777777
sI12
F14.0
sI13
F7.2222223
sI14
F-13.666667
sI15
F17.0
sI16
F-3.3333333
sI17
F14.0
sI18
F0.73447025
sI19
F-2.4423232
ssbsg16
g0
(g17
g2
Ntp2387
Rp2388
(dp2389
g21
I0
sbsba(ics475_types
Instance
p2390
(dp2391
g11
(ics475_types
FeatureVector
p2392
(dp2393
g14
(dp2394
I1
F131.0
sI2
F234.0
sI3
F9.0
sI6
F0.8333333
sI7
F0.29999986
sI8
F0.88888884
sI9
F0.60740733
sI10
F5.740741
sI11
F4.0
sI12
F4.4444447
sI13
F8.777778
sI14
F-5.2222223
sI15
F-3.8888888
sI16
F9.111111
sI17
F8.777778
sI18
F0.55661374
sI19
F2.1935678
ssbsg16
g0
(g17
g2
Ntp2395
Rp2396
(dp2397
g21
I1
sbsba(ics475_types
Instance
p2398
(dp2399
g11
(ics475_types
FeatureVector
p2400
(dp2401
g14
(dp2402
I1
F10.0
sI2
F94.0
sI3
F9.0
sI6
F0.4444445
sI7
F0.11851851
sI8
F0.72222227
sI9
F0.1962963
sI10
F2.2592592
sI11
F0.11111111
sI12
F6.0
sI13
F0.6666667
sI14
F-6.4444447
sI15
F11.222222
sI16
F-4.7777777
sI17
F6.0
sI18
F0.9861111
sI19
F-2.189708
ssbsg16
g0
(g17
g2
Ntp2403
Rp2404
(dp2405
g21
I0
sbsba(ics475_types
Instance
p2406
(dp2407
g11
(ics475_types
FeatureVector
p2408
(dp2409
g14
(dp2410
I1
F1.0
sI2
F81.0
sI3
F9.0
sI6
F12.166667
sI7
F267.45554
sI8
F9.222222
sI9
F205.36296
sI10
F21.333334
sI11
F14.0
sI12
F30.555555
sI13
F19.444445
sI14
F-22.0
sI15
F27.666666
sI16
F-5.6666665
sI17
F30.555555
sI18
F0.5952822
sI19
F-2.438409
ssbsg16
g0
(g17
g2
Ntp2411
Rp2412
(dp2413
g21
I0
sbsba(ics475_types
Instance
p2414
(dp2415
g11
(ics475_types
FeatureVector
p2416
(dp2417
g14
(dp2418
I1
F123.0
sI2
F143.0
sI3
F9.0
sI6
F0.2777778
sI7
F0.3896817
sI8
F0.2777778
sI9
F0.13608274
sI10
F0.4074074
sI12
F1.2222222
sI14
F-1.2222222
sI15
F2.4444444
sI16
F-1.2222222
sI17
F1.2222222
sI18
F0.7777778
sI19
F-2.0943952
ssbsg16
g0
(g17
g2
Ntp2419
Rp2420
(dp2421
g21
I0
sbsba(ics475_types
Instance
p2422
(dp2423
g11
(ics475_types
FeatureVector
p2424
(dp2425
g14
(dp2426
I1
F197.0
sI2
F156.0
sI3
F9.0
sI6
F0.9444439
sI7
F0.49065349
sI8
F2.0555558
sI9
F1.705112
sI10
F16.925926
sI11
F13.444445
sI12
F15.555555
sI13
F21.777779
sI14
F-10.444445
sI15
F-4.111111
sI16
F14.555555
sI17
F21.777779
sI18
F0.38463837
sI19
F2.3635807
ssbsg16
g0
(g17
g2
Ntp2427
Rp2428
(dp2429
g21
I1
sbsba(ics475_types
Instance
p2430
(dp2431
g11
(ics475_types
FeatureVector
p2432
(dp2433
g14
(dp2434
I1
F18.0
sI2
F123.0
sI3
F9.0
sI6
F0.72222227
sI7
F0.86296284
sI8
F0.6111111
sI9
F0.41851848
sI10
F1.074074
sI11
F0.11111111
sI12
F2.6666667
sI13
F0.44444445
sI14
F-2.8888888
sI15
F4.7777777
sI16
F-1.8888888
sI17
F2.6666667
sI18
F0.9814815
sI19
F-2.1692097
ssbsg16
g0
(g17
g2
Ntp2435
Rp2436
(dp2437
g21
I0
sbsba(ics475_types
Instance
p2438
(dp2439
g11
(ics475_types
FeatureVector
p2440
(dp2441
g14
(dp2442
I1
F119.0
sI2
F169.0
sI3
F9.0
sI6
F1.166667
sI7
F0.98319227
sI8
F0.9999997
sI9
F0.91893625
sI10
F25.962963
sI11
F20.88889
sI12
F25.0
sI13
F32.0
sI14
F-15.222222
sI15
F-2.8888888
sI16
F18.11111
sI17
F32.0
sI18
F0.34778315
sI19
F2.4790645
ssbsg16
g0
(g17
g2
Ntp2443
Rp2444
(dp2445
g21
I1
sbsba(ics475_types
Instance
p2446
(dp2447
g11
(ics475_types
FeatureVector
p2448
(dp2449
g14
(dp2450
I1
F205.0
sI2
F204.0
sI3
F9.0
sI6
F1.555555
sI7
F0.9583939
sI8
F1.8888887
sI9
F1.7722135
sI10
F19.0
sI11
F14.333333
sI12
F17.11111
sI13
F25.555555
sI14
F-14.0
sI15
F-5.6666665
sI16
F19.666666
sI17
F25.555555
sI18
F0.43934208
sI19
F2.3487284
ssbsg16
g0
(g17
g2
Ntp2451
Rp2452
(dp2453
g21
I1
sbsba(ics475_types
Instance
p2454
(dp2455
g11
(ics475_types
FeatureVector
p2456
(dp2457
g14
(dp2458
I1
F85.0
sI2
F225.0
sI3
F9.0
sI6
F1.5
sI7
F1.0055401
sI8
F1.6111113
sI9
F1.2895594
sI10
F16.185184
sI11
F14.444445
sI12
F12.777778
sI13
F21.333334
sI14
F-5.2222223
sI15
F-10.222222
sI16
F15.444445
sI17
F21.333334
sI18
F0.40115124
sI19
F1.8910155
ssbsg16
g0
(g17
g2
Ntp2459
Rp2460
(dp2461
g21
I1
sbsba(ics475_types
Instance
p2462
(dp2463
g11
(ics475_types
FeatureVector
p2464
(dp2465
g14
(dp2466
I1
F152.0
sI2
F199.0
sI3
F9.0
sI6
F1.111111
sI7
F0.5185188
sI8
F0.8333337
sI9
F0.2555551
sI10
F17.962963
sI11
F15.222222
sI12
F15.444445
sI13
F23.222221
sI14
F-8.222222
sI15
F-7.5555553
sI16
F15.777778
sI17
F23.222221
sI18
F0.34806257
sI19
F2.129513
ssbsg16
g0
(g17
g2
Ntp2467
Rp2468
(dp2469
g21
I1
sbsba(ics475_types
Instance
p2470
(dp2471
g11
(ics475_types
FeatureVector
p2472
(dp2473
g14
(dp2474
I1
F45.0
sI2
F89.0
sI3
F9.0
sI6
F0.7777777
sI7
F0.3407409
sI8
F0.77777773
sI9
F0.47407398
sI10
F2.2962964
sI11
F0.11111111
sI12
F6.4444447
sI13
F0.33333334
sI14
F-6.5555553
sI15
F12.444445
sI16
F-5.888889
sI17
F6.4444447
sI18
F0.9861111
sI19
F-2.1239047
ssbsg16
g0
(g17
g2
Ntp2475
Rp2476
(dp2477
g21
I0
sbsba(ics475_types
Instance
p2478
(dp2479
g11
(ics475_types
FeatureVector
p2480
(dp2481
g14
(dp2482
I1
F220.0
sI2
F220.0
sI3
F9.0
sI4
F0.11111111
sI6
F2.277778
sI7
F1.12963
sI8
F2.2777777
sI9
F4.151854
sI10
F6.4444447
sI11
F5.6666665
sI12
F5.3333335
sI13
F8.333334
sI14
F-2.3333333
sI15
F-3.3333333
sI16
F5.6666665
sI17
F8.333334
sI18
F0.42735383
sI19
F1.9843658
ssbsg16
g0
(g17
g2
Ntp2483
Rp2484
(dp2485
g21
I1
sbsba(ics475_types
Instance
p2486
(dp2487
g11
(ics475_types
FeatureVector
p2488
(dp2489
g14
(dp2490
I1
F200.0
sI2
F245.0
sI3
F9.0
sI4
F0.11111111
sI6
F1.4999999
sI7
F0.9222229
sI8
F1.0555552
sI9
F0.5074078
sI10
F16.11111
sI11
F11.888889
sI12
F15.0
sI13
F21.444445
sI14
F-12.666667
sI15
F-3.3333333
sI16
F16.0
sI17
F21.444445
sI18
F0.44538036
sI19
F2.432783
ssbsg16
g0
(g17
g2
Ntp2491
Rp2492
(dp2493
g21
I1
sbsba(ics475_types
Instance
p2494
(dp2495
g11
(ics475_types
FeatureVector
p2496
(dp2497
g14
(dp2498
I1
F51.0
sI2
F237.0
sI3
F9.0
sI4
F0.11111111
sI6
F2.5555556
sI7
F2.5356712
sI8
F2.3333333
sI9
F1.2292727
sI10
F14.148149
sI11
F11.111111
sI12
F13.0
sI13
F18.333334
sI14
F-9.111111
sI15
F-3.4444444
sI16
F12.555555
sI17
F18.333334
sI18
F0.39798474
sI19
F2.3784301
ssbsg16
g0
(g17
g2
Ntp2499
Rp2500
(dp2501
g21
I1
sbsba(ics475_types
Instance
p2502
(dp2503
g11
(ics475_types
FeatureVector
p2504
(dp2505
g14
(dp2506
I1
F39.0
sI2
F124.0
sI3
F9.0
sI5
F0.11111111
sI6
F5.3333335
sI7
F4.774935
sI8
F6.5000005
sI9
F4.544838
sI10
F7.5925927
sI11
F4.111111
sI12
F12.888889
sI13
F5.7777777
sI14
F-10.444445
sI15
F15.888889
sI16
F-5.4444447
sI17
F12.888889
sI18
F0.7721516
sI19
F-2.2657473
ssbsg16
g0
(g17
g2
Ntp2507
Rp2508
(dp2509
g21
I0
sbsba(ics475_types
Instance
p2510
(dp2511
g11
(ics475_types
FeatureVector
p2512
(dp2513
g14
(dp2514
I1
F129.0
sI2
F91.0
sI3
F9.0
sI5
F0.11111111
sI6
F27.277779
sI7
F752.24066
sI8
F25.277779
sI9
F377.9295
sI10
F44.296295
sI11
F38.444443
sI12
F52.666668
sI13
F41.77778
sI14
F-17.555555
sI15
F25.11111
sI16
F-7.5555553
sI17
F52.666668
sI18
F0.34888473
sI19
F-2.3202722
ssbsg16
g0
(g17
g2
Ntp2515
Rp2516
(dp2517
g21
I0
sbsba(ics475_types
Instance
p2518
(dp2519
g11
(ics475_types
FeatureVector
p2520
(dp2521
g14
(dp2522
I1
F34.0
sI2
F164.0
sI3
F9.0
sI6
F0.888889
sI7
F0.40368673
sI8
F1.2777778
sI9
F0.49065349
sI10
F11.333333
sI11
F9.222222
sI12
F10.333334
sI13
F14.444445
sI14
F-6.3333335
sI15
F-3.0
sI16
F9.333333
sI17
F14.444445
sI18
F0.367923
sI19
F2.291118
ssbsg16
g0
(g17
g2
Ntp2523
Rp2524
(dp2525
g21
I1
sbsba(ics475_types
Instance
p2526
(dp2527
g11
(ics475_types
FeatureVector
p2528
(dp2529
g14
(dp2530
I1
F196.0
sI2
F93.0
sI3
F9.0
sI6
F1.7777777
sI7
F2.562963
sI8
F1.5
sI9
F0.92222214
sI10
F5.0
sI11
F2.0
sI12
F9.333334
sI13
F3.6666667
sI14
F-9.0
sI15
F13.0
sI16
F-4.0
sI17
F9.333334
sI18
F0.8086198
sI19
F-2.3294232
ssbsg16
g0
(g17
g2
Ntp2531
Rp2532
(dp2533
g21
I0
sbsba(ics475_types
Instance
p2534
(dp2535
g11
(ics475_types
FeatureVector
p2536
(dp2537
g14
(dp2538
I1
F226.0
sI2
F69.0
sI3
F9.0
sI5
F0.11111111
sI6
F19.111113
sI7
F991.7184
sI8
F20.444445
sI9
F1039.5408
sI10
F23.814816
sI11
F19.222221
sI12
F29.333334
sI13
F22.88889
sI14
F-13.777778
sI15
F16.555555
sI16
F-2.7777777
sI17
F29.333334
sI18
F0.5089938
sI19
F-2.488979
ssbsg16
g0
(g17
g2
Ntp2539
Rp2540
(dp2541
g21
I0
sbsba(ics475_types
Instance
p2542
(dp2543
g11
(ics475_types
FeatureVector
p2544
(dp2545
g14
(dp2546
I1
F214.0
sI2
F236.0
sI3
F9.0
sI6
F0.5
sI7
F0.25555578
sI8
F3.7777774
sI9
F1.3629639
sI10
F16.592592
sI11
F12.888889
sI12
F14.666667
sI13
F22.222221
sI14
F-11.111111
sI15
F-5.7777777
sI16
F16.88889
sI17
F22.222221
sI18
F0.41959706
sI19
F2.3066785
ssbsg16
g0
(g17
g2
Ntp2547
Rp2548
(dp2549
g21
I1
sbsba(ics475_types
Instance
p2550
(dp2551
g11
(ics475_types
FeatureVector
p2552
(dp2553
g14
(dp2554
I1
F222.0
sI2
F244.0
sI3
F9.0
sI4
F0.11111111
sI6
F2.9444444
sI7
F0.640741
sI8
F2.2777777
sI9
F2.151852
sI10
F10.37037
sI11
F9.666667
sI12
F9.777778
sI13
F11.666667
sI14
F-2.1111112
sI15
F-1.7777778
sI16
F3.8888888
sI17
F11.888889
sI18
F0.22648169
sI19
F2.32339
ssbsg16
g0
(g17
g2
Ntp2555
Rp2556
(dp2557
g21
I1
sbsba(ics475_types
Instance
p2558
(dp2559
g11
(ics475_types
FeatureVector
p2560
(dp2561
g14
(dp2562
I1
F161.0
sI2
F176.0
sI3
F9.0
sI6
F0.38888898
sI7
F0.15185188
sI8
F1.1666666
sI9
F0.3888888
sI10
F13.0
sI11
F10.111111
sI12
F11.777778
sI13
F17.11111
sI14
F-8.666667
sI15
F-3.6666667
sI16
F12.333333
sI17
F17.11111
sI18
F0.40773422
sI19
F2.3406181
ssbsg16
g0
(g17
g2
Ntp2563
Rp2564
(dp2565
g21
I1
sbsba(ics475_types
Instance
p2566
(dp2567
g11
(ics475_types
FeatureVector
p2568
(dp2569
g14
(dp2570
I1
F238.0
sI2
F180.0
sI3
F9.0
sI4
F0.11111111
sI6
F0.55555564
sI7
F0.34074086
sI8
F1.7222222
sI9
F1.6629628
sI10
F13.592592
sI11
F11.111111
sI12
F11.888889
sI13
F17.777779
sI14
F-7.4444447
sI15
F-5.111111
sI16
F12.555555
sI17
F17.777779
sI18
F0.3762527
sI19
F2.2128983
ssbsg16
g0
(g17
g2
Ntp2571
Rp2572
(dp2573
g21
I1
sbsba(ics475_types
Instance
p2574
(dp2575
g11
(ics475_types
FeatureVector
p2576
(dp2577
g14
(dp2578
I1
F206.0
sI2
F80.0
sI3
F9.0
sI6
F4.888889
sI7
F14.829629
sI8
F3.8333333
sI9
F36.12222
sI10
F10.037037
sI11
F6.5555553
sI12
F15.111111
sI13
F8.444445
sI14
F-10.444445
sI15
F15.222222
sI16
F-4.7777777
sI17
F15.111111
sI18
F0.59776545
sI19
F-2.3262568
ssbsg16
g0
(g17
g2
Ntp2579
Rp2580
(dp2581
g21
I0
sbsba(ics475_types
Instance
p2582
(dp2583
g11
(ics475_types
FeatureVector
p2584
(dp2585
g14
(dp2586
I1
F3.0
sI2
F106.0
sI3
F9.0
sI6
F0.22222222
sI7
F0.17213261
sI8
F0.11111111
sI9
F0.17213261
sI10
F0.5555556
sI12
F1.6666666
sI14
F-1.6666666
sI15
F3.3333333
sI16
F-1.6666666
sI17
F1.6666666
sI18
F1.0
sI19
F-2.0943952
ssbsg16
g0
(g17
g2
Ntp2587
Rp2588
(dp2589
g21
I0
sbsba(ics475_types
Instance
p2590
(dp2591
g11
(ics475_types
FeatureVector
p2592
(dp2593
g14
(dp2594
I1
F197.0
sI2
F105.0
sI3
F9.0
sI6
F3.7222223
sI7
F15.662961
sI8
F3.6666663
sI9
F14.400001
sI10
F4.148148
sI11
F1.6666666
sI12
F8.333334
sI13
F2.4444444
sI14
F-7.4444447
sI15
F12.555555
sI16
F-5.111111
sI17
F8.333334
sI18
F0.88604844
sI19
F-2.2054374
ssbsg16
g0
(g17
g2
Ntp2595
Rp2596
(dp2597
g21
I0
sbsba(ics475_types
Instance
p2598
(dp2599
g11
(ics475_types
FeatureVector
p2600
(dp2601
g14
(dp2602
I1
F73.0
sI2
F164.0
sI3
F9.0
sI6
F0.94444436
sI7
F0.5741329
sI8
F1.888889
sI9
F1.0470407
sI10
F23.148148
sI11
F21.777779
sI12
F19.11111
sI13
F28.555555
sI14
F-4.111111
sI15
F-12.111111
sI16
F16.222221
sI17
F28.555555
sI18
F0.330345
sI19
F1.7983025
ssbsg16
g0
(g17
g2
Ntp2603
Rp2604
(dp2605
g21
I1
sbsba(ics475_types
Instance
p2606
(dp2607
g11
(ics475_types
FeatureVector
p2608
(dp2609
g14
(dp2610
I1
F115.0
sI2
F202.0
sI3
F9.0
sI4
F0.11111111
sI6
F1.611111
sI7
F0.24074046
sI8
F2.388889
sI9
F2.596295
sI10
F15.148149
sI11
F11.666667
sI12
F14.0
sI13
F19.777779
sI14
F-10.444445
sI15
F-3.4444444
sI16
F13.888889
sI17
F19.777779
sI18
F0.40993193
sI19
F2.401137
ssbsg16
g0
(g17
g2
Ntp2611
Rp2612
(dp2613
g21
I1
sbsba(ics475_types
Instance
p2614
(dp2615
g11
(ics475_types
FeatureVector
p2616
(dp2617
g14
(dp2618
I1
F126.0
sI2
F80.0
sI3
F9.0
sI6
F21.055555
sI7
F530.5518
sI8
F34.61111
sI9
F409.39636
sI10
F68.77778
sI11
F60.333332
sI12
F79.55556
sI13
F66.44444
sI14
F-25.333334
sI15
F32.333332
sI16
F-7.0
sI17
F79.55556
sI18
F0.28962377
sI19
F-2.4341934
ssbsg16
g0
(g17
g2
Ntp2619
Rp2620
(dp2621
g21
I0
sbsba(ics475_types
Instance
p2622
(dp2623
g11
(ics475_types
FeatureVector
p2624
(dp2625
g14
(dp2626
I1
F57.0
sI2
F177.0
sI3
F9.0
sI6
F0.94444495
sI7
F0.55185163
sI8
F1.4444443
sI9
F1.71852
sI10
F19.592592
sI11
F15.777778
sI12
F18.444445
sI13
F24.555555
sI14
F-11.444445
sI15
F-3.4444444
sI16
F14.888889
sI17
F24.555555
sI18
F0.3589904
sI19
F2.413262
ssbsg16
g0
(g17
g2
Ntp2627
Rp2628
(dp2629
g21
I1
sbsba(ics475_types
Instance
p2630
(dp2631
g11
(ics475_types
FeatureVector
p2632
(dp2633
g14
(dp2634
I1
F21.0
sI2
F122.0
sI3
F9.0
sI6
F0.44444445
sI7
F0.4036867
sI8
F0.44444445
sI9
F0.4036867
sI10
F0.5555556
sI12
F1.2222222
sI13
F0.44444445
sI14
F-1.6666666
sI15
F2.0
sI16
F-0.33333334
sI17
F1.2222222
sI18
F0.5555556
sI19
F-2.4445627
ssbsg16
g0
(g17
g2
Ntp2635
Rp2636
(dp2637
g21
I0
sbsba(ics475_types
Instance
p2638
(dp2639
g11
(ics475_types
FeatureVector
p2640
(dp2641
g14
(dp2642
I1
F9.0
sI2
F80.0
sI3
F9.0
sI6
F2.9444444
sI7
F13.751853
sI8
F16.666666
sI9
F71.5111
sI10
F23.62963
sI11
F17.333334
sI12
F31.666666
sI13
F21.88889
sI14
F-18.88889
sI15
F24.11111
sI16
F-5.2222223
sI17
F31.666666
sI18
F0.5142537
sI19
F-2.4315135
ssbsg16
g0
(g17
g2
Ntp2643
Rp2644
(dp2645
g21
I0
sbsba(ics475_types
Instance
p2646
(dp2647
g11
(ics475_types
FeatureVector
p2648
(dp2649
g14
(dp2650
I1
F96.0
sI2
F119.0
sI3
F9.0
sI6
F0.3333333
sI7
F0.08888888
sI8
F0.5555555
sI9
F0.20740744
sI10
F1.4444444
sI12
F4.2222223
sI13
F0.11111111
sI14
F-4.3333335
sI15
F8.333333
sI16
F-4.0
sI17
F4.2222223
sI18
F1.0
sI19
F-2.1137195
ssbsg16
g0
(g17
g2
Ntp2651
Rp2652
(dp2653
g21
I0
sbsba(ics475_types
Instance
p2654
(dp2655
g11
(ics475_types
FeatureVector
p2656
(dp2657
g14
(dp2658
I1
F29.0
sI2
F184.0
sI3
F9.0
sI6
F1.6111107
sI7
F1.0628402
sI8
F2.6666667
sI9
F1.8973663
sI10
F13.62963
sI11
F11.444445
sI12
F11.333333
sI13
F18.11111
sI14
F-6.5555553
sI15
F-6.888889
sI16
F13.444445
sI17
F18.11111
sI18
F0.3876632
sI19
F2.080445
ssbsg16
g0
(g17
g2
Ntp2659
Rp2660
(dp2661
g21
I1
sbsba(ics475_types
Instance
p2662
(dp2663
g11
(ics475_types
FeatureVector
p2664
(dp2665
g14
(dp2666
I1
F17.0
sI2
F85.0
sI3
F9.0
sI4
F0.11111111
sI6
F0.8888889
sI7
F0.72008216
sI8
F1.111111
sI9
F0.7200825
sI10
F1.7777778
sI11
F0.44444445
sI12
F3.4444444
sI13
F1.4444444
sI14
F-4.0
sI15
F5.0
sI16
F-1.0
sI17
F3.4444444
sI18
F0.912963
sI19
F-2.3776238
ssbsg16
g0
(g17
g2
Ntp2667
Rp2668
(dp2669
g21
I0
sbsba(ics475_types
Instance
p2670
(dp2671
g11
(ics475_types
FeatureVector
p2672
(dp2673
g14
(dp2674
I1
F244.0
sI2
F193.0
sI3
F9.0
sI6
F2.0555556
sI7
F2.225275
sI8
F3.8888886
sI9
F3.631141
sI10
F16.185184
sI11
F13.333333
sI12
F14.222222
sI13
F21.0
sI14
F-8.555555
sI15
F-5.888889
sI16
F14.444445
sI17
F21.0
sI18
F0.37887058
sI19
F2.2221026
ssbsg16
g0
(g17
g2
Ntp2675
Rp2676
(dp2677
g21
I1
sbsba(ics475_types
Instance
p2678
(dp2679
g11
(ics475_types
FeatureVector
p2680
(dp2681
g14
(dp2682
I1
F75.0
sI2
F226.0
sI3
F9.0
sI6
F2.2222226
sI7
F0.6554613
sI8
F1.611111
sI9
F1.0201668
sI10
F16.703703
sI11
F15.333333
sI12
F13.0
sI13
F21.777779
sI14
F-4.111111
sI15
F-11.111111
sI16
F15.222222
sI17
F21.777779
sI18
F0.40474883
sI19
F1.8223403
ssbsg16
g0
(g17
g2
Ntp2683
Rp2684
(dp2685
g21
I1
sbsba(ics475_types
Instance
p2686
(dp2687
g11
(ics475_types
FeatureVector
p2688
(dp2689
g14
(dp2690
I1
F19.0
sI2
F145.0
sI3
F9.0
sI6
F0.88888884
sI7
F1.674074
sI8
F2.111111
sI9
F4.3851857
sI10
F2.074074
sI11
F0.6666667
sI12
F3.5555556
sI13
F2.0
sI14
F-4.2222223
sI15
F4.4444447
sI16
F-0.22222222
sI17
F3.5555556
sI18
F0.45767197
sI19
F-2.5697682
ssbsg16
g0
(g17
g2
Ntp2691
Rp2692
(dp2693
g21
I0
sbsba(ics475_types
Instance
p2694
(dp2695
g11
(ics475_types
FeatureVector
p2696
(dp2697
g14
(dp2698
I1
F47.0
sI2
F127.0
sI3
F9.0
sI6
F1.166667
sI7
F0.9603239
sI8
F1.0555559
sI9
F0.49065298
sI10
F17.592592
sI11
F9.0
sI12
F30.11111
sI13
F13.666667
sI14
F-25.777779
sI15
F37.555557
sI16
F-11.777778
sI17
F30.11111
sI18
F0.70147634
sI19
F-2.326275
ssbsg16
g0
(g17
g2
Ntp2699
Rp2700
(dp2701
g21
I0
sbsba(ics475_types
Instance
p2702
(dp2703
g11
(ics475_types
FeatureVector
p2704
(dp2705
g14
(dp2706
I1
F18.0
sI2
F142.0
sI3
F9.0
sI6
F0.77777773
sI7
F0.65185183
sI8
F0.2777778
sI9
F0.15185186
sI10
F0.5555556
sI11
F0.11111111
sI12
F1.3333334
sI13
F0.22222222
sI14
F-1.3333334
sI15
F2.3333333
sI16
F-1.0
sI17
F1.3333334
sI18
F0.41666666
sI19
F-2.1595633
ssbsg16
g0
(g17
g2
Ntp2707
Rp2708
(dp2709
g21
I0
sbsba(ics475_types
Instance
p2710
(dp2711
g11
(ics475_types
FeatureVector
p2712
(dp2713
g14
(dp2714
I1
F156.0
sI2
F181.0
sI3
F9.0
sI6
F0.49999985
sI7
F0.34960297
sI8
F1.4999999
sI9
F0.50552523
sI10
F11.666667
sI11
F9.0
sI12
F9.777778
sI13
F16.222223
sI14
F-8.0
sI15
F-5.6666665
sI16
F13.666667
sI17
F16.222223
sI18
F0.44597858
sI19
F2.2066422
ssbsg16
g0
(g17
g2
Ntp2715
Rp2716
(dp2717
g21
I1
sbsba(ics475_types
Instance
p2718
(dp2719
g11
(ics475_types
FeatureVector
p2720
(dp2721
g14
(dp2722
I1
F7.0
sI2
F134.0
sI3
F9.0
sI6
F0.055555563
sI7
F0.018518524
sI8
F0.055555556
sI9
F0.01851852
sI10
F0.037037037
sI12
F0.11111111
sI14
F-0.11111111
sI15
F0.22222222
sI16
F-0.11111111
sI17
F0.11111111
sI18
F0.11111111
sI19
F-2.0943952
ssbsg16
g0
(g17
g2
Ntp2723
Rp2724
(dp2725
g21
I0
sbsba(ics475_types
Instance
p2726
(dp2727
g11
(ics475_types
FeatureVector
p2728
(dp2729
g14
(dp2730
I1
F68.0
sI2
F127.0
sI3
F9.0
sI6
F1.0555553
sI7
F0.97562903
sI8
F1.2777777
sI9
F0.8277589
sI10
F16.37037
sI11
F10.888889
sI12
F26.444445
sI13
F11.777778
sI14
F-16.444445
sI15
F30.222221
sI16
F-13.777778
sI17
F26.444445
sI18
F0.6014436
sI19
F-2.0358076
ssbsg16
g0
(g17
g2
Ntp2731
Rp2732
(dp2733
g21
I0
sbsba(ics475_types
Instance
p2734
(dp2735
g11
(ics475_types
FeatureVector
p2736
(dp2737
g14
(dp2738
I1
F20.0
sI2
F137.0
sI3
F9.0
sI6
F0.11111113
sI7
F0.029629631
sI8
F0.27777782
sI9
F0.018518519
sI10
F0.22222222
sI12
F0.6666667
sI14
F-0.6666667
sI15
F1.3333334
sI16
F-0.6666667
sI17
F0.6666667
sI18
F0.6666667
sI19
F-2.0943952
ssbsg16
g0
(g17
g2
Ntp2739
Rp2740
(dp2741
g21
I0
sbsba(ics475_types
Instance
p2742
(dp2743
g11
(ics475_types
FeatureVector
p2744
(dp2745
g14
(dp2746
I1
F197.0
sI2
F236.0
sI3
F9.0
sI6
F2.4444444
sI7
F6.829628
sI8
F3.3333333
sI9
F7.599998
sI10
F16.074074
sI11
F13.111111
sI12
F16.666668
sI13
F18.444445
sI14
F-8.888889
sI15
F1.7777778
sI16
F7.111111
sI17
F18.555555
sI18
F0.29272884
sI19
F2.7898002
ssbsg16
g0
(g17
g2
Ntp2747
Rp2748
(dp2749
g21
I1
sbsba(ics475_types
Instance
p2750
(dp2751
g11
(ics475_types
FeatureVector
p2752
(dp2753
g14
(dp2754
I1
F163.0
sI2
F166.0
sI3
F9.0
sI6
F1.7777776
sI7
F1.0962971
sI8
F2.444445
sI9
F1.0518519
sI10
F16.962963
sI11
F12.333333
sI12
F16.333334
sI13
F22.222221
sI14
F-13.888889
sI15
F-1.8888888
sI16
F15.777778
sI17
F22.222221
sI18
F0.4462137
sI19
F2.5158255
ssbsg16
g0
(g17
g2
Ntp2755
Rp2756
(dp2757
g21
I1
sbsba(ics475_types
Instance
p2758
(dp2759
g11
(ics475_types
FeatureVector
p2760
(dp2761
g14
(dp2762
I1
F129.0
sI2
F176.0
sI3
F9.0
sI6
F1.4444443
sI7
F0.65546167
sI8
F2.722222
sI9
F1.5408025
sI10
F22.74074
sI11
F19.444445
sI12
F19.777779
sI13
F29.0
sI14
F-9.888889
sI15
F-8.888889
sI16
F18.777779
sI17
F29.0
sI18
F0.33502117
sI19
F2.1269014
ssbsg16
g0
(g17
g2
Ntp2763
Rp2764
(dp2765
g21
I1
sbsba(ics475_types
Instance
p2766
(dp2767
g11
(ics475_types
FeatureVector
p2768
(dp2769
g14
(dp2770
I1
F44.0
sI2
F233.0
sI3
F9.0
sI6
F2.2222219
sI7
F2.1464872
sI8
F2.111111
sI9
F1.3277657
sI10
F14.481482
sI11
F12.555555
sI12
F11.333333
sI13
F19.555555
sI14
F-5.7777777
sI15
F-9.444445
sI16
F15.222222
sI17
F19.555555
sI18
F0.42217422
sI19
F1.9504046
ssbsg16
g0
(g17
g2
Ntp2771
Rp2772
(dp2773
g21
I1
sbsba(ics475_types
Instance
p2774
(dp2775
g11
(ics475_types
FeatureVector
p2776
(dp2777
g14
(dp2778
I1
F112.0
sI2
F201.0
sI3
F9.0
sI6
F2.833333
sI7
F1.2952907
sI8
F3.111111
sI9
F1.7847089
sI10
F21.296297
sI11
F16.666668
sI12
F20.333334
sI13
F26.88889
sI14
F-13.888889
sI15
F-2.8888888
sI16
F16.777779
sI17
F26.88889
sI18
F0.3819119
sI19
F2.4679377
ssbsg16
g0
(g17
g2
Ntp2779
Rp2780
(dp2781
g21
I1
sbsba(ics475_types
Instance
p2782
(dp2783
g11
(ics475_types
FeatureVector
p2784
(dp2785
g14
(dp2786
I1
F58.0
sI2
F232.0
sI3
F9.0
sI6
F2.5000005
sI7
F1.4555542
sI8
F2.5555556
sI9
F0.829629
sI10
F14.703704
sI11
F11.222222
sI12
F13.555555
sI13
F19.333334
sI14
F-10.444445
sI15
F-3.4444444
sI16
F13.888889
sI17
F19.333334
sI18
F0.42348316
sI19
F2.402851
ssbsg16
g0
(g17
g2
Ntp2787
Rp2788
(dp2789
g21
I1
sbsba(ics475_types
Instance
p2790
(dp2791
g11
(ics475_types
FeatureVector
p2792
(dp2793
g14
(dp2794
I1
F204.0
sI2
F116.0
sI3
F9.0
sI6
F1.0555555
sI7
F1.262963
sI8
F1.0555556
sI9
F1.4407407
sI10
F2.1851852
sI11
F0.33333334
sI12
F5.111111
sI13
F1.1111112
sI14
F-5.5555553
sI15
F8.777778
sI16
F-3.2222223
sI17
F5.111111
sI18
F0.96141976
sI19
F-2.2490795
ssbsg16
g0
(g17
g2
Ntp2795
Rp2796
(dp2797
g21
I0
sbsba(ics475_types
Instance
p2798
(dp2799
g11
(ics475_types
FeatureVector
p2800
(dp2801
g14
(dp2802
I1
F6.0
sI2
F118.0
sI3
F9.0
sI6
F0.055555563
sI7
F0.13608278
sI8
F0.055555563
sI9
F0.13608278
sI10
F0.037037037
sI12
F0.11111111
sI14
F-0.11111111
sI15
F0.22222222
sI16
F-0.11111111
sI17
F0.11111111
sI18
F0.11111111
sI19
F-2.0943952
ssbsg16
g0
(g17
g2
Ntp2803
Rp2804
(dp2805
g21
I0
sbsba(ics475_types
Instance
p2806
(dp2807
g11
(ics475_types
FeatureVector
p2808
(dp2809
g14
(dp2810
I1
F99.0
sI2
F130.0
sI3
F9.0
sI6
F0.5555555
sI7
F0.45542014
sI8
F0.5555555
sI9
F0.5443311
sI10
F1.3703704
sI11
F0.11111111
sI12
F3.3333333
sI13
F0.6666667
sI14
F-3.7777777
sI15
F5.888889
sI16
F-2.1111112
sI17
F3.3333333
sI18
F0.9777778
sI19
F-2.2390292
ssbsg16
g0
(g17
g2
Ntp2811
Rp2812
(dp2813
g21
I0
sbsba(ics475_types
Instance
p2814
(dp2815
g11
(ics475_types
FeatureVector
p2816
(dp2817
g14
(dp2818
I1
F87.0
sI2
F135.0
sI3
F9.0
sI6
F0.38888887
sI7
F0.24074073
sI8
F0.33333334
sI9
F0.17777777
sI10
F0.962963
sI12
F2.7777777
sI13
F0.11111111
sI14
F-2.8888888
sI15
F5.4444447
sI16
F-2.5555556
sI17
F2.7777777
sI18
F1.0
sI19
F-2.1175485
ssbsg16
g0
(g17
g2
Ntp2819
Rp2820
(dp2821
g21
I0
sbsba(ics475_types
Instance
p2822
(dp2823
g11
(ics475_types
FeatureVector
p2824
(dp2825
g14
(dp2826
I1
F6.0
sI2
F217.0
sI3
F9.0
sI6
F2.111111
sI7
F5.0962963
sI8
F3.944444
sI9
F12.50741
sI10
F14.555555
sI11
F11.444445
sI12
F13.333333
sI13
F18.88889
sI14
F-9.333333
sI15
F-3.6666667
sI16
F13.0
sI17
F18.88889
sI18
F0.39533988
sI19
F2.3638706
ssbsg16
g0
(g17
g2
Ntp2827
Rp2828
(dp2829
g21
I1
sbsba(ics475_types
Instance
p2830
(dp2831
g11
(ics475_types
FeatureVector
p2832
(dp2833
g14
(dp2834
I1
F195.0
sI2
F99.0
sI3
F9.0
sI6
F3.0555553
sI7
F4.462964
sI8
F2.7777777
sI9
F4.651851
sI10
F6.740741
sI11
F3.4444444
sI12
F11.555555
sI13
F5.2222223
sI14
F-9.888889
sI15
F14.444445
sI16
F-4.5555553
sI17
F11.555555
sI18
F0.71189785
sI19
F-2.318885
ssbsg16
g0
(g17
g2
Ntp2835
Rp2836
(dp2837
g21
I0
sbsba(ics475_types
Instance
p2838
(dp2839
g11
(ics475_types
FeatureVector
p2840
(dp2841
g14
(dp2842
I1
F101.0
sI2
F121.0
sI3
F9.0
sI4
F0.11111111
sI6
F0.6666667
sI7
F0.843274
sI8
F1.5
sI9
F0.88819396
sI10
F3.4074075
sI11
F1.1111112
sI12
F6.0
sI13
F3.1111112
sI14
F-6.888889
sI15
F7.7777777
sI16
F-0.8888889
sI17
F6.0
sI18
F0.8435185
sI19
F-2.5191648
ssbsg16
g0
(g17
g2
Ntp2843
Rp2844
(dp2845
g21
I0
sbsba(ics475_types
Instance
p2846
(dp2847
g11
(ics475_types
FeatureVector
p2848
(dp2849
g14
(dp2850
I1
F115.0
sI2
F111.0
sI3
F9.0
sI6
F0.55555564
sI7
F0.40368685
sI8
F1.9444437
sI9
F1.0417223
sI10
F18.037037
sI11
F9.666667
sI12
F30.11111
sI13
F14.333333
sI14
F-25.11111
sI15
F36.22222
sI16
F-11.111111
sI17
F30.11111
sI18
F0.67951304
sI19
F-2.3333182
ssbsg16
g0
(g17
g2
Ntp2851
Rp2852
(dp2853
g21
I0
sbsba(ics475_types
Instance
p2854
(dp2855
g11
(ics475_types
FeatureVector
p2856
(dp2857
g14
(dp2858
I1
F111.0
sI2
F246.0
sI3
F9.0
sI6
F3.166667
sI7
F2.0949678
sI8
F5.833334
sI9
F4.113663
sI10
F25.88889
sI11
F21.11111
sI12
F22.444445
sI13
F34.11111
sI14
F-14.333333
sI15
F-10.333333
sI16
F24.666666
sI17
F34.11111
sI18
F0.38897294
sI19
F2.2140112
ssbsg16
g0
(g17
g2
Ntp2859
Rp2860
(dp2861
g21
I1
sbsba(ics475_types
Instance
p2862
(dp2863
g11
(ics475_types
FeatureVector
p2864
(dp2865
g14
(dp2866
I1
F228.0
sI2
F182.0
sI3
F9.0
sI4
F0.11111111
sI6
F0.88888854
sI7
F0.68853056
sI8
F0.7777775
sI9
F0.6554615
sI10
F16.777779
sI11
F14.555555
sI12
F12.777778
sI13
F23.0
sI14
F-6.6666665
sI15
F-12.0
sI16
F18.666666
sI17
F23.0
sI18
F0.44435817
sI19
F1.9164191
ssbsg16
g0
(g17
g2
Ntp2867
Rp2868
(dp2869
g21
I1
sbsba(ics475_types
Instance
p2870
(dp2871
g11
(ics475_types
FeatureVector
p2872
(dp2873
g14
(dp2874
I1
F196.0
sI2
F244.0
sI3
F9.0
sI6
F1.277778
sI7
F0.5518518
sI8
F3.6111114
sI9
F6.9518504
sI10
F7.740741
sI11
F6.6666665
sI12
F7.0
sI13
F9.555555
sI14
F-3.2222223
sI15
F-2.2222223
sI16
F5.4444447
sI17
F9.555555
sI18
F0.3833719
sI19
F2.340587
ssbsg16
g0
(g17
g2
Ntp2875
Rp2876
(dp2877
g21
I1
sbsba(ics475_types
Instance
p2878
(dp2879
g11
(ics475_types
FeatureVector
p2880
(dp2881
g14
(dp2882
I1
F103.0
sI2
F125.0
sI3
F9.0
sI6
F0.9444445
sI7
F0.82775915
sI8
F0.83333343
sI9
F0.6912146
sI10
F1.7777778
sI11
F0.44444445
sI12
F3.8888888
sI13
F1.0
sI14
F-4.0
sI15
F6.3333335
sI16
F-2.3333333
sI17
F3.8888888
sI18
F0.9238095
sI19
F-2.2375617
ssbsg16
g0
(g17
g2
Ntp2883
Rp2884
(dp2885
g21
I0
sbsba(ics475_types
Instance
p2886
(dp2887
g11
(ics475_types
FeatureVector
p2888
(dp2889
g14
(dp2890
I1
F45.0
sI2
F108.0
sI3
F9.0
sI5
F0.11111111
sI6
F25.5
sI7
F12.795401
sI8
F27.277779
sI9
F15.930981
sI10
F49.814816
sI11
F41.77778
sI12
F61.11111
sI13
F46.555557
sI14
F-24.11111
sI15
F33.88889
sI16
F-9.777778
sI17
F61.11111
sI18
F0.35897508
sI19
F-2.3604913
ssbsg16
g0
(g17
g2
Ntp2891
Rp2892
(dp2893
g21
I0
sbsba(ics475_types
Instance
p2894
(dp2895
g11
(ics475_types
FeatureVector
p2896
(dp2897
g14
(dp2898
I1
F101.0
sI2
F121.0
sI3
F9.0
sI4
F0.11111111
sI6
F0.6666667
sI7
F0.843274
sI8
F1.5
sI9
F0.88819396
sI10
F3.4074075
sI11
F1.1111112
sI12
F6.0
sI13
F3.1111112
sI14
F-6.888889
sI15
F7.7777777
sI16
F-0.8888889
sI17
F6.0
sI18
F0.8435185
sI19
F-2.5191648
ssbsg16
g0
(g17
g2
Ntp2899
Rp2900
(dp2901
g21
I0
sbsba(ics475_types
Instance
p2902
(dp2903
g11
(ics475_types
FeatureVector
p2904
(dp2905
g14
(dp2906
I1
F49.0
sI2
F95.0
sI3
F9.0
sI6
F1.6666665
sI7
F5.911111
sI8
F3.0
sI9
F3.2888885
sI10
F5.185185
sI11
F2.2222223
sI12
F9.444445
sI13
F3.8888888
sI14
F-8.888889
sI15
F12.777778
sI16
F-3.8888888
sI17
F9.444445
sI18
F0.79410774
sI19
F-2.3264554
ssbsg16
g0
(g17
g2
Ntp2907
Rp2908
(dp2909
g21
I0
sbsba(ics475_types
Instance
p2910
(dp2911
g11
(ics475_types
FeatureVector
p2912
(dp2913
g14
(dp2914
I1
F242.0
sI2
F183.0
sI3
F9.0
sI6
F1.4999999
sI7
F0.9368979
sI8
F2.1666667
sI9
F1.798147
sI10
F15.37037
sI11
F12.666667
sI12
F12.444445
sI13
F21.0
sI14
F-8.111111
sI15
F-8.777778
sI16
F16.88889
sI17
F21.0
sI18
F0.42024404
sI19
F2.0758736
ssbsg16
g0
(g17
g2
Ntp2915
Rp2916
(dp2917
g21
I1
sbsba(ics475_types
Instance
p2918
(dp2919
g11
(ics475_types
FeatureVector
p2920
(dp2921
g14
(dp2922
I1
F118.0
sI2
F133.0
sI3
F9.0
sI6
F0.22222221
sI7
F0.029629631
sI8
F0.22222221
sI9
F0.029629631
sI10
F0.7407407
sI12
F2.2222223
sI14
F-2.2222223
sI15
F4.4444447
sI16
F-2.2222223
sI17
F2.2222223
sI18
F1.0
sI19
F-2.0943952
ssbsg16
g0
(g17
g2
Ntp2923
Rp2924
(dp2925
g21
I0
sbsba(ics475_types
Instance
p2926
(dp2927
g11
(ics475_types
FeatureVector
p2928
(dp2929
g14
(dp2930
I1
F192.0
sI2
F157.0
sI3
F9.0
sI6
F1.0555559
sI7
F0.5074076
sI8
F0.77777797
sI9
F0.16296285
sI10
F18.333334
sI11
F13.888889
sI12
F17.222223
sI13
F23.88889
sI14
F-13.333333
sI15
F-3.3333333
sI16
F16.666666
sI17
F23.88889
sI18
F0.41818407
sI19
F2.4386153
ssbsg16
g0
(g17
g2
Ntp2931
Rp2932
(dp2933
g21
I1
sbsba(ics475_types
Instance
p2934
(dp2935
g11
(ics475_types
FeatureVector
p2936
(dp2937
g14
(dp2938
I1
F96.0
sI2
F138.0
sI3
F9.0
sI6
F0.72222227
sI7
F0.6469301
sI8
F0.94444436
sI9
F0.7123256
sI10
F1.1481482
sI11
F0.11111111
sI12
F2.7777777
sI13
F0.5555556
sI14
F-3.1111112
sI15
F4.888889
sI16
F-1.7777778
sI17
F2.7777777
sI18
F0.9777778
sI19
F-2.219242
ssbsg16
g0
(g17
g2
Ntp2939
Rp2940
(dp2941
g21
I0
sbsba(ics475_types
Instance
p2942
(dp2943
g11
(ics475_types
FeatureVector
p2944
(dp2945
g14
(dp2946
I1
F103.0
sI2
F125.0
sI3
F9.0
sI6
F0.9444445
sI7
F0.82775915
sI8
F0.83333343
sI9
F0.6912146
sI10
F1.7777778
sI11
F0.44444445
sI12
F3.8888888
sI13
F1.0
sI14
F-4.0
sI15
F6.3333335
sI16
F-2.3333333
sI17
F3.8888888
sI18
F0.9238095
sI19
F-2.2375617
ssbsg16
g0
(g17
g2
Ntp2947
Rp2948
(dp2949
g21
I0
sbsba(ics475_types
Instance
p2950
(dp2951
g11
(ics475_types
FeatureVector
p2952
(dp2953
g14
(dp2954
I1
F111.0
sI2
F235.0
sI3
F9.0
sI6
F1.6111107
sI7
F1.3074071
sI8
F2.7222216
sI9
F2.5518525
sI10
F15.62963
sI11
F11.777778
sI12
F15.888889
sI13
F19.222221
sI14
F-11.555555
sI15
F0.7777778
sI16
F10.777778
sI17
F19.222221
sI18
F0.3880957
sI19
F2.6707714
ssbsg16
g0
(g17
g2
Ntp2955
Rp2956
(dp2957
g21
I1
sbsba(ics475_types
Instance
p2958
(dp2959
g11
(ics475_types
FeatureVector
p2960
(dp2961
g14
(dp2962
I1
F114.0
sI2
F238.0
sI3
F9.0
sI6
F1.666667
sI7
F1.1352924
sI8
F1.4444445
sI9
F1.0680548
sI10
F13.62963
sI11
F11.111111
sI12
F10.666667
sI13
F19.11111
sI14
F-7.5555553
sI15
F-8.888889
sI16
F16.444445
sI17
F19.11111
sI18
F0.46145898
sI19
F2.0466826
ssbsg16
g0
(g17
g2
Ntp2963
Rp2964
(dp2965
g21
I1
sbsba(ics475_types
Instance
p2966
(dp2967
g11
(ics475_types
FeatureVector
p2968
(dp2969
g14
(dp2970
I1
F208.0
sI2
F240.0
sI3
F9.0
sI4
F0.11111111
sI6
F1.0555557
sI7
F0.86296326
sI8
F2.4444444
sI9
F5.007407
sI10
F14.148149
sI11
F10.888889
sI12
F13.0
sI13
F18.555555
sI14
F-9.777778
sI15
F-3.4444444
sI16
F13.222222
sI17
F18.555555
sI18
F0.42162097
sI19
F2.3924873
ssbsg16
g0
(g17
g2
Ntp2971
Rp2972
(dp2973
g21
I1
sbsba(ics475_types
Instance
p2974
(dp2975
g11
(ics475_types
FeatureVector
p2976
(dp2977
g14
(dp2978
I1
F56.0
sI2
F243.0
sI3
F9.0
sI6
F2.2222223
sI7
F5.274073
sI8
F2.5555556
sI9
F0.829629
sI10
F6.4814816
sI11
F5.111111
sI12
F4.888889
sI13
F9.444445
sI14
F-4.111111
sI15
F-4.7777777
sI16
F8.888889
sI17
F9.444445
sI18
F0.52543694
sI19
F2.0336287
ssbsg16
g0
(g17
g2
Ntp2979
Rp2980
(dp2981
g21
I1
sbsba(ics475_types
Instance
p2982
(dp2983
g11
(ics475_types
FeatureVector
p2984
(dp2985
g14
(dp2986
I1
F126.0
sI2
F141.0
sI3
F9.0
sI6
F1.3888887
sI7
F1.3518527
sI8
F0.88888884
sI9
F0.8296295
sI10
F3.2592592
sI11
F0.44444445
sI12
F7.6666665
sI13
F1.6666666
sI14
F-8.444445
sI15
F13.222222
sI16
F-4.7777777
sI17
F7.6666665
sI18
F0.95308644
sI19
F-2.2571225
ssbsg16
g0
(g17
g2
Ntp2987
Rp2988
(dp2989
g21
I0
sbsba(ics475_types
Instance
p2990
(dp2991
g11
(ics475_types
FeatureVector
p2992
(dp2993
g14
(dp2994
I1
F211.0
sI2
F206.0
sI3
F9.0
sI6
F0.94444466
sI7
F1.1296302
sI8
F2.166667
sI9
F1.1000005
sI10
F16.074074
sI11
F13.555555
sI12
F14.555555
sI13
F20.11111
sI14
F-7.5555553
sI15
F-4.5555553
sI16
F12.111111
sI17
F20.11111
sI18
F0.3273603
sI19
F2.252368
ssbsg16
g0
(g17
g2
Ntp2995
Rp2996
(dp2997
g21
I1
sbsba(ics475_types
Instance
p2998
(dp2999
g11
(ics475_types
FeatureVector
p3000
(dp3001
g14
(dp3002
I1
F173.0
sI2
F219.0
sI3
F9.0
sI6
F2.7777777
sI7
F3.4962971
sI8
F2.8333333
sI9
F6.6111126
sI10
F5.5925927
sI11
F4.111111
sI12
F4.3333335
sI13
F8.333334
sI14
F-4.4444447
sI15
F-3.7777777
sI16
F8.222222
sI17
F8.333334
sI18
F0.56125355
sI19
F2.1483634
ssbsg16
g0
(g17
g2
Ntp3003
Rp3004
(dp3005
g21
I1
sbsba(ics475_types
Instance
p3006
(dp3007
g11
(ics475_types
FeatureVector
p3008
(dp3009
g14
(dp3010
I1
F75.0
sI2
F113.0
sI3
F9.0
sI5
F0.11111111
sI6
F2.944445
sI7
F4.1226563
sI8
F6.1666665
sI9
F6.2245026
sI10
F27.88889
sI11
F17.11111
sI12
F44.22222
sI13
F22.333334
sI14
F-32.333332
sI15
F49.0
sI16
F-16.666666
sI17
F44.22222
sI18
F0.62207055
sI19
F-2.2966495
ssbsg16
g0
(g17
g2
Ntp3011
Rp3012
(dp3013
g21
I0
sbsba(ics475_types
Instance
p3014
(dp3015
g11
(ics475_types
FeatureVector
p3016
(dp3017
g14
(dp3018
I1
F23.0
sI2
F129.0
sI3
F9.0
sI6
F0.5
sI7
F0.077777795
sI8
F0.38888887
sI9
F0.15185186
sI10
F0.5185185
sI12
F1.5555556
sI14
F-1.5555556
sI15
F3.1111112
sI16
F-1.5555556
sI17
F1.5555556
sI18
F0.7777778
sI19
F-2.0943952
ssbsg16
g0
(g17
g2
Ntp3019
Rp3020
(dp3021
g21
I0
sbsba(ics475_types
Instance
p3022
(dp3023
g11
(ics475_types
FeatureVector
p3024
(dp3025
g14
(dp3026
I1
F235.0
sI2
F81.0
sI3
F9.0
sI6
F1.388889
sI7
F0.41851807
sI8
F0.77777773
sI9
F0.2962964
sI10
F3.4814816
sI11
F1.0
sI12
F7.4444447
sI13
F2.0
sI14
F-7.4444447
sI15
F11.888889
sI16
F-4.4444447
sI17
F7.4444447
sI18
F0.88121694
sI19
F-2.2481337
ssbsg16
g0
(g17
g2
Ntp3027
Rp3028
(dp3029
g21
I0
sbsba(ics475_types
Instance
p3030
(dp3031
g11
(ics475_types
FeatureVector
p3032
(dp3033
g14
(dp3034
I1
F168.0
sI2
F209.0
sI3
F9.0
sI6
F1.3333334
sI7
F0.6666665
sI8
F0.7222217
sI9
F0.7123257
sI10
F22.518518
sI11
F17.666668
sI12
F20.88889
sI13
F29.0
sI14
F-14.555555
sI15
F-4.888889
sI16
F19.444445
sI17
F29.0
sI18
F0.39033788
sI19
F2.3893912
ssbsg16
g0
(g17
g2
Ntp3035
Rp3036
(dp3037
g21
I1
sbsba(ics475_types
Instance
p3038
(dp3039
g11
(ics475_types
FeatureVector
p3040
(dp3041
g14
(dp3042
I1
F63.0
sI2
F220.0
sI3
F9.0
sI6
F3.055556
sI7
F15.2629595
sI8
F3.6666667
sI9
F6.0888896
sI10
F8.185185
sI11
F6.5555553
sI12
F6.4444447
sI13
F11.555555
sI14
F-4.888889
sI15
F-5.2222223
sI16
F10.111111
sI17
F11.555555
sI18
F0.48671728
sI19
F2.0931497
ssbsg16
g0
(g17
g2
Ntp3043
Rp3044
(dp3045
g21
I1
sbsba(ics475_types
Instance
p3046
(dp3047
g11
(ics475_types
FeatureVector
p3048
(dp3049
g14
(dp3050
I1
F72.0
sI2
F191.0
sI3
F9.0
sI4
F0.11111111
sI6
F1.2777777
sI7
F0.5074075
sI8
F3.1111114
sI9
F4.6074066
sI10
F15.185185
sI11
F12.111111
sI12
F14.888889
sI13
F18.555555
sI14
F-9.222222
sI15
F-0.8888889
sI16
F10.111111
sI17
F18.555555
sI18
F0.3503698
sI19
F2.545329
ssbsg16
g0
(g17
g2
Ntp3051
Rp3052
(dp3053
g21
I1
sbsba(ics475_types
Instance
p3054
(dp3055
g11
(ics475_types
FeatureVector
p3056
(dp3057
g14
(dp3058
I1
F20.0
sI2
F248.0
sI3
F9.0
sI6
F1.8333335
sI7
F0.8333331
sI8
F1.6666669
sI9
F1.5999992
sI10
F13.444445
sI11
F10.555555
sI12
F12.111111
sI13
F17.666668
sI14
F-8.666667
sI15
F-4.0
sI16
F12.666667
sI17
F17.666668
sI18
F0.40343738
sI19
F2.3416765
ssbsg16
g0
(g17
g2
Ntp3059
Rp3060
(dp3061
g21
I1
sbsba(ics475_types
Instance
p3062
(dp3063
g11
(ics475_types
FeatureVector
p3064
(dp3065
g14
(dp3066
I1
F59.0
sI2
F87.0
sI3
F9.0
sI5
F0.11111111
sI6
F11.166667
sI7
F84.87777
sI8
F13.222221
sI9
F70.02964
sI10
F17.11111
sI11
F12.222222
sI12
F23.444445
sI13
F15.666667
sI14
F-14.666667
sI15
F19.0
sI16
F-4.3333335
sI17
F23.444445
sI18
F0.65204316
sI19
F-2.4180744
ssbsg16
g0
(g17
g2
Ntp3067
Rp3068
(dp3069
g21
I0
sbsba(ics475_types
Instance
p3070
(dp3071
g11
(ics475_types
FeatureVector
p3072
(dp3073
g14
(dp3074
I1
F2.0
sI2
F198.0
sI3
F9.0
sI4
F0.11111111
sI6
F0.888889
sI7
F0.6206327
sI8
F1.9444448
sI9
F1.3567389
sI10
F12.185185
sI11
F9.666667
sI12
F10.555555
sI13
F16.333334
sI14
F-7.5555553
sI15
F-4.888889
sI16
F12.444445
sI17
F16.333334
sI18
F0.4157716
sI19
F2.2212758
ssbsg16
g0
(g17
g2
Ntp3075
Rp3076
(dp3077
g21
I1
sbsba(ics475_types
Instance
p3078
(dp3079
g11
(ics475_types
FeatureVector
p3080
(dp3081
g14
(dp3082
I1
F131.0
sI2
F214.0
sI3
F9.0
sI6
F0.77777773
sI7
F0.6518515
sI8
F1.2777777
sI9
F0.24074058
sI10
F6.814815
sI11
F5.0
sI12
F4.7777777
sI13
F10.666667
sI14
F-5.4444447
sI15
F-6.111111
sI16
F11.555555
sI17
F10.666667
sI18
F0.5681624
sI19
F2.0583289
ssbsg16
g0
(g17
g2
Ntp3083
Rp3084
(dp3085
g21
I1
sbsba(ics475_types
Instance
p3086
(dp3087
g11
(ics475_types
FeatureVector
p3088
(dp3089
g14
(dp3090
I1
F22.0
sI2
F133.0
sI3
F9.0
ssbsg16
g0
(g17
g2
Ntp3091
Rp3092
(dp3093
g21
I0
sbsba(ics475_types
Instance
p3094
(dp3095
g11
(ics475_types
FeatureVector
p3096
(dp3097
g14
(dp3098
I1
F200.0
sI2
F250.0
sI3
F9.0
sI6
F2.2777777
sI7
F1.420746
sI8
F1.4444445
sI9
F1.0255988
sI10
F9.222222
sI11
F6.5555553
sI12
F7.3333335
sI13
F13.777778
sI14
F-8.0
sI15
F-5.6666665
sI16
F13.666667
sI17
F13.777778
sI18
F0.5633903
sI19
F2.1929355
ssbsg16
g0
(g17
g2
Ntp3099
Rp3100
(dp3101
g21
I1
sbsba(ics475_types
Instance
p3102
(dp3103
g11
(ics475_types
FeatureVector
p3104
(dp3105
g14
(dp3106
I1
F75.0
sI2
F122.0
sI3
F9.0
sI6
F0.72222227
sI7
F0.24074064
sI8
F0.8333333
sI9
F0.38888904
sI10
F1.5925926
sI12
F4.4444447
sI13
F0.33333334
sI14
F-4.7777777
sI15
F8.555555
sI16
F-3.7777777
sI17
F4.4444447
sI18
F1.0
sI19
F-2.1535993
ssbsg16
g0
(g17
g2
Ntp3107
Rp3108
(dp3109
g21
I0
sbsba(ics475_types
Instance
p3110
(dp3111
g11
(ics475_types
FeatureVector
p3112
(dp3113
g14
(dp3114
I1
F80.0
sI2
F203.0
sI3
F9.0
sI6
F1.3888887
sI7
F0.74286735
sI8
F1.9444443
sI9
F1.5263122
sI10
F12.407408
sI11
F10.0
sI12
F9.0
sI13
F18.222221
sI14
F-7.2222223
sI15
F-10.222222
sI16
F17.444445
sI17
F18.222221
sI18
F0.5144446
sI19
F1.9867483
ssbsg16
g0
(g17
g2
Ntp3115
Rp3116
(dp3117
g21
I1
sbsba(ics475_types
Instance
p3118
(dp3119
g11
(ics475_types
FeatureVector
p3120
(dp3121
g14
(dp3122
I1
F238.0
sI2
F162.0
sI3
F9.0
sI4
F0.22222222
sI6
F0.94444466
sI7
F0.7123257
sI8
F2.666667
sI9
F0.73029745
sI10
F19.0
sI11
F15.777778
sI12
F17.333334
sI13
F23.88889
sI14
F-9.666667
sI15
F-5.0
sI16
F14.666667
sI17
F23.88889
sI18
F0.34003016
sI19
F2.2914152
ssbsg16
g0
(g17
g2
Ntp3123
Rp3124
(dp3125
g21
I1
sbsba(ics475_types
Instance
p3126
(dp3127
g11
(ics475_types
FeatureVector
p3128
(dp3129
g14
(dp3130
I1
F153.0
sI2
F204.0
sI3
F9.0
sI4
F0.11111111
sI6
F2.388889
sI7
F1.6920295
sI8
F3.3333333
sI9
F1.3824291
sI10
F19.407408
sI11
F15.333333
sI12
F16.88889
sI13
F26.0
sI14
F-12.222222
sI15
F-7.5555553
sI16
F19.777779
sI17
F26.0
sI18
F0.4203661
sI19
F2.2444103
ssbsg16
g0
(g17
g2
Ntp3131
Rp3132
(dp3133
g21
I1
sbsba(ics475_types
Instance
p3134
(dp3135
g11
(ics475_types
FeatureVector
p3136
(dp3137
g14
(dp3138
I1
F194.0
sI2
F124.0
sI3
F9.0
sI6
F1.4999999
sI7
F0.43333384
sI8
F1.388889
sI9
F0.90740687
sI10
F2.8148148
sI11
F1.0
sI12
F5.5555553
sI13
F1.8888888
sI14
F-5.4444447
sI15
F8.222222
sI16
F-2.7777777
sI17
F5.5555553
sI18
F0.8367725
sI19
F-2.2846084
ssbsg16
g0
(g17
g2
Ntp3139
Rp3140
(dp3141
g21
I0
sbsba(ics475_types
Instance
p3142
(dp3143
g11
(ics475_types
FeatureVector
p3144
(dp3145
g14
(dp3146
I1
F114.0
sI2
F242.0
sI3
F9.0
sI6
F2.7222223
sI7
F2.4532676
sI8
F4.6666675
sI9
F1.9206476
sI10
F24.074074
sI11
F19.222221
sI12
F22.444445
sI13
F30.555555
sI14
F-14.555555
sI15
F-4.888889
sI16
F19.444445
sI17
F30.555555
sI18
F0.3716949
sI19
F2.395778
ssbsg16
g0
(g17
g2
Ntp3147
Rp3148
(dp3149
g21
I1
sbsba(ics475_types
Instance
p3150
(dp3151
g11
(ics475_types
FeatureVector
p3152
(dp3153
g14
(dp3154
I1
F10.0
sI2
F196.0
sI3
F9.0
sI6
F1.2222217
sI7
F1.0470414
sI8
F0.9999997
sI9
F0.8432735
sI10
F15.333333
sI11
F14.111111
sI12
F11.444445
sI13
F20.444445
sI14
F-3.6666667
sI15
F-11.666667
sI16
F15.333333
sI17
F20.444445
sI18
F0.4405804
sI19
F1.789167
ssbsg16
g0
(g17
g2
Ntp3155
Rp3156
(dp3157
g21
I1
sbsba(ics475_types
Instance
p3158
(dp3159
g11
(ics475_types
FeatureVector
p3160
(dp3161
g14
(dp3162
I1
F68.0
sI2
F109.0
sI3
F9.0
sI6
F1.5
sI7
F3.2333333
sI8
F1.111111
sI9
F1.8962961
sI10
F1.962963
sI11
F0.33333334
sI12
F4.7777777
sI13
F0.7777778
sI14
F-4.888889
sI15
F8.444445
sI16
F-3.5555556
sI17
F4.7777777
sI18
F0.9691358
sI19
F-2.146531
ssbsg16
g0
(g17
g2
Ntp3163
Rp3164
(dp3165
g21
I0
sbsba(ics475_types
Instance
p3166
(dp3167
g11
(ics475_types
FeatureVector
p3168
(dp3169
g14
(dp3170
I1
F63.0
sI2
F158.0
sI3
F9.0
sI4
F0.11111111
sI6
F0.99999934
sI7
F1.0540929
sI8
F1.888889
sI9
F1.29386
sI10
F22.185184
sI11
F16.444445
sI12
F22.222221
sI13
F27.88889
sI14
F-17.222221
sI15
F0.11111111
sI16
F17.11111
sI17
F27.88889
sI18
F0.41181073
sI19
F2.6247067
ssbsg16
g0
(g17
g2
Ntp3171
Rp3172
(dp3173
g21
I1
sbsba(ics475_types
Instance
p3174
(dp3175
g11
(ics475_types
FeatureVector
p3176
(dp3177
g14
(dp3178
I1
F115.0
sI2
F183.0
sI3
F9.0
sI6
F1.055555
sI7
F0.7722019
sI8
F4.722222
sI9
F1.0201681
sI10
F19.851852
sI11
F14.555555
sI12
F19.0
sI13
F26.0
sI14
F-15.888889
sI15
F-2.5555556
sI16
F18.444445
sI17
F26.0
sI18
F0.44994184
sI19
F2.5068066
ssbsg16
g0
(g17
g2
Ntp3179
Rp3180
(dp3181
g21
I1
sbsba(ics475_types
Instance
p3182
(dp3183
g11
(ics475_types
FeatureVector
p3184
(dp3185
g14
(dp3186
I1
F247.0
sI2
F197.0
sI3
F9.0
sI6
F0.33333316
sI7
F0.044444434
sI8
F0.611111
sI9
F0.06296301
sI10
F6.0
sI11
F4.111111
sI12
F4.0
sI13
F9.888889
sI14
F-5.6666665
sI15
F-6.0
sI16
F11.666667
sI17
F9.888889
sI18
F0.61705947
sI19
F2.0749567
ssbsg16
g0
(g17
g2
Ntp3187
Rp3188
(dp3189
g21
I1
sbsba(ics475_types
Instance
p3190
(dp3191
g11
(ics475_types
FeatureVector
p3192
(dp3193
g14
(dp3194
I1
F80.0
sI2
F184.0
sI3
F9.0
sI6
F3.444444
sI7
F11.851854
sI8
F4.166667
sI9
F5.8555503
sI10
F17.62963
sI11
F13.555555
sI12
F17.11111
sI13
F22.222221
sI14
F-12.222222
sI15
F-1.5555556
sI16
F13.777778
sI17
F22.222221
sI18
F0.39835298
sI19
F2.524273
ssbsg16
g0
(g17
g2
Ntp3195
Rp3196
(dp3197
g21
I1
sbsba(ics475_types
Instance
p3198
(dp3199
g11
(ics475_types
FeatureVector
p3200
(dp3201
g14
(dp3202
I1
F57.0
sI2
F177.0
sI3
F9.0
sI6
F0.94444495
sI7
F0.55185163
sI8
F1.4444443
sI9
F1.71852
sI10
F19.592592
sI11
F15.777778
sI12
F18.444445
sI13
F24.555555
sI14
F-11.444445
sI15
F-3.4444444
sI16
F14.888889
sI17
F24.555555
sI18
F0.3589904
sI19
F2.413262
ssbsg16
g0
(g17
g2
Ntp3203
Rp3204
(dp3205
g21
I1
sbsba(ics475_types
Instance
p3206
(dp3207
g11
(ics475_types
FeatureVector
p3208
(dp3209
g14
(dp3210
I1
F51.0
sI2
F115.0
sI3
F9.0
sI6
F0.6666667
sI7
F0.48888892
sI8
F1.388889
sI9
F0.6851847
sI10
F2.7037036
sI11
F0.5555556
sI12
F5.6666665
sI13
F1.8888888
sI14
F-6.4444447
sI15
F8.888889
sI16
F-2.4444444
sI17
F5.6666665
sI18
F0.91798943
sI19
F-2.3583865
ssbsg16
g0
(g17
g2
Ntp3211
Rp3212
(dp3213
g21
I0
sbsba(ics475_types
Instance
p3214
(dp3215
g11
(ics475_types
FeatureVector
p3216
(dp3217
g14
(dp3218
I1
F184.0
sI2
F197.0
sI3
F9.0
sI6
F3.0555553
sI7
F3.2551951
sI8
F4.5555553
sI9
F2.7460418
sI10
F11.962963
sI11
F8.888889
sI12
F9.555555
sI13
F17.444445
sI14
F-9.222222
sI15
F-7.2222223
sI16
F16.444445
sI17
F17.444445
sI18
F0.51518697
sI19
F2.164262
ssbsg16
g0
(g17
g2
Ntp3219
Rp3220
(dp3221
g21
I1
sbsba(ics475_types
Instance
p3222
(dp3223
g11
(ics475_types
FeatureVector
p3224
(dp3225
g14
(dp3226
I1
F52.0
sI2
F102.0
sI3
F9.0
sI6
F0.72222227
sI7
F0.50740725
sI8
F0.8333333
sI9
F0.5666668
sI10
F2.8888888
sI11
F0.6666667
sI12
F6.3333335
sI13
F1.6666666
sI14
F-6.6666665
sI15
F10.333333
sI16
F-3.6666667
sI17
F6.3333335
sI18
F0.89973545
sI19
F-2.2617195
ssbsg16
g0
(g17
g2
Ntp3227
Rp3228
(dp3229
g21
I0
sbsba(ics475_types
Instance
p3230
(dp3231
g11
(ics475_types
FeatureVector
p3232
(dp3233
g14
(dp3234
I1
F242.0
sI2
F81.0
sI3
F9.0
sI6
F22.388887
sI7
F189.44075
sI8
F15.166667
sI9
F110.8778
sI10
F41.925926
sI11
F33.11111
sI12
F55.555557
sI13
F37.11111
sI14
F-26.444445
sI15
F40.88889
sI16
F-14.444445
sI17
F55.555557
sI18
F0.42017567
sI19
F-2.2744606
ssbsg16
g0
(g17
g2
Ntp3235
Rp3236
(dp3237
g21
I0
sbsba(ics475_types
Instance
p3238
(dp3239
g11
(ics475_types
FeatureVector
p3240
(dp3241
g14
(dp3242
I1
F14.0
sI2
F136.0
sI3
F9.0
ssbsg16
g0
(g17
g2
Ntp3243
Rp3244
(dp3245
g21
I0
sbsba(ics475_types
Instance
p3246
(dp3247
g11
(ics475_types
FeatureVector
p3248
(dp3249
g14
(dp3250
I1
F63.0
sI2
F179.0
sI3
F9.0
sI6
F0.6666668
sI7
F0.22222233
sI8
F1.5555557
sI9
F0.5629631
sI10
F11.814815
sI11
F9.777778
sI12
F9.444445
sI13
F16.222223
sI14
F-6.111111
sI15
F-7.111111
sI16
F13.222222
sI17
F16.222223
sI18
F0.41976216
sI19
F2.04457
ssbsg16
g0
(g17
g2
Ntp3251
Rp3252
(dp3253
g21
I1
sbsba(ics475_types
Instance
p3254
(dp3255
g11
(ics475_types
FeatureVector
p3256
(dp3257
g14
(dp3258
I1
F17.0
sI2
F229.0
sI3
F9.0
sI6
F2.1111114
sI7
F1.9851303
sI8
F2.4444447
sI9
F1.6147469
sI10
F13.703704
sI11
F11.222222
sI12
F11.111111
sI13
F18.777779
sI14
F-7.4444447
sI15
F-7.7777777
sI16
F15.222222
sI17
F18.777779
sI18
F0.4398524
sI19
F2.0999045
ssbsg16
g0
(g17
g2
Ntp3259
Rp3260
(dp3261
g21
I1
sbsba(ics475_types
Instance
p3262
(dp3263
g11
(ics475_types
FeatureVector
p3264
(dp3265
g14
(dp3266
I1
F126.0
sI2
F237.0
sI3
F9.0
sI6
F0.94444436
sI7
F0.24074084
sI8
F1.0000001
sI9
F0.48888868
sI10
F5.7777777
sI11
F4.2222223
sI12
F4.2222223
sI13
F8.888889
sI14
F-4.6666665
sI15
F-4.6666665
sI16
F9.333333
sI17
F8.888889
sI18
F0.5538119
sI19
F2.0972314
ssbsg16
g0
(g17
g2
Ntp3267
Rp3268
(dp3269
g21
I1
sbsba(ics475_types
Instance
p3270
(dp3271
g11
(ics475_types
FeatureVector
p3272
(dp3273
g14
(dp3274
I1
F128.0
sI2
F196.0
sI3
F9.0
sI6
F1.666667
sI7
F1.2444435
sI8
F1.8888887
sI9
F3.851853
sI10
F19.62963
sI11
F15.666667
sI12
F18.555555
sI13
F24.666666
sI14
F-11.888889
sI15
F-3.2222223
sI16
F15.111111
sI17
F24.666666
sI18
F0.36529657
sI19
F2.4373393
ssbsg16
g0
(g17
g2
Ntp3275
Rp3276
(dp3277
g21
I1
sbsba(ics475_types
Instance
p3278
(dp3279
g11
(ics475_types
FeatureVector
p3280
(dp3281
g14
(dp3282
I1
F230.0
sI2
F124.0
sI3
F9.0
sI6
F0.2777778
sI7
F0.10740743
sI8
F0.2777778
sI9
F0.15185183
sI10
F0.6666667
sI12
F2.0
sI14
F-2.0
sI15
F4.0
sI16
F-2.0
sI17
F2.0
sI18
F1.0
sI19
F-2.0943952
ssbsg16
g0
(g17
g2
Ntp3283
Rp3284
(dp3285
g21
I0
sbsba(ics475_types
Instance
p3286
(dp3287
g11
(ics475_types
FeatureVector
p3288
(dp3289
g14
(dp3290
I1
F140.0
sI2
F125.0
sI3
F9.0
sI6
F0.66666657
sI7
F0.22222227
sI8
F2.6666667
sI9
F3.7777781
sI10
F3.925926
sI11
F1.5555556
sI12
F7.7777777
sI13
F2.4444444
sI14
F-7.111111
sI15
F11.555555
sI16
F-4.4444447
sI17
F7.7777777
sI18
F0.85319865
sI19
F-2.2342408
ssbsg16
g0
(g17
g2
Ntp3291
Rp3292
(dp3293
g21
I0
sbsba(ics475_types
Instance
p3294
(dp3295
g11
(ics475_types
FeatureVector
p3296
(dp3297
g14
(dp3298
I1
F112.0
sI2
F102.0
sI3
F9.0
sI6
F0.5555555
sI7
F0.20740739
sI8
F1.5555555
sI9
F0.4740743
sI10
F3.3703704
sI11
F0.5555556
sI12
F7.6666665
sI13
F1.8888888
sI14
F-8.444445
sI15
F12.888889
sI16
F-4.4444447
sI17
F7.6666665
sI18
F0.94074076
sI19
F-2.2751586
ssbsg16
g0
(g17
g2
Ntp3299
Rp3300
(dp3301
g21
I0
sbsba(ics475_types
Instance
p3302
(dp3303
g11
(ics475_types
FeatureVector
p3304
(dp3305
g14
(dp3306
I1
F73.0
sI2
F117.0
sI3
F9.0
sI6
F1.5555553
sI7
F0.96296364
sI8
F0.6111111
sI9
F0.7740742
sI10
F1.3333334
sI11
F0.22222222
sI12
F3.5555556
sI13
F0.22222222
sI14
F-3.3333333
sI15
F6.6666665
sI16
F-3.3333333
sI17
F3.5555556
sI18
F0.96825397
sI19
F-2.0943952
ssbsg16
g0
(g17
g2
Ntp3307
Rp3308
(dp3309
g21
I0
sbsba(ics475_types
Instance
p3310
(dp3311
g11
(ics475_types
FeatureVector
p3312
(dp3313
g14
(dp3314
I1
F207.0
sI2
F215.0
sI3
F9.0
sI6
F3.222222
sI7
F2.0403335
sI8
F2.4999998
sI9
F1.6158936
sI10
F23.814816
sI11
F18.11111
sI12
F22.666666
sI13
F30.666666
sI14
F-17.11111
sI15
F-3.4444444
sI16
F20.555555
sI17
F30.666666
sI18
F0.40983668
sI19
F2.4717567
ssbsg16
g0
(g17
g2
Ntp3315
Rp3316
(dp3317
g21
I1
sbsba(ics475_types
Instance
p3318
(dp3319
g11
(ics475_types
FeatureVector
p3320
(dp3321
g14
(dp3322
I1
F231.0
sI2
F233.0
sI3
F9.0
sI6
F1.4444442
sI7
F0.74074095
sI8
F1.1666664
sI9
F0.3444444
sI10
F12.592592
sI11
F8.888889
sI12
F11.888889
sI13
F17.0
sI14
F-11.111111
sI15
F-2.1111112
sI16
F13.222222
sI17
F17.0
sI18
F0.47822163
sI19
F2.4915802
ssbsg16
g0
(g17
g2
Ntp3323
Rp3324
(dp3325
g21
I1
sbsba(ics475_types
Instance
p3326
(dp3327
g11
(ics475_types
FeatureVector
p3328
(dp3329
g14
(dp3330
I1
F186.0
sI2
F218.0
sI3
F9.0
sI6
F1.1666666
sI7
F0.74444425
sI8
F1.1666665
sI9
F0.65555507
sI10
F13.703704
sI11
F10.666667
sI12
F12.666667
sI13
F17.777779
sI14
F-9.111111
sI15
F-3.1111112
sI16
F12.222222
sI17
F17.777779
sI18
F0.40134683
sI19
F2.3826835
ssbsg16
g0
(g17
g2
Ntp3331
Rp3332
(dp3333
g21
I1
sbsba(ics475_types
Instance
p3334
(dp3335
g11
(ics475_types
FeatureVector
p3336
(dp3337
g14
(dp3338
I1
F7.0
sI2
F90.0
sI3
F9.0
sI6
F1.2777777
sI7
F0.8541836
sI8
F2.4444444
sI9
F2.0184336
sI10
F4.6666665
sI11
F2.5555556
sI12
F5.7777777
sI13
F5.6666665
sI14
F-6.3333335
sI15
F3.3333333
sI16
F3.0
sI17
F6.2222223
sI18
F0.66534394
sI19
F-3.0441751
ssbsg16
g0
(g17
g2
Ntp3339
Rp3340
(dp3341
g21
I0
sbsba(ics475_types
Instance
p3342
(dp3343
g11
(ics475_types
FeatureVector
p3344
(dp3345
g14
(dp3346
I1
F196.0
sI2
F182.0
sI3
F9.0
sI6
F1.1666664
sI7
F0.43333244
sI8
F0.6111107
sI9
F0.37407404
sI10
F19.88889
sI11
F16.88889
sI12
F18.11111
sI13
F24.666666
sI14
F-9.0
sI15
F-5.3333335
sI16
F14.333333
sI17
F24.666666
sI18
F0.31489658
sI19
F2.2716928
ssbsg16
g0
(g17
g2
Ntp3347
Rp3348
(dp3349
g21
I1
sbsba(ics475_types
Instance
p3350
(dp3351
g11
(ics475_types
FeatureVector
p3352
(dp3353
g14
(dp3354
I1
F104.0
sI2
F134.0
sI3
F9.0
sI6
F0.5
sI7
F0.18257418
sI8
F0.8333333
sI9
F0.27888662
sI10
F1.7777778
sI11
F0.11111111
sI12
F3.8888888
sI13
F1.3333334
sI14
F-5.0
sI15
F6.3333335
sI16
F-1.3333334
sI17
F3.8888888
sI18
F0.9777778
sI19
F-2.4225056
ssbsg16
g0
(g17
g2
Ntp3355
Rp3356
(dp3357
g21
I0
sbsba(ics475_types
Instance
p3358
(dp3359
g11
(ics475_types
FeatureVector
p3360
(dp3361
g14
(dp3362
I1
F48.0
sI2
F85.0
sI3
F9.0
sI6
F3.111111
sI7
F13.451853
sI8
F2.0555556
sI9
F6.862964
sI10
F4.296296
sI11
F1.3333334
sI12
F8.888889
sI13
F2.6666667
sI14
F-8.888889
sI15
F13.777778
sI16
F-4.888889
sI17
F8.888889
sI18
F0.8858245
sI19
F-2.2715442
ssbsg16
g0
(g17
g2
Ntp3363
Rp3364
(dp3365
g21
I0
sbsba(ics475_types
Instance
p3366
(dp3367
g11
(ics475_types
FeatureVector
p3368
(dp3369
g14
(dp3370
I1
F80.0
sI2
F87.0
sI3
F9.0
sI5
F0.11111111
sI6
F24.388891
sI7
F572.9964
sI8
F44.722225
sI9
F1386.3292
sI10
F67.44444
sI11
F58.77778
sI12
F79.0
sI13
F64.55556
sI14
F-26.0
sI15
F34.666668
sI16
F-8.666667
sI17
F79.0
sI18
F0.30628127
sI19
F-2.4221272
ssbsg16
g0
(g17
g2
Ntp3371
Rp3372
(dp3373
g21
I0
sbsba(ics475_types
Instance
p3374
(dp3375
g11
(ics475_types
FeatureVector
p3376
(dp3377
g14
(dp3378
I1
F96.0
sI2
F115.0
sI3
F9.0
sI6
F1.9999999
sI7
F0.9660915
sI8
F3.3333333
sI9
F1.4142128
sI10
F14.777778
sI11
F8.444445
sI12
F22.88889
sI13
F13.0
sI14
F-19.0
sI15
F24.333334
sI16
F-5.3333335
sI17
F22.88889
sI18
F0.6183277
sI19
F-2.4590404
ssbsg16
g0
(g17
g2
Ntp3379
Rp3380
(dp3381
g21
I0
sbsba(ics475_types
Instance
p3382
(dp3383
g11
(ics475_types
FeatureVector
p3384
(dp3385
g14
(dp3386
I1
F46.0
sI2
F238.0
sI3
F9.0
sI6
F1.0555557
sI7
F0.8277594
sI8
F2.166667
sI9
F1.8226967
sI10
F13.259259
sI11
F9.666667
sI12
F12.666667
sI13
F17.444445
sI14
F-10.777778
sI15
F-1.7777778
sI16
F12.555555
sI17
F17.444445
sI18
F0.44550914
sI19
F2.5082257
ssbsg16
g0
(g17
g2
Ntp3387
Rp3388
(dp3389
g21
I1
sbsba(ics475_types
Instance
p3390
(dp3391
g11
(ics475_types
FeatureVector
p3392
(dp3393
g14
(dp3394
I1
F108.0
sI2
F144.0
sI3
F9.0
sI6
F0.38888893
sI7
F0.15185183
sI8
F0.22222222
sI9
F0.07407406
sI10
F0.962963
sI12
F2.8888888
sI14
F-2.8888888
sI15
F5.7777777
sI16
F-2.8888888
sI17
F2.8888888
sI18
F1.0
sI19
F-2.0943952
ssbsg16
g0
(g17
g2
Ntp3395
Rp3396
(dp3397
g21
I0
sbsba(ics475_types
Instance
p3398
(dp3399
g11
(ics475_types
FeatureVector
p3400
(dp3401
g14
(dp3402
I1
F75.0
sI2
F98.0
sI3
F9.0
sI6
F3.9444444
sI7
F45.84074
sI8
F4.6666665
sI9
F39.288876
sI10
F5.5185184
sI11
F2.3333335
sI12
F10.444445
sI13
F3.7777777
sI14
F-9.555555
sI15
F14.777778
sI16
F-5.2222223
sI17
F10.444445
sI18
F0.8721458
sI19
F-2.2729733
ssbsg16
g0
(g17
g2
Ntp3403
Rp3404
(dp3405
g21
I0
sbsba(ics475_types
Instance
p3406
(dp3407
g11
(ics475_types
FeatureVector
p3408
(dp3409
g14
(dp3410
I1
F36.0
sI2
F145.0
sI3
F9.0
sI6
F0.2777778
sI7
F0.19629629
sI8
F1.2777778
sI9
F2.0629628
sI10
F0.8518519
sI11
F0.33333334
sI12
F1.4444444
sI13
F0.7777778
sI14
F-1.5555556
sI15
F1.7777778
sI16
F-0.22222222
sI17
F1.4444444
sI18
F0.25185186
sI19
F-2.5309503
ssbsg16
g0
(g17
g2
Ntp3411
Rp3412
(dp3413
g21
I0
sbsba(ics475_types
Instance
p3414
(dp3415
g11
(ics475_types
FeatureVector
p3416
(dp3417
g14
(dp3418
I1
F76.0
sI2
F106.0
sI3
F9.0
sI6
F1.8333334
sI7
F3.5444427
sI8
F2.2222223
sI9
F3.718517
sI10
F3.6666667
sI11
F1.0
sI12
F7.888889
sI13
F2.1111112
sI14
F-8.0
sI15
F12.666667
sI16
F-4.6666665
sI17
F7.888889
sI18
F0.9035714
sI19
F-2.2555406
ssbsg16
g0
(g17
g2
Ntp3419
Rp3420
(dp3421
g21
I0
sbsba(ics475_types
Instance
p3422
(dp3423
g11
(ics475_types
FeatureVector
p3424
(dp3425
g14
(dp3426
I1
F205.0
sI2
F83.0
sI3
F9.0
sI6
F24.555555
sI7
F688.0741
sI8
F8.333333
sI9
F121.24443
sI10
F23.296297
sI11
F19.777779
sI12
F28.555555
sI13
F21.555555
sI14
F-10.555555
sI15
F15.777778
sI16
F-5.2222223
sI17
F28.555555
sI18
F0.5041609
sI19
F-2.3213427
ssbsg16
g0
(g17
g2
Ntp3427
Rp3428
(dp3429
g21
I0
sbsba(ics475_types
Instance
p3430
(dp3431
g11
(ics475_types
FeatureVector
p3432
(dp3433
g14
(dp3434
I1
F59.0
sI2
F120.0
sI3
F9.0
sI6
F2.1666667
sI7
F1.9860634
sI8
F1.4444441
sI9
F1.8698385
sI10
F19.074074
sI11
F10.555555
sI12
F33.11111
sI13
F13.555555
sI14
F-25.555555
sI15
F42.11111
sI16
F-16.555555
sI17
F33.11111
sI18
F0.6812664
sI19
F-2.2312608
ssbsg16
g0
(g17
g2
Ntp3435
Rp3436
(dp3437
g21
I0
sbsba(ics475_types
Instance
p3438
(dp3439
g11
(ics475_types
FeatureVector
p3440
(dp3441
g14
(dp3442
I1
F224.0
sI2
F242.0
sI3
F9.0
sI6
F1.8888888
sI7
F0.829629
sI8
F2.222222
sI9
F3.2740743
sI10
F11.740741
sI11
F8.666667
sI12
F10.777778
sI13
F15.777778
sI14
F-9.222222
sI15
F-2.8888888
sI16
F12.111111
sI17
F15.777778
sI18
F0.45454717
sI19
F2.386597
ssbsg16
g0
(g17
g2
Ntp3443
Rp3444
(dp3445
g21
I1
sbsba(ics475_types
Instance
p3446
(dp3447
g11
(ics475_types
FeatureVector
p3448
(dp3449
g14
(dp3450
I1
F116.0
sI2
F245.0
sI3
F9.0
sI4
F0.11111111
sI6
F1.3888888
sI7
F0.5518514
sI8
F2.222222
sI9
F3.940739
sI10
F14.222222
sI11
F11.111111
sI12
F13.111111
sI13
F18.444445
sI14
F-9.333333
sI15
F-3.3333333
sI16
F12.666667
sI17
F18.444445
sI18
F0.38969478
sI19
F2.3954313
ssbsg16
g0
(g17
g2
Ntp3451
Rp3452
(dp3453
g21
I1
sbsba(ics475_types
Instance
p3454
(dp3455
g11
(ics475_types
FeatureVector
p3456
(dp3457
g14
(dp3458
I1
F244.0
sI2
F211.0
sI3
F9.0
sI6
F1.6666666
sI7
F1.3333334
sI8
F2.0000002
sI9
F2.311112
sI10
F13.62963
sI11
F10.777778
sI12
F12.888889
sI13
F17.222223
sI14
F-8.555555
sI15
F-2.2222223
sI16
F10.777778
sI17
F17.222223
sI18
F0.3748065
sI19
F2.441017
ssbsg16
g0
(g17
g2
Ntp3459
Rp3460
(dp3461
g21
I1
sbsba(ics475_types
Instance
p3462
(dp3463
g11
(ics475_types
FeatureVector
p3464
(dp3465
g14
(dp3466
I1
F210.0
sI2
F232.0
sI3
F9.0
sI6
F1.8333335
sI7
F1.2064636
sI8
F1.4999999
sI9
F1.7224014
sI10
F8.814815
sI11
F6.5555553
sI12
F7.2222223
sI13
F12.666667
sI14
F-6.7777777
sI15
F-4.7777777
sI16
F11.555555
sI17
F12.666667
sI18
F0.49138823
sI19
F2.2013178
ssbsg16
g0
(g17
g2
Ntp3467
Rp3468
(dp3469
g21
I1
sbsba(ics475_types
Instance
p3470
(dp3471
g11
(ics475_types
FeatureVector
p3472
(dp3473
g14
(dp3474
I1
F115.0
sI2
F156.0
sI3
F9.0
sI6
F0.3888887
sI7
F0.38968167
sI8
F1.0555553
sI9
F0.6469302
sI10
F24.25926
sI11
F17.222223
sI12
F26.0
sI13
F29.555555
sI14
F-21.11111
sI15
F5.2222223
sI16
F15.888889
sI17
F29.555555
sI18
F0.41732758
sI19
F2.8434196
ssbsg16
g0
(g17
g2
Ntp3475
Rp3476
(dp3477
g21
I1
sbsba(ics475_types
Instance
p3478
(dp3479
g11
(ics475_types
FeatureVector
p3480
(dp3481
g14
(dp3482
I1
F71.0
sI2
F180.0
sI3
F9.0
sI4
F0.11111111
sI6
F1.222222
sI7
F0.5629625
sI8
F3.0
sI9
F1.8666646
sI10
F22.333334
sI11
F18.333334
sI12
F21.444445
sI13
F27.222221
sI14
F-12.0
sI15
F-2.6666667
sI16
F14.666667
sI17
F27.222221
sI18
F0.3273826
sI19
F2.4538307
ssbsg16
g0
(g17
g2
Ntp3483
Rp3484
(dp3485
g21
I1
sbsba(ics475_types
Instance
p3486
(dp3487
g11
(ics475_types
FeatureVector
p3488
(dp3489
g14
(dp3490
I1
F223.0
sI2
F185.0
sI3
F9.0
sI6
F0.5
sI7
F0.34960312
sI8
F2.3888886
sI9
F2.0807757
sI10
F12.962963
sI11
F11.555555
sI12
F9.777778
sI13
F17.555555
sI14
F-4.2222223
sI15
F-9.555555
sI16
F13.777778
sI17
F17.555555
sI18
F0.44541803
sI19
F1.8388497
ssbsg16
g0
(g17
g2
Ntp3491
Rp3492
(dp3493
g21
I1
sbsba(ics475_types
Instance
p3494
(dp3495
g11
(ics475_types
FeatureVector
p3496
(dp3497
g14
(dp3498
I1
F2.0
sI2
F96.0
sI3
F9.0
sI6
F3.833333
sI7
F13.2777815
sI8
F2.3333333
sI9
F7.5111103
sI10
F5.2222223
sI11
F2.1111112
sI12
F9.777778
sI13
F3.7777777
sI14
F-9.333333
sI15
F13.666667
sI16
F-4.3333335
sI17
F9.777778
sI18
F0.82478386
sI19
F-2.3306925
ssbsg16
g0
(g17
g2
Ntp3499
Rp3500
(dp3501
g21
I0
sbsba(ics475_types
Instance
p3502
(dp3503
g11
(ics475_types
FeatureVector
p3504
(dp3505
g14
(dp3506
I1
F27.0
sI2
F248.0
sI3
F9.0
sI4
F0.11111111
sI6
F1.611111
sI7
F0.6469295
sI8
F3.1666667
sI9
F1.7224005
sI10
F15.296296
sI11
F14.777778
sI12
F12.888889
sI13
F18.222221
sI14
F-1.5555556
sI15
F-7.2222223
sI16
F8.777778
sI17
F18.222221
sI18
F0.31222734
sI19
F1.7835119
ssbsg16
g0
(g17
g2
Ntp3507
Rp3508
(dp3509
g21
I1
sbsba(ics475_types
Instance
p3510
(dp3511
g11
(ics475_types
FeatureVector
p3512
(dp3513
g14
(dp3514
I1
F58.0
sI2
F95.0
sI3
F9.0
sI6
F2.166667
sI7
F1.6333324
sI8
F1.9444445
sI9
F0.68518573
sI10
F4.4444447
sI11
F1.2222222
sI12
F9.0
sI13
F3.1111112
sI14
F-9.666667
sI15
F13.666667
sI16
F-4.0
sI17
F9.0
sI18
F0.8749174
sI19
F-2.3338044
ssbsg16
g0
(g17
g2
Ntp3515
Rp3516
(dp3517
g21
I0
sbsba(ics475_types
Instance
p3518
(dp3519
g11
(ics475_types
FeatureVector
p3520
(dp3521
g14
(dp3522
I1
F117.0
sI2
F110.0
sI3
F9.0
sI6
F2.3333333
sI7
F2.9059324
sI8
F2.277777
sI9
F1.9022408
sI10
F17.222221
sI11
F9.222222
sI12
F29.0
sI13
F13.444445
sI14
F-24.0
sI15
F35.333332
sI16
F-11.333333
sI17
F29.0
sI18
F0.6807869
sI19
F-2.321226
ssbsg16
g0
(g17
g2
Ntp3523
Rp3524
(dp3525
g21
I0
sbsba(ics475_types
Instance
p3526
(dp3527
g11
(ics475_types
FeatureVector
p3528
(dp3529
g14
(dp3530
I1
F89.0
sI2
F221.0
sI3
F9.0
sI6
F1.3888888
sI7
F1.4851848
sI8
F1.4444445
sI9
F1.5851862
sI10
F14.074074
sI11
F10.666667
sI12
F12.444445
sI13
F19.11111
sI14
F-10.222222
sI15
F-4.888889
sI16
F15.111111
sI17
F19.11111
sI18
F0.44601154
sI19
F2.3172119
ssbsg16
g0
(g17
g2
Ntp3531
Rp3532
(dp3533
g21
I1
sbsba(ics475_types
Instance
p3534
(dp3535
g11
(ics475_types
FeatureVector
p3536
(dp3537
g14
(dp3538
I1
F186.0
sI2
F173.0
sI3
F9.0
sI6
F1.4444445
sI7
F0.82963055
sI8
F2.1111114
sI9
F1.9851853
sI10
F17.148148
sI11
F13.555555
sI12
F15.555555
sI13
F22.333334
sI14
F-10.777778
sI15
F-4.7777777
sI16
F15.555555
sI17
F22.333334
sI18
F0.39643326
sI19
F2.332739
ssbsg16
g0
(g17
g2
Ntp3539
Rp3540
(dp3541
g21
I1
sbsba(ics475_types
Instance
p3542
(dp3543
g11
(ics475_types
FeatureVector
p3544
(dp3545
g14
(dp3546
I1
F153.0
sI2
F208.0
sI3
F9.0
sI6
F2.4444444
sI7
F2.429628
sI8
F1.9444442
sI9
F3.0851858
sI10
F16.851852
sI11
F13.0
sI12
F16.0
sI13
F21.555555
sI14
F-11.555555
sI15
F-2.5555556
sI16
F14.111111
sI17
F21.555555
sI18
F0.3969092
sI19
F2.4832914
ssbsg16
g0
(g17
g2
Ntp3547
Rp3548
(dp3549
g21
I1
sbsba(ics475_types
Instance
p3550
(dp3551
g11
(ics475_types
FeatureVector
p3552
(dp3553
g14
(dp3554
I1
F3.0
sI2
F91.0
sI3
F9.0
sI5
F0.11111111
sI6
F2.2222223
sI7
F5.051852
sI8
F1.0
sI9
F1.9555557
sI10
F5.6296296
sI11
F1.8888888
sI12
F10.666667
sI13
F4.3333335
sI14
F-11.222222
sI15
F15.111111
sI16
F-3.8888888
sI17
F10.666667
sI18
F0.82974845
sI19
F-2.3839493
ssbsg16
g0
(g17
g2
Ntp3555
Rp3556
(dp3557
g21
I0
sbsba(ics475_types
Instance
p3558
(dp3559
g11
(ics475_types
FeatureVector
p3560
(dp3561
g14
(dp3562
I1
F215.0
sI2
F235.0
sI3
F9.0
sI6
F1.388889
sI7
F1.06284
sI8
F1.0555557
sI9
F0.49065349
sI10
F9.185185
sI11
F6.7777777
sI12
F8.0
sI13
F12.777778
sI14
F-7.2222223
sI15
F-3.5555556
sI16
F10.777778
sI17
F12.777778
sI18
F0.48219234
sI19
F2.3107576
ssbsg16
g0
(g17
g2
Ntp3563
Rp3564
(dp3565
g21
I1
sbsba(ics475_types
Instance
p3566
(dp3567
g11
(ics475_types
FeatureVector
p3568
(dp3569
g14
(dp3570
I1
F52.0
sI2
F102.0
sI3
F9.0
sI6
F0.72222227
sI7
F0.50740725
sI8
F0.8333333
sI9
F0.5666668
sI10
F2.8888888
sI11
F0.6666667
sI12
F6.3333335
sI13
F1.6666666
sI14
F-6.6666665
sI15
F10.333333
sI16
F-3.6666667
sI17
F6.3333335
sI18
F0.89973545
sI19
F-2.2617195
ssbsg16
g0
(g17
g2
Ntp3571
Rp3572
(dp3573
g21
I0
sbsba(ics475_types
Instance
p3574
(dp3575
g11
(ics475_types
FeatureVector
p3576
(dp3577
g14
(dp3578
I1
F54.0
sI2
F138.0
sI3
F9.0
sI6
F0.22222221
sI7
F0.29629624
sI8
F0.38888893
sI9
F0.4185185
sI10
F0.25925925
sI12
F0.6666667
sI13
F0.11111111
sI14
F-0.7777778
sI15
F1.2222222
sI16
F-0.44444445
sI17
F0.6666667
sI18
F0.33333334
sI19
F-2.1814387
ssbsg16
g0
(g17
g2
Ntp3579
Rp3580
(dp3581
g21
I0
sbsba(ics475_types
Instance
p3582
(dp3583
g11
(ics475_types
FeatureVector
p3584
(dp3585
g14
(dp3586
I1
F127.0
sI2
F81.0
sI3
F9.0
sI6
F24.33333
sI7
F442.17786
sI8
F22.111109
sI9
F263.09634
sI10
F42.555557
sI11
F34.88889
sI12
F51.77778
sI13
F41.0
sI14
F-23.0
sI15
F27.666666
sI16
F-4.6666665
sI17
F51.77778
sI18
F0.3669463
sI19
F-2.476481
ssbsg16
g0
(g17
g2
Ntp3587
Rp3588
(dp3589
g21
I0
sbsba(ics475_types
Instance
p3590
(dp3591
g11
(ics475_types
FeatureVector
p3592
(dp3593
g14
(dp3594
I1
F26.0
sI2
F137.0
sI3
F9.0
sI6
F0.055555563
sI7
F0.018518524
sI8
F0.11111113
sI9
F0.029629637
sI10
F0.25925925
sI12
F0.7777778
sI14
F-0.7777778
sI15
F1.5555556
sI16
F-0.7777778
sI17
F0.7777778
sI18
F0.7777778
sI19
F-2.0943952
ssbsg16
g0
(g17
g2
Ntp3595
Rp3596
(dp3597
g21
I0
sbsba(ics475_types
Instance
p3598
(dp3599
g11
(ics475_types
FeatureVector
p3600
(dp3601
g14
(dp3602
I1
F118.0
sI2
F125.0
sI3
F9.0
sI6
F0.33333334
sI7
F0.29814234
sI8
F0.88888884
sI9
F0.34426528
sI10
F1.1481482
sI12
F3.1111112
sI13
F0.33333334
sI14
F-3.4444444
sI15
F5.888889
sI16
F-2.4444444
sI17
F3.1111112
sI18
F1.0
sI19
F-2.1756468
ssbsg16
g0
(g17
g2
Ntp3603
Rp3604
(dp3605
g21
I0
sbsba(ics475_types
Instance
p3606
(dp3607
g11
(ics475_types
FeatureVector
p3608
(dp3609
g14
(dp3610
I1
F204.0
sI2
F156.0
sI3
F9.0
sI6
F0.5000003
sI7
F0.27888626
sI8
F1.9999996
sI9
F0.55777323
sI10
F23.703703
sI11
F17.333334
sI12
F25.444445
sI13
F28.333334
sI14
F-19.11111
sI15
F5.2222223
sI16
F13.888889
sI17
F28.333334
sI18
F0.38903406
sI19
F2.8649306
ssbsg16
g0
(g17
g2
Ntp3611
Rp3612
(dp3613
g21
I1
sbsba(ics475_types
Instance
p3614
(dp3615
g11
(ics475_types
FeatureVector
p3616
(dp3617
g14
(dp3618
I1
F36.0
sI2
F243.0
sI3
F9.0
sI4
F0.11111111
sI6
F1.888889
sI7
F1.8518513
sI8
F2.0
sI9
F0.7111104
sI10
F13.333333
sI11
F9.888889
sI12
F12.111111
sI13
F18.0
sI14
F-10.333333
sI15
F-3.6666667
sI16
F14.0
sI17
F18.0
sI18
F0.4522286
sI19
F2.3683105
ssbsg16
g0
(g17
g2
Ntp3619
Rp3620
(dp3621
g21
I1
sbsba(ics475_types
Instance
p3622
(dp3623
g11
(ics475_types
FeatureVector
p3624
(dp3625
g14
(dp3626
I1
F241.0
sI2
F137.0
sI3
F9.0
sI5
F0.11111111
sI6
F4.277778
sI7
F18.685184
sI8
F3.8333333
sI9
F37.500004
sI10
F5.0
sI11
F2.5555556
sI12
F9.0
sI13
F3.4444444
sI14
F-7.3333335
sI15
F12.0
sI16
F-4.6666665
sI17
F9.0
sI18
F0.837478
sI19
F-2.1939669
ssbsg16
g0
(g17
g2
Ntp3627
Rp3628
(dp3629
g21
I0
sbsba(ics475_types
Instance
p3630
(dp3631
g11
(ics475_types
FeatureVector
p3632
(dp3633
g14
(dp3634
I1
F249.0
sI2
F207.0
sI3
F9.0
sI4
F0.22222222
sI6
F2.7222226
sI7
F0.9289574
sI8
F0.888889
sI9
F0.27216536
sI10
F12.148149
sI11
F9.555555
sI12
F10.333334
sI13
F16.555555
sI14
F-7.7777777
sI15
F-5.4444447
sI16
F13.222222
sI17
F16.555555
sI18
F0.43238926
sI19
F2.2172632
ssbsg16
g0
(g17
g2
Ntp3635
Rp3636
(dp3637
g21
I1
sbsba(ics475_types
Instance
p3638
(dp3639
g11
(ics475_types
FeatureVector
p3640
(dp3641
g14
(dp3642
I1
F57.0
sI2
F119.0
sI3
F9.0
sI6
F2.2777774
sI7
F2.0266733
sI8
F1.7777777
sI9
F1.721326
sI10
F20.592592
sI11
F12.222222
sI12
F33.666668
sI13
F15.888889
sI14
F-25.11111
sI15
F39.22222
sI16
F-14.111111
sI17
F33.666668
sI18
F0.6356236
sI19
F-2.2681484
ssbsg16
g0
(g17
g2
Ntp3643
Rp3644
(dp3645
g21
I0
sbsba(ics475_types
Instance
p3646
(dp3647
g11
(ics475_types
FeatureVector
p3648
(dp3649
g14
(dp3650
I1
F135.0
sI2
F211.0
sI3
F9.0
sI6
F1.8888885
sI7
F1.3277655
sI8
F2.1666663
sI9
F1.1498789
sI10
F17.962963
sI11
F14.444445
sI12
F16.333334
sI13
F23.11111
sI14
F-10.555555
sI15
F-4.888889
sI16
F15.444445
sI17
F23.11111
sI18
F0.37555233
sI19
F2.3275452
ssbsg16
g0
(g17
g2
Ntp3651
Rp3652
(dp3653
g21
I1
sbsba(ics475_types
Instance
p3654
(dp3655
g11
(ics475_types
FeatureVector
p3656
(dp3657
g14
(dp3658
I1
F2.0
sI2
F245.0
sI3
F9.0
sI6
F1.8888888
sI7
F2.162963
sI8
F3.1666667
sI9
F3.2777781
sI10
F6.4074073
sI11
F6.2222223
sI12
F6.0
sI13
F7.0
sI14
F-0.5555556
sI15
F-1.2222222
sI16
F1.7777778
sI17
F7.2222223
sI18
F0.19104938
sI19
F1.7566451
ssbsg16
g0
(g17
g2
Ntp3659
Rp3660
(dp3661
g21
I1
sbsba(ics475_types
Instance
p3662
(dp3663
g11
(ics475_types
FeatureVector
p3664
(dp3665
g14
(dp3666
I1
F70.0
sI2
F98.0
sI3
F9.0
sI4
F0.11111111
sI6
F1.2222221
sI7
F1.7185185
sI8
F1.7777777
sI9
F1.3185183
sI10
F4.6666665
sI11
F1.2222222
sI12
F9.222222
sI13
F3.5555556
sI14
F-10.333333
sI15
F13.666667
sI16
F-3.3333333
sI17
F9.222222
sI18
F0.89084005
sI19
F-2.3954217
ssbsg16
g0
(g17
g2
Ntp3667
Rp3668
(dp3669
g21
I0
sbsba(ics475_types
Instance
p3670
(dp3671
g11
(ics475_types
FeatureVector
p3672
(dp3673
g14
(dp3674
I1
F27.0
sI2
F112.0
sI3
F9.0
sI6
F0.22222222
sI7
F0.34426522
sI8
F0.11111113
sI9
F0.27216557
sI10
F0.14814815
sI12
F0.44444445
sI14
F-0.44444445
sI15
F0.8888889
sI16
F-0.44444445
sI17
F0.44444445
sI18
F0.22222222
sI19
F-2.0943952
ssbsg16
g0
(g17
g2
Ntp3675
Rp3676
(dp3677
g21
I0
sbsba(ics475_types
Instance
p3678
(dp3679
g11
(ics475_types
FeatureVector
p3680
(dp3681
g14
(dp3682
I1
F214.0
sI2
F79.0
sI3
F9.0
sI6
F1.2777778
sI7
F0.86296296
sI8
F1.3333334
sI9
F0.53333336
sI10
F4.851852
sI11
F2.0
sI12
F9.222222
sI13
F3.3333333
sI14
F-8.555555
sI15
F13.111111
sI16
F-4.5555553
sI17
F9.222222
sI18
F0.7916667
sI19
F-2.2889814
ssbsg16
g0
(g17
g2
Ntp3683
Rp3684
(dp3685
g21
I0
sbsba(ics475_types
Instance
p3686
(dp3687
g11
(ics475_types
FeatureVector
p3688
(dp3689
g14
(dp3690
I1
F103.0
sI2
F216.0
sI3
F9.0
sI6
F1.4999999
sI7
F0.56666666
sI8
F0.8333332
sI9
F1.1888888
sI10
F7.0740743
sI11
F5.111111
sI12
F5.0
sI13
F11.111111
sI14
F-5.888889
sI15
F-6.2222223
sI16
F12.111111
sI17
F11.111111
sI18
F0.59312356
sI19
F2.0792952
ssbsg16
g0
(g17
g2
Ntp3691
Rp3692
(dp3693
g21
I1
sbsba(ics475_types
Instance
p3694
(dp3695
g11
(ics475_types
FeatureVector
p3696
(dp3697
g14
(dp3698
I1
F137.0
sI2
F105.0
sI3
F9.0
sI5
F0.11111111
sI6
F10.722224
sI7
F16.507421
sI8
F31.222223
sI9
F650.42957
sI10
F42.851852
sI11
F35.77778
sI12
F52.666668
sI13
F40.11111
sI14
F-21.222221
sI15
F29.444445
sI16
F-8.222222
sI17
F52.666668
sI18
F0.37578005
sI19
F-2.380238
ssbsg16
g0
(g17
g2
Ntp3699
Rp3700
(dp3701
g21
I0
sbsba(ics475_types
Instance
p3702
(dp3703
g11
(ics475_types
FeatureVector
p3704
(dp3705
g14
(dp3706
I1
F139.0
sI2
F128.0
sI3
F9.0
sI6
F2.9444444
sI7
F7.8851867
sI8
F3.166667
sI9
F12.433335
sI10
F5.296296
sI11
F2.4444444
sI12
F9.555555
sI13
F3.8888888
sI14
F-8.555555
sI15
F12.777778
sI16
F-4.2222223
sI17
F9.555555
sI18
F0.8047243
sI19
F-2.3003678
ssbsg16
g0
(g17
g2
Ntp3707
Rp3708
(dp3709
g21
I0
sbsba(ics475_types
Instance
p3710
(dp3711
g11
(ics475_types
FeatureVector
p3712
(dp3713
g14
(dp3714
I1
F58.0
sI2
F217.0
sI3
F9.0
sI6
F1.3888888
sI7
F1.06284
sI8
F1.6666665
sI9
F1.3498971
sI10
F11.925926
sI11
F9.777778
sI12
F9.0
sI13
F17.0
sI14
F-6.4444447
sI15
F-8.777778
sI16
F15.222222
sI17
F17.0
sI18
F0.48659843
sI19
F2.0066419
ssbsg16
g0
(g17
g2
Ntp3715
Rp3716
(dp3717
g21
I1
sbsba(ics475_types
Instance
p3718
(dp3719
g11
(ics475_types
FeatureVector
p3720
(dp3721
g14
(dp3722
I1
F41.0
sI2
F77.0
sI3
F9.0
sI4
F0.11111111
sI6
F1.777778
sI7
F0.6518514
sI8
F1.611111
sI9
F1.5740745
sI10
F5.0
sI11
F1.2222222
sI12
F10.222222
sI13
F3.5555556
sI14
F-11.333333
sI15
F15.666667
sI16
F-4.3333335
sI17
F10.222222
sI18
F0.8916084
sI19
F-2.3548815
ssbsg16
g0
(g17
g2
Ntp3723
Rp3724
(dp3725
g21
I0
sbsba(ics475_types
Instance
p3726
(dp3727
g11
(ics475_types
FeatureVector
p3728
(dp3729
g14
(dp3730
I1
F114.0
sI2
F102.0
sI3
F9.0
sI6
F1.1111112
sI7
F1.2296298
sI8
F1.1666665
sI9
F0.877778
sI10
F4.037037
sI11
F1.0
sI12
F8.444445
sI13
F2.6666667
sI14
F-9.111111
sI15
F13.222222
sI16
F-4.111111
sI17
F8.444445
sI18
F0.8912177
sI19
F-2.3161116
ssbsg16
g0
(g17
g2
Ntp3731
Rp3732
(dp3733
g21
I0
sbsba(ics475_types
Instance
p3734
(dp3735
g11
(ics475_types
FeatureVector
p3736
(dp3737
g14
(dp3738
I1
F52.0
sI2
F170.0
sI3
F9.0
sI6
F0.55555564
sI7
F0.4554201
sI8
F0.94444436
sI9
F0.38968262
sI10
F25.444445
sI11
F20.11111
sI12
F25.333334
sI13
F30.88889
sI14
F-16.0
sI15
F-0.33333334
sI16
F16.333334
sI17
F30.88889
sI18
F0.34911168
sI19
F2.6040132
ssbsg16
g0
(g17
g2
Ntp3739
Rp3740
(dp3741
g21
I1
sbsba(ics475_types
Instance
p3742
(dp3743
g11
(ics475_types
FeatureVector
p3744
(dp3745
g14
(dp3746
I1
F82.0
sI2
F138.0
sI3
F9.0
sI6
F0.8888889
sI7
F0.51851845
sI8
F0.88888884
sI9
F0.3851853
sI10
F1.4074074
sI12
F3.7777777
sI13
F0.44444445
sI14
F-4.2222223
sI15
F7.111111
sI16
F-2.8888888
sI17
F3.7777777
sI18
F1.0
sI19
F-2.1739607
ssbsg16
g0
(g17
g2
Ntp3747
Rp3748
(dp3749
g21
I0
sbsba(ics475_types
Instance
p3750
(dp3751
g11
(ics475_types
FeatureVector
p3752
(dp3753
g14
(dp3754
I1
F67.0
sI2
F136.0
sI3
F9.0
sI6
F6.722223
sI7
F3.7083488
sI8
F2.6666667
sI9
F3.1972213
sI10
F15.518518
sI11
F9.0
sI12
F25.333334
sI13
F12.222222
sI14
F-19.555555
sI15
F29.444445
sI16
F-9.888889
sI17
F25.333334
sI18
F0.66081303
sI19
F-2.3075109
ssbsg16
g0
(g17
g2
Ntp3755
Rp3756
(dp3757
g21
I0
sbsba(ics475_types
Instance
p3758
(dp3759
g11
(ics475_types
FeatureVector
p3760
(dp3761
g14
(dp3762
I1
F101.0
sI2
F137.0
sI3
F9.0
sI6
F0.44444445
sI7
F0.50184834
sI8
F0.8333333
sI9
F0.8096638
sI10
F1.1481482
sI11
F0.22222222
sI12
F2.6666667
sI13
F0.5555556
sI14
F-2.7777777
sI15
F4.5555553
sI16
F-1.7777778
sI17
F2.6666667
sI18
F0.95
sI19
F-2.2005885
ssbsg16
g0
(g17
g2
Ntp3763
Rp3764
(dp3765
g21
I0
sbsba(ics475_types
Instance
p3766
(dp3767
g11
(ics475_types
FeatureVector
p3768
(dp3769
g14
(dp3770
I1
F30.0
sI2
F91.0
sI3
F9.0
sI6
F3.3888886
sI7
F6.4629617
sI8
F3.277778
sI9
F9.040739
sI10
F6.259259
sI11
F2.4444444
sI12
F12.111111
sI13
F4.2222223
sI14
F-11.444445
sI15
F17.555555
sI16
F-6.111111
sI17
F12.111111
sI18
F0.82302064
sI19
F-2.2827444
ssbsg16
g0
(g17
g2
Ntp3771
Rp3772
(dp3773
g21
I0
sbsba(ics475_types
Instance
p3774
(dp3775
g11
(ics475_types
FeatureVector
p3776
(dp3777
g14
(dp3778
I1
F54.0
sI2
F91.0
sI3
F9.0
sI6
F1.4444443
sI7
F1.540741
sI8
F0.8333333
sI9
F0.25555572
sI10
F3.2592592
sI11
F0.5555556
sI12
F8.0
sI13
F1.2222222
sI14
F-8.111111
sI15
F14.222222
sI16
F-6.111111
sI17
F8.0
sI18
F0.94481075
sI19
F-2.186723
ssbsg16
g0
(g17
g2
Ntp3779
Rp3780
(dp3781
g21
I0
sbsba(ics475_types
Instance
p3782
(dp3783
g11
(ics475_types
FeatureVector
p3784
(dp3785
g14
(dp3786
I1
F122.0
sI2
F123.0
sI3
F9.0
sI6
F0.6111111
sI7
F0.374074
sI8
F0.49999997
sI9
F0.21111104
sI10
F1.1851852
sI12
F3.3333333
sI13
F0.22222222
sI14
F-3.5555556
sI15
F6.4444447
sI16
F-2.8888888
sI17
F3.3333333
sI18
F1.0
sI19
F-2.142674
ssbsg16
g0
(g17
g2
Ntp3787
Rp3788
(dp3789
g21
I0
sbsba(ics475_types
Instance
p3790
(dp3791
g11
(ics475_types
FeatureVector
p3792
(dp3793
g14
(dp3794
I1
F69.0
sI2
F136.0
sI3
F9.0
sI6
F3.1111114
sI7
F2.8100348
sI8
F2.777778
sI9
F3.1669588
sI10
F19.444445
sI11
F16.88889
sI12
F25.777779
sI13
F15.666667
sI14
F-7.6666665
sI15
F19.0
sI16
F-11.333333
sI17
F26.666666
sI18
F0.42529303
sI19
F-1.6157203
ssbsg16
g0
(g17
g2
Ntp3795
Rp3796
(dp3797
g21
I0
sbsba(ics475_types
Instance
p3798
(dp3799
g11
(ics475_types
FeatureVector
p3800
(dp3801
g14
(dp3802
I1
F97.0
sI2
F176.0
sI3
F9.0
sI6
F0.77777797
sI7
F0.6554612
sI8
F2.3888893
sI9
F1.3066785
sI10
F22.185184
sI11
F19.0
sI12
F19.777779
sI13
F27.777779
sI14
F-9.555555
sI15
F-7.2222223
sI16
F16.777779
sI17
F27.777779
sI18
F0.31604066
sI19
F2.1798449
ssbsg16
g0
(g17
g2
Ntp3803
Rp3804
(dp3805
g21
I1
sbsba(ics475_types
Instance
p3806
(dp3807
g11
(ics475_types
FeatureVector
p3808
(dp3809
g14
(dp3810
I1
F94.0
sI2
F144.0
sI3
F9.0
sI6
F0.44444442
sI7
F0.118518494
sI8
F0.49999997
sI9
F0.1666667
sI10
F1.1481482
sI12
F3.4444444
sI14
F-3.4444444
sI15
F6.888889
sI16
F-3.4444444
sI17
F3.4444444
sI18
F1.0
sI19
F-2.0943952
ssbsg16
g0
(g17
g2
Ntp3811
Rp3812
(dp3813
g21
I0
sbsba(ics475_types
Instance
p3814
(dp3815
g11
(ics475_types
FeatureVector
p3816
(dp3817
g14
(dp3818
I1
F108.0
sI2
F212.0
sI3
F9.0
sI6
F1.9999999
sI7
F1.4222214
sI8
F1.5555555
sI9
F1.985185
sI10
F8.037037
sI11
F6.0
sI12
F6.7777777
sI13
F11.333333
sI14
F-6.111111
sI15
F-3.7777777
sI16
F9.888889
sI17
F11.333333
sI18
F0.51339465
sI19
F2.2426493
ssbsg16
g0
(g17
g2
Ntp3819
Rp3820
(dp3821
g21
I1
sbsba(ics475_types
Instance
p3822
(dp3823
g11
(ics475_types
FeatureVector
p3824
(dp3825
g14
(dp3826
I1
F117.0
sI2
F246.0
sI3
F9.0
sI6
F2.277778
sI7
F5.6185174
sI8
F2.6666665
sI9
F5.866666
sI10
F15.444445
sI11
F12.0
sI12
F14.333333
sI13
F20.0
sI14
F-10.333333
sI15
F-3.3333333
sI16
F13.666667
sI17
F20.0
sI18
F0.3959547
sI19
F2.395692
ssbsg16
g0
(g17
g2
Ntp3827
Rp3828
(dp3829
g21
I1
sbsba(ics475_types
Instance
p3830
(dp3831
g11
(ics475_types
FeatureVector
p3832
(dp3833
g14
(dp3834
I1
F107.0
sI2
F226.0
sI3
F9.0
sI6
F1.5555557
sI7
F3.0962965
sI8
F3.5555556
sI9
F2.5629618
sI10
F7.851852
sI11
F5.7777777
sI12
F6.5555553
sI13
F11.222222
sI14
F-6.2222223
sI15
F-3.8888888
sI16
F10.111111
sI17
F11.222222
sI18
F0.5268813
sI19
F2.2593977
ssbsg16
g0
(g17
g2
Ntp3835
Rp3836
(dp3837
g21
I1
sbsba(ics475_types
Instance
p3838
(dp3839
g11
(ics475_types
FeatureVector
p3840
(dp3841
g14
(dp3842
I1
F103.0
sI2
F130.0
sI3
F9.0
sI6
F0.33333334
sI8
F0.27777776
sI9
F0.38968173
sI10
F0.7777778
sI12
F2.3333335
sI14
F-2.3333333
sI15
F4.6666665
sI16
F-2.3333333
sI17
F2.3333335
sI18
F1.0
sI19
F-2.0943952
ssbsg16
g0
(g17
g2
Ntp3843
Rp3844
(dp3845
g21
I0
sbsba(ics475_types
Instance
p3846
(dp3847
g11
(ics475_types
FeatureVector
p3848
(dp3849
g14
(dp3850
I1
F58.0
sI2
F124.0
sI3
F9.0
sI4
F0.11111111
sI6
F1.111111
sI7
F1.140741
sI8
F0.5555556
sI9
F0.47407404
sI10
F1.1481482
sI11
F0.11111111
sI12
F2.7777777
sI13
F0.5555556
sI14
F-3.1111112
sI15
F4.888889
sI16
F-1.7777778
sI17
F2.7777777
sI18
F0.984127
sI19
F-2.1812904
ssbsg16
g0
(g17
g2
Ntp3851
Rp3852
(dp3853
g21
I0
sbsba(ics475_types
Instance
p3854
(dp3855
g11
(ics475_types
FeatureVector
p3856
(dp3857
g14
(dp3858
I1
F230.0
sI2
F180.0
sI3
F9.0
sI4
F0.11111111
sI6
F1.1111112
sI7
F0.5185183
sI8
F1.9444443
sI9
F1.2629623
sI10
F13.851851
sI11
F9.666667
sI12
F13.111111
sI13
F18.777779
sI14
F-12.555555
sI15
F-2.2222223
sI16
F14.777778
sI17
F18.777779
sI18
F0.48688295
sI19
F2.4879174
ssbsg16
g0
(g17
g2
Ntp3859
Rp3860
(dp3861
g21
I1
sbsba(ics475_types
Instance
p3862
(dp3863
g11
(ics475_types
FeatureVector
p3864
(dp3865
g14
(dp3866
I1
F68.0
sI2
F107.0
sI3
F9.0
sI4
F0.11111111
sI6
F1.111111
sI7
F3.1407404
sI8
F1.111111
sI9
F2.5629632
sI10
F1.7777778
sI11
F0.22222222
sI12
F4.5555553
sI13
F0.5555556
sI14
F-4.6666665
sI15
F8.333333
sI16
F-3.6666667
sI17
F4.5555553
sI18
F0.9814815
sI19
F-2.146531
ssbsg16
g0
(g17
g2
Ntp3867
Rp3868
(dp3869
g21
I0
sbsba(ics475_types
Instance
p3870
(dp3871
g11
(ics475_types
FeatureVector
p3872
(dp3873
g14
(dp3874
I1
F90.0
sI2
F116.0
sI3
F9.0
sI6
F1.277778
sI7
F0.85418403
sI8
F1.3333336
sI9
F1.1352925
sI10
F18.74074
sI11
F11.777778
sI12
F29.555555
sI13
F14.888889
sI14
F-20.88889
sI15
F32.444443
sI16
F-11.555555
sI17
F29.555555
sI18
F0.5961039
sI19
F-2.2599666
ssbsg16
g0
(g17
g2
Ntp3875
Rp3876
(dp3877
g21
I0
sbsba(ics475_types
Instance
p3878
(dp3879
g11
(ics475_types
FeatureVector
p3880
(dp3881
g14
(dp3882
I1
F17.0
sI2
F124.0
sI3
F9.0
sI6
F1.1666666
sI7
F0.6111112
sI8
F1.4444445
sI9
F0.7851852
sI10
F1.1481482
sI11
F0.22222222
sI12
F2.6666667
sI13
F0.5555556
sI14
F-2.7777777
sI15
F4.5555553
sI16
F-1.7777778
sI17
F2.6666667
sI18
F0.9537037
sI19
F-2.1692097
ssbsg16
g0
(g17
g2
Ntp3883
Rp3884
(dp3885
g21
I0
sbsba(ics475_types
Instance
p3886
(dp3887
g11
(ics475_types
FeatureVector
p3888
(dp3889
g14
(dp3890
I1
F42.0
sI2
F200.0
sI3
F9.0
sI6
F0.5555555
sI7
F0.4296296
sI8
F0.44444433
sI9
F0.25185174
sI10
F7.703704
sI11
F5.7777777
sI12
F5.888889
sI13
F11.444445
sI14
F-5.7777777
sI15
F-5.4444447
sI16
F11.222222
sI17
F11.444445
sI18
F0.5153199
sI19
F2.10726
ssbsg16
g0
(g17
g2
Ntp3891
Rp3892
(dp3893
g21
I1
sbsba(ics475_types
Instance
p3894
(dp3895
g11
(ics475_types
FeatureVector
p3896
(dp3897
g14
(dp3898
I1
F75.0
sI2
F131.0
sI3
F9.0
sI6
F0.22222222
sI7
F0.029629637
sI8
F0.33333334
sI9
F0.04444442
sI10
F0.5185185
sI12
F1.5555556
sI14
F-1.5555556
sI15
F3.1111112
sI16
F-1.5555556
sI17
F1.5555556
sI18
F1.0
sI19
F-2.0943952
ssbsg16
g0
(g17
g2
Ntp3899
Rp3900
(dp3901
g21
I0
sbsba(ics475_types
Instance
p3902
(dp3903
g11
(ics475_types
FeatureVector
p3904
(dp3905
g14
(dp3906
I1
F145.0
sI2
F152.0
sI3
F9.0
sI6
F0.72222203
sI7
F1.1434193
sI8
F2.7777774
sI9
F1.1088861
sI10
F25.037037
sI11
F19.666668
sI12
F25.777779
sI13
F29.666666
sI14
F-16.11111
sI15
F2.2222223
sI16
F13.888889
sI17
F29.666666
sI18
F0.337989
sI19
F2.7311342
ssbsg16
g0
(g17
g2
Ntp3907
Rp3908
(dp3909
g21
I1
sbsba(ics475_types
Instance
p3910
(dp3911
g11
(ics475_types
FeatureVector
p3912
(dp3913
g14
(dp3914
I1
F99.0
sI2
F132.0
sI3
F9.0
sI6
F0.44444442
sI7
F0.3851853
sI8
F0.5555555
sI9
F0.7851854
sI10
F0.7407407
sI11
F0.11111111
sI12
F2.0
sI13
F0.11111111
sI14
F-1.8888888
sI15
F3.7777777
sI16
F-1.8888888
sI17
F2.0
sI18
F0.9814815
sI19
F-2.0943952
ssbsg16
g0
(g17
g2
Ntp3915
Rp3916
(dp3917
g21
I0
sbsba(ics475_types
Instance
p3918
(dp3919
g11
(ics475_types
FeatureVector
p3920
(dp3921
g14
(dp3922
I1
F206.0
sI2
F233.0
sI3
F9.0
sI6
F1.388889
sI7
F1.5408032
sI8
F1.7222227
sI9
F0.82775885
sI10
F26.814816
sI11
F21.88889
sI12
F25.11111
sI13
F33.444447
sI14
F-14.777778
sI15
F-5.111111
sI16
F19.88889
sI17
F33.444447
sI18
F0.34575516
sI19
F2.3893497
ssbsg16
g0
(g17
g2
Ntp3923
Rp3924
(dp3925
g21
I1
sbsba(ics475_types
Instance
p3926
(dp3927
g11
(ics475_types
FeatureVector
p3928
(dp3929
g14
(dp3930
I1
F23.0
sI2
F219.0
sI3
F9.0
sI6
F1.4999999
sI7
F1.0055401
sI8
F1.7222223
sI9
F0.9289575
sI10
F13.37037
sI11
F10.888889
sI12
F12.0
sI13
F17.222223
sI14
F-7.4444447
sI15
F-4.111111
sI16
F11.555555
sI17
F17.222223
sI18
F0.37191358
sI19
F2.2553325
ssbsg16
g0
(g17
g2
Ntp3931
Rp3932
(dp3933
g21
I1
sbsba(ics475_types
Instance
p3934
(dp3935
g11
(ics475_types
FeatureVector
p3936
(dp3937
g14
(dp3938
I1
F40.0
sI2
F95.0
sI3
F9.0
sI5
F0.11111111
sI6
F1.2777778
sI7
F1.5740741
sI8
F1.6111112
sI9
F1.2185184
sI10
F4.6296296
sI11
F1.0
sI12
F9.222222
sI13
F3.6666667
sI14
F-10.888889
sI15
F13.777778
sI16
F-2.8888888
sI17
F9.222222
sI18
F0.90709877
sI19
F-2.4294486
ssbsg16
g0
(g17
g2
Ntp3939
Rp3940
(dp3941
g21
I0
sbsba(ics475_types
Instance
p3942
(dp3943
g11
(ics475_types
FeatureVector
p3944
(dp3945
g14
(dp3946
I1
F37.0
sI2
F103.0
sI3
F9.0
sI6
F1.7777777
sI7
F2.1256804
sI8
F2.9444447
sI9
F3.421609
sI10
F3.851852
sI11
F1.8888888
sI12
F6.2222223
sI13
F3.4444444
sI14
F-5.888889
sI15
F7.111111
sI16
F-1.2222222
sI17
F6.2222223
sI18
F0.79907405
sI19
F-2.497929
ssbsg16
g0
(g17
g2
Ntp3947
Rp3948
(dp3949
g21
I0
sbsba(ics475_types
Instance
p3950
(dp3951
g11
(ics475_types
FeatureVector
p3952
(dp3953
g14
(dp3954
I1
F14.0
sI2
F90.0
sI3
F9.0
sI4
F0.11111111
sI6
F2.9444447
sI7
F2.435083
sI8
F3.3333333
sI9
F3.211092
sI10
F5.0
sI11
F2.5555556
sI12
F7.3333335
sI13
F5.111111
sI14
F-7.3333335
sI15
F7.0
sI16
F0.33333334
sI17
F7.3333335
sI18
F0.7252886
sI19
F-2.6393893
ssbsg16
g0
(g17
g2
Ntp3955
Rp3956
(dp3957
g21
I0
sbsba(ics475_types
Instance
p3958
(dp3959
g11
(ics475_types
FeatureVector
p3960
(dp3961
g14
(dp3962
I1
F48.0
sI2
F83.0
sI3
F9.0
sI6
F2.277778
sI7
F4.0185175
sI8
F2.3333333
sI9
F1.6888885
sI10
F6.259259
sI11
F2.2222223
sI12
F11.888889
sI13
F4.666667
sI14
F-12.111111
sI15
F16.88889
sI16
F-4.7777777
sI17
F11.888889
sI18
F0.82735026
sI19
F-2.3450046
ssbsg16
g0
(g17
g2
Ntp3963
Rp3964
(dp3965
g21
I0
sbsba(ics475_types
Instance
p3966
(dp3967
g11
(ics475_types
FeatureVector
p3968
(dp3969
g14
(dp3970
I1
F55.0
sI2
F80.0
sI3
F9.0
sI4
F0.11111111
sI6
F1.833333
sI7
F4.3
sI8
F1.8333334
sI9
F1.0999995
sI10
F7.0740743
sI11
F2.8888888
sI12
F12.444445
sI13
F5.888889
sI14
F-12.555555
sI15
F16.11111
sI16
F-3.5555556
sI17
F12.444445
sI18
F0.77528197
sI19
F-2.4175172
ssbsg16
g0
(g17
g2
Ntp3971
Rp3972
(dp3973
g21
I0
sbsba(ics475_types
Instance
p3974
(dp3975
g11
(ics475_types
FeatureVector
p3976
(dp3977
g14
(dp3978
I1
F164.0
sI2
F178.0
sI3
F9.0
sI4
F0.22222222
sI6
F1.3888887
sI7
F0.86296487
sI8
F2.5000002
sI9
F1.4555563
sI10
F23.814816
sI11
F20.222221
sI12
F21.11111
sI13
F30.11111
sI14
F-10.777778
sI15
F-8.111111
sI16
F18.88889
sI17
F30.11111
sI18
F0.32921228
sI19
F2.1903052
ssbsg16
g0
(g17
g2
Ntp3979
Rp3980
(dp3981
g21
I1
sbsba(ics475_types
Instance
p3982
(dp3983
g11
(ics475_types
FeatureVector
p3984
(dp3985
g14
(dp3986
I1
F138.0
sI2
F203.0
sI3
F9.0
sI6
F1.666667
sI7
F1.6465453
sI8
F2.2777781
sI9
F1.8787308
sI10
F11.259259
sI11
F8.777778
sI12
F8.111112
sI13
F16.88889
sI14
F-7.4444447
sI15
F-9.444445
sI16
F16.88889
sI17
F16.88889
sI18
F0.53894526
sI19
F2.019747
ssbsg16
g0
(g17
g2
Ntp3987
Rp3988
(dp3989
g21
I1
sbsba(ics475_types
Instance
p3990
(dp3991
g11
(ics475_types
FeatureVector
p3992
(dp3993
g14
(dp3994
I1
F47.0
sI2
F215.0
sI3
F9.0
sI6
F3.1111114
sI7
F1.7847089
sI8
F3.3888893
sI9
F2.4075494
sI10
F17.185184
sI11
F14.444445
sI12
F15.666667
sI13
F21.444445
sI14
F-8.222222
sI15
F-4.5555553
sI16
F12.777778
sI17
F21.444445
sI18
F0.34176603
sI19
F2.2660944
ssbsg16
g0
(g17
g2
Ntp3995
Rp3996
(dp3997
g21
I1
sbsba(ics475_types
Instance
p3998
(dp3999
g11
(ics475_types
FeatureVector
p4000
(dp4001
g14
(dp4002
I1
F33.0
sI2
F132.0
sI3
F9.0
sI4
F0.11111111
sI6
F1.0555555
sI7
F0.99814653
sI8
F1.7222222
sI9
F0.99814636
sI10
F1.962963
sI11
F0.6666667
sI12
F4.2222223
sI13
F1.0
sI14
F-3.8888888
sI15
F6.7777777
sI16
F-2.8888888
sI17
F4.2222223
sI18
F0.6768879
sI19
F-2.1524317
ssbsg16
g0
(g17
g2
Ntp4003
Rp4004
(dp4005
g21
I0
sbsba(ics475_types
Instance
p4006
(dp4007
g11
(ics475_types
FeatureVector
p4008
(dp4009
g14
(dp4010
I1
F233.0
sI2
F211.0
sI3
F9.0
sI4
F0.11111111
sI6
F2.6666667
sI7
F6.0888896
sI8
F1.6666666
sI9
F1.7333333
sI10
F15.444445
sI11
F12.444445
sI12
F15.222222
sI13
F18.666668
sI14
F-9.0
sI15
F-0.6666667
sI16
F9.666667
sI17
F18.666668
sI18
F0.33542147
sI19
F2.5549645
ssbsg16
g0
(g17
g2
Ntp4011
Rp4012
(dp4013
g21
I1
sbsbasS'is_weighted'
p4014
I00
sS'all_features'
p4015
(lp4016
I1
aI2
aI3
aI6
aI7
aI8
aI9
aI10
aI11
aI12
aI13
aI14
aI15
aI16
aI17
aI18
aI19
aI4
aI5
asb.