ccopy_reg
_reconstructor
p0
(cpredictor_subclasses
MarginPerceptron
p1
c__builtin__
object
p2
Ntp3
Rp4
(dp5
S'learning_rate'
p6
F1.0
sS'w'
p7
(dp8
I1
F6.0
sI2
F36.0
sI3
F-513.0
sI4
F-2.7755575615628914e-17
sI5
F0.6666666600000001
sI6
F-100.72222913000006
sI7
F-231.042124738
sI8
F-69.94445462000004
sI9
F-383.82577402700014
sI10
F284.2592554999998
sI11
F378.11111170999993
sI12
F-164.33332884999996
sI13
F639.0000111700001
sI14
F281.55555944999986
sI15
F-1345.7777778200004
sI16
F1064.2222214100004
sI17
F149.33335274999996
sI18
F-72.35023195000005
sI19
F393.3185411000002
ssS'iterations'
p9
I5
sb.